
riscv_arithmetic_basic_test_0.o:     file format elf64-littleriscv


Disassembly of section .text:

0000000080000000 <_start>:
    80000000:	f14022f3          	csrr	t0,mhartid
    80000004:	4301                	li	t1,0
    80000006:	00628263          	beq	t0,t1,8000000a <_start+0xa>
    8000000a:	00000897          	auipc	a7,0x0
    8000000e:	00c88893          	addi	a7,a7,12 # 80000016 <h0_start>
    80000012:	00088067          	jr	a7

0000000080000016 <h0_start>:
    80000016:	fff0021b          	addiw	tp,zero,-1
    8000001a:	124e                	slli	tp,tp,0x33
    8000001c:	0205                	addi	tp,tp,1 # 1 <_start-0x7fffffff>
    8000001e:	0232                	slli	tp,tp,0xc
    80000020:	10420213          	addi	tp,tp,260 # 104 <_start-0x7ffffefc>
    80000024:	30121073          	csrw	misa,tp

0000000080000028 <kernel_sp>:
    80000028:	0002d297          	auipc	t0,0x2d
    8000002c:	95828293          	addi	t0,t0,-1704 # 8002c980 <kernel_stack_end>

0000000080000030 <trap_vec_init>:
    80000030:	0000a217          	auipc	tp,0xa
    80000034:	93c20213          	addi	tp,tp,-1732 # 8000996c <mtvec_handler>
    80000038:	00026213          	ori	tp,tp,0
    8000003c:	30521073          	csrw	mtvec,tp

0000000080000040 <mepc_setup>:
    80000040:	00000217          	auipc	tp,0x0
    80000044:	02220213          	addi	tp,tp,34 # 80000062 <init>
    80000048:	34121073          	csrw	mepc,tp

000000008000004c <custom_csr_setup>:
    8000004c:	0001                	nop

000000008000004e <init_machine_mode>:
    8000004e:	6209                	lui	tp,0x2
    80000050:	8002021b          	addiw	tp,tp,-2048 # 1800 <_start-0x7fffe800>
    80000054:	30021073          	csrw	mstatus,tp
    80000058:	4201                	li	tp,0
    8000005a:	30421073          	csrw	mie,tp
    8000005e:	30200073          	mret

0000000080000062 <init>:
    80000062:	0007d037          	lui	zero,0x7d
    80000066:	c810001b          	addiw	zero,zero,-895
    8000006a:	00d01013          	slli	zero,zero,0xd
    8000006e:	ad000013          	li	zero,-1328
    80000072:	40a9                	li	ra,10
    80000074:	4109                	li	sp,2
    80000076:	000df1b7          	lui	gp,0xdf
    8000007a:	06d1819b          	addiw	gp,gp,109 # df06d <_start-0x7ff20f93>
    8000007e:	01b2                	slli	gp,gp,0xc
    80000080:	41318193          	addi	gp,gp,1043
    80000084:	0010021b          	addiw	tp,zero,1
    80000088:	027e                	slli	tp,tp,0x1f
    8000008a:	433d                	li	t1,15
    8000008c:	0010039b          	addiw	t2,zero,1
    80000090:	03fe                	slli	t2,t2,0x1f
    80000092:	4401                	li	s0,0
    80000094:	0010049b          	addiw	s1,zero,1
    80000098:	04fe                	slli	s1,s1,0x1f
    8000009a:	0010051b          	addiw	a0,zero,1
    8000009e:	057e                	slli	a0,a0,0x1f
    800000a0:	0010059b          	addiw	a1,zero,1
    800000a4:	05fe                	slli	a1,a1,0x1f
    800000a6:	0010061b          	addiw	a2,zero,1
    800000aa:	067e                	slli	a2,a2,0x1f
    800000ac:	4685                	li	a3,1
    800000ae:	0010071b          	addiw	a4,zero,1
    800000b2:	077e                	slli	a4,a4,0x1f
    800000b4:	0010079b          	addiw	a5,zero,1
    800000b8:	07fe                	slli	a5,a5,0x1f
    800000ba:	0007d837          	lui	a6,0x7d
    800000be:	8678081b          	addiw	a6,a6,-1945 # 7c867 <_start-0x7ff83799>
    800000c2:	0836                	slli	a6,a6,0xd
    800000c4:	21280813          	addi	a6,a6,530
    800000c8:	000808b7          	lui	a7,0x80
    800000cc:	f858889b          	addiw	a7,a7,-123 # 7ff85 <_start-0x7ff8007b>
    800000d0:	08b6                	slli	a7,a7,0xd
    800000d2:	1fb88893          	addi	a7,a7,507
    800000d6:	000d0937          	lui	s2,0xd0
    800000da:	c799091b          	addiw	s2,s2,-903 # cfc79 <_start-0x7ff30387>
    800000de:	0932                	slli	s2,s2,0xc
    800000e0:	f9b90913          	addi	s2,s2,-101
    800000e4:	000fe9b7          	lui	s3,0xfe
    800000e8:	73d9899b          	addiw	s3,s3,1853 # fe73d <_start-0x7ff018c3>
    800000ec:	09b2                	slli	s3,s3,0xc
    800000ee:	5bf98993          	addi	s3,s3,1471
    800000f2:	00100a1b          	addiw	s4,zero,1
    800000f6:	0a7e                	slli	s4,s4,0x1f
    800000f8:	4a81                	li	s5,0
    800000fa:	4b2d                	li	s6,11
    800000fc:	4b89                	li	s7,2
    800000fe:	4c25                	li	s8,9
    80000100:	4cb5                	li	s9,13
    80000102:	00100d9b          	addiw	s11,zero,1
    80000106:	0dfe                	slli	s11,s11,0x1f
    80000108:	4e01                	li	t3,0
    8000010a:	00078eb7          	lui	t4,0x78
    8000010e:	63de8e9b          	addiw	t4,t4,1597 # 7863d <_start-0x7ff879c3>
    80000112:	0eb6                	slli	t4,t4,0xd
    80000114:	af0e8e93          	addi	t4,t4,-1296
    80000118:	4f01                	li	t5,0
    8000011a:	00100f9b          	addiw	t6,zero,1
    8000011e:	0ffe                	slli	t6,t6,0x1f
    80000120:	00025d17          	auipc	s10,0x25
    80000124:	b60d0d13          	addi	s10,s10,-1184 # 80024c80 <user_stack_end>

0000000080000128 <main>:
    80000128:	04200eef          	jal	t4,8000016a <main+0x42>
    8000012c:	014000ef          	jal	80000140 <main+0x18>
    80000130:	04a000ef          	jal	8000017a <main+0x52>
    80000134:	a005                	j	80000154 <main+0x2c>
    80000136:	036000ef          	jal	8000016c <main+0x44>
    8000013a:	a03d                	j	80000168 <main+0x40>
    8000013c:	fffff0ef          	jal	8000013a <main+0x12>
    80000140:	016000ef          	jal	80000156 <main+0x2e>
    80000144:	ff9ff0ef          	jal	8000013c <main+0x14>
    80000148:	a021                	j	80000150 <main+0x28>
    8000014a:	010000ef          	jal	8000015a <main+0x32>
    8000014e:	a809                	j	80000160 <main+0x38>
    80000150:	ffbff0ef          	jal	8000014a <main+0x22>
    80000154:	a011                	j	80000158 <main+0x30>
    80000156:	a831                	j	80000172 <main+0x4a>
    80000158:	a839                	j	80000176 <main+0x4e>
    8000015a:	fd3ff0ef          	jal	8000012c <main+0x4>
    8000015e:	a801                	j	8000016e <main+0x46>
    80000160:	b7e5                	j	80000148 <main+0x20>
    80000162:	004000ef          	jal	80000166 <main+0x3e>
    80000166:	bfc1                	j	80000136 <main+0xe>
    80000168:	bfed                	j	80000162 <main+0x3a>
    8000016a:	bfe9                	j	80000144 <main+0x1c>
    8000016c:	bfcd                	j	8000015e <main+0x36>
    8000016e:	fe1ff0ef          	jal	8000014e <main+0x26>
    80000172:	fc3ff0ef          	jal	80000134 <main+0xc>
    80000176:	fbbff0ef          	jal	80000130 <main+0x8>
    8000017a:	01b55bbb          	srlw	s7,a0,s11
    8000017e:	54f5                	li	s1,-3
    80000180:	edf82113          	slti	sp,a6,-289
    80000184:	03eeca33          	div	s4,t4,t5
    80000188:	28d0f213          	andi	tp,ra,653
    8000018c:	8279                	srli	a2,a2,0x1e
    8000018e:	498d                	li	s3,3
    80000190:	417dd5b3          	sra	a1,s11,s7
    80000194:	e3314393          	xori	t2,sp,-461

0000000080000198 <main_76_0_t>:
    80000198:	8c21                	xor	s0,s0,s0
    8000019a:	02fffe33          	remu	t3,t6,a5
    8000019e:	5be3ea93          	ori	s5,t2,1470
    800001a2:	6aad                	lui	s5,0xb
    800001a4:	0499                	addi	s1,s1,6
    800001a6:	417dd5b3          	sra	a1,s11,s7
    800001aa:	ff34c7e3          	blt	s1,s3,80000198 <main_76_0_t>
    800001ae:	02fffe33          	remu	t3,t6,a5

00000000800001b2 <main_4>:
    800001b2:	01000eef          	jal	t4,800001c2 <main_4+0x10>
    800001b6:	018000ef          	jal	800001ce <main_4+0x1c>
    800001ba:	a829                	j	800001d4 <main_4+0x22>
    800001bc:	bfed                	j	800001b6 <main_4+0x4>
    800001be:	bffd                	j	800001bc <main_4+0xa>
    800001c0:	bffd                	j	800001be <main_4+0xc>
    800001c2:	a811                	j	800001d6 <main_4+0x24>
    800001c4:	014000ef          	jal	800001d8 <main_4+0x26>
    800001c8:	ff9ff0ef          	jal	800001c0 <main_4+0xe>
    800001cc:	a005                	j	800001ec <main_4+0x3a>
    800001ce:	a011                	j	800001d2 <main_4+0x20>
    800001d0:	a819                	j	800001e6 <main_4+0x34>
    800001d2:	b7e5                	j	800001ba <main_4+0x8>
    800001d4:	a005                	j	800001f4 <main_4+0x42>
    800001d6:	a021                	j	800001de <main_4+0x2c>
    800001d8:	a029                	j	800001e2 <main_4+0x30>
    800001da:	ff7ff0ef          	jal	800001d0 <main_4+0x1e>
    800001de:	006000ef          	jal	800001e4 <main_4+0x32>
    800001e2:	a021                	j	800001ea <main_4+0x38>
    800001e4:	b7c5                	j	800001c4 <main_4+0x12>
    800001e6:	00a000ef          	jal	800001f0 <main_4+0x3e>
    800001ea:	b7cd                	j	800001cc <main_4+0x1a>
    800001ec:	fefff0ef          	jal	800001da <main_4+0x28>
    800001f0:	fd9ff0ef          	jal	800001c8 <main_4+0x16>
    800001f4:	8a3a                	mv	s4,a4
    800001f6:	439d                	li	t2,7
    800001f8:	4f85                	li	t6,1

00000000800001fa <main_73_0_t>:
    800001fa:	02a9873b          	mulw	a4,s3,a0
    800001fe:	13fd                	addi	t2,t2,-1
    80000200:	fff3dde3          	bge	t2,t6,800001fa <main_73_0_t>
    80000204:	000b569b          	srliw	a3,s6,0x0
    80000208:	4495                	li	s1,5
    8000020a:	86d9                	srai	a3,a3,0x16
    8000020c:	0001                	nop
    8000020e:	40dc8a3b          	subw	s4,s9,a3
    80000212:	00d3173b          	sllw	a4,t1,a3
    80000216:	86d9                	srai	a3,a3,0x16
    80000218:	018a5213          	srli	tp,s4,0x18
    8000021c:	03272133          	mulhsu	sp,a4,s2
    80000220:	4368d313          	srai	t1,a7,0x36
    80000224:	02a9873b          	mulw	a4,s3,a0
    80000228:	40dc8a3b          	subw	s4,s9,a3
    8000022c:	0091de33          	srl	t3,gp,s1
    80000230:	41bb519b          	sraiw	gp,s6,0x1b
    80000234:	4f51                	li	t5,20
    80000236:	6a2d                	lui	s4,0xb

0000000080000238 <main_51_0_t>:
    80000238:	023830b3          	mulhu	ra,a6,gp
    8000023c:	e3314393          	xori	t2,sp,-461
    80000240:	0001                	nop
    80000242:	8fa1                	xor	a5,a5,s0
    80000244:	0489                	addi	s1,s1,2
    80000246:	41205fbb          	sraw	t6,zero,s2
    8000024a:	000b569b          	srliw	a3,s6,0x0
    8000024e:	0590                	addi	a2,sp,704
    80000250:	397d                	addiw	s2,s2,-1
    80000252:	0091de33          	srl	t3,gp,s1
    80000256:	ffe4e1e3          	bltu	s1,t5,80000238 <main_51_0_t>
    8000025a:	0a6c4417          	auipc	s0,0xa6c4

000000008000025e <main_7>:
    8000025e:	01800eef          	jal	t4,80000276 <main_7+0x18>
    80000262:	a009                	j	80000264 <main_7+0x6>
    80000264:	a801                	j	80000274 <main_7+0x16>
    80000266:	a809                	j	80000278 <main_7+0x1a>
    80000268:	008000ef          	jal	80000270 <main_7+0x12>
    8000026c:	bff5                	j	80000268 <main_7+0xa>
    8000026e:	bfe5                	j	80000266 <main_7+0x8>
    80000270:	a009                	j	80000272 <main_7+0x14>
    80000272:	bff5                	j	8000026e <main_7+0x10>
    80000274:	bfe5                	j	8000026c <main_7+0xe>
    80000276:	b7f5                	j	80000262 <main_7+0x4>
    80000278:	02fffcb3          	remu	s9,t6,a5
    8000027c:	45a9                	li	a1,10
    8000027e:	01ca4133          	xor	sp,s4,t3
    80000282:	8c79                	and	s0,s0,a4
    80000284:	03272133          	mulhsu	sp,a4,s2
    80000288:	5bf5                	li	s7,-3

000000008000028a <main_68_1_t>:
    8000028a:	577d                	li	a4,-1
    8000028c:	15dd                	addi	a1,a1,-9
    8000028e:	9c81                	subw	s1,s1,s0
    80000290:	0001                	nop
    80000292:	4791                	li	a5,4
    80000294:	9e39                	addw	a2,a2,a4
    80000296:	4829                	li	a6,10

0000000080000298 <main_68_0_t>:
    80000298:	8c21                	xor	s0,s0,s0
    8000029a:	0795                	addi	a5,a5,5
    8000029c:	ff07eee3          	bltu	a5,a6,80000298 <main_68_0_t>
    800002a0:	9c81                	subw	s1,s1,s0
    800002a2:	ff75d4e3          	bge	a1,s7,8000028a <main_68_1_t>
    800002a6:	01e203b3          	add	t2,tp,t5

00000000800002aa <main_39>:
    800002aa:	01000eef          	jal	t4,800002ba <main_39+0x10>
    800002ae:	a03d                	j	800002dc <main_39+0x32>
    800002b0:	036000ef          	jal	800002e6 <main_39+0x3c>
    800002b4:	a089                	j	800002f6 <main_39+0x4c>
    800002b6:	a839                	j	800002d4 <main_39+0x2a>
    800002b8:	a801                	j	800002c8 <main_39+0x1e>
    800002ba:	036000ef          	jal	800002f0 <main_39+0x46>
    800002be:	a829                	j	800002d8 <main_39+0x2e>
    800002c0:	a819                	j	800002d6 <main_39+0x2c>
    800002c2:	028000ef          	jal	800002ea <main_39+0x40>
    800002c6:	a831                	j	800002e2 <main_39+0x38>
    800002c8:	034000ef          	jal	800002fc <main_39+0x52>
    800002cc:	fe3ff0ef          	jal	800002ae <main_39+0x4>
    800002d0:	02a000ef          	jal	800002fa <main_39+0x50>
    800002d4:	a035                	j	80000300 <main_39+0x56>
    800002d6:	bfe9                	j	800002b0 <main_39+0x6>
    800002d8:	026000ef          	jal	800002fe <main_39+0x54>
    800002dc:	bfe9                	j	800002b6 <main_39+0xc>
    800002de:	fd7ff0ef          	jal	800002b4 <main_39+0xa>
    800002e2:	ffdff0ef          	jal	800002de <main_39+0x34>
    800002e6:	00c000ef          	jal	800002f2 <main_39+0x48>
    800002ea:	fe7ff0ef          	jal	800002d0 <main_39+0x26>
    800002ee:	bfd1                	j	800002c2 <main_39+0x18>
    800002f0:	bfc1                	j	800002c0 <main_39+0x16>
    800002f2:	fd5ff0ef          	jal	800002c6 <main_39+0x1c>
    800002f6:	fc9ff0ef          	jal	800002be <main_39+0x14>
    800002fa:	bf7d                	j	800002b8 <main_39+0xe>
    800002fc:	bfc1                	j	800002cc <main_39+0x22>
    800002fe:	bfc5                	j	800002ee <main_39+0x44>
    80000300:	0cc1881b          	addiw	a6,gp,204
    80000304:	47a9                	li	a5,10
    80000306:	41660233          	sub	tp,a2,s6
    8000030a:	018a5213          	srli	tp,s4,0x18
    8000030e:	018a5213          	srli	tp,s4,0x18
    80000312:	00d3173b          	sllw	a4,t1,a3
    80000316:	02fffe33          	remu	t3,t6,a5
    8000031a:	4485                	li	s1,1
    8000031c:	4368d313          	srai	t1,a7,0x36

0000000080000320 <main_72_0_t>:
    80000320:	023830b3          	mulhu	ra,a6,gp
    80000324:	41660233          	sub	tp,a2,s6
    80000328:	0cc1899b          	addiw	s3,gp,204
    8000032c:	17dd                	addi	a5,a5,-9
    8000032e:	03eeca33          	div	s4,t4,t5
    80000332:	fe9797e3          	bne	a5,s1,80000320 <main_72_0_t>
    80000336:	8c79                	and	s0,s0,a4

0000000080000338 <main_14>:
    80000338:	02200eef          	jal	t4,8000035a <main_14+0x22>
    8000033c:	a01d                	j	80000362 <main_14+0x2a>
    8000033e:	010000ef          	jal	8000034e <main_14+0x16>
    80000342:	bfed                	j	8000033c <main_14+0x4>
    80000344:	ffbff0ef          	jal	8000033e <main_14+0x6>
    80000348:	01c000ef          	jal	80000364 <main_14+0x2c>
    8000034c:	a839                	j	8000036a <main_14+0x32>
    8000034e:	008000ef          	jal	80000356 <main_14+0x1e>
    80000352:	a811                	j	80000366 <main_14+0x2e>
    80000354:	bfe5                	j	8000034c <main_14+0x14>
    80000356:	ffdff0ef          	jal	80000352 <main_14+0x1a>
    8000035a:	fefff0ef          	jal	80000348 <main_14+0x10>
    8000035e:	ff7ff0ef          	jal	80000354 <main_14+0x1c>
    80000362:	bff5                	j	8000035e <main_14+0x26>
    80000364:	b7c5                	j	80000344 <main_14+0xc>
    80000366:	fddff0ef          	jal	80000342 <main_14+0xa>
    8000036a:	03eec933          	div	s2,t4,t5

000000008000036e <main_8>:
    8000036e:	01400eef          	jal	t4,80000382 <main_8+0x14>
    80000372:	a039                	j	80000380 <main_8+0x12>
    80000374:	a811                	j	80000388 <main_8+0x1a>
    80000376:	bffd                	j	80000374 <main_8+0x6>
    80000378:	a821                	j	80000390 <main_8+0x22>
    8000037a:	a031                	j	80000386 <main_8+0x18>
    8000037c:	fffff0ef          	jal	8000037a <main_8+0xc>
    80000380:	a029                	j	8000038a <main_8+0x1c>
    80000382:	ff5ff0ef          	jal	80000376 <main_8+0x8>
    80000386:	bfcd                	j	80000378 <main_8+0xa>
    80000388:	b7ed                	j	80000372 <main_8+0x4>
    8000038a:	004000ef          	jal	8000038e <main_8+0x20>
    8000038e:	b7fd                	j	8000037c <main_8+0xe>
    80000390:	01b55bbb          	srlw	s7,a0,s11
    80000394:	4401                	li	s0,0
    80000396:	4f85                	li	t6,1

0000000080000398 <main_71_1_t>:
    80000398:	09730c13          	addi	s8,t1,151
    8000039c:	0409                	addi	s0,s0,2 # 8a6c425c <_end+0xa6978d4>
    8000039e:	0729                	addi	a4,a4,10
    800003a0:	57d9                	li	a5,-10
    800003a2:	0001                	nop

00000000800003a4 <main_71_0_t>:
    800003a4:	02deef3b          	remw	t5,t4,a3
    800003a8:	8ad9                	andi	a3,a3,22
    800003aa:	07a9                	addi	a5,a5,10
    800003ac:	dfe5                	beqz	a5,800003a4 <main_71_0_t>
    800003ae:	fff445e3          	blt	s0,t6,80000398 <main_71_1_t>
    800003b2:	84627cb7          	lui	s9,0x84627

00000000800003b6 <main_28>:
    800003b6:	00a00eef          	jal	t4,800003c0 <main_28+0xa>
    800003ba:	a809                	j	800003cc <main_28+0x16>
    800003bc:	fffff0ef          	jal	800003ba <main_28+0x4>
    800003c0:	bff5                	j	800003bc <main_28+0x6>
    800003c2:	a021                	j	800003ca <main_28+0x14>
    800003c4:	a009                	j	800003c6 <main_28+0x10>
    800003c6:	bff5                	j	800003c2 <main_28+0xc>
    800003c8:	a029                	j	800003d2 <main_28+0x1c>
    800003ca:	a011                	j	800003ce <main_28+0x18>
    800003cc:	bff5                	j	800003c8 <main_28+0x12>
    800003ce:	006000ef          	jal	800003d4 <main_28+0x1e>
    800003d2:	bfcd                	j	800003c4 <main_28+0xe>
    800003d4:	86d9                	srai	a3,a3,0x16
    800003d6:	4415                	li	s0,5
    800003d8:	0001                	nop
    800003da:	717d                	addi	sp,sp,-16
    800003dc:	09730b93          	addi	s7,t1,151
    800003e0:	00072633          	sltz	a2,a4
    800003e4:	e3314393          	xori	t2,sp,-461
    800003e8:	4921                	li	s2,8
    800003ea:	417dd5b3          	sra	a1,s11,s7
    800003ee:	01b55cbb          	srlw	s9,a0,s11

00000000800003f2 <main_62_0_t>:
    800003f2:	84627c37          	lui	s8,0x84627
    800003f6:	01ca4133          	xor	sp,s4,t3
    800003fa:	00249633          	sll	a2,s1,sp
    800003fe:	023830b3          	mulhu	ra,a6,gp
    80000402:	0429                	addi	s0,s0,10
    80000404:	0001                	nop
    80000406:	86d9                	srai	a3,a3,0x16
    80000408:	00249633          	sll	a2,s1,sp
    8000040c:	00d3173b          	sllw	a4,t1,a3
    80000410:	0008083b          	addw	a6,a6,zero
    80000414:	e3314393          	xori	t2,sp,-461
    80000418:	8959                	andi	a0,a0,22
    8000041a:	fd244ce3          	blt	s0,s2,800003f2 <main_62_0_t>
    8000041e:	02a9873b          	mulw	a4,s3,a0
    80000422:	408d                	li	ra,3
    80000424:	5175                	li	sp,-3
    80000426:	81f9                	srli	a1,a1,0x1e

0000000080000428 <main_66_1_t>:
    80000428:	05a9                	addi	a1,a1,10
    8000042a:	0091dfb3          	srl	t6,gp,s1
    8000042e:	10f5                	addi	ra,ra,-3
    80000430:	4721                	li	a4,8
    80000432:	0001                	nop
    80000434:	28d0f413          	andi	s0,ra,653
    80000438:	8659                	srai	a2,a2,0x16

000000008000043a <main_66_0_t>:
    8000043a:	5be3eb93          	ori	s7,t2,1470
    8000043e:	177d                	addi	a4,a4,-1
    80000440:	ff6d                	bnez	a4,8000043a <main_66_0_t>
    80000442:	fe2083e3          	beq	ra,sp,80000428 <main_66_1_t>
    80000446:	0091dfb3          	srl	t6,gp,s1

000000008000044a <main_27>:
    8000044a:	00c00eef          	jal	t4,80000456 <main_27+0xc>
    8000044e:	a0a1                	j	80000496 <main_27+0x4c>
    80000450:	004000ef          	jal	80000454 <main_27+0xa>
    80000454:	a01d                	j	8000047a <main_27+0x30>
    80000456:	a03d                	j	80000484 <main_27+0x3a>
    80000458:	a091                	j	8000049c <main_27+0x52>
    8000045a:	016000ef          	jal	80000470 <main_27+0x26>
    8000045e:	a035                	j	8000048a <main_27+0x40>
    80000460:	a029                	j	8000046a <main_27+0x20>
    80000462:	036000ef          	jal	80000498 <main_27+0x4e>
    80000466:	038000ef          	jal	8000049e <main_27+0x54>
    8000046a:	01c000ef          	jal	80000486 <main_27+0x3c>
    8000046e:	a021                	j	80000476 <main_27+0x2c>
    80000470:	a005                	j	80000490 <main_27+0x46>
    80000472:	fedff0ef          	jal	8000045e <main_27+0x14>
    80000476:	00a000ef          	jal	80000480 <main_27+0x36>
    8000047a:	b7dd                	j	80000460 <main_27+0x16>
    8000047c:	ff7ff0ef          	jal	80000472 <main_27+0x28>
    80000480:	00e000ef          	jal	8000048e <main_27+0x44>
    80000484:	bfe5                	j	8000047c <main_27+0x32>
    80000486:	fd3ff0ef          	jal	80000458 <main_27+0xe>
    8000048a:	fc5ff0ef          	jal	8000044e <main_27+0x4>
    8000048e:	bfe1                	j	80000466 <main_27+0x1c>
    80000490:	bff9                	j	8000046e <main_27+0x24>
    80000492:	fc9ff0ef          	jal	8000045a <main_27+0x10>
    80000496:	b7f1                	j	80000462 <main_27+0x18>
    80000498:	fb9ff0ef          	jal	80000450 <main_27+0x6>
    8000049c:	bfdd                	j	80000492 <main_27+0x48>
    8000049e:	02a986bb          	mulw	a3,s3,a0
    800004a2:	4695                	li	a3,5
    800004a4:	0001                	nop
    800004a6:	5761                	li	a4,-8

00000000800004a8 <main_54_1_t>:
    800004a8:	5be3eb13          	ori	s6,t2,1470
    800004ac:	8d21                	xor	a0,a0,s0
    800004ae:	0a6c4417          	auipc	s0,0xa6c4
    800004b2:	39fd                	addiw	s3,s3,-1
    800004b4:	417dd533          	sra	a0,s11,s7
    800004b8:	16e5                	addi	a3,a3,-7
    800004ba:	4a25                	li	s4,9
    800004bc:	0cc1899b          	addiw	s3,gp,204
    800004c0:	4f0d                	li	t5,3
    800004c2:	9bfe                	add	s7,s7,t6
    800004c4:	0a6c4417          	auipc	s0,0xa6c4

00000000800004c8 <main_54_0_t>:
    800004c8:	03498233          	mul	tp,s3,s4
    800004cc:	1a69                	addi	s4,s4,-6 # affa <_start-0x7fff5006>
    800004ce:	02b2de33          	divu	t3,t0,a1
    800004d2:	87d9                	srai	a5,a5,0x16
    800004d4:	02b2de33          	divu	t3,t0,a1
    800004d8:	ffea58e3          	bge	s4,t5,800004c8 <main_54_0_t>
    800004dc:	e3314393          	xori	t2,sp,-461
    800004e0:	fce6d4e3          	bge	a3,a4,800004a8 <main_54_1_t>
    800004e4:	03498233          	mul	tp,s3,s4
    800004e8:	54e9                	li	s1,-6
    800004ea:	0001                	nop
    800004ec:	8959                	andi	a0,a0,22
    800004ee:	41660233          	sub	tp,a2,s6
    800004f2:	01ca4133          	xor	sp,s4,t3
    800004f6:	edf82113          	slti	sp,a6,-289
    800004fa:	01ca4133          	xor	sp,s4,t3
    800004fe:	edf82113          	slti	sp,a6,-289
    80000502:	41660233          	sub	tp,a2,s6
    80000506:	01ca4133          	xor	sp,s4,t3
    8000050a:	5cd9                	li	s9,-10
    8000050c:	28d0f213          	andi	tp,ra,653

0000000080000510 <main_44_0_t>:
    80000510:	8ec9                	or	a3,a3,a0
    80000512:	02a9873b          	mulw	a4,s3,a0
    80000516:	0001                	nop
    80000518:	03d44bbb          	divw	s7,s0,t4
    8000051c:	03d44bbb          	divw	s7,s0,t4
    80000520:	023830b3          	mulhu	ra,a6,gp
    80000524:	417dd5b3          	sra	a1,s11,s7
    80000528:	8c79                	and	s0,s0,a4
    8000052a:	03f767b3          	rem	a5,a4,t6
    8000052e:	8c79                	and	s0,s0,a4
    80000530:	14f9                	addi	s1,s1,-2
    80000532:	02061933          	mulh	s2,a2,zero
    80000536:	0008083b          	addw	a6,a6,zero
    8000053a:	4368d313          	srai	t1,a7,0x36
    8000053e:	fd9489e3          	beq	s1,s9,80000510 <main_44_0_t>
    80000542:	00072633          	sltz	a2,a4
    80000546:	40a1                	li	ra,8
    80000548:	41205fbb          	sraw	t6,zero,s2
    8000054c:	28d0f313          	andi	t1,ra,653
    80000550:	4c21                	li	s8,8
    80000552:	02061933          	mulh	s2,a2,zero
    80000556:	8cc9                	or	s1,s1,a0
    80000558:	813a                	mv	sp,a4
    8000055a:	8179                	srli	a0,a0,0x1e
    8000055c:	0cc1891b          	addiw	s2,gp,204
    80000560:	02383133          	mulhu	sp,a6,gp
    80000564:	00072633          	sltz	a2,a4
    80000568:	397d                	addiw	s2,s2,-1

000000008000056a <main_45_0_t>:
    8000056a:	8c79                	and	s0,s0,a4
    8000056c:	0f26                	slli	t5,t5,0x9
    8000056e:	e3314413          	xori	s0,sp,-461
    80000572:	01ca41b3          	xor	gp,s4,t3
    80000576:	02a9873b          	mulw	a4,s3,a0
    8000057a:	018a5313          	srli	t1,s4,0x18
    8000057e:	10ed                	addi	ra,ra,-5
    80000580:	0a6c4497          	auipc	s1,0xa6c4
    80000584:	ff80f3e3          	bgeu	ra,s8,8000056a <main_45_0_t>
    80000588:	9e81                	subw	a3,a3,s0
    8000058a:	4b9d                	li	s7,7
    8000058c:	0cc1891b          	addiw	s2,gp,204
    80000590:	e3314393          	xori	t2,sp,-461
    80000594:	4c1d                	li	s8,7

0000000080000596 <main_78_1_t>:
    80000596:	56fd                	li	a3,-1
    80000598:	8e21                	xor	a2,a2,s0
    8000059a:	1be1                	addi	s7,s7,-8
    8000059c:	28d0f213          	andi	tp,ra,653
    800005a0:	5865                	li	a6,-7
    800005a2:	4ca5                	li	s9,9

00000000800005a4 <main_78_0_t>:
    800005a4:	edf82113          	slti	sp,a6,-289
    800005a8:	0821                	addi	a6,a6,8
    800005aa:	ff980de3          	beq	a6,s9,800005a4 <main_78_0_t>
    800005ae:	023830b3          	mulhu	ra,a6,gp
    800005b2:	ff8bd2e3          	bge	s7,s8,80000596 <main_78_1_t>
    800005b6:	01b55e3b          	srlw	t3,a0,s11
    800005ba:	459d                	li	a1,7
    800005bc:	03272133          	mulhsu	sp,a4,s2
    800005c0:	01ca4133          	xor	sp,s4,t3
    800005c4:	8fa1                	xor	a5,a5,s0
    800005c6:	40dc8a3b          	subw	s4,s9,a3
    800005ca:	41205f3b          	sraw	t5,zero,s2
    800005ce:	003de633          	or	a2,s11,gp
    800005d2:	01a31093          	slli	ra,t1,0x1a
    800005d6:	0166ff33          	and	t5,a3,s6
    800005da:	8fc9                	or	a5,a5,a0
    800005dc:	8fc9                	or	a5,a5,a0
    800005de:	0a6c4417          	auipc	s0,0xa6c4
    800005e2:	28d0f213          	andi	tp,ra,653
    800005e6:	5ff9                	li	t6,-2
    800005e8:	8fa1                	xor	a5,a5,s0

00000000800005ea <main_52_0_t>:
    800005ea:	02deee3b          	remw	t3,t4,a3
    800005ee:	00d3173b          	sllw	a4,t1,a3
    800005f2:	0094bbb3          	sltu	s7,s1,s1
    800005f6:	15f5                	addi	a1,a1,-3
    800005f8:	0166ff33          	and	t5,a3,s6
    800005fc:	02fffdb3          	remu	s11,t6,a5
    80000600:	57fd                	li	a5,-1
    80000602:	fff5d4e3          	bge	a1,t6,800005ea <main_52_0_t>
    80000606:	edf82113          	slti	sp,a6,-289
    8000060a:	5af5                	li	s5,-3
    8000060c:	000725b3          	sltz	a1,a4
    80000610:	9c01                	subw	s0,s0,s0
    80000612:	80ba                	mv	ra,a4
    80000614:	000725b3          	sltz	a1,a4
    80000618:	01b55cbb          	srlw	s9,a0,s11
    8000061c:	4619                	li	a2,6

000000008000061e <main_69_0_t>:
    8000061e:	40dc8a3b          	subw	s4,s9,a3
    80000622:	002495b3          	sll	a1,s1,sp
    80000626:	57fd                	li	a5,-1
    80000628:	9cb9                	addw	s1,s1,a4
    8000062a:	0aa5                	addi	s5,s5,9 # b009 <_start-0x7fff4ff7>
    8000062c:	02a9873b          	mulw	a4,s3,a0
    80000630:	41660233          	sub	tp,a2,s6
    80000634:	feca85e3          	beq	s5,a2,8000061e <main_69_0_t>
    80000638:	8c79                	and	s0,s0,a4
    8000063a:	4211                	li	tp,4
    8000063c:	02b2ddb3          	divu	s11,t0,a1
    80000640:	00249633          	sll	a2,s1,sp
    80000644:	9e81                	subw	a3,a3,s0
    80000646:	4a91                	li	s5,4
    80000648:	57fd                	li	a5,-1
    8000064a:	02deeebb          	remw	t4,t4,a3
    8000064e:	023830b3          	mulhu	ra,a6,gp

0000000080000652 <main_46_0_t>:
    80000652:	0166ffb3          	and	t6,a3,s6
    80000656:	57fd                	li	a5,-1
    80000658:	023830b3          	mulhu	ra,a6,gp
    8000065c:	03eec9b3          	div	s3,t4,t5
    80000660:	edf82113          	slti	sp,a6,-289
    80000664:	1279                	addi	tp,tp,-2 # fffffffffffffffe <_end+0xffffffff7ffd3676>
    80000666:	03272133          	mulhsu	sp,a4,s2
    8000066a:	00d3173b          	sllw	a4,t1,a3
    8000066e:	00072633          	sltz	a2,a4
    80000672:	01e20433          	add	s0,tp,t5
    80000676:	9b7e                	add	s6,s6,t6
    80000678:	fd527de3          	bgeu	tp,s5,80000652 <main_46_0_t>
    8000067c:	41660333          	sub	t1,a2,s6
    80000680:	4589                	li	a1,2
    80000682:	01e203b3          	add	t2,tp,t5
    80000686:	57fd                	li	a5,-1
    80000688:	02061933          	mulh	s2,a2,zero
    8000068c:	8c79                	and	s0,s0,a4
    8000068e:	5eb1                	li	t4,-20
    80000690:	417dd533          	sra	a0,s11,s7
    80000694:	edf82113          	slti	sp,a6,-289

0000000080000698 <main_49_0_t>:
    80000698:	02415bbb          	divuw	s7,sp,tp
    8000069c:	00d3173b          	sllw	a4,t1,a3
    800006a0:	15f1                	addi	a1,a1,-4
    800006a2:	86d9                	srai	a3,a3,0x16
    800006a4:	01b55c3b          	srlw	s8,a0,s11
    800006a8:	0a6c4417          	auipc	s0,0xa6c4
    800006ac:	40dc8a3b          	subw	s4,s9,a3
    800006b0:	41205fbb          	sraw	t6,zero,s2
    800006b4:	57fd                	li	a5,-1
    800006b6:	0091de33          	srl	t3,gp,s1
    800006ba:	03f767b3          	rem	a5,a4,t6
    800006be:	9c01                	subw	s0,s0,s0
    800006c0:	02fffdb3          	remu	s11,t6,a5
    800006c4:	03d44bbb          	divw	s7,s0,t4
    800006c8:	00072633          	sltz	a2,a4
    800006cc:	0a6c4417          	auipc	s0,0xa6c4
    800006d0:	00249633          	sll	a2,s1,sp
    800006d4:	fdd5d2e3          	bge	a1,t4,80000698 <main_49_0_t>
    800006d8:	09730b13          	addi	s6,t1,151

00000000800006dc <main_16>:
    800006dc:	00800eef          	jal	t4,800006e4 <main_16+0x8>
    800006e0:	a025                	j	80000708 <main_16+0x2c>
    800006e2:	a809                	j	800006f4 <main_16+0x18>
    800006e4:	a01d                	j	8000070a <main_16+0x2e>
    800006e6:	a025                	j	8000070e <main_16+0x32>
    800006e8:	004000ef          	jal	800006ec <main_16+0x10>
    800006ec:	026000ef          	jal	80000712 <main_16+0x36>
    800006f0:	010000ef          	jal	80000700 <main_16+0x24>
    800006f4:	026000ef          	jal	8000071a <main_16+0x3e>
    800006f8:	bfc5                	j	800006e8 <main_16+0xc>
    800006fa:	a831                	j	80000716 <main_16+0x3a>
    800006fc:	fe7ff0ef          	jal	800006e2 <main_16+0x6>
    80000700:	004000ef          	jal	80000704 <main_16+0x28>
    80000704:	fe3ff0ef          	jal	800006e6 <main_16+0xa>
    80000708:	bfc5                	j	800006f8 <main_16+0x1c>
    8000070a:	ff1ff0ef          	jal	800006fa <main_16+0x1e>
    8000070e:	fefff0ef          	jal	800006fc <main_16+0x20>
    80000712:	fdfff0ef          	jal	800006f0 <main_16+0x14>
    80000716:	fcbff0ef          	jal	800006e0 <main_16+0x4>
    8000071a:	86d9                	srai	a3,a3,0x16

000000008000071c <main_24>:
    8000071c:	00c00eef          	jal	t4,80000728 <main_24+0xc>
    80000720:	024000ef          	jal	80000744 <main_24+0x28>
    80000724:	00c000ef          	jal	80000730 <main_24+0x14>
    80000728:	a809                	j	8000073a <main_24+0x1e>
    8000072a:	004000ef          	jal	8000072e <main_24+0x12>
    8000072e:	bfdd                	j	80000724 <main_24+0x8>
    80000730:	a009                	j	80000732 <main_24+0x16>
    80000732:	006000ef          	jal	80000738 <main_24+0x1c>
    80000736:	a809                	j	80000748 <main_24+0x2c>
    80000738:	b7e5                	j	80000720 <main_24+0x4>
    8000073a:	004000ef          	jal	8000073e <main_24+0x22>
    8000073e:	a009                	j	80000740 <main_24+0x24>
    80000740:	a009                	j	80000742 <main_24+0x26>
    80000742:	b7e5                	j	8000072a <main_24+0xe>
    80000744:	ff3ff0ef          	jal	80000736 <main_24+0x1a>
    80000748:	02fffcb3          	remu	s9,t6,a5
    8000074c:	5cdd                	li	s9,-9
    8000074e:	0cc1899b          	addiw	s3,gp,204
    80000752:	4e81                	li	t4,0
    80000754:	0091dfb3          	srl	t6,gp,s1
    80000758:	02b2de33          	divu	t3,t0,a1

000000008000075c <main_53_1_t>:
    8000075c:	02deefbb          	remw	t6,t4,a3
    80000760:	84627c37          	lui	s8,0x84627
    80000764:	0c85                	addi	s9,s9,1 # ffffffff84627001 <_end+0xffffffff045fa679>
    80000766:	01e20433          	add	s0,tp,t5
    8000076a:	03498233          	mul	tp,s3,s4
    8000076e:	4695                	li	a3,5
    80000770:	e3314413          	xori	s0,sp,-461
    80000774:	058c                	addi	a1,sp,704
    80000776:	0001                	nop
    80000778:	8c79                	and	s0,s0,a4
    8000077a:	5349                	li	t1,-14
    8000077c:	01b55dbb          	srlw	s11,a0,s11

0000000080000780 <main_53_0_t>:
    80000780:	8c79                	and	s0,s0,a4
    80000782:	018a5213          	srli	tp,s4,0x18
    80000786:	16fd                	addi	a3,a3,-1
    80000788:	02ffff33          	remu	t5,t6,a5
    8000078c:	587d                	li	a6,-1
    8000078e:	fe66d9e3          	bge	a3,t1,80000780 <main_53_0_t>
    80000792:	00249633          	sll	a2,s1,sp
    80000796:	9c01                	subw	s0,s0,s0
    80000798:	717d                	addi	sp,sp,-16
    8000079a:	fddcc1e3          	blt	s9,t4,8000075c <main_53_1_t>
    8000079e:	41660233          	sub	tp,a2,s6
    800007a2:	5971                	li	s2,-4
    800007a4:	01b55dbb          	srlw	s11,a0,s11
    800007a8:	4709                	li	a4,2
    800007aa:	587d                	li	a6,-1

00000000800007ac <main_42_1_t>:
    800007ac:	edf82113          	slti	sp,a6,-289
    800007b0:	00072633          	sltz	a2,a4
    800007b4:	0919                	addi	s2,s2,6
    800007b6:	5259                	li	tp,-10
    800007b8:	09730c13          	addi	s8,t1,151
    800007bc:	0001                	nop
    800007be:	4ea9                	li	t4,10

00000000800007c0 <main_42_0_t>:
    800007c0:	84627cb7          	lui	s9,0x84627
    800007c4:	02eb77bb          	remuw	a5,s6,a4
    800007c8:	9cb9                	addw	s1,s1,a4
    800007ca:	0211                	addi	tp,tp,4 # 4 <_start-0x7ffffffc>
    800007cc:	ffd21ae3          	bne	tp,t4,800007c0 <main_42_0_t>
    800007d0:	fce90ee3          	beq	s2,a4,800007ac <main_42_1_t>
    800007d4:	03d44cbb          	divw	s9,s0,t4

00000000800007d8 <main_37>:
    800007d8:	02600eef          	jal	t4,800007fe <main_37+0x26>
    800007dc:	014000ef          	jal	800007f0 <main_37+0x18>
    800007e0:	00c000ef          	jal	800007ec <main_37+0x14>
    800007e4:	036000ef          	jal	8000081a <main_37+0x42>
    800007e8:	028000ef          	jal	80000810 <main_37+0x38>
    800007ec:	00c000ef          	jal	800007f8 <main_37+0x20>
    800007f0:	012000ef          	jal	80000802 <main_37+0x2a>
    800007f4:	010000ef          	jal	80000804 <main_37+0x2c>
    800007f8:	a01d                	j	8000081e <main_37+0x46>
    800007fa:	a811                	j	8000080e <main_37+0x36>
    800007fc:	a039                	j	8000080a <main_37+0x32>
    800007fe:	008000ef          	jal	80000806 <main_37+0x2e>
    80000802:	a029                	j	8000080c <main_37+0x34>
    80000804:	a801                	j	80000814 <main_37+0x3c>
    80000806:	ff7ff0ef          	jal	800007fc <main_37+0x24>
    8000080a:	bfc5                	j	800007fa <main_37+0x22>
    8000080c:	a031                	j	80000818 <main_37+0x40>
    8000080e:	b7dd                	j	800007f4 <main_37+0x1c>
    80000810:	fcdff0ef          	jal	800007dc <main_37+0x4>
    80000814:	fd1ff0ef          	jal	800007e4 <main_37+0xc>
    80000818:	b7e1                	j	800007e0 <main_37+0x8>
    8000081a:	fcfff0ef          	jal	800007e8 <main_37+0x10>
    8000081e:	9d01                	subw	a0,a0,s0

0000000080000820 <main_19>:
    80000820:	00800eef          	jal	t4,80000828 <main_19+0x8>
    80000824:	a819                	j	8000083a <main_19+0x1a>
    80000826:	a039                	j	80000834 <main_19+0x14>
    80000828:	010000ef          	jal	80000838 <main_19+0x18>
    8000082c:	012000ef          	jal	8000083e <main_19+0x1e>
    80000830:	ff5ff0ef          	jal	80000824 <main_19+0x4>
    80000834:	ff9ff0ef          	jal	8000082c <main_19+0xc>
    80000838:	a029                	j	80000842 <main_19+0x22>
    8000083a:	016000ef          	jal	80000850 <main_19+0x30>
    8000083e:	008000ef          	jal	80000846 <main_19+0x26>
    80000842:	006000ef          	jal	80000848 <main_19+0x28>
    80000846:	b7ed                	j	80000830 <main_19+0x10>
    80000848:	004000ef          	jal	8000084c <main_19+0x2c>
    8000084c:	fdbff0ef          	jal	80000826 <main_19+0x6>
    80000850:	02fffcb3          	remu	s9,t6,a5
    80000854:	4b9d                	li	s7,7
    80000856:	4939                	li	s2,14
    80000858:	02deeebb          	remw	t4,t4,a3

000000008000085c <main_79_0_t>:
    8000085c:	9d01                	subw	a0,a0,s0
    8000085e:	03498233          	mul	tp,s3,s4
    80000862:	0cc1881b          	addiw	a6,gp,204
    80000866:	0ba5                	addi	s7,s7,9
    80000868:	01a31093          	slli	ra,t1,0x1a
    8000086c:	023830b3          	mulhu	ra,a6,gp
    80000870:	84627c37          	lui	s8,0x84627
    80000874:	ff2be4e3          	bltu	s7,s2,8000085c <main_79_0_t>
    80000878:	93a6ba93          	sltiu	s5,a3,-1734
    8000087c:	4215                	li	tp,5
    8000087e:	8179                	srli	a0,a0,0x1e
    80000880:	03272133          	mulhsu	sp,a4,s2
    80000884:	0588                	addi	a0,sp,704
    80000886:	4c05                	li	s8,1
    80000888:	0588                	addi	a0,sp,704
    8000088a:	6a2d                	lui	s4,0xb

000000008000088c <main_41_0_t>:
    8000088c:	0094bbb3          	sltu	s7,s1,s1
    80000890:	03f767b3          	rem	a5,a4,t6
    80000894:	02415bbb          	divuw	s7,sp,tp
    80000898:	01a31093          	slli	ra,t1,0x1a
    8000089c:	03eec9b3          	div	s3,t4,t5
    800008a0:	018a5313          	srli	t1,s4,0x18
    800008a4:	01a31093          	slli	ra,t1,0x1a
    800008a8:	1271                	addi	tp,tp,-4 # fffffffffffffffc <_end+0xffffffff7ffd3674>
    800008aa:	41205fbb          	sraw	t6,zero,s2
    800008ae:	fd825fe3          	bge	tp,s8,8000088c <main_41_0_t>
    800008b2:	417dd5b3          	sra	a1,s11,s7
    800008b6:	4d95                	li	s11,5
    800008b8:	02ffff33          	remu	t5,t6,a5
    800008bc:	4589                	li	a1,2
    800008be:	00249733          	sll	a4,s1,sp
    800008c2:	0b26                	slli	s6,s6,0x9
    800008c4:	6b2d                	lui	s6,0xb
    800008c6:	02415cbb          	divuw	s9,sp,tp

00000000800008ca <main_43_1_t>:
    800008ca:	0a6c4497          	auipc	s1,0xa6c4
    800008ce:	1dfd                	addi	s11,s11,-1
    800008d0:	717d                	addi	sp,sp,-16
    800008d2:	4699                	li	a3,6
    800008d4:	0580                	addi	s0,sp,704
    800008d6:	01ca4133          	xor	sp,s4,t3
    800008da:	0001                	nop
    800008dc:	417dd633          	sra	a2,s11,s7
    800008e0:	0a6c4497          	auipc	s1,0xa6c4
    800008e4:	000b579b          	srliw	a5,s6,0x0
    800008e8:	02b2deb3          	divu	t4,t0,a1
    800008ec:	01a31093          	slli	ra,t1,0x1a
    800008f0:	00249733          	sll	a4,s1,sp
    800008f4:	4315                	li	t1,5
    800008f6:	3a7d                	addiw	s4,s4,-1 # afff <_start-0x7fff5001>
    800008f8:	8b59                	andi	a4,a4,22
    800008fa:	00ce1e9b          	slliw	t4,t3,0xc

00000000800008fe <main_43_0_t>:
    800008fe:	8f49                	or	a4,a4,a0
    80000900:	16f9                	addi	a3,a3,-2
    80000902:	84627cb7          	lui	s9,0x84627
    80000906:	fe66dce3          	bge	a3,t1,800008fe <main_43_0_t>
    8000090a:	02eb783b          	remuw	a6,s6,a4
    8000090e:	0b26                	slli	s6,s6,0x9
    80000910:	9c81                	subw	s1,s1,s0
    80000912:	02eb783b          	remuw	a6,s6,a4
    80000916:	fabddae3          	bge	s11,a1,800008ca <main_43_1_t>
    8000091a:	0580                	addi	s0,sp,704

000000008000091c <main_3>:
    8000091c:	01600eef          	jal	t4,80000932 <main_3+0x16>
    80000920:	a839                	j	8000093e <main_3+0x22>
    80000922:	fffff0ef          	jal	80000920 <main_3+0x4>
    80000926:	ffdff0ef          	jal	80000922 <main_3+0x6>
    8000092a:	01e000ef          	jal	80000948 <main_3+0x2c>
    8000092e:	016000ef          	jal	80000944 <main_3+0x28>
    80000932:	a029                	j	8000093c <main_3+0x20>
    80000934:	a019                	j	8000093a <main_3+0x1e>
    80000936:	00a000ef          	jal	80000940 <main_3+0x24>
    8000093a:	a829                	j	80000954 <main_3+0x38>
    8000093c:	bfed                	j	80000936 <main_3+0x1a>
    8000093e:	a809                	j	80000950 <main_3+0x34>
    80000940:	00a000ef          	jal	8000094a <main_3+0x2e>
    80000944:	ff1ff0ef          	jal	80000934 <main_3+0x18>
    80000948:	bff9                	j	80000926 <main_3+0xa>
    8000094a:	b7c5                	j	8000092a <main_3+0xe>
    8000094c:	fe3ff0ef          	jal	8000092e <main_3+0x12>
    80000950:	ffdff0ef          	jal	8000094c <main_3+0x30>
    80000954:	9d01                	subw	a0,a0,s0

0000000080000956 <main_35>:
    80000956:	02a00eef          	jal	t4,80000980 <main_35+0x2a>
    8000095a:	a031                	j	80000966 <main_35+0x10>
    8000095c:	028000ef          	jal	80000984 <main_35+0x2e>
    80000960:	01e000ef          	jal	8000097e <main_35+0x28>
    80000964:	a011                	j	80000968 <main_35+0x12>
    80000966:	a039                	j	80000974 <main_35+0x1e>
    80000968:	00e000ef          	jal	80000976 <main_35+0x20>
    8000096c:	a039                	j	8000097a <main_35+0x24>
    8000096e:	a009                	j	80000970 <main_35+0x1a>
    80000970:	fedff0ef          	jal	8000095c <main_35+0x6>
    80000974:	bfc5                	j	80000964 <main_35+0xe>
    80000976:	ff9ff0ef          	jal	8000096e <main_35+0x18>
    8000097a:	fe7ff0ef          	jal	80000960 <main_35+0xa>
    8000097e:	bff1                	j	8000095a <main_35+0x4>
    80000980:	fedff0ef          	jal	8000096c <main_35+0x16>
    80000984:	01e203b3          	add	t2,tp,t5
    80000988:	4519                	li	a0,6
    8000098a:	000b571b          	srliw	a4,s6,0x0
    8000098e:	03d44c3b          	divw	s8,s0,t4
    80000992:	41660233          	sub	tp,a2,s6
    80000996:	02deeebb          	remw	t4,t4,a3
    8000099a:	43b5                	li	t2,13
    8000099c:	39fd                	addiw	s3,s3,-1
    8000099e:	0cc1899b          	addiw	s3,gp,204
    800009a2:	93a6bb13          	sltiu	s6,a3,-1734
    800009a6:	41660233          	sub	tp,a2,s6

00000000800009aa <main_50_0_t>:
    800009aa:	8e0d                	sub	a2,a2,a1
    800009ac:	39fd                	addiw	s3,s3,-1
    800009ae:	5be3ea93          	ori	s5,t2,1470
    800009b2:	40dc8abb          	subw	s5,s9,a3
    800009b6:	050d                	addi	a0,a0,3
    800009b8:	717d                	addi	sp,sp,-16
    800009ba:	00d317bb          	sllw	a5,t1,a3
    800009be:	02eb77bb          	remuw	a5,s6,a4
    800009c2:	00ce1d9b          	slliw	s11,t3,0xc
    800009c6:	84627c37          	lui	s8,0x84627
    800009ca:	8c0d                	sub	s0,s0,a1
    800009cc:	28d0f213          	andi	tp,ra,653
    800009d0:	6aad                	lui	s5,0xb
    800009d2:	9cb9                	addw	s1,s1,a4
    800009d4:	417dd633          	sra	a2,s11,s7
    800009d8:	03272133          	mulhsu	sp,a4,s2
    800009dc:	020619b3          	mulh	s3,a2,zero
    800009e0:	80ba                	mv	ra,a4
    800009e2:	fc7544e3          	blt	a0,t2,800009aa <main_50_0_t>
    800009e6:	0cc1899b          	addiw	s3,gp,204
    800009ea:	4605                	li	a2,1
    800009ec:	4525                	li	a0,9

00000000800009ee <main_67_1_t>:
    800009ee:	02415dbb          	divuw	s11,sp,tp
    800009f2:	0611                	addi	a2,a2,4
    800009f4:	59d9                	li	s3,-10
    800009f6:	5969                	li	s2,-6

00000000800009f8 <main_67_0_t>:
    800009f8:	03272133          	mulhsu	sp,a4,s2
    800009fc:	099d                	addi	s3,s3,7
    800009fe:	ff29cde3          	blt	s3,s2,800009f8 <main_67_0_t>
    80000a02:	fea666e3          	bltu	a2,a0,800009ee <main_67_1_t>
    80000a06:	03d44dbb          	divw	s11,s0,t4
    80000a0a:	53fd                	li	t2,-1
    80000a0c:	93a6bb93          	sltiu	s7,a3,-1734
    80000a10:	0166fab3          	and	s5,a3,s6
    80000a14:	4120593b          	sraw	s2,zero,s2
    80000a18:	5e41                	li	t3,-16

0000000080000a1a <main_47_1_t>:
    80000a1a:	8c79                	and	s0,s0,a4
    80000a1c:	e3314493          	xori	s1,sp,-461
    80000a20:	13e9                	addi	t2,t2,-6
    80000a22:	01a31113          	slli	sp,t1,0x1a
    80000a26:	01a31113          	slli	sp,t1,0x1a
    80000a2a:	5579                	li	a0,-2
    80000a2c:	0001                	nop
    80000a2e:	03498333          	mul	t1,s3,s4
    80000a32:	86d9                	srai	a3,a3,0x16
    80000a34:	0a6c4597          	auipc	a1,0xa6c4
    80000a38:	8279                	srli	a2,a2,0x1e
    80000a3a:	41660333          	sub	t1,a2,s6
    80000a3e:	0094bcb3          	sltu	s9,s1,s1
    80000a42:	8c0d                	sub	s0,s0,a1
    80000a44:	032721b3          	mulhsu	gp,a4,s2

0000000080000a48 <main_47_0_t>:
    80000a48:	02a9883b          	mulw	a6,s3,a0
    80000a4c:	0509                	addi	a0,a0,2
    80000a4e:	07a9                	addi	a5,a5,10
    80000a50:	dd65                	beqz	a0,80000a48 <main_47_0_t>
    80000a52:	01ca41b3          	xor	gp,s4,t3
    80000a56:	03498333          	mul	t1,s3,s4
    80000a5a:	0590                	addi	a2,sp,704
    80000a5c:	000b579b          	srliw	a5,s6,0x0
    80000a60:	9b7e                	add	s6,s6,t6
    80000a62:	0590                	addi	a2,sp,704
    80000a64:	03eecab3          	div	s5,t4,t5
    80000a68:	39fd                	addiw	s3,s3,-1
    80000a6a:	fbc3d8e3          	bge	t2,t3,80000a1a <main_47_1_t>
    80000a6e:	84627cb7          	lui	s9,0x84627
    80000a72:	5ee9                	li	t4,-6
    80000a74:	000726b3          	sltz	a3,a4
    80000a78:	4619                	li	a2,6

0000000080000a7a <main_48_1_t>:
    80000a7a:	04a9                	addi	s1,s1,10 # 8a6c48ea <_end+0xa697f62>
    80000a7c:	41bb519b          	sraiw	gp,s6,0x1b
    80000a80:	0ea5                	addi	t4,t4,9
    80000a82:	586d                	li	a6,-5
    80000a84:	8ec9                	or	a3,a3,a0
    80000a86:	9c81                	subw	s1,s1,s0
    80000a88:	03f76933          	rem	s2,a4,t6
    80000a8c:	000726b3          	sltz	a3,a4
    80000a90:	01b55dbb          	srlw	s11,a0,s11
    80000a94:	45bd                	li	a1,15
    80000a96:	09730c13          	addi	s8,t1,151

0000000080000a9a <main_48_0_t>:
    80000a9a:	01e203b3          	add	t2,tp,t5
    80000a9e:	018a5213          	srli	tp,s4,0x18
    80000aa2:	00ce1e1b          	slliw	t3,t3,0xc
    80000aa6:	080d                	addi	a6,a6,3
    80000aa8:	40dc8b3b          	subw	s6,s9,a3
    80000aac:	0b26                	slli	s6,s6,0x9
    80000aae:	023830b3          	mulhu	ra,a6,gp
    80000ab2:	feb844e3          	blt	a6,a1,80000a9a <main_48_0_t>
    80000ab6:	fccee2e3          	bltu	t4,a2,80000a7a <main_48_1_t>
    80000aba:	000809bb          	addw	s3,a6,zero
    80000abe:	5675                	li	a2,-3
    80000ac0:	02b2dcb3          	divu	s9,t0,a1
    80000ac4:	5e59                	li	t3,-10
    80000ac6:	0091deb3          	srl	t4,gp,s1

0000000080000aca <main_63_0_t>:
    80000aca:	000725b3          	sltz	a1,a4
    80000ace:	1665                	addi	a2,a2,-7
    80000ad0:	717d                	addi	sp,sp,-16
    80000ad2:	ffc60ce3          	beq	a2,t3,80000aca <main_63_0_t>
    80000ad6:	9c01                	subw	s0,s0,s0

0000000080000ad8 <main_11>:
    80000ad8:	00400eef          	jal	t4,80000adc <main_11+0x4>
    80000adc:	a025                	j	80000b04 <main_11+0x2c>
    80000ade:	012000ef          	jal	80000af0 <main_11+0x18>
    80000ae2:	00c000ef          	jal	80000aee <main_11+0x16>
    80000ae6:	00e000ef          	jal	80000af4 <main_11+0x1c>
    80000aea:	bff5                	j	80000ae6 <main_11+0xe>
    80000aec:	bffd                	j	80000aea <main_11+0x12>
    80000aee:	a039                	j	80000afc <main_11+0x24>
    80000af0:	00e000ef          	jal	80000afe <main_11+0x26>
    80000af4:	012000ef          	jal	80000b06 <main_11+0x2e>
    80000af8:	fe7ff0ef          	jal	80000ade <main_11+0x6>
    80000afc:	a011                	j	80000b00 <main_11+0x28>
    80000afe:	a029                	j	80000b08 <main_11+0x30>
    80000b00:	ff9ff0ef          	jal	80000af8 <main_11+0x20>
    80000b04:	b7e5                	j	80000aec <main_11+0x14>
    80000b06:	bff1                	j	80000ae2 <main_11+0xa>
    80000b08:	01e203b3          	add	t2,tp,t5
    80000b0c:	50fd                	li	ra,-1
    80000b0e:	28d0f313          	andi	t1,ra,653
    80000b12:	e3314413          	xori	s0,sp,-461
    80000b16:	0001                	nop
    80000b18:	4489                	li	s1,2
    80000b1a:	717d                	addi	sp,sp,-16
    80000b1c:	813a                	mv	sp,a4

0000000080000b1e <main_56_0_t>:
    80000b1e:	39fd                	addiw	s3,s3,-1
    80000b20:	93a6bb13          	sltiu	s6,a3,-1734
    80000b24:	00a5                	addi	ra,ra,9
    80000b26:	39fd                	addiw	s3,s3,-1
    80000b28:	01b55cbb          	srlw	s9,a0,s11
    80000b2c:	0091deb3          	srl	t4,gp,s1
    80000b30:	edf82193          	slti	gp,a6,-289
    80000b34:	41205fbb          	sraw	t6,zero,s2
    80000b38:	0001                	nop
    80000b3a:	02deeebb          	remw	t4,t4,a3
    80000b3e:	01a31113          	slli	sp,t1,0x1a
    80000b42:	fc90eee3          	bltu	ra,s1,80000b1e <main_56_0_t>
    80000b46:	0f26                	slli	t5,t5,0x9
    80000b48:	4b11                	li	s6,4
    80000b4a:	40dc8a3b          	subw	s4,s9,a3
    80000b4e:	93a6ba93          	sltiu	s5,a3,-1734
    80000b52:	01ca4133          	xor	sp,s4,t3
    80000b56:	6a2d                	lui	s4,0xb
    80000b58:	4989                	li	s3,2
    80000b5a:	4368d313          	srai	t1,a7,0x36
    80000b5e:	8d8d                	sub	a1,a1,a1
    80000b60:	03498233          	mul	tp,s3,s4
    80000b64:	0a6c4417          	auipc	s0,0xa6c4
    80000b68:	0001                	nop
    80000b6a:	000725b3          	sltz	a1,a4
    80000b6e:	000725b3          	sltz	a1,a4
    80000b72:	02415c3b          	divuw	s8,sp,tp

0000000080000b76 <main_59_0_t>:
    80000b76:	02fffe33          	remu	t3,t6,a5
    80000b7a:	93a6ba93          	sltiu	s5,a3,-1734
    80000b7e:	6a2d                	lui	s4,0xb
    80000b80:	28d0f213          	andi	tp,ra,653
    80000b84:	0166ffb3          	and	t6,a3,s6
    80000b88:	09730b93          	addi	s7,t1,151
    80000b8c:	577d                	li	a4,-1
    80000b8e:	40dc8a3b          	subw	s4,s9,a3
    80000b92:	8d8d                	sub	a1,a1,a1
    80000b94:	0001                	nop
    80000b96:	00d316bb          	sllw	a3,t1,a3
    80000b9a:	03498233          	mul	tp,s3,s4
    80000b9e:	8cc9                	or	s1,s1,a0
    80000ba0:	1b6d                	addi	s6,s6,-5 # affb <_start-0x7fff5005>
    80000ba2:	fd3b5ae3          	bge	s6,s3,80000b76 <main_59_0_t>
    80000ba6:	edf82113          	slti	sp,a6,-289
    80000baa:	5a6d                	li	s4,-5
    80000bac:	03eec9b3          	div	s3,t4,t5
    80000bb0:	002495b3          	sll	a1,s1,sp
    80000bb4:	88d9                	andi	s1,s1,22
    80000bb6:	57fd                	li	a5,-1
    80000bb8:	8c0d                	sub	s0,s0,a1
    80000bba:	6aad                	lui	s5,0xb
    80000bbc:	01ca4133          	xor	sp,s4,t3
    80000bc0:	03eec9b3          	div	s3,t4,t5
    80000bc4:	5be3ea93          	ori	s5,t2,1470
    80000bc8:	4751                	li	a4,20
    80000bca:	8fa1                	xor	a5,a5,s0
    80000bcc:	8fc9                	or	a5,a5,a0
    80000bce:	4368d313          	srai	t1,a7,0x36
    80000bd2:	8fc9                	or	a5,a5,a0
    80000bd4:	80ba                	mv	ra,a4
    80000bd6:	03d44c3b          	divw	s8,s0,t4
    80000bda:	417dd533          	sra	a0,s11,s7

0000000080000bde <main_75_0_t>:
    80000bde:	397d                	addiw	s2,s2,-1
    80000be0:	e3314393          	xori	t2,sp,-461
    80000be4:	018a5213          	srli	tp,s4,0x18
    80000be8:	417dd533          	sra	a0,s11,s7
    80000bec:	41bb519b          	sraiw	gp,s6,0x1b
    80000bf0:	02061933          	mulh	s2,a2,zero
    80000bf4:	0a0d                	addi	s4,s4,3 # b003 <_start-0x7fff4ffd>
    80000bf6:	018a5213          	srli	tp,s4,0x18
    80000bfa:	feea42e3          	blt	s4,a4,80000bde <main_75_0_t>
    80000bfe:	000b561b          	srliw	a2,s6,0x0
    80000c02:	0cc1881b          	addiw	a6,gp,204
    80000c06:	3f7d                	addiw	t5,t5,-1
    80000c08:	0094bb33          	sltu	s6,s1,s1
    80000c0c:	3f7d                	addiw	t5,t5,-1
    80000c0e:	04a9                	addi	s1,s1,10
    80000c10:	0cc1881b          	addiw	a6,gp,204
    80000c14:	01ca4133          	xor	sp,s4,t3
    80000c18:	3f7d                	addiw	t5,t5,-1
    80000c1a:	03eec933          	div	s2,t4,t5
    80000c1e:	8e49                	or	a2,a2,a0
    80000c20:	02deedbb          	remw	s11,t4,a3
    80000c24:	01a31093          	slli	ra,t1,0x1a
    80000c28:	69ad                	lui	s3,0xb
    80000c2a:	84627b37          	lui	s6,0x84627
    80000c2e:	01ca4133          	xor	sp,s4,t3
    80000c32:	02d04e63          	bgtz	a3,80000c6e <main_75_0_t+0x90>
    80000c36:	000725b3          	sltz	a1,a4
    80000c3a:	09730a93          	addi	s5,t1,151
    80000c3e:	41bb519b          	sraiw	gp,s6,0x1b
    80000c42:	002495b3          	sll	a1,s1,sp
    80000c46:	41bb519b          	sraiw	gp,s6,0x1b
    80000c4a:	0091ddb3          	srl	s11,gp,s1
    80000c4e:	40dc89bb          	subw	s3,s9,a3
    80000c52:	28d0f213          	andi	tp,ra,653
    80000c56:	82f9                	srli	a3,a3,0x1e
    80000c58:	09730a93          	addi	s5,t1,151
    80000c5c:	0094bb33          	sltu	s6,s1,s1
    80000c60:	8c21                	xor	s0,s0,s0
    80000c62:	023830b3          	mulhu	ra,a6,gp
    80000c66:	02d04963          	bgtz	a3,80000c98 <main_75_0_t+0xba>
    80000c6a:	003de5b3          	or	a1,s11,gp
    80000c6e:	417dd533          	sra	a0,s11,s7
    80000c72:	0001                	nop
    80000c74:	8e49                	or	a2,a2,a0
    80000c76:	01b60263          	beq	a2,s11,80000c7a <main_75_0_t+0x9c>
    80000c7a:	8c21                	xor	s0,s0,s0
    80000c7c:	41205ebb          	sraw	t4,zero,s2
    80000c80:	89d9                	andi	a1,a1,22
    80000c82:	09730a93          	addi	s5,t1,151
    80000c86:	03272133          	mulhsu	sp,a4,s2
    80000c8a:	03b95c63          	bge	s2,s11,80000cc2 <main_75_0_t+0xe4>
    80000c8e:	003de5b3          	or	a1,s11,gp
    80000c92:	0588                	addi	a0,sp,704
    80000c94:	0085e463          	bltu	a1,s0,80000c9c <main_75_0_t+0xbe>
    80000c98:	417dd533          	sra	a0,s11,s7
    80000c9c:	0aa6                	slli	s5,s5,0x9
    80000c9e:	41bb519b          	sraiw	gp,s6,0x1b
    80000ca2:	e3314393          	xori	t2,sp,-461
    80000ca6:	5be3e993          	ori	s3,t2,1470
    80000caa:	02a986bb          	mulw	a3,s3,a0
    80000cae:	02a986bb          	mulw	a3,s3,a0
    80000cb2:	03b60d63          	beq	a2,s11,80000cec <main_75_0_t+0x10e>
    80000cb6:	0091ddb3          	srl	s11,gp,s1
    80000cba:	4368d313          	srai	t1,a7,0x36
    80000cbe:	28d0f213          	andi	tp,ra,653
    80000cc2:	0085e863          	bltu	a1,s0,80000cd2 <main_75_0_t+0xf4>
    80000cc6:	8e49                	or	a2,a2,a0
    80000cc8:	8c79                	and	s0,s0,a4
    80000cca:	40dc89bb          	subw	s3,s9,a3
    80000cce:	02a986bb          	mulw	a3,s3,a0
    80000cd2:	8e49                	or	a2,a2,a0
    80000cd4:	02415b3b          	divuw	s6,sp,tp
    80000cd8:	5be3e993          	ori	s3,t2,1470
    80000cdc:	edf82113          	slti	sp,a6,-289
    80000ce0:	93a6ba13          	sltiu	s4,a3,-1734
    80000ce4:	03eec933          	div	s2,t4,t5
    80000ce8:	40dc89bb          	subw	s3,s9,a3
    80000cec:	018a5213          	srli	tp,s4,0x18
    80000cf0:	0001                	nop
    80000cf2:	e715                	bnez	a4,80000d1e <main_75_0_t+0x140>
    80000cf4:	5be3e993          	ori	s3,t2,1470
    80000cf8:	03272133          	mulhsu	sp,a4,s2
    80000cfc:	05b60463          	beq	a2,s11,80000d44 <main_75_0_t+0x166>
    80000d00:	0cc1881b          	addiw	a6,gp,204
    80000d04:	02b2dc33          	divu	s8,t0,a1
    80000d08:	09730a93          	addi	s5,t1,151
    80000d0c:	9d01                	subw	a0,a0,s0
    80000d0e:	e3314393          	xori	t2,sp,-461
    80000d12:	03eec933          	div	s2,t4,t5
    80000d16:	84627b37          	lui	s6,0x84627
    80000d1a:	01ca4133          	xor	sp,s4,t3
    80000d1e:	000725b3          	sltz	a1,a4
    80000d22:	84627b37          	lui	s6,0x84627
    80000d26:	9a7e                	add	s4,s4,t6
    80000d28:	0001                	nop
    80000d2a:	00ce1c1b          	slliw	s8,t3,0xc
    80000d2e:	00d04f63          	bgtz	a3,80000d4c <main_75_0_t+0x16e>
    80000d32:	0a6c4417          	auipc	s0,0xa6c4
    80000d36:	023830b3          	mulhu	ra,a6,gp
    80000d3a:	05b60363          	beq	a2,s11,80000d80 <main_75_0_t+0x1a2>
    80000d3e:	717d                	addi	sp,sp,-16
    80000d40:	02a986bb          	mulw	a3,s3,a0
    80000d44:	02a986bb          	mulw	a3,s3,a0
    80000d48:	0cc1881b          	addiw	a6,gp,204
    80000d4c:	023a9663          	bne	s5,gp,80000d78 <main_75_0_t+0x19a>
    80000d50:	0091ddb3          	srl	s11,gp,s1
    80000d54:	02deedbb          	remw	s11,t4,a3
    80000d58:	93a6ba13          	sltiu	s4,a3,-1734
    80000d5c:	000b561b          	srliw	a2,s6,0x0
    80000d60:	8a3a                	mv	s4,a4
    80000d62:	023830b3          	mulhu	ra,a6,gp
    80000d66:	0588                	addi	a0,sp,704
    80000d68:	02a986bb          	mulw	a3,s3,a0
    80000d6c:	03d44f3b          	divw	t5,s0,t4
    80000d70:	417dd533          	sra	a0,s11,s7
    80000d74:	8c79                	and	s0,s0,a4
    80000d76:	c299                	beqz	a3,80000d7c <main_75_0_t+0x19e>
    80000d78:	09b60d63          	beq	a2,s11,80000e12 <main_64_0_t+0x42>
    80000d7c:	00ce1c1b          	slliw	s8,t3,0xc
    80000d80:	003de5b3          	or	a1,s11,gp
    80000d84:	8f8d                	sub	a5,a5,a1
    80000d86:	86d9                	srai	a3,a3,0x16
    80000d88:	4368d313          	srai	t1,a7,0x36
    80000d8c:	86d9                	srai	a3,a3,0x16
    80000d8e:	03f76733          	rem	a4,a4,t6
    80000d92:	8c79                	and	s0,s0,a4
    80000d94:	9db9                	addw	a1,a1,a4
    80000d96:	06d04963          	bgtz	a3,80000e08 <main_64_0_t+0x38>
    80000d9a:	000725b3          	sltz	a1,a4
    80000d9e:	000725b3          	sltz	a1,a4
    80000da2:	4a21                	li	s4,8
    80000da4:	397d                	addiw	s2,s2,-1
    80000da6:	4ca1                	li	s9,8
    80000da8:	6aad                	lui	s5,0xb

0000000080000daa <main_64_1_t>:
    80000daa:	8b3a                	mv	s6,a4
    80000dac:	1a79                	addi	s4,s4,-2
    80000dae:	02415dbb          	divuw	s11,sp,tp
    80000db2:	02ffff33          	remu	t5,t6,a5
    80000db6:	002496b3          	sll	a3,s1,sp
    80000dba:	4409                	li	s0,2
    80000dbc:	8fc9                	or	a5,a5,a0
    80000dbe:	0001                	nop
    80000dc0:	09730c13          	addi	s8,t1,151
    80000dc4:	01ca41b3          	xor	gp,s4,t3
    80000dc8:	0fa6                	slli	t6,t6,0x9
    80000dca:	003de6b3          	or	a3,s11,gp
    80000dce:	8279                	srli	a2,a2,0x1e

0000000080000dd0 <main_64_0_t>:
    80000dd0:	40dc8b3b          	subw	s6,s9,a3
    80000dd4:	0001                	nop
    80000dd6:	147d                	addi	s0,s0,-1 # 8a6c4d31 <_end+0xa6983a9>
    80000dd8:	0008093b          	addw	s2,a6,zero
    80000ddc:	f875                	bnez	s0,80000dd0 <main_64_0_t>
    80000dde:	0091dfb3          	srl	t6,gp,s1
    80000de2:	00ce1e9b          	slliw	t4,t3,0xc
    80000de6:	9b7e                	add	s6,s6,t6
    80000de8:	0001                	nop
    80000dea:	03d44dbb          	divw	s11,s0,t4
    80000dee:	09730c13          	addi	s8,t1,151
    80000df2:	41bb521b          	sraiw	tp,s6,0x1b
    80000df6:	0590                	addi	a2,sp,704
    80000df8:	8c8d                	sub	s1,s1,a1
    80000dfa:	fb9a78e3          	bgeu	s4,s9,80000daa <main_64_1_t>
    80000dfe:	4368d393          	srai	t2,a7,0x36
    80000e02:	02eb76bb          	remuw	a3,s6,a4
    80000e06:	86d9                	srai	a3,a3,0x16
    80000e08:	8a3a                	mv	s4,a4
    80000e0a:	28d0f213          	andi	tp,ra,653
    80000e0e:	01b55bbb          	srlw	s7,a0,s11
    80000e12:	02a986bb          	mulw	a3,s3,a0
    80000e16:	0285e363          	bltu	a1,s0,80000e3c <main_64_0_t+0x6c>
    80000e1a:	28d0f213          	andi	tp,ra,653
    80000e1e:	41205ebb          	sraw	t4,zero,s2
    80000e22:	40dc89bb          	subw	s3,s9,a3
    80000e26:	84627b37          	lui	s6,0x84627
    80000e2a:	02061833          	mulh	a6,a2,zero
    80000e2e:	9a7e                	add	s4,s4,t6
    80000e30:	03498fb3          	mul	t6,s3,s4
    80000e34:	93a6ba13          	sltiu	s4,a3,-1734
    80000e38:	0a6c4417          	auipc	s0,0xa6c4
    80000e3c:	82f9                	srli	a3,a3,0x1e
    80000e3e:	82f9                	srli	a3,a3,0x1e
    80000e40:	0001                	nop
    80000e42:	03b60e63          	beq	a2,s11,80000e7e <main_64_0_t+0xae>
    80000e46:	0094bb33          	sltu	s6,s1,s1
    80000e4a:	000807bb          	addw	a5,a6,zero
    80000e4e:	9d01                	subw	a0,a0,s0
    80000e50:	41660233          	sub	tp,a2,s6
    80000e54:	8f8d                	sub	a5,a5,a1
    80000e56:	03272133          	mulhsu	sp,a4,s2
    80000e5a:	40dc89bb          	subw	s3,s9,a3
    80000e5e:	9d01                	subw	a0,a0,s0
    80000e60:	04a9                	addi	s1,s1,10
    80000e62:	41bb519b          	sraiw	gp,s6,0x1b
    80000e66:	009bf663          	bgeu	s7,s1,80000e72 <main_64_0_t+0xa2>
    80000e6a:	018a5213          	srli	tp,s4,0x18
    80000e6e:	e3314393          	xori	t2,sp,-461
    80000e72:	86d9                	srai	a3,a3,0x16
    80000e74:	89d9                	andi	a1,a1,22
    80000e76:	8e49                	or	a2,a2,a0
    80000e78:	9a7e                	add	s4,s4,t6
    80000e7a:	01b60663          	beq	a2,s11,80000e86 <main_64_0_t+0xb6>
    80000e7e:	417dd533          	sra	a0,s11,s7
    80000e82:	01b95363          	bge	s2,s11,80000e88 <main_64_0_t+0xb8>
    80000e86:	717d                	addi	sp,sp,-16
    80000e88:	000725b3          	sltz	a1,a4
    80000e8c:	03f76733          	rem	a4,a4,t6
    80000e90:	09730a93          	addi	s5,t1,151
    80000e94:	56fd                	li	a3,-1
    80000e96:	000807bb          	addw	a5,a6,zero
    80000e9a:	023830b3          	mulhu	ra,a6,gp
    80000e9e:	0285e963          	bltu	a1,s0,80000ed0 <main_64_0_t+0x100>
    80000ea2:	9a7e                	add	s4,s4,t6
    80000ea4:	3f7d                	addiw	t5,t5,-1
    80000ea6:	02b2dc33          	divu	s8,t0,a1
    80000eaa:	0cc1881b          	addiw	a6,gp,204
    80000eae:	0001                	nop
    80000eb0:	edf82113          	slti	sp,a6,-289
    80000eb4:	41660233          	sub	tp,a2,s6
    80000eb8:	01e203b3          	add	t2,tp,t5
    80000ebc:	03f76733          	rem	a4,a4,t6
    80000ec0:	8f8d                	sub	a5,a5,a1
    80000ec2:	8e49                	or	a2,a2,a0
    80000ec4:	8a3a                	mv	s4,a4
    80000ec6:	41660233          	sub	tp,a2,s6
    80000eca:	000807bb          	addw	a5,a6,zero
    80000ece:	9d01                	subw	a0,a0,s0
    80000ed0:	0166feb3          	and	t4,a3,s6
    80000ed4:	0091ddb3          	srl	s11,gp,s1
    80000ed8:	0166feb3          	and	t4,a3,s6
    80000edc:	01b55bbb          	srlw	s7,a0,s11
    80000ee0:	03f76733          	rem	a4,a4,t6
    80000ee4:	02415b3b          	divuw	s6,sp,tp
    80000ee8:	40dc89bb          	subw	s3,s9,a3
    80000eec:	5be3e993          	ori	s3,t2,1470
    80000ef0:	01b95f63          	bge	s2,s11,80000f0e <main_64_0_t+0x13e>
    80000ef4:	8f8d                	sub	a5,a5,a1
    80000ef6:	00d316bb          	sllw	a3,t1,a3
    80000efa:	01e203b3          	add	t2,tp,t5
    80000efe:	3f7d                	addiw	t5,t5,-1
    80000f00:	41205ebb          	sraw	t4,zero,s2
    80000f04:	e3314393          	xori	t2,sp,-461
    80000f08:	8c21                	xor	s0,s0,s0
    80000f0a:	0094bb33          	sltu	s6,s1,s1
    80000f0e:	3f7d                	addiw	t5,t5,-1
    80000f10:	02d04e63          	bgtz	a3,80000f4c <main_64_0_t+0x17c>
    80000f14:	00ce1c1b          	slliw	s8,t3,0xc
    80000f18:	41660233          	sub	tp,a2,s6
    80000f1c:	84627b37          	lui	s6,0x84627
    80000f20:	56fd                	li	a3,-1
    80000f22:	04a9                	addi	s1,s1,10
    80000f24:	8f8d                	sub	a5,a5,a1
    80000f26:	04a9                	addi	s1,s1,10
    80000f28:	e705                	bnez	a4,80000f50 <main_64_0_t+0x180>
    80000f2a:	018a5213          	srli	tp,s4,0x18
    80000f2e:	3f7d                	addiw	t5,t5,-1
    80000f30:	8a3a                	mv	s4,a4
    80000f32:	01b95a63          	bge	s2,s11,80000f46 <main_64_0_t+0x176>
    80000f36:	00ce1c1b          	slliw	s8,t3,0xc
    80000f3a:	28d0f213          	andi	tp,ra,653
    80000f3e:	03eec933          	div	s2,t4,t5
    80000f42:	02a986bb          	mulw	a3,s3,a0
    80000f46:	0001                	nop
    80000f48:	03d44f3b          	divw	t5,s0,t4
    80000f4c:	0085e263          	bltu	a1,s0,80000f50 <main_64_0_t+0x180>
    80000f50:	02a986bb          	mulw	a3,s3,a0
    80000f54:	28d0f213          	andi	tp,ra,653
    80000f58:	41205ebb          	sraw	t4,zero,s2
    80000f5c:	28d0f213          	andi	tp,ra,653
    80000f60:	03272133          	mulhsu	sp,a4,s2
    80000f64:	3f7d                	addiw	t5,t5,-1
    80000f66:	09730a93          	addi	s5,t1,151
    80000f6a:	00ce1c1b          	slliw	s8,t3,0xc
    80000f6e:	3f7d                	addiw	t5,t5,-1
    80000f70:	8a3a                	mv	s4,a4
    80000f72:	ce91                	beqz	a3,80000f8e <main_64_0_t+0x1be>
    80000f74:	41205ebb          	sraw	t4,zero,s2
    80000f78:	0001                	nop
    80000f7a:	0cc1881b          	addiw	a6,gp,204
    80000f7e:	023a9b63          	bne	s5,gp,80000fb4 <main_64_0_t+0x1e4>
    80000f82:	01e203b3          	add	t2,tp,t5
    80000f86:	eb11                	bnez	a4,80000f9a <main_64_0_t+0x1ca>
    80000f88:	0a6c4417          	auipc	s0,0xa6c4
    80000f8c:	8c21                	xor	s0,s0,s0
    80000f8e:	01e203b3          	add	t2,tp,t5
    80000f92:	000807bb          	addw	a5,a6,zero
    80000f96:	00ce1c1b          	slliw	s8,t3,0xc
    80000f9a:	0166feb3          	and	t4,a3,s6
    80000f9e:	41205ebb          	sraw	t4,zero,s2
    80000fa2:	0588                	addi	a0,sp,704
    80000fa4:	00d04463          	bgtz	a3,80000fac <main_64_0_t+0x1dc>
    80000fa8:	4368d313          	srai	t1,a7,0x36
    80000fac:	8e49                	or	a2,a2,a0
    80000fae:	8c79                	and	s0,s0,a4
    80000fb0:	03f76733          	rem	a4,a4,t6
    80000fb4:	717d                	addi	sp,sp,-16
    80000fb6:	8a3a                	mv	s4,a4
    80000fb8:	41660233          	sub	tp,a2,s6
    80000fbc:	edf82113          	slti	sp,a6,-289
    80000fc0:	01ca4133          	xor	sp,s4,t3
    80000fc4:	4368d313          	srai	t1,a7,0x36
    80000fc8:	4368d313          	srai	t1,a7,0x36
    80000fcc:	56fd                	li	a3,-1
    80000fce:	8c21                	xor	s0,s0,s0
    80000fd0:	03272133          	mulhsu	sp,a4,s2
    80000fd4:	ca91                	beqz	a3,80000fe8 <main_64_0_t+0x218>
    80000fd6:	82f9                	srli	a3,a3,0x1e
    80000fd8:	84627b37          	lui	s6,0x84627
    80000fdc:	40dc89bb          	subw	s3,s9,a3
    80000fe0:	41205ebb          	sraw	t4,zero,s2
    80000fe4:	41205ebb          	sraw	t4,zero,s2
    80000fe8:	e319                	bnez	a4,80000fee <main_64_0_t+0x21e>
    80000fea:	03b60f63          	beq	a2,s11,80001028 <main_64_0_t+0x258>
    80000fee:	5be3e993          	ori	s3,t2,1470
    80000ff2:	03d44f3b          	divw	t5,s0,t4
    80000ff6:	0aa6                	slli	s5,s5,0x9
    80000ff8:	03d44f3b          	divw	t5,s0,t4
    80000ffc:	03b60e63          	beq	a2,s11,80001038 <main_64_0_t+0x268>
    80001000:	01a31093          	slli	ra,t1,0x1a
    80001004:	00d316bb          	sllw	a3,t1,a3
    80001008:	28d0f213          	andi	tp,ra,653
    8000100c:	0091ddb3          	srl	s11,gp,s1
    80001010:	9db9                	addw	a1,a1,a4
    80001012:	4368d313          	srai	t1,a7,0x36
    80001016:	717d                	addi	sp,sp,-16
    80001018:	82f9                	srli	a3,a3,0x1e
    8000101a:	82f9                	srli	a3,a3,0x1e
    8000101c:	8c79                	and	s0,s0,a4
    8000101e:	c691                	beqz	a3,8000102a <main_64_0_t+0x25a>
    80001020:	9db9                	addw	a1,a1,a4
    80001022:	82f9                	srli	a3,a3,0x1e
    80001024:	000725b3          	sltz	a1,a4
    80001028:	69ad                	lui	s3,0xb
    8000102a:	41bb519b          	sraiw	gp,s6,0x1b
    8000102e:	ca95                	beqz	a3,80001062 <main_64_0_t+0x292>
    80001030:	e3314393          	xori	t2,sp,-461
    80001034:	03d44f3b          	divw	t5,s0,t4
    80001038:	8c21                	xor	s0,s0,s0
    8000103a:	02a986bb          	mulw	a3,s3,a0
    8000103e:	69ad                	lui	s3,0xb
    80001040:	89d9                	andi	a1,a1,22
    80001042:	8c21                	xor	s0,s0,s0
    80001044:	01b60963          	beq	a2,s11,80001056 <main_64_0_t+0x286>
    80001048:	02a986bb          	mulw	a3,s3,a0
    8000104c:	0001                	nop
    8000104e:	93a6ba13          	sltiu	s4,a3,-1734
    80001052:	00ce1c1b          	slliw	s8,t3,0xc
    80001056:	93a6ba13          	sltiu	s4,a3,-1734
    8000105a:	000725b3          	sltz	a1,a4
    8000105e:	4368d313          	srai	t1,a7,0x36
    80001062:	02d04a63          	bgtz	a3,80001096 <main_64_0_t+0x2c6>
    80001066:	41660233          	sub	tp,a2,s6
    8000106a:	09730a93          	addi	s5,t1,151
    8000106e:	edf82113          	slti	sp,a6,-289
    80001072:	02415b3b          	divuw	s6,sp,tp
    80001076:	8f8d                	sub	a5,a5,a1
    80001078:	3f7d                	addiw	t5,t5,-1
    8000107a:	edf82113          	slti	sp,a6,-289
    8000107e:	01e203b3          	add	t2,tp,t5
    80001082:	09730a93          	addi	s5,t1,151
    80001086:	0001                	nop
    80001088:	00ce1c1b          	slliw	s8,t3,0xc
    8000108c:	8f8d                	sub	a5,a5,a1
    8000108e:	56fd                	li	a3,-1
    80001090:	0aa6                	slli	s5,s5,0x9
    80001092:	03272133          	mulhsu	sp,a4,s2
    80001096:	0a6c4417          	auipc	s0,0xa6c4
    8000109a:	00ce1c1b          	slliw	s8,t3,0xc
    8000109e:	03498fb3          	mul	t6,s3,s4
    800010a2:	0cc1881b          	addiw	a6,gp,204
    800010a6:	edf82113          	slti	sp,a6,-289
    800010aa:	00ce1c1b          	slliw	s8,t3,0xc
    800010ae:	4368d313          	srai	t1,a7,0x36
    800010b2:	00ce1c1b          	slliw	s8,t3,0xc
    800010b6:	40dc89bb          	subw	s3,s9,a3
    800010ba:	02061833          	mulh	a6,a2,zero
    800010be:	8a3a                	mv	s4,a4
    800010c0:	03272133          	mulhsu	sp,a4,s2
    800010c4:	0001                	nop
    800010c6:	86d9                	srai	a3,a3,0x16
    800010c8:	01ca4133          	xor	sp,s4,t3
    800010cc:	c289                	beqz	a3,800010ce <main_64_0_t+0x2fe>
    800010ce:	0001                	nop
    800010d0:	8f8d                	sub	a5,a5,a1
    800010d2:	89d9                	andi	a1,a1,22
    800010d4:	01a31093          	slli	ra,t1,0x1a
    800010d8:	03d44f3b          	divw	t5,s0,t4
    800010dc:	93a6ba13          	sltiu	s4,a3,-1734
    800010e0:	0091ddb3          	srl	s11,gp,s1
    800010e4:	000725b3          	sltz	a1,a4
    800010e8:	01ca4133          	xor	sp,s4,t3
    800010ec:	28d0f213          	andi	tp,ra,653
    800010f0:	02415b3b          	divuw	s6,sp,tp
    800010f4:	8c79                	and	s0,s0,a4
    800010f6:	03eec933          	div	s2,t4,t5
    800010fa:	0091ddb3          	srl	s11,gp,s1
    800010fe:	9d01                	subw	a0,a0,s0
    80001100:	9d01                	subw	a0,a0,s0
    80001102:	0aa6                	slli	s5,s5,0x9
    80001104:	0001                	nop
    80001106:	023830b3          	mulhu	ra,a6,gp
    8000110a:	0588                	addi	a0,sp,704
    8000110c:	03272133          	mulhsu	sp,a4,s2
    80001110:	02415b3b          	divuw	s6,sp,tp
    80001114:	02eb76bb          	remuw	a3,s6,a4
    80001118:	93a6ba13          	sltiu	s4,a3,-1734
    8000111c:	02fffcb3          	remu	s9,t6,a5
    80001120:	8c79                	and	s0,s0,a4
    80001122:	e319                	bnez	a4,80001128 <main_64_0_t+0x358>
    80001124:	0094bb33          	sltu	s6,s1,s1
    80001128:	023a9163          	bne	s5,gp,8000114a <main_64_0_t+0x37a>
    8000112c:	01e203b3          	add	t2,tp,t5
    80001130:	023a9563          	bne	s5,gp,8000115a <main_64_0_t+0x38a>
    80001134:	0a6c4417          	auipc	s0,0xa6c4
    80001138:	03b60f63          	beq	a2,s11,80001176 <main_64_0_t+0x3a6>
    8000113c:	56fd                	li	a3,-1
    8000113e:	3f7d                	addiw	t5,t5,-1
    80001140:	01a31093          	slli	ra,t1,0x1a
    80001144:	01e203b3          	add	t2,tp,t5
    80001148:	717d                	addi	sp,sp,-16
    8000114a:	40dc89bb          	subw	s3,s9,a3
    8000114e:	e3314393          	xori	t2,sp,-461
    80001152:	02a986bb          	mulw	a3,s3,a0
    80001156:	417dd533          	sra	a0,s11,s7
    8000115a:	023830b3          	mulhu	ra,a6,gp
    8000115e:	0001                	nop
    80001160:	e31d                	bnez	a4,80001186 <main_64_0_t+0x3b6>
    80001162:	02061833          	mulh	a6,a2,zero
    80001166:	0aa6                	slli	s5,s5,0x9
    80001168:	023830b3          	mulhu	ra,a6,gp
    8000116c:	0001                	nop
    8000116e:	0cc1881b          	addiw	a6,gp,204
    80001172:	03b95063          	bge	s2,s11,80001192 <main_64_0_t+0x3c2>
    80001176:	8e49                	or	a2,a2,a0
    80001178:	000725b3          	sltz	a1,a4
    8000117c:	023830b3          	mulhu	ra,a6,gp
    80001180:	0588                	addi	a0,sp,704
    80001182:	03272133          	mulhsu	sp,a4,s2
    80001186:	0094bb33          	sltu	s6,s1,s1
    8000118a:	023a9c63          	bne	s5,gp,800011c2 <main_64_0_t+0x3f2>
    8000118e:	28d0f213          	andi	tp,ra,653
    80001192:	69ad                	lui	s3,0xb
    80001194:	c689                	beqz	a3,8000119e <main_64_0_t+0x3ce>
    80001196:	029bf163          	bgeu	s7,s1,800011b8 <main_64_0_t+0x3e8>
    8000119a:	01a31093          	slli	ra,t1,0x1a
    8000119e:	56fd                	li	a3,-1
    800011a0:	02eb76bb          	remuw	a3,s6,a4
    800011a4:	5be3e993          	ori	s3,t2,1470
    800011a8:	5be3e993          	ori	s3,t2,1470
    800011ac:	02eb76bb          	remuw	a3,s6,a4
    800011b0:	02b2dc33          	divu	s8,t0,a1
    800011b4:	0094bb33          	sltu	s6,s1,s1
    800011b8:	0094bb33          	sltu	s6,s1,s1
    800011bc:	000725b3          	sltz	a1,a4
    800011c0:	04a9                	addi	s1,s1,10
    800011c2:	28d0f213          	andi	tp,ra,653
    800011c6:	003a9963          	bne	s5,gp,800011d8 <main_64_0_t+0x408>
    800011ca:	02eb76bb          	remuw	a3,s6,a4
    800011ce:	86d9                	srai	a3,a3,0x16
    800011d0:	93a6ba13          	sltiu	s4,a3,-1734
    800011d4:	0166feb3          	and	t4,a3,s6
    800011d8:	01b60563          	beq	a2,s11,800011e2 <main_64_0_t+0x412>
    800011dc:	86d9                	srai	a3,a3,0x16
    800011de:	0094bb33          	sltu	s6,s1,s1
    800011e2:	04a9                	addi	s1,s1,10
    800011e4:	02fffcb3          	remu	s9,t6,a5
    800011e8:	84627b37          	lui	s6,0x84627
    800011ec:	0588                	addi	a0,sp,704
    800011ee:	0a6c4417          	auipc	s0,0xa6c4
    800011f2:	41bb519b          	sraiw	gp,s6,0x1b
    800011f6:	41660233          	sub	tp,a2,s6
    800011fa:	000b561b          	srliw	a2,s6,0x0
    800011fe:	023a9a63          	bne	s5,gp,80001232 <main_64_0_t+0x462>
    80001202:	0085e463          	bltu	a1,s0,8000120a <main_64_0_t+0x43a>
    80001206:	009bf363          	bgeu	s7,s1,8000120c <main_64_0_t+0x43c>
    8000120a:	56fd                	li	a3,-1
    8000120c:	8f8d                	sub	a5,a5,a1
    8000120e:	00ce1c1b          	slliw	s8,t3,0xc
    80001212:	8a3a                	mv	s4,a4
    80001214:	41660233          	sub	tp,a2,s6
    80001218:	01ca4133          	xor	sp,s4,t3
    8000121c:	41660233          	sub	tp,a2,s6
    80001220:	000807bb          	addw	a5,a6,zero
    80001224:	01e203b3          	add	t2,tp,t5
    80001228:	86d9                	srai	a3,a3,0x16
    8000122a:	00d04e63          	bgtz	a3,80001246 <main_64_0_t+0x476>
    8000122e:	003a9263          	bne	s5,gp,80001232 <main_64_0_t+0x462>
    80001232:	000807bb          	addw	a5,a6,zero
    80001236:	69ad                	lui	s3,0xb
    80001238:	8c21                	xor	s0,s0,s0
    8000123a:	0094bb33          	sltu	s6,s1,s1
    8000123e:	93a6ba13          	sltiu	s4,a3,-1734
    80001242:	0a6c4417          	auipc	s0,0xa6c4
    80001246:	0588                	addi	a0,sp,704
    80001248:	0166feb3          	and	t4,a3,s6
    8000124c:	02061833          	mulh	a6,a2,zero
    80001250:	018a5213          	srli	tp,s4,0x18
    80001254:	000b561b          	srliw	a2,s6,0x0
    80001258:	09730a93          	addi	s5,t1,151
    8000125c:	0cc1881b          	addiw	a6,gp,204
    80001260:	28d0f213          	andi	tp,ra,653
    80001264:	0091ddb3          	srl	s11,gp,s1
    80001268:	5be3e993          	ori	s3,t2,1470
    8000126c:	02061833          	mulh	a6,a2,zero
    80001270:	003de5b3          	or	a1,s11,gp
    80001274:	01a31093          	slli	ra,t1,0x1a
    80001278:	3f7d                	addiw	t5,t5,-1
    8000127a:	82f9                	srli	a3,a3,0x1e
    8000127c:	93a6ba13          	sltiu	s4,a3,-1734
    80001280:	417dd533          	sra	a0,s11,s7
    80001284:	4368d313          	srai	t1,a7,0x36
    80001288:	40dc89bb          	subw	s3,s9,a3
    8000128c:	41bb519b          	sraiw	gp,s6,0x1b
    80001290:	0001                	nop
    80001292:	93a6ba13          	sltiu	s4,a3,-1734
    80001296:	0094bb33          	sltu	s6,s1,s1
    8000129a:	03eec933          	div	s2,t4,t5
    8000129e:	84627b37          	lui	s6,0x84627
    800012a2:	0001                	nop
    800012a4:	e321                	bnez	a4,800012e4 <main_64_0_t+0x514>
    800012a6:	02061833          	mulh	a6,a2,zero
    800012aa:	0285ee63          	bltu	a1,s0,800012e6 <main_64_0_t+0x516>
    800012ae:	0cc1881b          	addiw	a6,gp,204
    800012b2:	4368d313          	srai	t1,a7,0x36
    800012b6:	04a9                	addi	s1,s1,10
    800012b8:	417dd533          	sra	a0,s11,s7
    800012bc:	09730a93          	addi	s5,t1,151
    800012c0:	02a986bb          	mulw	a3,s3,a0
    800012c4:	03d44f3b          	divw	t5,s0,t4
    800012c8:	0001                	nop
    800012ca:	8c21                	xor	s0,s0,s0
    800012cc:	02061833          	mulh	a6,a2,zero
    800012d0:	0091ddb3          	srl	s11,gp,s1
    800012d4:	00ce1c1b          	slliw	s8,t3,0xc
    800012d8:	9d01                	subw	a0,a0,s0
    800012da:	01b55bbb          	srlw	s7,a0,s11
    800012de:	0cc1881b          	addiw	a6,gp,204
    800012e2:	0001                	nop
    800012e4:	9db9                	addw	a1,a1,a4
    800012e6:	0aa6                	slli	s5,s5,0x9
    800012e8:	01e203b3          	add	t2,tp,t5
    800012ec:	9d01                	subw	a0,a0,s0
    800012ee:	56fd                	li	a3,-1
    800012f0:	3f7d                	addiw	t5,t5,-1
    800012f2:	40dc89bb          	subw	s3,s9,a3
    800012f6:	0166feb3          	and	t4,a3,s6
    800012fa:	0cc1881b          	addiw	a6,gp,204
    800012fe:	3f7d                	addiw	t5,t5,-1
    80001300:	8c21                	xor	s0,s0,s0
    80001302:	000b561b          	srliw	a2,s6,0x0
    80001306:	000b561b          	srliw	a2,s6,0x0
    8000130a:	0285e663          	bltu	a1,s0,80001336 <main_64_0_t+0x566>
    8000130e:	029bfa63          	bgeu	s7,s1,80001342 <main_64_0_t+0x572>
    80001312:	0588                	addi	a0,sp,704
    80001314:	40dc89bb          	subw	s3,s9,a3
    80001318:	41660233          	sub	tp,a2,s6
    8000131c:	02d04863          	bgtz	a3,8000134c <main_64_0_t+0x57c>
    80001320:	003de5b3          	or	a1,s11,gp
    80001324:	9d01                	subw	a0,a0,s0
    80001326:	03498fb3          	mul	t6,s3,s4
    8000132a:	02d04b63          	bgtz	a3,80001360 <main_64_0_t+0x590>
    8000132e:	0094bb33          	sltu	s6,s1,s1
    80001332:	0001                	nop
    80001334:	56fd                	li	a3,-1
    80001336:	8f8d                	sub	a5,a5,a1
    80001338:	05b60163          	beq	a2,s11,8000137a <main_64_0_t+0x5aa>
    8000133c:	8a3a                	mv	s4,a4
    8000133e:	41bb519b          	sraiw	gp,s6,0x1b
    80001342:	9d01                	subw	a0,a0,s0
    80001344:	4368d313          	srai	t1,a7,0x36
    80001348:	02a986bb          	mulw	a3,s3,a0
    8000134c:	01a31093          	slli	ra,t1,0x1a
    80001350:	000807bb          	addw	a5,a6,zero
    80001354:	0a6c4417          	auipc	s0,0xa6c4
    80001358:	0166feb3          	and	t4,a3,s6
    8000135c:	4368d313          	srai	t1,a7,0x36
    80001360:	02deedbb          	remw	s11,t4,a3
    80001364:	8f8d                	sub	a5,a5,a1
    80001366:	717d                	addi	sp,sp,-16
    80001368:	09730a93          	addi	s5,t1,151
    8000136c:	8a3a                	mv	s4,a4
    8000136e:	40dc89bb          	subw	s3,s9,a3
    80001372:	01b55bbb          	srlw	s7,a0,s11
    80001376:	023a9c63          	bne	s5,gp,800013ae <main_64_0_t+0x5de>
    8000137a:	93a6ba13          	sltiu	s4,a3,-1734
    8000137e:	0285e063          	bltu	a1,s0,8000139e <main_64_0_t+0x5ce>
    80001382:	02fffcb3          	remu	s9,t6,a5
    80001386:	003de5b3          	or	a1,s11,gp
    8000138a:	03498fb3          	mul	t6,s3,s4
    8000138e:	000b561b          	srliw	a2,s6,0x0
    80001392:	01b55bbb          	srlw	s7,a0,s11
    80001396:	84627b37          	lui	s6,0x84627
    8000139a:	03272133          	mulhsu	sp,a4,s2
    8000139e:	9a7e                	add	s4,s4,t6
    800013a0:	e3314393          	xori	t2,sp,-461
    800013a4:	5be3e993          	ori	s3,t2,1470
    800013a8:	3f7d                	addiw	t5,t5,-1
    800013aa:	417dd533          	sra	a0,s11,s7
    800013ae:	0166feb3          	and	t4,a3,s6
    800013b2:	0a6c4417          	auipc	s0,0xa6c4
    800013b6:	000807bb          	addw	a5,a6,zero
    800013ba:	000b561b          	srliw	a2,s6,0x0
    800013be:	41205ebb          	sraw	t4,zero,s2
    800013c2:	00d04a63          	bgtz	a3,800013d6 <main_64_0_t+0x606>
    800013c6:	89d9                	andi	a1,a1,22
    800013c8:	04a9                	addi	s1,s1,10
    800013ca:	03498fb3          	mul	t6,s3,s4
    800013ce:	01b60263          	beq	a2,s11,800013d2 <main_64_0_t+0x602>
    800013d2:	40dc89bb          	subw	s3,s9,a3
    800013d6:	84627b37          	lui	s6,0x84627
    800013da:	00d04363          	bgtz	a3,800013e0 <main_64_0_t+0x610>
    800013de:	04a9                	addi	s1,s1,10
    800013e0:	8f8d                	sub	a5,a5,a1
    800013e2:	0166feb3          	and	t4,a3,s6
    800013e6:	03d44f3b          	divw	t5,s0,t4
    800013ea:	018a5213          	srli	tp,s4,0x18
    800013ee:	002495b3          	sll	a1,s1,sp
    800013f2:	417dd533          	sra	a0,s11,s7
    800013f6:	0588                	addi	a0,sp,704
    800013f8:	0aa6                	slli	s5,s5,0x9
    800013fa:	8e49                	or	a2,a2,a0
    800013fc:	9a7e                	add	s4,s4,t6
    800013fe:	0094bb33          	sltu	s6,s1,s1
    80001402:	ce99                	beqz	a3,80001420 <main_64_0_t+0x650>
    80001404:	02061833          	mulh	a6,a2,zero
    80001408:	9a7e                	add	s4,s4,t6
    8000140a:	01a31093          	slli	ra,t1,0x1a
    8000140e:	03b95963          	bge	s2,s11,80001440 <main_64_0_t+0x670>
    80001412:	0001                	nop
    80001414:	02b2dc33          	divu	s8,t0,a1
    80001418:	0588                	addi	a0,sp,704
    8000141a:	009bf963          	bgeu	s7,s1,8000142c <main_64_0_t+0x65c>
    8000141e:	69ad                	lui	s3,0xb
    80001420:	02fffcb3          	remu	s9,t6,a5
    80001424:	03b95f63          	bge	s2,s11,80001462 <main_64_0_t+0x692>
    80001428:	40dc89bb          	subw	s3,s9,a3
    8000142c:	0094bb33          	sltu	s6,s1,s1
    80001430:	9a7e                	add	s4,s4,t6
    80001432:	eb05                	bnez	a4,80001462 <main_64_0_t+0x692>
    80001434:	e311                	bnez	a4,80001438 <main_64_0_t+0x668>
    80001436:	8e49                	or	a2,a2,a0
    80001438:	002495b3          	sll	a1,s1,sp
    8000143c:	01b95e63          	bge	s2,s11,80001458 <main_64_0_t+0x688>
    80001440:	01ca4133          	xor	sp,s4,t3
    80001444:	8a3a                	mv	s4,a4
    80001446:	0091ddb3          	srl	s11,gp,s1
    8000144a:	0085e363          	bltu	a1,s0,80001450 <main_64_0_t+0x680>
    8000144e:	86d9                	srai	a3,a3,0x16
    80001450:	0085e263          	bltu	a1,s0,80001454 <main_64_0_t+0x684>
    80001454:	8c21                	xor	s0,s0,s0
    80001456:	69ad                	lui	s3,0xb
    80001458:	000b561b          	srliw	a2,s6,0x0
    8000145c:	8c21                	xor	s0,s0,s0
    8000145e:	01b60663          	beq	a2,s11,8000146a <main_64_0_t+0x69a>
    80001462:	0166feb3          	and	t4,a3,s6
    80001466:	0094bb33          	sltu	s6,s1,s1
    8000146a:	3f7d                	addiw	t5,t5,-1
    8000146c:	03d44f3b          	divw	t5,s0,t4
    80001470:	023830b3          	mulhu	ra,a6,gp
    80001474:	01a31093          	slli	ra,t1,0x1a
    80001478:	02061833          	mulh	a6,a2,zero
    8000147c:	8c21                	xor	s0,s0,s0
    8000147e:	40dc89bb          	subw	s3,s9,a3
    80001482:	40dc89bb          	subw	s3,s9,a3
    80001486:	0cc1881b          	addiw	a6,gp,204
    8000148a:	4c9d                	li	s9,7
    8000148c:	4e9d                	li	t4,7

000000008000148e <main_58_0_t>:
    8000148e:	09730a93          	addi	s5,t1,151
    80001492:	1cdd                	addi	s9,s9,-9 # ffffffff84626ff7 <_end+0xffffffff045fa66f>
    80001494:	8e79                	and	a2,a2,a4
    80001496:	ffdcdce3          	bge	s9,t4,8000148e <main_58_0_t>
    8000149a:	edf82113          	slti	sp,a6,-289
    8000149e:	02eb76bb          	remuw	a3,s6,a4
    800014a2:	01b55bbb          	srlw	s7,a0,s11
    800014a6:	04d04263          	bgtz	a3,800014ea <main_58_0_t+0x5c>
    800014aa:	28d0f213          	andi	tp,ra,653
    800014ae:	01b55bbb          	srlw	s7,a0,s11
    800014b2:	89d9                	andi	a1,a1,22
    800014b4:	9db9                	addw	a1,a1,a4
    800014b6:	0001                	nop
    800014b8:	023830b3          	mulhu	ra,a6,gp
    800014bc:	3f7d                	addiw	t5,t5,-1
    800014be:	002495b3          	sll	a1,s1,sp
    800014c2:	03d44f3b          	divw	t5,s0,t4
    800014c6:	02415b3b          	divuw	s6,sp,tp
    800014ca:	003a9463          	bne	s5,gp,800014d2 <main_58_0_t+0x44>
    800014ce:	02eb76bb          	remuw	a3,s6,a4
    800014d2:	417dd533          	sra	a0,s11,s7
    800014d6:	02fffcb3          	remu	s9,t6,a5
    800014da:	02061833          	mulh	a6,a2,zero
    800014de:	84627b37          	lui	s6,0x84627
    800014e2:	0094bb33          	sltu	s6,s1,s1
    800014e6:	03eec933          	div	s2,t4,t5
    800014ea:	03f76733          	rem	a4,a4,t6
    800014ee:	003de5b3          	or	a1,s11,gp
    800014f2:	82f9                	srli	a3,a3,0x1e
    800014f4:	02061833          	mulh	a6,a2,zero
    800014f8:	8c21                	xor	s0,s0,s0
    800014fa:	86d9                	srai	a3,a3,0x16
    800014fc:	02b2dc33          	divu	s8,t0,a1
    80001500:	9d01                	subw	a0,a0,s0
    80001502:	02fffcb3          	remu	s9,t6,a5
    80001506:	0aa6                	slli	s5,s5,0x9
    80001508:	93a6ba13          	sltiu	s4,a3,-1734
    8000150c:	41660233          	sub	tp,a2,s6
    80001510:	edf82113          	slti	sp,a6,-289
    80001514:	03d44f3b          	divw	t5,s0,t4
    80001518:	9d01                	subw	a0,a0,s0
    8000151a:	8c79                	and	s0,s0,a4
    8000151c:	02deedbb          	remw	s11,t4,a3
    80001520:	0588                	addi	a0,sp,704
    80001522:	40dc89bb          	subw	s3,s9,a3
    80001526:	8c21                	xor	s0,s0,s0
    80001528:	eb1d                	bnez	a4,8000155e <main_58_0_t+0xd0>
    8000152a:	01a31093          	slli	ra,t1,0x1a
    8000152e:	03d44f3b          	divw	t5,s0,t4
    80001532:	003de5b3          	or	a1,s11,gp
    80001536:	03eec933          	div	s2,t4,t5
    8000153a:	9d01                	subw	a0,a0,s0
    8000153c:	003de5b3          	or	a1,s11,gp
    80001540:	8f8d                	sub	a5,a5,a1
    80001542:	0001                	nop
    80001544:	28d0f213          	andi	tp,ra,653
    80001548:	09730a93          	addi	s5,t1,151
    8000154c:	0285e763          	bltu	a1,s0,8000157a <main_58_0_t+0xec>
    80001550:	84627b37          	lui	s6,0x84627
    80001554:	0aa6                	slli	s5,s5,0x9
    80001556:	01b55bbb          	srlw	s7,a0,s11
    8000155a:	5be3e993          	ori	s3,t2,1470
    8000155e:	02fffcb3          	remu	s9,t6,a5
    80001562:	84627b37          	lui	s6,0x84627
    80001566:	0485e663          	bltu	a1,s0,800015b2 <main_58_0_t+0x124>
    8000156a:	417dd533          	sra	a0,s11,s7
    8000156e:	000725b3          	sltz	a1,a4
    80001572:	03272133          	mulhsu	sp,a4,s2
    80001576:	41bb519b          	sraiw	gp,s6,0x1b
    8000157a:	02eb76bb          	remuw	a3,s6,a4
    8000157e:	edf82113          	slti	sp,a6,-289
    80001582:	717d                	addi	sp,sp,-16
    80001584:	000807bb          	addw	a5,a6,zero
    80001588:	023830b3          	mulhu	ra,a6,gp
    8000158c:	e3314393          	xori	t2,sp,-461
    80001590:	02415b3b          	divuw	s6,sp,tp
    80001594:	02061833          	mulh	a6,a2,zero
    80001598:	41660233          	sub	tp,a2,s6
    8000159c:	018a5213          	srli	tp,s4,0x18
    800015a0:	9db9                	addw	a1,a1,a4
    800015a2:	002495b3          	sll	a1,s1,sp
    800015a6:	02415b3b          	divuw	s6,sp,tp
    800015aa:	03d44f3b          	divw	t5,s0,t4
    800015ae:	003a9863          	bne	s5,gp,800015be <main_58_0_t+0x130>
    800015b2:	000807bb          	addw	a5,a6,zero
    800015b6:	02061833          	mulh	a6,a2,zero
    800015ba:	86d9                	srai	a3,a3,0x16
    800015bc:	82f9                	srli	a3,a3,0x1e
    800015be:	000725b3          	sltz	a1,a4
    800015c2:	41bb519b          	sraiw	gp,s6,0x1b
    800015c6:	03272133          	mulhsu	sp,a4,s2
    800015ca:	009bf663          	bgeu	s7,s1,800015d6 <main_58_0_t+0x148>
    800015ce:	000807bb          	addw	a5,a6,zero
    800015d2:	0a6c4417          	auipc	s0,0xa6c4
    800015d6:	3f7d                	addiw	t5,t5,-1
    800015d8:	023830b3          	mulhu	ra,a6,gp
    800015dc:	0cc1881b          	addiw	a6,gp,204
    800015e0:	00d316bb          	sllw	a3,t1,a3
    800015e4:	03b95263          	bge	s2,s11,80001608 <main_58_0_t+0x17a>
    800015e8:	0094bb33          	sltu	s6,s1,s1
    800015ec:	02deedbb          	remw	s11,t4,a3
    800015f0:	03b95a63          	bge	s2,s11,80001624 <main_58_0_t+0x196>
    800015f4:	0aa6                	slli	s5,s5,0x9
    800015f6:	82f9                	srli	a3,a3,0x1e
    800015f8:	56fd                	li	a3,-1
    800015fa:	8c79                	and	s0,s0,a4
    800015fc:	e711                	bnez	a4,80001608 <main_58_0_t+0x17a>
    800015fe:	ef11                	bnez	a4,8000161a <main_58_0_t+0x18c>
    80001600:	01a31093          	slli	ra,t1,0x1a
    80001604:	9db9                	addw	a1,a1,a4
    80001606:	0aa6                	slli	s5,s5,0x9
    80001608:	02415b3b          	divuw	s6,sp,tp
    8000160c:	9d01                	subw	a0,a0,s0
    8000160e:	5be3e993          	ori	s3,t2,1470
    80001612:	002495b3          	sll	a1,s1,sp
    80001616:	00d316bb          	sllw	a3,t1,a3
    8000161a:	023a9663          	bne	s5,gp,80001646 <main_58_0_t+0x1b8>
    8000161e:	717d                	addi	sp,sp,-16
    80001620:	02fffcb3          	remu	s9,t6,a5
    80001624:	003de5b3          	or	a1,s11,gp
    80001628:	02fffcb3          	remu	s9,t6,a5
    8000162c:	9d01                	subw	a0,a0,s0
    8000162e:	5be3e993          	ori	s3,t2,1470
    80001632:	41660233          	sub	tp,a2,s6
    80001636:	0091ddb3          	srl	s11,gp,s1
    8000163a:	0a6c4417          	auipc	s0,0xa6c4
    8000163e:	000b561b          	srliw	a2,s6,0x0
    80001642:	018a5213          	srli	tp,s4,0x18
    80001646:	9d01                	subw	a0,a0,s0
    80001648:	023a9963          	bne	s5,gp,8000167a <main_58_0_t+0x1ec>
    8000164c:	56fd                	li	a3,-1
    8000164e:	02deedbb          	remw	s11,t4,a3
    80001652:	0a6c4417          	auipc	s0,0xa6c4
    80001656:	8c21                	xor	s0,s0,s0
    80001658:	09730a93          	addi	s5,t1,151
    8000165c:	02b2dc33          	divu	s8,t0,a1
    80001660:	eb01                	bnez	a4,80001670 <main_58_0_t+0x1e2>
    80001662:	41bb519b          	sraiw	gp,s6,0x1b
    80001666:	01a31093          	slli	ra,t1,0x1a
    8000166a:	02415b3b          	divuw	s6,sp,tp
    8000166e:	8c79                	and	s0,s0,a4
    80001670:	003a9863          	bne	s5,gp,80001680 <main_58_0_t+0x1f2>
    80001674:	41660233          	sub	tp,a2,s6
    80001678:	8c79                	and	s0,s0,a4
    8000167a:	018a5213          	srli	tp,s4,0x18
    8000167e:	717d                	addi	sp,sp,-16
    80001680:	8c79                	and	s0,s0,a4
    80001682:	0091ddb3          	srl	s11,gp,s1
    80001686:	003de5b3          	or	a1,s11,gp
    8000168a:	0094bb33          	sltu	s6,s1,s1
    8000168e:	0aa6                	slli	s5,s5,0x9
    80001690:	03272133          	mulhsu	sp,a4,s2
    80001694:	03272133          	mulhsu	sp,a4,s2
    80001698:	023830b3          	mulhu	ra,a6,gp
    8000169c:	0285ef63          	bltu	a1,s0,800016da <main_58_0_t+0x24c>
    800016a0:	02061833          	mulh	a6,a2,zero
    800016a4:	03498fb3          	mul	t6,s3,s4
    800016a8:	9db9                	addw	a1,a1,a4
    800016aa:	00d316bb          	sllw	a3,t1,a3
    800016ae:	01b55bbb          	srlw	s7,a0,s11
    800016b2:	8c79                	and	s0,s0,a4
    800016b4:	5be3e993          	ori	s3,t2,1470
    800016b8:	002495b3          	sll	a1,s1,sp
    800016bc:	02061833          	mulh	a6,a2,zero
    800016c0:	000807bb          	addw	a5,a6,zero
    800016c4:	0001                	nop
    800016c6:	0085e363          	bltu	a1,s0,800016cc <main_58_0_t+0x23e>
    800016ca:	04a9                	addi	s1,s1,10
    800016cc:	69ad                	lui	s3,0xb
    800016ce:	8c79                	and	s0,s0,a4
    800016d0:	9db9                	addw	a1,a1,a4
    800016d2:	03272133          	mulhsu	sp,a4,s2
    800016d6:	02a986bb          	mulw	a3,s3,a0
    800016da:	002495b3          	sll	a1,s1,sp
    800016de:	28d0f213          	andi	tp,ra,653
    800016e2:	000725b3          	sltz	a1,a4
    800016e6:	02fffcb3          	remu	s9,t6,a5
    800016ea:	0cc1881b          	addiw	a6,gp,204
    800016ee:	01e203b3          	add	t2,tp,t5
    800016f2:	82f9                	srli	a3,a3,0x1e
    800016f4:	89d9                	andi	a1,a1,22
    800016f6:	01b55bbb          	srlw	s7,a0,s11
    800016fa:	4368d313          	srai	t1,a7,0x36
    800016fe:	93a6ba13          	sltiu	s4,a3,-1734
    80001702:	e319                	bnez	a4,80001708 <main_58_0_t+0x27a>
    80001704:	0091ddb3          	srl	s11,gp,s1
    80001708:	417dd533          	sra	a0,s11,s7
    8000170c:	4368d313          	srai	t1,a7,0x36
    80001710:	4368d313          	srai	t1,a7,0x36
    80001714:	029bf263          	bgeu	s7,s1,80001738 <main_58_0_t+0x2aa>
    80001718:	89d9                	andi	a1,a1,22
    8000171a:	0588                	addi	a0,sp,704
    8000171c:	003a9e63          	bne	s5,gp,80001738 <main_58_0_t+0x2aa>
    80001720:	417dd533          	sra	a0,s11,s7
    80001724:	69ad                	lui	s3,0xb
    80001726:	0094bb33          	sltu	s6,s1,s1
    8000172a:	04a9                	addi	s1,s1,10
    8000172c:	9d01                	subw	a0,a0,s0
    8000172e:	e319                	bnez	a4,80001734 <main_58_0_t+0x2a6>
    80001730:	edf82113          	slti	sp,a6,-289
    80001734:	002495b3          	sll	a1,s1,sp
    80001738:	8f8d                	sub	a5,a5,a1
    8000173a:	e3314393          	xori	t2,sp,-461
    8000173e:	41bb519b          	sraiw	gp,s6,0x1b
    80001742:	03272133          	mulhsu	sp,a4,s2
    80001746:	018a5213          	srli	tp,s4,0x18
    8000174a:	000725b3          	sltz	a1,a4
    8000174e:	009bff63          	bgeu	s7,s1,8000176c <main_58_0_t+0x2de>
    80001752:	41205ebb          	sraw	t4,zero,s2
    80001756:	5be3e993          	ori	s3,t2,1470
    8000175a:	01b60963          	beq	a2,s11,8000176c <main_58_0_t+0x2de>
    8000175e:	003de5b3          	or	a1,s11,gp
    80001762:	01e203b3          	add	t2,tp,t5
    80001766:	0285e363          	bltu	a1,s0,8000178c <main_58_0_t+0x2fe>
    8000176a:	0001                	nop
    8000176c:	03b60563          	beq	a2,s11,80001796 <main_58_0_t+0x308>
    80001770:	0094bb33          	sltu	s6,s1,s1
    80001774:	02d04763          	bgtz	a3,800017a2 <main_58_0_t+0x314>
    80001778:	0588                	addi	a0,sp,704
    8000177a:	89d9                	andi	a1,a1,22
    8000177c:	9a7e                	add	s4,s4,t6
    8000177e:	02eb76bb          	remuw	a3,s6,a4
    80001782:	86d9                	srai	a3,a3,0x16
    80001784:	0a6c4417          	auipc	s0,0xa6c4
    80001788:	e3314393          	xori	t2,sp,-461
    8000178c:	3f7d                	addiw	t5,t5,-1
    8000178e:	002495b3          	sll	a1,s1,sp
    80001792:	e3314393          	xori	t2,sp,-461
    80001796:	003a9963          	bne	s5,gp,800017a8 <main_58_0_t+0x31a>
    8000179a:	01ca4133          	xor	sp,s4,t3
    8000179e:	8e49                	or	a2,a2,a0
    800017a0:	ca8d                	beqz	a3,800017d2 <main_58_0_t+0x344>
    800017a2:	69ad                	lui	s3,0xb
    800017a4:	023a9e63          	bne	s5,gp,800017e0 <main_58_0_t+0x352>
    800017a8:	0aa6                	slli	s5,s5,0x9
    800017aa:	89d9                	andi	a1,a1,22
    800017ac:	009bf663          	bgeu	s7,s1,800017b8 <main_58_0_t+0x32a>
    800017b0:	40dc89bb          	subw	s3,s9,a3
    800017b4:	03272133          	mulhsu	sp,a4,s2
    800017b8:	86d9                	srai	a3,a3,0x16
    800017ba:	0cc1881b          	addiw	a6,gp,204
    800017be:	e305                	bnez	a4,800017de <main_58_0_t+0x350>
    800017c0:	03d44f3b          	divw	t5,s0,t4
    800017c4:	4368d313          	srai	t1,a7,0x36
    800017c8:	5be3e993          	ori	s3,t2,1470
    800017cc:	89d9                	andi	a1,a1,22
    800017ce:	0166feb3          	and	t4,a3,s6
    800017d2:	000807bb          	addw	a5,a6,zero
    800017d6:	02061833          	mulh	a6,a2,zero
    800017da:	03498fb3          	mul	t6,s3,s4
    800017de:	8f8d                	sub	a5,a5,a1
    800017e0:	9db9                	addw	a1,a1,a4
    800017e2:	40dc89bb          	subw	s3,s9,a3
    800017e6:	0a6c4417          	auipc	s0,0xa6c4
    800017ea:	40dc89bb          	subw	s3,s9,a3
    800017ee:	e3314393          	xori	t2,sp,-461
    800017f2:	89d9                	andi	a1,a1,22
    800017f4:	02b2dc33          	divu	s8,t0,a1
    800017f8:	03f76733          	rem	a4,a4,t6
    800017fc:	03b60863          	beq	a2,s11,8000182c <main_58_0_t+0x39e>
    80001800:	9a7e                	add	s4,s4,t6
    80001802:	0cc1881b          	addiw	a6,gp,204
    80001806:	ce95                	beqz	a3,80001842 <main_58_0_t+0x3b4>
    80001808:	0588                	addi	a0,sp,704
    8000180a:	0001                	nop
    8000180c:	5be3e993          	ori	s3,t2,1470
    80001810:	05b95163          	bge	s2,s11,80001852 <main_58_0_t+0x3c4>
    80001814:	56fd                	li	a3,-1
    80001816:	0091ddb3          	srl	s11,gp,s1
    8000181a:	0001                	nop
    8000181c:	3f7d                	addiw	t5,t5,-1
    8000181e:	000b561b          	srliw	a2,s6,0x0
    80001822:	9db9                	addw	a1,a1,a4
    80001824:	029bf363          	bgeu	s7,s1,8000184a <main_58_0_t+0x3bc>
    80001828:	002495b3          	sll	a1,s1,sp
    8000182c:	01b55bbb          	srlw	s7,a0,s11
    80001830:	e3314393          	xori	t2,sp,-461
    80001834:	8a3a                	mv	s4,a4
    80001836:	01b55bbb          	srlw	s7,a0,s11
    8000183a:	000807bb          	addw	a5,a6,zero
    8000183e:	03272133          	mulhsu	sp,a4,s2
    80001842:	003a9463          	bne	s5,gp,8000184a <main_58_0_t+0x3bc>
    80001846:	28d0f213          	andi	tp,ra,653
    8000184a:	3f7d                	addiw	t5,t5,-1
    8000184c:	0aa6                	slli	s5,s5,0x9
    8000184e:	03272133          	mulhsu	sp,a4,s2
    80001852:	023830b3          	mulhu	ra,a6,gp
    80001856:	01e203b3          	add	t2,tp,t5
    8000185a:	0166feb3          	and	t4,a3,s6
    8000185e:	00ce1c1b          	slliw	s8,t3,0xc
    80001862:	0001                	nop
    80001864:	00ce1c1b          	slliw	s8,t3,0xc
    80001868:	003de5b3          	or	a1,s11,gp
    8000186c:	03eec933          	div	s2,t4,t5
    80001870:	0aa6                	slli	s5,s5,0x9
    80001872:	000725b3          	sltz	a1,a4
    80001876:	02fffcb3          	remu	s9,t6,a5
    8000187a:	02415b3b          	divuw	s6,sp,tp
    8000187e:	02deedbb          	remw	s11,t4,a3
    80001882:	02fffcb3          	remu	s9,t6,a5
    80001886:	4368d313          	srai	t1,a7,0x36
    8000188a:	01a31093          	slli	ra,t1,0x1a
    8000188e:	023830b3          	mulhu	ra,a6,gp
    80001892:	0588                	addi	a0,sp,704
    80001894:	8f8d                	sub	a5,a5,a1
    80001896:	00d316bb          	sllw	a3,t1,a3
    8000189a:	0cc1881b          	addiw	a6,gp,204
    8000189e:	0091ddb3          	srl	s11,gp,s1
    800018a2:	0cc1881b          	addiw	a6,gp,204
    800018a6:	03d44f3b          	divw	t5,s0,t4
    800018aa:	02415b3b          	divuw	s6,sp,tp
    800018ae:	8a3a                	mv	s4,a4
    800018b0:	40dc89bb          	subw	s3,s9,a3
    800018b4:	00ce1c1b          	slliw	s8,t3,0xc
    800018b8:	c2b1                	beqz	a3,800018fc <main_58_0_t+0x46e>
    800018ba:	03272133          	mulhsu	sp,a4,s2
    800018be:	02deedbb          	remw	s11,t4,a3
    800018c2:	002495b3          	sll	a1,s1,sp
    800018c6:	04a9                	addi	s1,s1,10
    800018c8:	04a9                	addi	s1,s1,10
    800018ca:	28d0f213          	andi	tp,ra,653
    800018ce:	03eec933          	div	s2,t4,t5
    800018d2:	82f9                	srli	a3,a3,0x1e
    800018d4:	00ce1c1b          	slliw	s8,t3,0xc
    800018d8:	02a986bb          	mulw	a3,s3,a0
    800018dc:	8c21                	xor	s0,s0,s0
    800018de:	03d44f3b          	divw	t5,s0,t4
    800018e2:	40dc89bb          	subw	s3,s9,a3
    800018e6:	000b561b          	srliw	a2,s6,0x0
    800018ea:	417dd533          	sra	a0,s11,s7
    800018ee:	0094bb33          	sltu	s6,s1,s1
    800018f2:	023830b3          	mulhu	ra,a6,gp
    800018f6:	56fd                	li	a3,-1
    800018f8:	02fffcb3          	remu	s9,t6,a5
    800018fc:	0091ddb3          	srl	s11,gp,s1
    80001900:	000b561b          	srliw	a2,s6,0x0
    80001904:	018a5213          	srli	tp,s4,0x18
    80001908:	0a6c4417          	auipc	s0,0xa6c4
    8000190c:	02d04b63          	bgtz	a3,80001942 <main_58_0_t+0x4b4>
    80001910:	41660233          	sub	tp,a2,s6
    80001914:	9a7e                	add	s4,s4,t6
    80001916:	000b561b          	srliw	a2,s6,0x0
    8000191a:	417dd533          	sra	a0,s11,s7
    8000191e:	01a31093          	slli	ra,t1,0x1a
    80001922:	9a7e                	add	s4,s4,t6
    80001924:	0094bb33          	sltu	s6,s1,s1
    80001928:	0aa6                	slli	s5,s5,0x9
    8000192a:	3f7d                	addiw	t5,t5,-1
    8000192c:	417dd533          	sra	a0,s11,s7
    80001930:	8c79                	and	s0,s0,a4
    80001932:	0094bb33          	sltu	s6,s1,s1
    80001936:	03eec933          	div	s2,t4,t5
    8000193a:	02a986bb          	mulw	a3,s3,a0
    8000193e:	0166feb3          	and	t4,a3,s6
    80001942:	03b60963          	beq	a2,s11,80001974 <main_26+0x2e>

0000000080001946 <main_26>:
    80001946:	01600eef          	jal	t4,8000195c <main_26+0x16>
    8000194a:	01c000ef          	jal	80001966 <main_26+0x20>
    8000194e:	a829                	j	80001968 <main_26+0x22>
    80001950:	ffbff0ef          	jal	8000194a <main_26+0x4>
    80001954:	a011                	j	80001958 <main_26+0x12>
    80001956:	bfe5                	j	8000194e <main_26+0x8>
    80001958:	ff9ff0ef          	jal	80001950 <main_26+0xa>
    8000195c:	008000ef          	jal	80001964 <main_26+0x1e>
    80001960:	ff7ff0ef          	jal	80001956 <main_26+0x10>
    80001964:	bfc5                	j	80001954 <main_26+0xe>
    80001966:	bfed                	j	80001960 <main_26+0x1a>
    80001968:	e3314393          	xori	t2,sp,-461
    8000196c:	0085e263          	bltu	a1,s0,80001970 <main_26+0x2a>
    80001970:	417dd533          	sra	a0,s11,s7
    80001974:	8f8d                	sub	a5,a5,a1
    80001976:	0094bb33          	sltu	s6,s1,s1
    8000197a:	ca95                	beqz	a3,800019ae <main_26+0x68>
    8000197c:	01ca4133          	xor	sp,s4,t3
    80001980:	03498fb3          	mul	t6,s3,s4
    80001984:	02eb76bb          	remuw	a3,s6,a4
    80001988:	04a9                	addi	s1,s1,10
    8000198a:	03f76733          	rem	a4,a4,t6
    8000198e:	0094bb33          	sltu	s6,s1,s1
    80001992:	41660233          	sub	tp,a2,s6
    80001996:	03d44f3b          	divw	t5,s0,t4
    8000199a:	002495b3          	sll	a1,s1,sp
    8000199e:	8c79                	and	s0,s0,a4
    800019a0:	e309                	bnez	a4,800019a2 <main_26+0x5c>
    800019a2:	000725b3          	sltz	a1,a4
    800019a6:	41205ebb          	sraw	t4,zero,s2
    800019aa:	03498fb3          	mul	t6,s3,s4
    800019ae:	0588                	addi	a0,sp,704
    800019b0:	0a6c4417          	auipc	s0,0xa6c4
    800019b4:	8a3a                	mv	s4,a4
    800019b6:	03498fb3          	mul	t6,s3,s4
    800019ba:	03d44f3b          	divw	t5,s0,t4
    800019be:	9d01                	subw	a0,a0,s0
    800019c0:	0588                	addi	a0,sp,704
    800019c2:	03498fb3          	mul	t6,s3,s4
    800019c6:	000b561b          	srliw	a2,s6,0x0
    800019ca:	8a3a                	mv	s4,a4
    800019cc:	41205ebb          	sraw	t4,zero,s2
    800019d0:	02061833          	mulh	a6,a2,zero
    800019d4:	03d44f3b          	divw	t5,s0,t4
    800019d8:	0094bb33          	sltu	s6,s1,s1
    800019dc:	40dc89bb          	subw	s3,s9,a3
    800019e0:	003de5b3          	or	a1,s11,gp
    800019e4:	02b2dc33          	divu	s8,t0,a1
    800019e8:	0588                	addi	a0,sp,704
    800019ea:	03d44f3b          	divw	t5,s0,t4
    800019ee:	03498fb3          	mul	t6,s3,s4
    800019f2:	0cc1881b          	addiw	a6,gp,204
    800019f6:	03d44f3b          	divw	t5,s0,t4
    800019fa:	0588                	addi	a0,sp,704
    800019fc:	69ad                	lui	s3,0xb
    800019fe:	002495b3          	sll	a1,s1,sp
    80001a02:	0166feb3          	and	t4,a3,s6
    80001a06:	e341                	bnez	a4,80001a86 <main_31+0x64>
    80001a08:	04a9                	addi	s1,s1,10
    80001a0a:	03498fb3          	mul	t6,s3,s4
    80001a0e:	69ad                	lui	s3,0xb
    80001a10:	41205ebb          	sraw	t4,zero,s2
    80001a14:	0091ddb3          	srl	s11,gp,s1
    80001a18:	02b2dc33          	divu	s8,t0,a1
    80001a1c:	9a7e                	add	s4,s4,t6
    80001a1e:	00ce1c1b          	slliw	s8,t3,0xc

0000000080001a22 <main_31>:
    80001a22:	00400eef          	jal	t4,80001a26 <main_31+0x4>
    80001a26:	a809                	j	80001a38 <main_31+0x16>
    80001a28:	02e000ef          	jal	80001a56 <main_31+0x34>
    80001a2c:	038000ef          	jal	80001a64 <main_31+0x42>
    80001a30:	a02d                	j	80001a5a <main_31+0x38>
    80001a32:	a829                	j	80001a4c <main_31+0x2a>
    80001a34:	02a000ef          	jal	80001a5e <main_31+0x3c>
    80001a38:	a801                	j	80001a48 <main_31+0x26>
    80001a3a:	ffbff0ef          	jal	80001a34 <main_31+0x12>
    80001a3e:	a011                	j	80001a42 <main_31+0x20>
    80001a40:	a019                	j	80001a46 <main_31+0x24>
    80001a42:	024000ef          	jal	80001a66 <main_31+0x44>
    80001a46:	bfd5                	j	80001a3a <main_31+0x18>
    80001a48:	ff9ff0ef          	jal	80001a40 <main_31+0x1e>
    80001a4c:	020000ef          	jal	80001a6c <main_31+0x4a>
    80001a50:	fd9ff0ef          	jal	80001a28 <main_31+0x6>
    80001a54:	a819                	j	80001a6a <main_31+0x48>
    80001a56:	fd7ff0ef          	jal	80001a2c <main_31+0xa>
    80001a5a:	006000ef          	jal	80001a60 <main_31+0x3e>
    80001a5e:	bfdd                	j	80001a54 <main_31+0x32>
    80001a60:	fdfff0ef          	jal	80001a3e <main_31+0x1c>
    80001a64:	b7f9                	j	80001a32 <main_31+0x10>
    80001a66:	febff0ef          	jal	80001a50 <main_31+0x2e>
    80001a6a:	b7d9                	j	80001a30 <main_31+0xe>
    80001a6c:	00d316bb          	sllw	a3,t1,a3
    80001a70:	01b60363          	beq	a2,s11,80001a76 <main_31+0x54>
    80001a74:	69ad                	lui	s3,0xb
    80001a76:	002495b3          	sll	a1,s1,sp
    80001a7a:	8a3a                	mv	s4,a4
    80001a7c:	0001                	nop
    80001a7e:	02a986bb          	mulw	a3,s3,a0
    80001a82:	05b95263          	bge	s2,s11,80001ac6 <main_31+0xa4>
    80001a86:	000b561b          	srliw	a2,s6,0x0
    80001a8a:	03272133          	mulhsu	sp,a4,s2
    80001a8e:	03272133          	mulhsu	sp,a4,s2
    80001a92:	01b55bbb          	srlw	s7,a0,s11
    80001a96:	02d04563          	bgtz	a3,80001ac0 <main_31+0x9e>
    80001a9a:	28d0f213          	andi	tp,ra,653
    80001a9e:	03f76733          	rem	a4,a4,t6
    80001aa2:	3f7d                	addiw	t5,t5,-1
    80001aa4:	c681                	beqz	a3,80001aac <main_31+0x8a>
    80001aa6:	0588                	addi	a0,sp,704
    80001aa8:	000807bb          	addw	a5,a6,zero
    80001aac:	41205ebb          	sraw	t4,zero,s2
    80001ab0:	01b55bbb          	srlw	s7,a0,s11
    80001ab4:	0166feb3          	and	t4,a3,s6
    80001ab8:	02a986bb          	mulw	a3,s3,a0
    80001abc:	02fffcb3          	remu	s9,t6,a5
    80001ac0:	ef19                	bnez	a4,80001ade <main_31+0xbc>
    80001ac2:	02eb76bb          	remuw	a3,s6,a4
    80001ac6:	40dc89bb          	subw	s3,s9,a3
    80001aca:	0aa6                	slli	s5,s5,0x9
    80001acc:	03eec933          	div	s2,t4,t5
    80001ad0:	8e49                	or	a2,a2,a0
    80001ad2:	02415b3b          	divuw	s6,sp,tp
    80001ad6:	018a5213          	srli	tp,s4,0x18
    80001ada:	01b95463          	bge	s2,s11,80001ae2 <main_31+0xc0>
    80001ade:	000725b3          	sltz	a1,a4
    80001ae2:	00d316bb          	sllw	a3,t1,a3
    80001ae6:	0aa6                	slli	s5,s5,0x9
    80001ae8:	41205ebb          	sraw	t4,zero,s2
    80001aec:	41bb519b          	sraiw	gp,s6,0x1b
    80001af0:	01b55bbb          	srlw	s7,a0,s11
    80001af4:	02deedbb          	remw	s11,t4,a3
    80001af8:	02eb76bb          	remuw	a3,s6,a4
    80001afc:	41660233          	sub	tp,a2,s6
    80001b00:	03498fb3          	mul	t6,s3,s4
    80001b04:	8e49                	or	a2,a2,a0
    80001b06:	003de5b3          	or	a1,s11,gp
    80001b0a:	c299                	beqz	a3,80001b10 <main_31+0xee>
    80001b0c:	02deedbb          	remw	s11,t4,a3
    80001b10:	0094bb33          	sltu	s6,s1,s1
    80001b14:	02fffcb3          	remu	s9,t6,a5
    80001b18:	69ad                	lui	s3,0xb
    80001b1a:	82f9                	srli	a3,a3,0x1e
    80001b1c:	01b55bbb          	srlw	s7,a0,s11
    80001b20:	0094bb33          	sltu	s6,s1,s1
    80001b24:	69ad                	lui	s3,0xb
    80001b26:	00ce1c1b          	slliw	s8,t3,0xc
    80001b2a:	02415b3b          	divuw	s6,sp,tp
    80001b2e:	023830b3          	mulhu	ra,a6,gp
    80001b32:	9db9                	addw	a1,a1,a4
    80001b34:	00d316bb          	sllw	a3,t1,a3
    80001b38:	8f8d                	sub	a5,a5,a1
    80001b3a:	8c79                	and	s0,s0,a4
    80001b3c:	0aa6                	slli	s5,s5,0x9
    80001b3e:	9db9                	addw	a1,a1,a4
    80001b40:	93a6ba13          	sltiu	s4,a3,-1734
    80001b44:	02a986bb          	mulw	a3,s3,a0
    80001b48:	9a7e                	add	s4,s4,t6
    80001b4a:	9a7e                	add	s4,s4,t6
    80001b4c:	023a9b63          	bne	s5,gp,80001b82 <main_31+0x160>
    80001b50:	000725b3          	sltz	a1,a4
    80001b54:	56fd                	li	a3,-1
    80001b56:	9db9                	addw	a1,a1,a4
    80001b58:	000b561b          	srliw	a2,s6,0x0
    80001b5c:	8c21                	xor	s0,s0,s0
    80001b5e:	28d0f213          	andi	tp,ra,653
    80001b62:	9d01                	subw	a0,a0,s0
    80001b64:	8c79                	and	s0,s0,a4
    80001b66:	3f7d                	addiw	t5,t5,-1
    80001b68:	8c79                	and	s0,s0,a4
    80001b6a:	ca8d                	beqz	a3,80001b9c <main_31+0x17a>
    80001b6c:	8c79                	and	s0,s0,a4
    80001b6e:	023830b3          	mulhu	ra,a6,gp
    80001b72:	02eb76bb          	remuw	a3,s6,a4
    80001b76:	04a9                	addi	s1,s1,10
    80001b78:	0cc1881b          	addiw	a6,gp,204
    80001b7c:	41660233          	sub	tp,a2,s6
    80001b80:	0aa6                	slli	s5,s5,0x9
    80001b82:	8c79                	and	s0,s0,a4
    80001b84:	000807bb          	addw	a5,a6,zero
    80001b88:	0091ddb3          	srl	s11,gp,s1
    80001b8c:	0085ea63          	bltu	a1,s0,80001ba0 <main_31+0x17e>
    80001b90:	3f7d                	addiw	t5,t5,-1
    80001b92:	0085e263          	bltu	a1,s0,80001b96 <main_31+0x174>
    80001b96:	000b561b          	srliw	a2,s6,0x0
    80001b9a:	04a9                	addi	s1,s1,10
    80001b9c:	02a986bb          	mulw	a3,s3,a0
    80001ba0:	84627b37          	lui	s6,0x84627
    80001ba4:	0001                	nop
    80001ba6:	8c21                	xor	s0,s0,s0
    80001ba8:	00d316bb          	sllw	a3,t1,a3
    80001bac:	01a31093          	slli	ra,t1,0x1a
    80001bb0:	40dc89bb          	subw	s3,s9,a3
    80001bb4:	01ca4133          	xor	sp,s4,t3
    80001bb8:	03d44f3b          	divw	t5,s0,t4
    80001bbc:	0001                	nop
    80001bbe:	0094bb33          	sltu	s6,s1,s1
    80001bc2:	0001                	nop
    80001bc4:	03498fb3          	mul	t6,s3,s4
    80001bc8:	0001                	nop
    80001bca:	89d9                	andi	a1,a1,22
    80001bcc:	0aa6                	slli	s5,s5,0x9
    80001bce:	023830b3          	mulhu	ra,a6,gp
    80001bd2:	00d04f63          	bgtz	a3,80001bf0 <main_31+0x1ce>
    80001bd6:	02415b3b          	divuw	s6,sp,tp
    80001bda:	03d44f3b          	divw	t5,s0,t4
    80001bde:	86d9                	srai	a3,a3,0x16
    80001be0:	93a6ba13          	sltiu	s4,a3,-1734
    80001be4:	03498fb3          	mul	t6,s3,s4
    80001be8:	41660233          	sub	tp,a2,s6
    80001bec:	4368d313          	srai	t1,a7,0x36
    80001bf0:	01ca4133          	xor	sp,s4,t3
    80001bf4:	41205ebb          	sraw	t4,zero,s2
    80001bf8:	9d01                	subw	a0,a0,s0
    80001bfa:	04a9                	addi	s1,s1,10
    80001bfc:	03272133          	mulhsu	sp,a4,s2
    80001c00:	04d04563          	bgtz	a3,80001c4a <main_31+0x228>
    80001c04:	0166feb3          	and	t4,a3,s6
    80001c08:	0001                	nop
    80001c0a:	02b2dc33          	divu	s8,t0,a1
    80001c0e:	01ca4133          	xor	sp,s4,t3
    80001c12:	84627b37          	lui	s6,0x84627
    80001c16:	02a986bb          	mulw	a3,s3,a0
    80001c1a:	41660233          	sub	tp,a2,s6
    80001c1e:	28d0f213          	andi	tp,ra,653
    80001c22:	03272133          	mulhsu	sp,a4,s2
    80001c26:	01e203b3          	add	t2,tp,t5
    80001c2a:	02deedbb          	remw	s11,t4,a3
    80001c2e:	02eb76bb          	remuw	a3,s6,a4
    80001c32:	02415b3b          	divuw	s6,sp,tp
    80001c36:	3f7d                	addiw	t5,t5,-1
    80001c38:	01a31093          	slli	ra,t1,0x1a
    80001c3c:	03d44f3b          	divw	t5,s0,t4
    80001c40:	56fd                	li	a3,-1
    80001c42:	edf82113          	slti	sp,a6,-289
    80001c46:	0166feb3          	and	t4,a3,s6
    80001c4a:	0588                	addi	a0,sp,704
    80001c4c:	01ca4133          	xor	sp,s4,t3
    80001c50:	8c21                	xor	s0,s0,s0
    80001c52:	e3314393          	xori	t2,sp,-461
    80001c56:	8a3a                	mv	s4,a4
    80001c58:	02415b3b          	divuw	s6,sp,tp
    80001c5c:	69ad                	lui	s3,0xb
    80001c5e:	9db9                	addw	a1,a1,a4
    80001c60:	9a7e                	add	s4,s4,t6
    80001c62:	8c21                	xor	s0,s0,s0
    80001c64:	02fffcb3          	remu	s9,t6,a5
    80001c68:	9db9                	addw	a1,a1,a4
    80001c6a:	9db9                	addw	a1,a1,a4
    80001c6c:	01a31093          	slli	ra,t1,0x1a
    80001c70:	02eb76bb          	remuw	a3,s6,a4
    80001c74:	02fffcb3          	remu	s9,t6,a5
    80001c78:	02fffcb3          	remu	s9,t6,a5
    80001c7c:	03f76733          	rem	a4,a4,t6
    80001c80:	0285e563          	bltu	a1,s0,80001caa <main_31+0x288>
    80001c84:	0aa6                	slli	s5,s5,0x9
    80001c86:	0a6c4417          	auipc	s0,0xa6c4
    80001c8a:	03272133          	mulhsu	sp,a4,s2
    80001c8e:	02b2dc33          	divu	s8,t0,a1
    80001c92:	0166feb3          	and	t4,a3,s6
    80001c96:	e3314393          	xori	t2,sp,-461
    80001c9a:	02b2dc33          	divu	s8,t0,a1
    80001c9e:	00d316bb          	sllw	a3,t1,a3
    80001ca2:	9a7e                	add	s4,s4,t6
    80001ca4:	8e49                	or	a2,a2,a0
    80001ca6:	00ce1c1b          	slliw	s8,t3,0xc
    80001caa:	029bfc63          	bgeu	s7,s1,80001ce2 <main_31+0x2c0>
    80001cae:	e309                	bnez	a4,80001cb0 <main_31+0x28e>
    80001cb0:	0166feb3          	and	t4,a3,s6
    80001cb4:	02eb76bb          	remuw	a3,s6,a4
    80001cb8:	09730a93          	addi	s5,t1,151
    80001cbc:	40dc89bb          	subw	s3,s9,a3
    80001cc0:	01ca4133          	xor	sp,s4,t3
    80001cc4:	4368d313          	srai	t1,a7,0x36
    80001cc8:	02deedbb          	remw	s11,t4,a3
    80001ccc:	0091ddb3          	srl	s11,gp,s1
    80001cd0:	8c21                	xor	s0,s0,s0
    80001cd2:	82f9                	srli	a3,a3,0x1e
    80001cd4:	02a986bb          	mulw	a3,s3,a0
    80001cd8:	02a986bb          	mulw	a3,s3,a0
    80001cdc:	0001                	nop
    80001cde:	417dd533          	sra	a0,s11,s7
    80001ce2:	0091ddb3          	srl	s11,gp,s1
    80001ce6:	8c21                	xor	s0,s0,s0
    80001ce8:	01b60863          	beq	a2,s11,80001cf8 <main_31+0x2d6>
    80001cec:	86d9                	srai	a3,a3,0x16
    80001cee:	8e49                	or	a2,a2,a0
    80001cf0:	41205ebb          	sraw	t4,zero,s2
    80001cf4:	edf82113          	slti	sp,a6,-289
    80001cf8:	02061833          	mulh	a6,a2,zero
    80001cfc:	02eb76bb          	remuw	a3,s6,a4
    80001d00:	07b95163          	bge	s2,s11,80001d62 <main_21+0x4a>
    80001d04:	93a6ba13          	sltiu	s4,a3,-1734
    80001d08:	02deedbb          	remw	s11,t4,a3
    80001d0c:	01b55bbb          	srlw	s7,a0,s11
    80001d10:	03d44f3b          	divw	t5,s0,t4
    80001d14:	018a5213          	srli	tp,s4,0x18

0000000080001d18 <main_21>:
    80001d18:	01c00eef          	jal	t4,80001d34 <main_21+0x1c>
    80001d1c:	a019                	j	80001d22 <main_21+0xa>
    80001d1e:	00e000ef          	jal	80001d2c <main_21+0x14>
    80001d22:	00e000ef          	jal	80001d30 <main_21+0x18>
    80001d26:	bfdd                	j	80001d1c <main_21+0x4>
    80001d28:	010000ef          	jal	80001d38 <main_21+0x20>
    80001d2c:	ffdff0ef          	jal	80001d28 <main_21+0x10>
    80001d30:	b7fd                	j	80001d1e <main_21+0x6>
    80001d32:	bfd5                	j	80001d26 <main_21+0xe>
    80001d34:	a009                	j	80001d36 <main_21+0x1e>
    80001d36:	a011                	j	80001d3a <main_21+0x22>
    80001d38:	a011                	j	80001d3c <main_21+0x24>
    80001d3a:	bfe5                	j	80001d32 <main_21+0x1a>
    80001d3c:	5be3e993          	ori	s3,t2,1470
    80001d40:	01e203b3          	add	t2,tp,t5
    80001d44:	9db9                	addw	a1,a1,a4
    80001d46:	9db9                	addw	a1,a1,a4
    80001d48:	e3314393          	xori	t2,sp,-461
    80001d4c:	edf82113          	slti	sp,a6,-289
    80001d50:	02b2dc33          	divu	s8,t0,a1
    80001d54:	9d01                	subw	a0,a0,s0
    80001d56:	02415b3b          	divuw	s6,sp,tp
    80001d5a:	02b2dc33          	divu	s8,t0,a1
    80001d5e:	03498fb3          	mul	t6,s3,s4
    80001d62:	002495b3          	sll	a1,s1,sp
    80001d66:	03272133          	mulhsu	sp,a4,s2
    80001d6a:	000725b3          	sltz	a1,a4
    80001d6e:	41bb519b          	sraiw	gp,s6,0x1b
    80001d72:	00d04f63          	bgtz	a3,80001d90 <main_21+0x78>
    80001d76:	417dd533          	sra	a0,s11,s7
    80001d7a:	69ad                	lui	s3,0xb
    80001d7c:	9d01                	subw	a0,a0,s0
    80001d7e:	023830b3          	mulhu	ra,a6,gp
    80001d82:	0166feb3          	and	t4,a3,s6
    80001d86:	ca81                	beqz	a3,80001d96 <main_21+0x7e>
    80001d88:	0094bb33          	sltu	s6,s1,s1
    80001d8c:	0094bb33          	sltu	s6,s1,s1
    80001d90:	82f9                	srli	a3,a3,0x1e
    80001d92:	01ca4133          	xor	sp,s4,t3
    80001d96:	e3314393          	xori	t2,sp,-461
    80001d9a:	00d316bb          	sllw	a3,t1,a3
    80001d9e:	56fd                	li	a3,-1
    80001da0:	8c21                	xor	s0,s0,s0
    80001da2:	03b60c63          	beq	a2,s11,80001dda <main_21+0xc2>
    80001da6:	5be3e993          	ori	s3,t2,1470
    80001daa:	018a5213          	srli	tp,s4,0x18
    80001dae:	03498fb3          	mul	t6,s3,s4
    80001db2:	41660233          	sub	tp,a2,s6
    80001db6:	02a986bb          	mulw	a3,s3,a0
    80001dba:	02b2dc33          	divu	s8,t0,a1
    80001dbe:	0094bb33          	sltu	s6,s1,s1
    80001dc2:	02d04863          	bgtz	a3,80001df2 <main_21+0xda>
    80001dc6:	82f9                	srli	a3,a3,0x1e
    80001dc8:	02b2dc33          	divu	s8,t0,a1
    80001dcc:	02fffcb3          	remu	s9,t6,a5
    80001dd0:	41205ebb          	sraw	t4,zero,s2
    80001dd4:	02415b3b          	divuw	s6,sp,tp
    80001dd8:	9a7e                	add	s4,s4,t6
    80001dda:	03d44f3b          	divw	t5,s0,t4
    80001dde:	28d0f213          	andi	tp,ra,653
    80001de2:	9d01                	subw	a0,a0,s0
    80001de4:	5be3e993          	ori	s3,t2,1470
    80001de8:	023a9f63          	bne	s5,gp,80001e26 <main_21+0x10e>
    80001dec:	0aa6                	slli	s5,s5,0x9
    80001dee:	82f9                	srli	a3,a3,0x1e
    80001df0:	9db9                	addw	a1,a1,a4
    80001df2:	40dc89bb          	subw	s3,s9,a3
    80001df6:	4368d313          	srai	t1,a7,0x36
    80001dfa:	9db9                	addw	a1,a1,a4
    80001dfc:	002495b3          	sll	a1,s1,sp
    80001e00:	8a3a                	mv	s4,a4
    80001e02:	69ad                	lui	s3,0xb
    80001e04:	0001                	nop
    80001e06:	02b2dc33          	divu	s8,t0,a1
    80001e0a:	01b55bbb          	srlw	s7,a0,s11
    80001e0e:	0285e963          	bltu	a1,s0,80001e40 <main_21+0x128>
    80001e12:	89d9                	andi	a1,a1,22
    80001e14:	01a31093          	slli	ra,t1,0x1a
    80001e18:	0091ddb3          	srl	s11,gp,s1
    80001e1c:	0001                	nop
    80001e1e:	009bf463          	bgeu	s7,s1,80001e26 <main_21+0x10e>
    80001e22:	41205ebb          	sraw	t4,zero,s2
    80001e26:	0166feb3          	and	t4,a3,s6
    80001e2a:	0091ddb3          	srl	s11,gp,s1
    80001e2e:	56fd                	li	a3,-1
    80001e30:	04a9                	addi	s1,s1,10
    80001e32:	ce99                	beqz	a3,80001e50 <main_21+0x138>
    80001e34:	029bf463          	bgeu	s7,s1,80001e5c <main_21+0x144>
    80001e38:	86d9                	srai	a3,a3,0x16
    80001e3a:	000b561b          	srliw	a2,s6,0x0
    80001e3e:	0001                	nop
    80001e40:	8e49                	or	a2,a2,a0
    80001e42:	0166feb3          	and	t4,a3,s6
    80001e46:	000b561b          	srliw	a2,s6,0x0
    80001e4a:	02deedbb          	remw	s11,t4,a3
    80001e4e:	8e49                	or	a2,a2,a0
    80001e50:	9db9                	addw	a1,a1,a4
    80001e52:	0cc1881b          	addiw	a6,gp,204
    80001e56:	8c21                	xor	s0,s0,s0
    80001e58:	03b60f63          	beq	a2,s11,80001e96 <main_21+0x17e>
    80001e5c:	000807bb          	addw	a5,a6,zero
    80001e60:	03f76733          	rem	a4,a4,t6
    80001e64:	0a6c4417          	auipc	s0,0xa6c4
    80001e68:	84627b37          	lui	s6,0x84627
    80001e6c:	717d                	addi	sp,sp,-16
    80001e6e:	0085e563          	bltu	a1,s0,80001e78 <main_21+0x160>
    80001e72:	003a9863          	bne	s5,gp,80001e82 <main_21+0x16a>
    80001e76:	89d9                	andi	a1,a1,22
    80001e78:	0085e863          	bltu	a1,s0,80001e88 <main_21+0x170>
    80001e7c:	9db9                	addw	a1,a1,a4
    80001e7e:	02415b3b          	divuw	s6,sp,tp
    80001e82:	003a9e63          	bne	s5,gp,80001e9e <main_21+0x186>
    80001e86:	717d                	addi	sp,sp,-16
    80001e88:	0166feb3          	and	t4,a3,s6
    80001e8c:	e309                	bnez	a4,80001e8e <main_21+0x176>
    80001e8e:	02eb76bb          	remuw	a3,s6,a4
    80001e92:	01e203b3          	add	t2,tp,t5
    80001e96:	4368d313          	srai	t1,a7,0x36
    80001e9a:	002495b3          	sll	a1,s1,sp
    80001e9e:	717d                	addi	sp,sp,-16
    80001ea0:	02d04663          	bgtz	a3,80001ecc <main_21+0x1b4>
    80001ea4:	018a5213          	srli	tp,s4,0x18
    80001ea8:	03d44f3b          	divw	t5,s0,t4
    80001eac:	0cc1881b          	addiw	a6,gp,204
    80001eb0:	56fd                	li	a3,-1
    80001eb2:	000725b3          	sltz	a1,a4
    80001eb6:	02415b3b          	divuw	s6,sp,tp
    80001eba:	89d9                	andi	a1,a1,22
    80001ebc:	01a31093          	slli	ra,t1,0x1a
    80001ec0:	01b55bbb          	srlw	s7,a0,s11
    80001ec4:	09730a93          	addi	s5,t1,151
    80001ec8:	00d316bb          	sllw	a3,t1,a3
    80001ecc:	8f8d                	sub	a5,a5,a1
    80001ece:	82f9                	srli	a3,a3,0x1e
    80001ed0:	000b561b          	srliw	a2,s6,0x0
    80001ed4:	03b95d63          	bge	s2,s11,80001f0e <main_21+0x1f6>
    80001ed8:	01ca4133          	xor	sp,s4,t3
    80001edc:	4368d313          	srai	t1,a7,0x36
    80001ee0:	0094bb33          	sltu	s6,s1,s1
    80001ee4:	717d                	addi	sp,sp,-16
    80001ee6:	000b561b          	srliw	a2,s6,0x0
    80001eea:	28d0f213          	andi	tp,ra,653
    80001eee:	02fffcb3          	remu	s9,t6,a5
    80001ef2:	003de5b3          	or	a1,s11,gp
    80001ef6:	84627b37          	lui	s6,0x84627
    80001efa:	0588                	addi	a0,sp,704
    80001efc:	03b60163          	beq	a2,s11,80001f1e <main_21+0x206>
    80001f00:	e319                	bnez	a4,80001f06 <main_21+0x1ee>
    80001f02:	0166feb3          	and	t4,a3,s6
    80001f06:	00d316bb          	sllw	a3,t1,a3
    80001f0a:	01b55bbb          	srlw	s7,a0,s11
    80001f0e:	003de5b3          	or	a1,s11,gp
    80001f12:	0085e263          	bltu	a1,s0,80001f16 <main_21+0x1fe>
    80001f16:	03d44f3b          	divw	t5,s0,t4
    80001f1a:	03f76733          	rem	a4,a4,t6
    80001f1e:	8c79                	and	s0,s0,a4
    80001f20:	00ce1c1b          	slliw	s8,t3,0xc
    80001f24:	02b2dc33          	divu	s8,t0,a1
    80001f28:	0094bb33          	sltu	s6,s1,s1
    80001f2c:	4368d313          	srai	t1,a7,0x36
    80001f30:	01b55bbb          	srlw	s7,a0,s11
    80001f34:	02d04c63          	bgtz	a3,80001f6c <main_21+0x254>
    80001f38:	01b55bbb          	srlw	s7,a0,s11
    80001f3c:	84627b37          	lui	s6,0x84627
    80001f40:	4368d313          	srai	t1,a7,0x36
    80001f44:	01b95363          	bge	s2,s11,80001f4a <main_21+0x232>
    80001f48:	56fd                	li	a3,-1
    80001f4a:	0a6c4417          	auipc	s0,0xa6c4
    80001f4e:	41bb519b          	sraiw	gp,s6,0x1b
    80001f52:	02deedbb          	remw	s11,t4,a3
    80001f56:	023830b3          	mulhu	ra,a6,gp
    80001f5a:	043a9263          	bne	s5,gp,80001f9e <main_21+0x286>
    80001f5e:	023830b3          	mulhu	ra,a6,gp
    80001f62:	9a7e                	add	s4,s4,t6
    80001f64:	000725b3          	sltz	a1,a4
    80001f68:	41bb519b          	sraiw	gp,s6,0x1b
    80001f6c:	000b561b          	srliw	a2,s6,0x0
    80001f70:	04a9                	addi	s1,s1,10
    80001f72:	8e49                	or	a2,a2,a0
    80001f74:	02eb76bb          	remuw	a3,s6,a4
    80001f78:	69ad                	lui	s3,0xb
    80001f7a:	018a5213          	srli	tp,s4,0x18
    80001f7e:	edf82113          	slti	sp,a6,-289
    80001f82:	8f8d                	sub	a5,a5,a1
    80001f84:	41205ebb          	sraw	t4,zero,s2
    80001f88:	01a31093          	slli	ra,t1,0x1a
    80001f8c:	000807bb          	addw	a5,a6,zero
    80001f90:	043a9163          	bne	s5,gp,80001fd2 <main_21+0x2ba>
    80001f94:	c699                	beqz	a3,80001fa2 <main_21+0x28a>
    80001f96:	03eec933          	div	s2,t4,t5
    80001f9a:	02deedbb          	remw	s11,t4,a3
    80001f9e:	9a7e                	add	s4,s4,t6
    80001fa0:	717d                	addi	sp,sp,-16
    80001fa2:	000725b3          	sltz	a1,a4
    80001fa6:	5be3e993          	ori	s3,t2,1470
    80001faa:	9db9                	addw	a1,a1,a4
    80001fac:	09730a93          	addi	s5,t1,151
    80001fb0:	c299                	beqz	a3,80001fb6 <main_21+0x29e>
    80001fb2:	02fffcb3          	remu	s9,t6,a5
    80001fb6:	00ce1c1b          	slliw	s8,t3,0xc
    80001fba:	41205ebb          	sraw	t4,zero,s2
    80001fbe:	02deedbb          	remw	s11,t4,a3
    80001fc2:	03498fb3          	mul	t6,s3,s4
    80001fc6:	000725b3          	sltz	a1,a4
    80001fca:	002495b3          	sll	a1,s1,sp
    80001fce:	02fffcb3          	remu	s9,t6,a5
    80001fd2:	000725b3          	sltz	a1,a4
    80001fd6:	93a6ba13          	sltiu	s4,a3,-1734
    80001fda:	84627b37          	lui	s6,0x84627
    80001fde:	02415b3b          	divuw	s6,sp,tp
    80001fe2:	9a7e                	add	s4,s4,t6
    80001fe4:	417dd533          	sra	a0,s11,s7
    80001fe8:	000b561b          	srliw	a2,s6,0x0
    80001fec:	8e49                	or	a2,a2,a0
    80001fee:	9a7e                	add	s4,s4,t6
    80001ff0:	03b60963          	beq	a2,s11,80002022 <main_21+0x30a>
    80001ff4:	01e203b3          	add	t2,tp,t5
    80001ff8:	82f9                	srli	a3,a3,0x1e
    80001ffa:	000725b3          	sltz	a1,a4
    80001ffe:	02deedbb          	remw	s11,t4,a3
    80002002:	86d9                	srai	a3,a3,0x16
    80002004:	000807bb          	addw	a5,a6,zero
    80002008:	ce91                	beqz	a3,80002024 <main_21+0x30c>
    8000200a:	01a31093          	slli	ra,t1,0x1a
    8000200e:	03d44f3b          	divw	t5,s0,t4
    80002012:	8c21                	xor	s0,s0,s0
    80002014:	e701                	bnez	a4,8000201c <main_21+0x304>
    80002016:	edf82113          	slti	sp,a6,-289
    8000201a:	9a7e                	add	s4,s4,t6
    8000201c:	8c79                	and	s0,s0,a4
    8000201e:	03498fb3          	mul	t6,s3,s4
    80002022:	9a7e                	add	s4,s4,t6
    80002024:	ca9d                	beqz	a3,8000205a <main_21+0x342>
    80002026:	000b561b          	srliw	a2,s6,0x0
    8000202a:	28d0f213          	andi	tp,ra,653
    8000202e:	9d01                	subw	a0,a0,s0
    80002030:	93a6ba13          	sltiu	s4,a3,-1734
    80002034:	40dc89bb          	subw	s3,s9,a3
    80002038:	023830b3          	mulhu	ra,a6,gp
    8000203c:	9a7e                	add	s4,s4,t6
    8000203e:	5be3e993          	ori	s3,t2,1470
    80002042:	0485e063          	bltu	a1,s0,80002082 <main_21+0x36a>
    80002046:	41660233          	sub	tp,a2,s6
    8000204a:	82f9                	srli	a3,a3,0x1e
    8000204c:	03d44f3b          	divw	t5,s0,t4
    80002050:	01e203b3          	add	t2,tp,t5
    80002054:	000b561b          	srliw	a2,s6,0x0
    80002058:	9a7e                	add	s4,s4,t6
    8000205a:	417dd533          	sra	a0,s11,s7
    8000205e:	02b2dc33          	divu	s8,t0,a1
    80002062:	03272133          	mulhsu	sp,a4,s2
    80002066:	93a6ba13          	sltiu	s4,a3,-1734
    8000206a:	84627b37          	lui	s6,0x84627
    8000206e:	4368d313          	srai	t1,a7,0x36
    80002072:	4368d313          	srai	t1,a7,0x36
    80002076:	8c79                	and	s0,s0,a4
    80002078:	0588                	addi	a0,sp,704
    8000207a:	0166feb3          	and	t4,a3,s6
    8000207e:	8a3a                	mv	s4,a4
    80002080:	89d9                	andi	a1,a1,22
    80002082:	000725b3          	sltz	a1,a4
    80002086:	e3314393          	xori	t2,sp,-461
    8000208a:	8f8d                	sub	a5,a5,a1
    8000208c:	0001                	nop
    8000208e:	03b95a63          	bge	s2,s11,800020c2 <main_21+0x3aa>
    80002092:	023830b3          	mulhu	ra,a6,gp
    80002096:	0085e963          	bltu	a1,s0,800020a8 <main_21+0x390>
    8000209a:	69ad                	lui	s3,0xb
    8000209c:	01a31093          	slli	ra,t1,0x1a
    800020a0:	02415b3b          	divuw	s6,sp,tp
    800020a4:	56fd                	li	a3,-1
    800020a6:	0aa6                	slli	s5,s5,0x9
    800020a8:	02a986bb          	mulw	a3,s3,a0
    800020ac:	0a6c4417          	auipc	s0,0xa6c4
    800020b0:	9a7e                	add	s4,s4,t6
    800020b2:	e3314393          	xori	t2,sp,-461
    800020b6:	0cc1881b          	addiw	a6,gp,204
    800020ba:	003a9863          	bne	s5,gp,800020ca <main_21+0x3b2>
    800020be:	09730a93          	addi	s5,t1,151
    800020c2:	41660233          	sub	tp,a2,s6
    800020c6:	c68d                	beqz	a3,800020f0 <main_21+0x3d8>
    800020c8:	8e49                	or	a2,a2,a0
    800020ca:	3f7d                	addiw	t5,t5,-1
    800020cc:	002495b3          	sll	a1,s1,sp
    800020d0:	03498fb3          	mul	t6,s3,s4
    800020d4:	0285eb63          	bltu	a1,s0,8000210a <main_21+0x3f2>
    800020d8:	02a986bb          	mulw	a3,s3,a0
    800020dc:	01e203b3          	add	t2,tp,t5
    800020e0:	28d0f213          	andi	tp,ra,653
    800020e4:	000725b3          	sltz	a1,a4
    800020e8:	03d44f3b          	divw	t5,s0,t4
    800020ec:	56fd                	li	a3,-1
    800020ee:	8c79                	and	s0,s0,a4
    800020f0:	002495b3          	sll	a1,s1,sp
    800020f4:	003de5b3          	or	a1,s11,gp
    800020f8:	02fffcb3          	remu	s9,t6,a5
    800020fc:	69ad                	lui	s3,0xb
    800020fe:	01a31093          	slli	ra,t1,0x1a
    80002102:	8e49                	or	a2,a2,a0
    80002104:	8f8d                	sub	a5,a5,a1
    80002106:	003a9563          	bne	s5,gp,80002110 <main_21+0x3f8>
    8000210a:	02fffcb3          	remu	s9,t6,a5
    8000210e:	8a3a                	mv	s4,a4
    80002110:	41205ebb          	sraw	t4,zero,s2
    80002114:	000b561b          	srliw	a2,s6,0x0
    80002118:	28d0f213          	andi	tp,ra,653
    8000211c:	000725b3          	sltz	a1,a4
    80002120:	8c79                	and	s0,s0,a4
    80002122:	c2d9                	beqz	a3,800021a8 <main_33+0x66>
    80002124:	000725b3          	sltz	a1,a4
    80002128:	e3314393          	xori	t2,sp,-461
    8000212c:	023830b3          	mulhu	ra,a6,gp
    80002130:	417dd533          	sra	a0,s11,s7
    80002134:	018a5213          	srli	tp,s4,0x18
    80002138:	02415b3b          	divuw	s6,sp,tp
    8000213c:	9db9                	addw	a1,a1,a4
    8000213e:	000b561b          	srliw	a2,s6,0x0

0000000080002142 <main_33>:
    80002142:	03a00eef          	jal	t4,8000217c <main_33+0x3a>
    80002146:	028000ef          	jal	8000216e <main_33+0x2c>
    8000214a:	00c000ef          	jal	80002156 <main_33+0x14>
    8000214e:	04c000ef          	jal	8000219a <main_33+0x58>
    80002152:	022000ef          	jal	80002174 <main_33+0x32>
    80002156:	00c000ef          	jal	80002162 <main_33+0x20>
    8000215a:	a821                	j	80002172 <main_33+0x30>
    8000215c:	a80d                	j	8000218e <main_33+0x4c>
    8000215e:	008000ef          	jal	80002166 <main_33+0x24>
    80002162:	fedff0ef          	jal	8000214e <main_33+0xc>
    80002166:	fe5ff0ef          	jal	8000214a <main_33+0x8>
    8000216a:	ff5ff0ef          	jal	8000215e <main_33+0x1c>
    8000216e:	01a000ef          	jal	80002188 <main_33+0x46>
    80002172:	b7ed                	j	8000215c <main_33+0x1a>
    80002174:	fe7ff0ef          	jal	8000215a <main_33+0x18>
    80002178:	01c000ef          	jal	80002194 <main_33+0x52>
    8000217c:	fcbff0ef          	jal	80002146 <main_33+0x4>
    80002180:	bfc9                	j	80002152 <main_33+0x10>
    80002182:	004000ef          	jal	80002186 <main_33+0x44>
    80002186:	bfcd                	j	80002178 <main_33+0x36>
    80002188:	ffbff0ef          	jal	80002182 <main_33+0x40>
    8000218c:	bff9                	j	8000216a <main_33+0x28>
    8000218e:	004000ef          	jal	80002192 <main_33+0x50>
    80002192:	bfed                	j	8000218c <main_33+0x4a>
    80002194:	004000ef          	jal	80002198 <main_33+0x56>
    80002198:	b7e5                	j	80002180 <main_33+0x3e>
    8000219a:	edf82113          	slti	sp,a6,-289
    8000219e:	8a3a                	mv	s4,a4
    800021a0:	05b95163          	bge	s2,s11,800021e2 <main_33+0xa0>
    800021a4:	02deedbb          	remw	s11,t4,a3
    800021a8:	8c21                	xor	s0,s0,s0
    800021aa:	0094bb33          	sltu	s6,s1,s1
    800021ae:	02415b3b          	divuw	s6,sp,tp
    800021b2:	0aa6                	slli	s5,s5,0x9
    800021b4:	009bf463          	bgeu	s7,s1,800021bc <main_33+0x7a>
    800021b8:	002495b3          	sll	a1,s1,sp
    800021bc:	03eec933          	div	s2,t4,t5
    800021c0:	02eb76bb          	remuw	a3,s6,a4
    800021c4:	0aa6                	slli	s5,s5,0x9
    800021c6:	03eec933          	div	s2,t4,t5
    800021ca:	56fd                	li	a3,-1
    800021cc:	01e203b3          	add	t2,tp,t5
    800021d0:	03d44f3b          	divw	t5,s0,t4
    800021d4:	ef05                	bnez	a4,8000220c <main_33+0xca>
    800021d6:	02415b3b          	divuw	s6,sp,tp
    800021da:	4368d313          	srai	t1,a7,0x36
    800021de:	8f8d                	sub	a5,a5,a1
    800021e0:	86d9                	srai	a3,a3,0x16
    800021e2:	02eb76bb          	remuw	a3,s6,a4
    800021e6:	003a9e63          	bne	s5,gp,80002202 <main_33+0xc0>
    800021ea:	5be3e993          	ori	s3,t2,1470
    800021ee:	03eec933          	div	s2,t4,t5
    800021f2:	717d                	addi	sp,sp,-16
    800021f4:	0aa6                	slli	s5,s5,0x9
    800021f6:	002495b3          	sll	a1,s1,sp
    800021fa:	69ad                	lui	s3,0xb
    800021fc:	8e49                	or	a2,a2,a0
    800021fe:	02deedbb          	remw	s11,t4,a3
    80002202:	8f8d                	sub	a5,a5,a1
    80002204:	000725b3          	sltz	a1,a4
    80002208:	0094bb33          	sltu	s6,s1,s1
    8000220c:	03498fb3          	mul	t6,s3,s4
    80002210:	56fd                	li	a3,-1
    80002212:	9d01                	subw	a0,a0,s0
    80002214:	02b2dc33          	divu	s8,t0,a1
    80002218:	00d04463          	bgtz	a3,80002220 <main_33+0xde>
    8000221c:	03d44f3b          	divw	t5,s0,t4
    80002220:	9db9                	addw	a1,a1,a4
    80002222:	003a9463          	bne	s5,gp,8000222a <main_33+0xe8>
    80002226:	41660233          	sub	tp,a2,s6
    8000222a:	0cc1881b          	addiw	a6,gp,204
    8000222e:	86d9                	srai	a3,a3,0x16
    80002230:	8c79                	and	s0,s0,a4
    80002232:	03f76733          	rem	a4,a4,t6
    80002236:	28d0f213          	andi	tp,ra,653
    8000223a:	edf82113          	slti	sp,a6,-289
    8000223e:	00d316bb          	sllw	a3,t1,a3
    80002242:	41660233          	sub	tp,a2,s6
    80002246:	9a7e                	add	s4,s4,t6
    80002248:	02deedbb          	remw	s11,t4,a3
    8000224c:	0166feb3          	and	t4,a3,s6
    80002250:	02a986bb          	mulw	a3,s3,a0
    80002254:	0001                	nop
    80002256:	000725b3          	sltz	a1,a4
    8000225a:	02a986bb          	mulw	a3,s3,a0
    8000225e:	69ad                	lui	s3,0xb
    80002260:	9db9                	addw	a1,a1,a4
    80002262:	e70d                	bnez	a4,8000228c <main_33+0x14a>
    80002264:	003de5b3          	or	a1,s11,gp
    80002268:	023a9a63          	bne	s5,gp,8000229c <main_33+0x15a>
    8000226c:	9a7e                	add	s4,s4,t6
    8000226e:	002495b3          	sll	a1,s1,sp
    80002272:	0cc1881b          	addiw	a6,gp,204
    80002276:	03d44f3b          	divw	t5,s0,t4
    8000227a:	02fffcb3          	remu	s9,t6,a5
    8000227e:	03272133          	mulhsu	sp,a4,s2
    80002282:	82f9                	srli	a3,a3,0x1e
    80002284:	28d0f213          	andi	tp,ra,653
    80002288:	41660233          	sub	tp,a2,s6
    8000228c:	02b2dc33          	divu	s8,t0,a1
    80002290:	02eb76bb          	remuw	a3,s6,a4
    80002294:	0cc1881b          	addiw	a6,gp,204
    80002298:	3f7d                	addiw	t5,t5,-1
    8000229a:	9a7e                	add	s4,s4,t6
    8000229c:	0091ddb3          	srl	s11,gp,s1
    800022a0:	01a31093          	slli	ra,t1,0x1a
    800022a4:	02415b3b          	divuw	s6,sp,tp
    800022a8:	edf82113          	slti	sp,a6,-289
    800022ac:	02fffcb3          	remu	s9,t6,a5
    800022b0:	8a3a                	mv	s4,a4
    800022b2:	c289                	beqz	a3,800022b4 <main_33+0x172>
    800022b4:	01a31093          	slli	ra,t1,0x1a
    800022b8:	41bb519b          	sraiw	gp,s6,0x1b
    800022bc:	417dd533          	sra	a0,s11,s7
    800022c0:	41660233          	sub	tp,a2,s6
    800022c4:	69ad                	lui	s3,0xb
    800022c6:	02061833          	mulh	a6,a2,zero
    800022ca:	01b95563          	bge	s2,s11,800022d4 <main_33+0x192>
    800022ce:	28d0f213          	andi	tp,ra,653
    800022d2:	82f9                	srli	a3,a3,0x1e
    800022d4:	5be3e993          	ori	s3,t2,1470
    800022d8:	0091ddb3          	srl	s11,gp,s1
    800022dc:	02b2dc33          	divu	s8,t0,a1
    800022e0:	02d04963          	bgtz	a3,80002312 <main_33+0x1d0>
    800022e4:	4368d313          	srai	t1,a7,0x36
    800022e8:	9db9                	addw	a1,a1,a4
    800022ea:	002495b3          	sll	a1,s1,sp
    800022ee:	e321                	bnez	a4,8000232e <main_33+0x1ec>
    800022f0:	9db9                	addw	a1,a1,a4
    800022f2:	86d9                	srai	a3,a3,0x16
    800022f4:	40dc89bb          	subw	s3,s9,a3
    800022f8:	02deedbb          	remw	s11,t4,a3
    800022fc:	01ca4133          	xor	sp,s4,t3
    80002300:	69ad                	lui	s3,0xb
    80002302:	01ca4133          	xor	sp,s4,t3
    80002306:	03b95263          	bge	s2,s11,8000232a <main_33+0x1e8>
    8000230a:	717d                	addi	sp,sp,-16
    8000230c:	02deedbb          	remw	s11,t4,a3
    80002310:	3f7d                	addiw	t5,t5,-1
    80002312:	01a31093          	slli	ra,t1,0x1a
    80002316:	01b95a63          	bge	s2,s11,8000232a <main_33+0x1e8>
    8000231a:	023830b3          	mulhu	ra,a6,gp
    8000231e:	03272133          	mulhsu	sp,a4,s2
    80002322:	93a6ba13          	sltiu	s4,a3,-1734
    80002326:	000b561b          	srliw	a2,s6,0x0
    8000232a:	02b2dc33          	divu	s8,t0,a1
    8000232e:	0aa6                	slli	s5,s5,0x9
    80002330:	00ce1c1b          	slliw	s8,t3,0xc
    80002334:	09730a93          	addi	s5,t1,151
    80002338:	01b55bbb          	srlw	s7,a0,s11
    8000233c:	03272133          	mulhsu	sp,a4,s2
    80002340:	8a3a                	mv	s4,a4
    80002342:	9db9                	addw	a1,a1,a4
    80002344:	40dc89bb          	subw	s3,s9,a3
    80002348:	0cc1881b          	addiw	a6,gp,204
    8000234c:	8e49                	or	a2,a2,a0
    8000234e:	5be3e993          	ori	s3,t2,1470
    80002352:	03eec933          	div	s2,t4,t5
    80002356:	003a9463          	bne	s5,gp,8000235e <main_33+0x21c>
    8000235a:	41bb519b          	sraiw	gp,s6,0x1b
    8000235e:	41bb519b          	sraiw	gp,s6,0x1b
    80002362:	edf82113          	slti	sp,a6,-289
    80002366:	01e203b3          	add	t2,tp,t5
    8000236a:	edf82113          	slti	sp,a6,-289
    8000236e:	0aa6                	slli	s5,s5,0x9
    80002370:	56fd                	li	a3,-1
    80002372:	002495b3          	sll	a1,s1,sp
    80002376:	09730a93          	addi	s5,t1,151
    8000237a:	56fd                	li	a3,-1
    8000237c:	8f8d                	sub	a5,a5,a1
    8000237e:	02deedbb          	remw	s11,t4,a3
    80002382:	ce85                	beqz	a3,800023ba <main_33+0x278>
    80002384:	02eb76bb          	remuw	a3,s6,a4
    80002388:	0285e563          	bltu	a1,s0,800023b2 <main_33+0x270>
    8000238c:	03b95963          	bge	s2,s11,800023be <main_33+0x27c>
    80002390:	0085ea63          	bltu	a1,s0,800023a4 <main_33+0x262>
    80002394:	02a986bb          	mulw	a3,s3,a0
    80002398:	01b60d63          	beq	a2,s11,800023b2 <main_33+0x270>
    8000239c:	02061833          	mulh	a6,a2,zero
    800023a0:	03d44f3b          	divw	t5,s0,t4
    800023a4:	8f8d                	sub	a5,a5,a1
    800023a6:	9db9                	addw	a1,a1,a4
    800023a8:	8a3a                	mv	s4,a4
    800023aa:	0001                	nop
    800023ac:	56fd                	li	a3,-1
    800023ae:	03272133          	mulhsu	sp,a4,s2
    800023b2:	69ad                	lui	s3,0xb
    800023b4:	9d01                	subw	a0,a0,s0
    800023b6:	01b95263          	bge	s2,s11,800023ba <main_33+0x278>
    800023ba:	40dc89bb          	subw	s3,s9,a3
    800023be:	02eb76bb          	remuw	a3,s6,a4
    800023c2:	0166feb3          	and	t4,a3,s6
    800023c6:	e719                	bnez	a4,800023d4 <main_33+0x292>
    800023c8:	8f8d                	sub	a5,a5,a1
    800023ca:	0aa6                	slli	s5,s5,0x9
    800023cc:	56fd                	li	a3,-1
    800023ce:	0166feb3          	and	t4,a3,s6
    800023d2:	0588                	addi	a0,sp,704
    800023d4:	02415b3b          	divuw	s6,sp,tp
    800023d8:	9d01                	subw	a0,a0,s0
    800023da:	02b2dc33          	divu	s8,t0,a1
    800023de:	84627b37          	lui	s6,0x84627
    800023e2:	0094bb33          	sltu	s6,s1,s1
    800023e6:	ca85                	beqz	a3,80002416 <main_33+0x2d4>
    800023e8:	9d01                	subw	a0,a0,s0
    800023ea:	04a9                	addi	s1,s1,10
    800023ec:	02b2dc33          	divu	s8,t0,a1
    800023f0:	93a6ba13          	sltiu	s4,a3,-1734
    800023f4:	03272133          	mulhsu	sp,a4,s2
    800023f8:	8e49                	or	a2,a2,a0
    800023fa:	029bfb63          	bgeu	s7,s1,80002430 <main_33+0x2ee>
    800023fe:	5be3e993          	ori	s3,t2,1470
    80002402:	02deedbb          	remw	s11,t4,a3
    80002406:	86d9                	srai	a3,a3,0x16
    80002408:	03272133          	mulhsu	sp,a4,s2
    8000240c:	00d316bb          	sllw	a3,t1,a3
    80002410:	56fd                	li	a3,-1
    80002412:	03b95f63          	bge	s2,s11,80002450 <main_33+0x30e>
    80002416:	56fd                	li	a3,-1
    80002418:	0001                	nop
    8000241a:	02fffcb3          	remu	s9,t6,a5
    8000241e:	02eb76bb          	remuw	a3,s6,a4
    80002422:	018a5213          	srli	tp,s4,0x18
    80002426:	03d44f3b          	divw	t5,s0,t4
    8000242a:	01b60463          	beq	a2,s11,80002432 <main_33+0x2f0>
    8000242e:	3f7d                	addiw	t5,t5,-1
    80002430:	89d9                	andi	a1,a1,22
    80002432:	0091ddb3          	srl	s11,gp,s1
    80002436:	93a6ba13          	sltiu	s4,a3,-1734
    8000243a:	8c79                	and	s0,s0,a4
    8000243c:	01e203b3          	add	t2,tp,t5
    80002440:	03272133          	mulhsu	sp,a4,s2
    80002444:	84627b37          	lui	s6,0x84627
    80002448:	8f8d                	sub	a5,a5,a1
    8000244a:	02fffcb3          	remu	s9,t6,a5
    8000244e:	69ad                	lui	s3,0xb
    80002450:	0166feb3          	and	t4,a3,s6
    80002454:	01b55bbb          	srlw	s7,a0,s11
    80002458:	8a3a                	mv	s4,a4
    8000245a:	0aa6                	slli	s5,s5,0x9
    8000245c:	9db9                	addw	a1,a1,a4
    8000245e:	03eec933          	div	s2,t4,t5
    80002462:	000807bb          	addw	a5,a6,zero
    80002466:	4368d313          	srai	t1,a7,0x36
    8000246a:	ef05                	bnez	a4,800024a2 <main_33+0x360>
    8000246c:	0cc1881b          	addiw	a6,gp,204
    80002470:	01ca4133          	xor	sp,s4,t3
    80002474:	0094bb33          	sltu	s6,s1,s1
    80002478:	40dc89bb          	subw	s3,s9,a3
    8000247c:	03272133          	mulhsu	sp,a4,s2
    80002480:	0094bb33          	sltu	s6,s1,s1
    80002484:	018a5213          	srli	tp,s4,0x18
    80002488:	0588                	addi	a0,sp,704
    8000248a:	41bb519b          	sraiw	gp,s6,0x1b
    8000248e:	04a9                	addi	s1,s1,10
    80002490:	01b95963          	bge	s2,s11,800024a2 <main_33+0x360>
    80002494:	5be3e993          	ori	s3,t2,1470
    80002498:	0aa6                	slli	s5,s5,0x9
    8000249a:	41205ebb          	sraw	t4,zero,s2
    8000249e:	05b95263          	bge	s2,s11,800024e2 <main_33+0x3a0>
    800024a2:	84627b37          	lui	s6,0x84627
    800024a6:	02a986bb          	mulw	a3,s3,a0
    800024aa:	56fd                	li	a3,-1
    800024ac:	8c21                	xor	s0,s0,s0
    800024ae:	02a986bb          	mulw	a3,s3,a0
    800024b2:	8f8d                	sub	a5,a5,a1
    800024b4:	03f76733          	rem	a4,a4,t6
    800024b8:	000b561b          	srliw	a2,s6,0x0
    800024bc:	0094bb33          	sltu	s6,s1,s1
    800024c0:	0588                	addi	a0,sp,704
    800024c2:	003de5b3          	or	a1,s11,gp
    800024c6:	09730a93          	addi	s5,t1,151
    800024ca:	8c79                	and	s0,s0,a4
    800024cc:	5be3e993          	ori	s3,t2,1470
    800024d0:	049bf263          	bgeu	s7,s1,80002514 <main_33+0x3d2>
    800024d4:	01b55bbb          	srlw	s7,a0,s11
    800024d8:	01e203b3          	add	t2,tp,t5
    800024dc:	9db9                	addw	a1,a1,a4
    800024de:	93a6ba13          	sltiu	s4,a3,-1734
    800024e2:	01a31093          	slli	ra,t1,0x1a
    800024e6:	0166feb3          	and	t4,a3,s6
    800024ea:	02a986bb          	mulw	a3,s3,a0
    800024ee:	9a7e                	add	s4,s4,t6
    800024f0:	02fffcb3          	remu	s9,t6,a5
    800024f4:	02061833          	mulh	a6,a2,zero
    800024f8:	8c79                	and	s0,s0,a4
    800024fa:	0001                	nop
    800024fc:	e31d                	bnez	a4,80002522 <main_33+0x3e0>
    800024fe:	4368d313          	srai	t1,a7,0x36
    80002502:	0001                	nop
    80002504:	0085e463          	bltu	a1,s0,8000250c <main_33+0x3ca>
    80002508:	02b2dc33          	divu	s8,t0,a1
    8000250c:	417dd533          	sra	a0,s11,s7
    80002510:	00d316bb          	sllw	a3,t1,a3
    80002514:	9a7e                	add	s4,s4,t6
    80002516:	8e49                	or	a2,a2,a0
    80002518:	41660233          	sub	tp,a2,s6
    8000251c:	009bfd63          	bgeu	s7,s1,80002536 <main_33+0x3f4>
    80002520:	04a9                	addi	s1,s1,10
    80002522:	018a5213          	srli	tp,s4,0x18
    80002526:	69ad                	lui	s3,0xb
    80002528:	0a6c4417          	auipc	s0,0xa6c4
    8000252c:	8c21                	xor	s0,s0,s0
    8000252e:	000807bb          	addw	a5,a6,zero
    80002532:	02deedbb          	remw	s11,t4,a3
    80002536:	41205ebb          	sraw	t4,zero,s2
    8000253a:	02eb76bb          	remuw	a3,s6,a4
    8000253e:	02a986bb          	mulw	a3,s3,a0
    80002542:	01ca4133          	xor	sp,s4,t3
    80002546:	04a9                	addi	s1,s1,10
    80002548:	edf82113          	slti	sp,a6,-289
    8000254c:	029bf063          	bgeu	s7,s1,8000256c <main_33+0x42a>
    80002550:	89d9                	andi	a1,a1,22
    80002552:	02b2dc33          	divu	s8,t0,a1
    80002556:	02eb76bb          	remuw	a3,s6,a4
    8000255a:	41205ebb          	sraw	t4,zero,s2
    8000255e:	4368d313          	srai	t1,a7,0x36
    80002562:	5be3e993          	ori	s3,t2,1470
    80002566:	9a7e                	add	s4,s4,t6
    80002568:	0166feb3          	and	t4,a3,s6
    8000256c:	8c79                	and	s0,s0,a4
    8000256e:	93a6ba13          	sltiu	s4,a3,-1734
    80002572:	41205ebb          	sraw	t4,zero,s2
    80002576:	56fd                	li	a3,-1
    80002578:	e3314393          	xori	t2,sp,-461
    8000257c:	8f8d                	sub	a5,a5,a1
    8000257e:	8a3a                	mv	s4,a4
    80002580:	41660233          	sub	tp,a2,s6
    80002584:	09730a93          	addi	s5,t1,151
    80002588:	049bf063          	bgeu	s7,s1,800025c8 <main_33+0x486>
    8000258c:	0588                	addi	a0,sp,704
    8000258e:	00ce1c1b          	slliw	s8,t3,0xc
    80002592:	03b95a63          	bge	s2,s11,800025c6 <main_33+0x484>
    80002596:	03f76733          	rem	a4,a4,t6
    8000259a:	03272133          	mulhsu	sp,a4,s2
    8000259e:	00ce1c1b          	slliw	s8,t3,0xc
    800025a2:	0091ddb3          	srl	s11,gp,s1
    800025a6:	009bf263          	bgeu	s7,s1,800025aa <main_33+0x468>
    800025aa:	86d9                	srai	a3,a3,0x16
    800025ac:	018a5213          	srli	tp,s4,0x18
    800025b0:	93a6ba13          	sltiu	s4,a3,-1734
    800025b4:	69ad                	lui	s3,0xb
    800025b6:	023830b3          	mulhu	ra,a6,gp
    800025ba:	0001                	nop
    800025bc:	8a3a                	mv	s4,a4
    800025be:	5be3e993          	ori	s3,t2,1470
    800025c2:	89d9                	andi	a1,a1,22
    800025c4:	89d9                	andi	a1,a1,22
    800025c6:	3f7d                	addiw	t5,t5,-1
    800025c8:	41205ebb          	sraw	t4,zero,s2
    800025cc:	89d9                	andi	a1,a1,22
    800025ce:	8e49                	or	a2,a2,a0
    800025d0:	0a6c4417          	auipc	s0,0xa6c4
    800025d4:	69ad                	lui	s3,0xb
    800025d6:	02061833          	mulh	a6,a2,zero
    800025da:	0a6c4417          	auipc	s0,0xa6c4
    800025de:	02eb76bb          	remuw	a3,s6,a4
    800025e2:	8e49                	or	a2,a2,a0
    800025e4:	93a6ba13          	sltiu	s4,a3,-1734
    800025e8:	69ad                	lui	s3,0xb
    800025ea:	8e49                	or	a2,a2,a0
    800025ec:	0001                	nop
    800025ee:	01e203b3          	add	t2,tp,t5
    800025f2:	03eec933          	div	s2,t4,t5
    800025f6:	00ce1c1b          	slliw	s8,t3,0xc
    800025fa:	009bf363          	bgeu	s7,s1,80002600 <main_33+0x4be>
    800025fe:	8c79                	and	s0,s0,a4
    80002600:	8e49                	or	a2,a2,a0
    80002602:	02a986bb          	mulw	a3,s3,a0
    80002606:	5be3e993          	ori	s3,t2,1470
    8000260a:	41bb519b          	sraiw	gp,s6,0x1b
    8000260e:	000b561b          	srliw	a2,s6,0x0
    80002612:	ef2d                	bnez	a4,8000268c <main_5+0x76>
    80002614:	8a3a                	mv	s4,a4

0000000080002616 <main_5>:
    80002616:	02200eef          	jal	t4,80002638 <main_5+0x22>
    8000261a:	a831                	j	80002636 <main_5+0x20>
    8000261c:	03e000ef          	jal	8000265a <main_5+0x44>
    80002620:	a829                	j	8000263a <main_5+0x24>
    80002622:	ff9ff0ef          	jal	8000261a <main_5+0x4>
    80002626:	ff7ff0ef          	jal	8000261c <main_5+0x6>
    8000262a:	a819                	j	80002640 <main_5+0x2a>
    8000262c:	a091                	j	80002670 <main_5+0x5a>
    8000262e:	034000ef          	jal	80002662 <main_5+0x4c>
    80002632:	03c000ef          	jal	8000266e <main_5+0x58>
    80002636:	a039                	j	80002644 <main_5+0x2e>
    80002638:	a839                	j	80002656 <main_5+0x40>
    8000263a:	a811                	j	8000264e <main_5+0x38>
    8000263c:	02c000ef          	jal	80002668 <main_5+0x52>
    80002640:	fe3ff0ef          	jal	80002622 <main_5+0xc>
    80002644:	a019                	j	8000264a <main_5+0x34>
    80002646:	fdbff0ef          	jal	80002620 <main_5+0xa>
    8000264a:	fe3ff0ef          	jal	8000262c <main_5+0x16>
    8000264e:	fe5ff0ef          	jal	80002632 <main_5+0x1c>
    80002652:	018000ef          	jal	8000266a <main_5+0x54>
    80002656:	fd9ff0ef          	jal	8000262e <main_5+0x18>
    8000265a:	004000ef          	jal	8000265e <main_5+0x48>
    8000265e:	008000ef          	jal	80002666 <main_5+0x50>
    80002662:	fe5ff0ef          	jal	80002646 <main_5+0x30>
    80002666:	bfd9                	j	8000263c <main_5+0x26>
    80002668:	b7c9                	j	8000262a <main_5+0x14>
    8000266a:	fbdff0ef          	jal	80002626 <main_5+0x10>
    8000266e:	b7d5                	j	80002652 <main_5+0x3c>
    80002670:	03eec933          	div	s2,t4,t5
    80002674:	023a9d63          	bne	s5,gp,800026ae <main_5+0x98>
    80002678:	00ce1c1b          	slliw	s8,t3,0xc
    8000267c:	edf82113          	slti	sp,a6,-289
    80002680:	8a3a                	mv	s4,a4
    80002682:	0094bb33          	sltu	s6,s1,s1
    80002686:	40dc89bb          	subw	s3,s9,a3
    8000268a:	717d                	addi	sp,sp,-16
    8000268c:	40dc89bb          	subw	s3,s9,a3
    80002690:	40dc89bb          	subw	s3,s9,a3
    80002694:	0285ee63          	bltu	a1,s0,800026d0 <main_5+0xba>
    80002698:	003de5b3          	or	a1,s11,gp
    8000269c:	28d0f213          	andi	tp,ra,653
    800026a0:	8f8d                	sub	a5,a5,a1
    800026a2:	018a5213          	srli	tp,s4,0x18
    800026a6:	0166feb3          	and	t4,a3,s6
    800026aa:	02eb76bb          	remuw	a3,s6,a4
    800026ae:	e3314393          	xori	t2,sp,-461
    800026b2:	01b55bbb          	srlw	s7,a0,s11
    800026b6:	01e203b3          	add	t2,tp,t5
    800026ba:	41205ebb          	sraw	t4,zero,s2
    800026be:	0166feb3          	and	t4,a3,s6
    800026c2:	5be3e993          	ori	s3,t2,1470
    800026c6:	0aa6                	slli	s5,s5,0x9
    800026c8:	018a5213          	srli	tp,s4,0x18
    800026cc:	01b60363          	beq	a2,s11,800026d2 <main_5+0xbc>
    800026d0:	0001                	nop
    800026d2:	01e203b3          	add	t2,tp,t5
    800026d6:	8c21                	xor	s0,s0,s0
    800026d8:	e321                	bnez	a4,80002718 <main_5+0x102>
    800026da:	0166feb3          	and	t4,a3,s6
    800026de:	9d01                	subw	a0,a0,s0
    800026e0:	09730a93          	addi	s5,t1,151
    800026e4:	9db9                	addw	a1,a1,a4
    800026e6:	41660233          	sub	tp,a2,s6
    800026ea:	0aa6                	slli	s5,s5,0x9
    800026ec:	04a9                	addi	s1,s1,10
    800026ee:	41bb519b          	sraiw	gp,s6,0x1b
    800026f2:	02b2dc33          	divu	s8,t0,a1
    800026f6:	02061833          	mulh	a6,a2,zero
    800026fa:	00d316bb          	sllw	a3,t1,a3
    800026fe:	03d44f3b          	divw	t5,s0,t4
    80002702:	0001                	nop
    80002704:	0cc1881b          	addiw	a6,gp,204
    80002708:	003de5b3          	or	a1,s11,gp
    8000270c:	41660233          	sub	tp,a2,s6
    80002710:	01e203b3          	add	t2,tp,t5
    80002714:	05b95063          	bge	s2,s11,80002754 <main_5+0x13e>
    80002718:	c681                	beqz	a3,80002720 <main_5+0x10a>
    8000271a:	8c79                	and	s0,s0,a4
    8000271c:	000b561b          	srliw	a2,s6,0x0
    80002720:	00ce1c1b          	slliw	s8,t3,0xc
    80002724:	05b60563          	beq	a2,s11,8000276e <main_5+0x158>
    80002728:	00d316bb          	sllw	a3,t1,a3
    8000272c:	3f7d                	addiw	t5,t5,-1
    8000272e:	02deedbb          	remw	s11,t4,a3
    80002732:	05b60463          	beq	a2,s11,8000277a <main_5+0x164>
    80002736:	03272133          	mulhsu	sp,a4,s2
    8000273a:	00d316bb          	sllw	a3,t1,a3
    8000273e:	00d04963          	bgtz	a3,80002750 <main_5+0x13a>
    80002742:	0166feb3          	and	t4,a3,s6
    80002746:	69ad                	lui	s3,0xb
    80002748:	000807bb          	addw	a5,a6,zero
    8000274c:	40dc89bb          	subw	s3,s9,a3
    80002750:	003a9463          	bne	s5,gp,80002758 <main_5+0x142>
    80002754:	41660233          	sub	tp,a2,s6
    80002758:	40dc89bb          	subw	s3,s9,a3
    8000275c:	0094bb33          	sltu	s6,s1,s1
    80002760:	86d9                	srai	a3,a3,0x16
    80002762:	000725b3          	sltz	a1,a4
    80002766:	01a31093          	slli	ra,t1,0x1a
    8000276a:	01b55bbb          	srlw	s7,a0,s11
    8000276e:	00ce1c1b          	slliw	s8,t3,0xc
    80002772:	09730a93          	addi	s5,t1,151
    80002776:	5be3e993          	ori	s3,t2,1470
    8000277a:	8e49                	or	a2,a2,a0
    8000277c:	002495b3          	sll	a1,s1,sp
    80002780:	82f9                	srli	a3,a3,0x1e
    80002782:	717d                	addi	sp,sp,-16
    80002784:	8a3a                	mv	s4,a4
    80002786:	0cc1881b          	addiw	a6,gp,204
    8000278a:	3f7d                	addiw	t5,t5,-1
    8000278c:	9d01                	subw	a0,a0,s0
    8000278e:	9db9                	addw	a1,a1,a4
    80002790:	e71d                	bnez	a4,800027be <main_5+0x1a8>
    80002792:	8a3a                	mv	s4,a4
    80002794:	ce89                	beqz	a3,800027ae <main_5+0x198>
    80002796:	0001                	nop
    80002798:	02415b3b          	divuw	s6,sp,tp
    8000279c:	003a9563          	bne	s5,gp,800027a6 <main_5+0x190>
    800027a0:	8a3a                	mv	s4,a4
    800027a2:	03498fb3          	mul	t6,s3,s4
    800027a6:	023830b3          	mulhu	ra,a6,gp
    800027aa:	01ca4133          	xor	sp,s4,t3
    800027ae:	8c21                	xor	s0,s0,s0
    800027b0:	69ad                	lui	s3,0xb
    800027b2:	02415b3b          	divuw	s6,sp,tp
    800027b6:	28d0f213          	andi	tp,ra,653
    800027ba:	03498fb3          	mul	t6,s3,s4
    800027be:	000725b3          	sltz	a1,a4
    800027c2:	00d316bb          	sllw	a3,t1,a3
    800027c6:	000807bb          	addw	a5,a6,zero
    800027ca:	02061833          	mulh	a6,a2,zero
    800027ce:	0166feb3          	and	t4,a3,s6
    800027d2:	5be3e993          	ori	s3,t2,1470
    800027d6:	02a986bb          	mulw	a3,s3,a0
    800027da:	018a5213          	srli	tp,s4,0x18
    800027de:	02415b3b          	divuw	s6,sp,tp
    800027e2:	8c21                	xor	s0,s0,s0
    800027e4:	02415b3b          	divuw	s6,sp,tp
    800027e8:	8c79                	and	s0,s0,a4
    800027ea:	69ad                	lui	s3,0xb
    800027ec:	8c21                	xor	s0,s0,s0
    800027ee:	02b2dc33          	divu	s8,t0,a1
    800027f2:	41205ebb          	sraw	t4,zero,s2
    800027f6:	41660233          	sub	tp,a2,s6
    800027fa:	03f76733          	rem	a4,a4,t6
    800027fe:	02415b3b          	divuw	s6,sp,tp
    80002802:	03b95a63          	bge	s2,s11,80002836 <main_5+0x220>
    80002806:	01a31093          	slli	ra,t1,0x1a
    8000280a:	018a5213          	srli	tp,s4,0x18
    8000280e:	018a5213          	srli	tp,s4,0x18
    80002812:	84627b37          	lui	s6,0x84627
    80002816:	009bf263          	bgeu	s7,s1,8000281a <main_5+0x204>
    8000281a:	3f7d                	addiw	t5,t5,-1
    8000281c:	000807bb          	addw	a5,a6,zero
    80002820:	41660233          	sub	tp,a2,s6
    80002824:	84627b37          	lui	s6,0x84627
    80002828:	0588                	addi	a0,sp,704
    8000282a:	0094bb33          	sltu	s6,s1,s1
    8000282e:	0001                	nop
    80002830:	56fd                	li	a3,-1
    80002832:	02eb76bb          	remuw	a3,s6,a4
    80002836:	02eb76bb          	remuw	a3,s6,a4
    8000283a:	009bfa63          	bgeu	s7,s1,8000284e <main_5+0x238>
    8000283e:	000725b3          	sltz	a1,a4
    80002842:	0001                	nop
    80002844:	04a9                	addi	s1,s1,10
    80002846:	02fffcb3          	remu	s9,t6,a5
    8000284a:	01e203b3          	add	t2,tp,t5
    8000284e:	717d                	addi	sp,sp,-16
    80002850:	86d9                	srai	a3,a3,0x16
    80002852:	000807bb          	addw	a5,a6,zero
    80002856:	023a9363          	bne	s5,gp,8000287c <main_5+0x266>
    8000285a:	00ce1c1b          	slliw	s8,t3,0xc
    8000285e:	000807bb          	addw	a5,a6,zero
    80002862:	0285e663          	bltu	a1,s0,8000288e <main_5+0x278>
    80002866:	09730a93          	addi	s5,t1,151
    8000286a:	01e203b3          	add	t2,tp,t5
    8000286e:	03eec933          	div	s2,t4,t5
    80002872:	00d316bb          	sllw	a3,t1,a3
    80002876:	0091ddb3          	srl	s11,gp,s1
    8000287a:	8f8d                	sub	a5,a5,a1
    8000287c:	86d9                	srai	a3,a3,0x16
    8000287e:	002495b3          	sll	a1,s1,sp
    80002882:	28d0f213          	andi	tp,ra,653
    80002886:	0a6c4417          	auipc	s0,0xa6c4
    8000288a:	417dd533          	sra	a0,s11,s7
    8000288e:	0285e663          	bltu	a1,s0,800028ba <main_5+0x2a4>
    80002892:	02061833          	mulh	a6,a2,zero
    80002896:	8c21                	xor	s0,s0,s0
    80002898:	8c79                	and	s0,s0,a4
    8000289a:	28d0f213          	andi	tp,ra,653
    8000289e:	417dd533          	sra	a0,s11,s7
    800028a2:	04a9                	addi	s1,s1,10
    800028a4:	03d44f3b          	divw	t5,s0,t4
    800028a8:	03272133          	mulhsu	sp,a4,s2
    800028ac:	41205ebb          	sraw	t4,zero,s2
    800028b0:	84627b37          	lui	s6,0x84627
    800028b4:	002495b3          	sll	a1,s1,sp
    800028b8:	3f7d                	addiw	t5,t5,-1
    800028ba:	02b2dc33          	divu	s8,t0,a1
    800028be:	023830b3          	mulhu	ra,a6,gp
    800028c2:	e3314393          	xori	t2,sp,-461
    800028c6:	03b60563          	beq	a2,s11,800028f0 <main_5+0x2da>
    800028ca:	000725b3          	sltz	a1,a4
    800028ce:	0085e963          	bltu	a1,s0,800028e0 <main_5+0x2ca>
    800028d2:	03b60b63          	beq	a2,s11,80002908 <main_5+0x2f2>
    800028d6:	4368d313          	srai	t1,a7,0x36
    800028da:	69ad                	lui	s3,0xb
    800028dc:	003a9963          	bne	s5,gp,800028ee <main_5+0x2d8>
    800028e0:	02fffcb3          	remu	s9,t6,a5
    800028e4:	41bb519b          	sraiw	gp,s6,0x1b
    800028e8:	03eec933          	div	s2,t4,t5
    800028ec:	0aa6                	slli	s5,s5,0x9
    800028ee:	8a3a                	mv	s4,a4
    800028f0:	03272133          	mulhsu	sp,a4,s2
    800028f4:	0cc1881b          	addiw	a6,gp,204
    800028f8:	5be3e993          	ori	s3,t2,1470
    800028fc:	003de5b3          	or	a1,s11,gp
    80002900:	8c21                	xor	s0,s0,s0
    80002902:	01b95363          	bge	s2,s11,80002908 <main_5+0x2f2>
    80002906:	ce91                	beqz	a3,80002922 <main_5+0x30c>
    80002908:	03272133          	mulhsu	sp,a4,s2
    8000290c:	02b2dc33          	divu	s8,t0,a1
    80002910:	69ad                	lui	s3,0xb
    80002912:	4368d313          	srai	t1,a7,0x36
    80002916:	03272133          	mulhsu	sp,a4,s2
    8000291a:	9db9                	addw	a1,a1,a4
    8000291c:	93a6ba13          	sltiu	s4,a3,-1734
    80002920:	0588                	addi	a0,sp,704
    80002922:	01b60263          	beq	a2,s11,80002926 <main_5+0x310>
    80002926:	01e203b3          	add	t2,tp,t5
    8000292a:	56fd                	li	a3,-1
    8000292c:	89d9                	andi	a1,a1,22
    8000292e:	9d01                	subw	a0,a0,s0
    80002930:	e30d                	bnez	a4,80002952 <main_5+0x33c>
    80002932:	018a5213          	srli	tp,s4,0x18
    80002936:	000b561b          	srliw	a2,s6,0x0
    8000293a:	09730a93          	addi	s5,t1,151
    8000293e:	01b95363          	bge	s2,s11,80002944 <main_5+0x32e>
    80002942:	89d9                	andi	a1,a1,22
    80002944:	02d04763          	bgtz	a3,80002972 <main_5+0x35c>
    80002948:	717d                	addi	sp,sp,-16
    8000294a:	01a31093          	slli	ra,t1,0x1a
    8000294e:	003a9963          	bne	s5,gp,80002960 <main_5+0x34a>
    80002952:	8c79                	and	s0,s0,a4
    80002954:	e311                	bnez	a4,80002958 <main_5+0x342>
    80002956:	9a7e                	add	s4,s4,t6
    80002958:	0085e863          	bltu	a1,s0,80002968 <main_5+0x352>
    8000295c:	0285ec63          	bltu	a1,s0,80002994 <main_5+0x37e>
    80002960:	89d9                	andi	a1,a1,22
    80002962:	00ce1c1b          	slliw	s8,t3,0xc
    80002966:	717d                	addi	sp,sp,-16
    80002968:	04a9                	addi	s1,s1,10
    8000296a:	00ce1c1b          	slliw	s8,t3,0xc
    8000296e:	717d                	addi	sp,sp,-16
    80002970:	8c21                	xor	s0,s0,s0
    80002972:	0166feb3          	and	t4,a3,s6
    80002976:	01a31093          	slli	ra,t1,0x1a
    8000297a:	0aa6                	slli	s5,s5,0x9
    8000297c:	8c21                	xor	s0,s0,s0
    8000297e:	0cc1881b          	addiw	a6,gp,204
    80002982:	02061833          	mulh	a6,a2,zero
    80002986:	edf82113          	slti	sp,a6,-289
    8000298a:	03272133          	mulhsu	sp,a4,s2
    8000298e:	0aa6                	slli	s5,s5,0x9
    80002990:	0085e463          	bltu	a1,s0,80002998 <main_5+0x382>
    80002994:	000807bb          	addw	a5,a6,zero
    80002998:	000b561b          	srliw	a2,s6,0x0
    8000299c:	9d01                	subw	a0,a0,s0
    8000299e:	8f8d                	sub	a5,a5,a1
    800029a0:	417dd533          	sra	a0,s11,s7
    800029a4:	0cc1881b          	addiw	a6,gp,204
    800029a8:	41660233          	sub	tp,a2,s6
    800029ac:	03f76733          	rem	a4,a4,t6
    800029b0:	023830b3          	mulhu	ra,a6,gp
    800029b4:	00d316bb          	sllw	a3,t1,a3
    800029b8:	86d9                	srai	a3,a3,0x16
    800029ba:	82f9                	srli	a3,a3,0x1e
    800029bc:	4368d313          	srai	t1,a7,0x36
    800029c0:	02d04f63          	bgtz	a3,800029fe <main_5+0x3e8>
    800029c4:	41205ebb          	sraw	t4,zero,s2
    800029c8:	003de5b3          	or	a1,s11,gp
    800029cc:	023830b3          	mulhu	ra,a6,gp
    800029d0:	003de5b3          	or	a1,s11,gp
    800029d4:	e3314393          	xori	t2,sp,-461
    800029d8:	0001                	nop
    800029da:	00d04863          	bgtz	a3,800029ea <main_5+0x3d4>
    800029de:	03d44f3b          	divw	t5,s0,t4
    800029e2:	9db9                	addw	a1,a1,a4
    800029e4:	84627b37          	lui	s6,0x84627
    800029e8:	8e49                	or	a2,a2,a0
    800029ea:	717d                	addi	sp,sp,-16
    800029ec:	00d04263          	bgtz	a3,800029f0 <main_5+0x3da>
    800029f0:	82f9                	srli	a3,a3,0x1e
    800029f2:	000725b3          	sltz	a1,a4
    800029f6:	0a6c4417          	auipc	s0,0xa6c4
    800029fa:	8f8d                	sub	a5,a5,a1
    800029fc:	0588                	addi	a0,sp,704
    800029fe:	0285eb63          	bltu	a1,s0,80002a34 <main_5+0x41e>
    80002a02:	edf82113          	slti	sp,a6,-289
    80002a06:	03b60063          	beq	a2,s11,80002a26 <main_5+0x410>
    80002a0a:	02415b3b          	divuw	s6,sp,tp
    80002a0e:	01e203b3          	add	t2,tp,t5
    80002a12:	049bf263          	bgeu	s7,s1,80002a56 <main_5+0x440>
    80002a16:	03f76733          	rem	a4,a4,t6
    80002a1a:	41bb519b          	sraiw	gp,s6,0x1b
    80002a1e:	717d                	addi	sp,sp,-16
    80002a20:	002495b3          	sll	a1,s1,sp
    80002a24:	8f8d                	sub	a5,a5,a1
    80002a26:	02b2dc33          	divu	s8,t0,a1
    80002a2a:	0091ddb3          	srl	s11,gp,s1
    80002a2e:	28d0f213          	andi	tp,ra,653
    80002a32:	8c21                	xor	s0,s0,s0
    80002a34:	01e203b3          	add	t2,tp,t5
    80002a38:	01ca4133          	xor	sp,s4,t3
    80002a3c:	02a986bb          	mulw	a3,s3,a0
    80002a40:	69ad                	lui	s3,0xb
    80002a42:	000807bb          	addw	a5,a6,zero
    80002a46:	0cc1881b          	addiw	a6,gp,204
    80002a4a:	8f8d                	sub	a5,a5,a1
    80002a4c:	0094bb33          	sltu	s6,s1,s1
    80002a50:	82f9                	srli	a3,a3,0x1e
    80002a52:	000807bb          	addw	a5,a6,zero
    80002a56:	0094bb33          	sltu	s6,s1,s1
    80002a5a:	ca8d                	beqz	a3,80002a8c <main_5+0x476>
    80002a5c:	05b95263          	bge	s2,s11,80002aa0 <main_5+0x48a>
    80002a60:	018a5213          	srli	tp,s4,0x18
    80002a64:	009bf563          	bgeu	s7,s1,80002a6e <main_5+0x458>
    80002a68:	0094bb33          	sltu	s6,s1,s1
    80002a6c:	8a3a                	mv	s4,a4
    80002a6e:	03d44f3b          	divw	t5,s0,t4
    80002a72:	41bb519b          	sraiw	gp,s6,0x1b
    80002a76:	8f8d                	sub	a5,a5,a1
    80002a78:	02a986bb          	mulw	a3,s3,a0
    80002a7c:	0166feb3          	and	t4,a3,s6
    80002a80:	009bff63          	bgeu	s7,s1,80002a9e <main_5+0x488>
    80002a84:	0588                	addi	a0,sp,704
    80002a86:	8c79                	and	s0,s0,a4
    80002a88:	417dd533          	sra	a0,s11,s7
    80002a8c:	018a5213          	srli	tp,s4,0x18
    80002a90:	84627b37          	lui	s6,0x84627
    80002a94:	02415b3b          	divuw	s6,sp,tp
    80002a98:	000725b3          	sltz	a1,a4
    80002a9c:	ef01                	bnez	a4,80002ab4 <main_5+0x49e>
    80002a9e:	82f9                	srli	a3,a3,0x1e
    80002aa0:	02deedbb          	remw	s11,t4,a3
    80002aa4:	023830b3          	mulhu	ra,a6,gp
    80002aa8:	0001                	nop
    80002aaa:	09730a93          	addi	s5,t1,151
    80002aae:	06d04b63          	bgtz	a3,80002b24 <main_38+0x62>
    80002ab2:	8c79                	and	s0,s0,a4
    80002ab4:	8e49                	or	a2,a2,a0
    80002ab6:	0e9bfb63          	bgeu	s7,s1,80002bac <main_61_0_t+0xc>
    80002aba:	28d0f213          	andi	tp,ra,653
    80002abe:	8c79                	and	s0,s0,a4
    80002ac0:	8a3a                	mv	s4,a4

0000000080002ac2 <main_38>:
    80002ac2:	01400eef          	jal	t4,80002ad6 <main_38+0x14>
    80002ac6:	a029                	j	80002ad0 <main_38+0xe>
    80002ac8:	044000ef          	jal	80002b0c <main_38+0x4a>
    80002acc:	a829                	j	80002ae6 <main_38+0x24>
    80002ace:	bfed                	j	80002ac8 <main_38+0x6>
    80002ad0:	014000ef          	jal	80002ae4 <main_38+0x22>
    80002ad4:	a831                	j	80002af0 <main_38+0x2e>
    80002ad6:	008000ef          	jal	80002ade <main_38+0x1c>
    80002ada:	01a000ef          	jal	80002af4 <main_38+0x32>
    80002ade:	00e000ef          	jal	80002aec <main_38+0x2a>
    80002ae2:	b7ed                	j	80002acc <main_38+0xa>
    80002ae4:	a01d                	j	80002b0a <main_38+0x48>
    80002ae6:	b7fd                	j	80002ad4 <main_38+0x12>
    80002ae8:	a809                	j	80002afa <main_38+0x38>
    80002aea:	a821                	j	80002b02 <main_38+0x40>
    80002aec:	a031                	j	80002af8 <main_38+0x36>
    80002aee:	a801                	j	80002afe <main_38+0x3c>
    80002af0:	ffbff0ef          	jal	80002aea <main_38+0x28>
    80002af4:	01c000ef          	jal	80002b10 <main_38+0x4e>
    80002af8:	b7ed                	j	80002ae2 <main_38+0x20>
    80002afa:	fd5ff0ef          	jal	80002ace <main_38+0xc>
    80002afe:	fc9ff0ef          	jal	80002ac6 <main_38+0x4>
    80002b02:	004000ef          	jal	80002b06 <main_38+0x44>
    80002b06:	fe3ff0ef          	jal	80002ae8 <main_38+0x26>
    80002b0a:	bfc1                	j	80002ada <main_38+0x18>
    80002b0c:	fe3ff0ef          	jal	80002aee <main_38+0x2c>
    80002b10:	8c79                	and	s0,s0,a4
    80002b12:	41660233          	sub	tp,a2,s6
    80002b16:	03f76733          	rem	a4,a4,t6
    80002b1a:	02415b3b          	divuw	s6,sp,tp
    80002b1e:	0001                	nop
    80002b20:	edf82113          	slti	sp,a6,-289
    80002b24:	9db9                	addw	a1,a1,a4
    80002b26:	8c21                	xor	s0,s0,s0
    80002b28:	0001                	nop
    80002b2a:	4368d313          	srai	t1,a7,0x36
    80002b2e:	e3314393          	xori	t2,sp,-461
    80002b32:	01e203b3          	add	t2,tp,t5
    80002b36:	02eb76bb          	remuw	a3,s6,a4
    80002b3a:	00ce1c1b          	slliw	s8,t3,0xc
    80002b3e:	0001                	nop
    80002b40:	000725b3          	sltz	a1,a4
    80002b44:	4e29                	li	t3,10
    80002b46:	03d44c3b          	divw	s8,s0,t4
    80002b4a:	02ffff33          	remu	t5,t6,a5
    80002b4e:	0729                	addi	a4,a4,10
    80002b50:	4da9                	li	s11,10
    80002b52:	03d44c3b          	divw	s8,s0,t4
    80002b56:	02b2deb3          	divu	t4,t0,a1

0000000080002b5a <main_61_1_t>:
    80002b5a:	0166fa33          	and	s4,a3,s6
    80002b5e:	8fa1                	xor	a5,a5,s0
    80002b60:	00d317bb          	sllw	a5,t1,a3
    80002b64:	03eeca33          	div	s4,t4,t5
    80002b68:	4120583b          	sraw	a6,zero,s2
    80002b6c:	0001                	nop
    80002b6e:	09730b93          	addi	s7,t1,151
    80002b72:	9d39                	addw	a0,a0,a4
    80002b74:	0094bc33          	sltu	s8,s1,s1
    80002b78:	1e75                	addi	t3,t3,-3
    80002b7a:	0001                	nop
    80002b7c:	5471                	li	s0,-4
    80002b7e:	0001                	nop
    80002b80:	edf82193          	slti	gp,a6,-289
    80002b84:	0fa6                	slli	t6,t6,0x9
    80002b86:	8cf9                	and	s1,s1,a4
    80002b88:	4368d393          	srai	t2,a7,0x36
    80002b8c:	e3314493          	xori	s1,sp,-461
    80002b90:	01ca41b3          	xor	gp,s4,t3
    80002b94:	edf82193          	slti	gp,a6,-289
    80002b98:	86d9                	srai	a3,a3,0x16
    80002b9a:	02415c3b          	divuw	s8,sp,tp
    80002b9e:	0590                	addi	a2,sp,704

0000000080002ba0 <main_61_0_t>:
    80002ba0:	8a59                	andi	a2,a2,22
    80002ba2:	0409                	addi	s0,s0,2 # 8a6c69f8 <_end+0xa69a070>
    80002ba4:	fc75                	bnez	s0,80002ba0 <main_61_0_t>
    80002ba6:	fbbe7ae3          	bgeu	t3,s11,80002b5a <main_61_1_t>
    80002baa:	8fa1                	xor	a5,a5,s0
    80002bac:	02eb76bb          	remuw	a3,s6,a4
    80002bb0:	023830b3          	mulhu	ra,a6,gp
    80002bb4:	023830b3          	mulhu	ra,a6,gp
    80002bb8:	03498fb3          	mul	t6,s3,s4
    80002bbc:	eb01                	bnez	a4,80002bcc <main_61_0_t+0x2c>
    80002bbe:	8f8d                	sub	a5,a5,a1
    80002bc0:	4368d313          	srai	t1,a7,0x36
    80002bc4:	02b2dc33          	divu	s8,t0,a1
    80002bc8:	03272133          	mulhsu	sp,a4,s2
    80002bcc:	41660233          	sub	tp,a2,s6
    80002bd0:	0a6c4417          	auipc	s0,0xa6c4
    80002bd4:	002495b3          	sll	a1,s1,sp
    80002bd8:	9d01                	subw	a0,a0,s0
    80002bda:	417dd533          	sra	a0,s11,s7
    80002bde:	03d44f3b          	divw	t5,s0,t4
    80002be2:	e709                	bnez	a4,80002bec <main_61_0_t+0x4c>
    80002be4:	000807bb          	addw	a5,a6,zero
    80002be8:	02a986bb          	mulw	a3,s3,a0
    80002bec:	0001                	nop
    80002bee:	417dd533          	sra	a0,s11,s7
    80002bf2:	8a3a                	mv	s4,a4
    80002bf4:	9a7e                	add	s4,s4,t6
    80002bf6:	717d                	addi	sp,sp,-16
    80002bf8:	01a31093          	slli	ra,t1,0x1a
    80002bfc:	03272133          	mulhsu	sp,a4,s2
    80002c00:	0a6c4417          	auipc	s0,0xa6c4
    80002c04:	03d44f3b          	divw	t5,s0,t4
    80002c08:	84627b37          	lui	s6,0x84627
    80002c0c:	8e49                	or	a2,a2,a0
    80002c0e:	4368d313          	srai	t1,a7,0x36
    80002c12:	417dd533          	sra	a0,s11,s7
    80002c16:	01ca4133          	xor	sp,s4,t3
    80002c1a:	69ad                	lui	s3,0xb
    80002c1c:	56fd                	li	a3,-1
    80002c1e:	9db9                	addw	a1,a1,a4
    80002c20:	0a6c4417          	auipc	s0,0xa6c4
    80002c24:	03b95863          	bge	s2,s11,80002c54 <main_61_0_t+0xb4>
    80002c28:	c69d                	beqz	a3,80002c56 <main_61_0_t+0xb6>
    80002c2a:	02415b3b          	divuw	s6,sp,tp
    80002c2e:	69ad                	lui	s3,0xb
    80002c30:	82f9                	srli	a3,a3,0x1e
    80002c32:	41660233          	sub	tp,a2,s6
    80002c36:	03272133          	mulhsu	sp,a4,s2
    80002c3a:	9d01                	subw	a0,a0,s0
    80002c3c:	002495b3          	sll	a1,s1,sp
    80002c40:	01ca4133          	xor	sp,s4,t3
    80002c44:	69ad                	lui	s3,0xb
    80002c46:	0001                	nop
    80002c48:	0091ddb3          	srl	s11,gp,s1
    80002c4c:	0aa6                	slli	s5,s5,0x9
    80002c4e:	029bfa63          	bgeu	s7,s1,80002c82 <main_61_0_t+0xe2>
    80002c52:	69ad                	lui	s3,0xb
    80002c54:	0001                	nop
    80002c56:	02eb76bb          	remuw	a3,s6,a4
    80002c5a:	717d                	addi	sp,sp,-16
    80002c5c:	03d44f3b          	divw	t5,s0,t4
    80002c60:	86d9                	srai	a3,a3,0x16
    80002c62:	0285e663          	bltu	a1,s0,80002c8e <main_61_0_t+0xee>
    80002c66:	8a3a                	mv	s4,a4
    80002c68:	edf82113          	slti	sp,a6,-289
    80002c6c:	40dc89bb          	subw	s3,s9,a3
    80002c70:	003de5b3          	or	a1,s11,gp
    80002c74:	003a9363          	bne	s5,gp,80002c7a <main_61_0_t+0xda>
    80002c78:	69ad                	lui	s3,0xb
    80002c7a:	edf82113          	slti	sp,a6,-289
    80002c7e:	002495b3          	sll	a1,s1,sp
    80002c82:	0a6c4417          	auipc	s0,0xa6c4
    80002c86:	09730a93          	addi	s5,t1,151
    80002c8a:	000725b3          	sltz	a1,a4
    80002c8e:	01a31093          	slli	ra,t1,0x1a
    80002c92:	02deedbb          	remw	s11,t4,a3
    80002c96:	01a31093          	slli	ra,t1,0x1a
    80002c9a:	8c79                	and	s0,s0,a4
    80002c9c:	edf82113          	slti	sp,a6,-289
    80002ca0:	00d316bb          	sllw	a3,t1,a3
    80002ca4:	e3314393          	xori	t2,sp,-461
    80002ca8:	003de5b3          	or	a1,s11,gp
    80002cac:	69ad                	lui	s3,0xb
    80002cae:	0091ddb3          	srl	s11,gp,s1
    80002cb2:	0094bb33          	sltu	s6,s1,s1
    80002cb6:	0588                	addi	a0,sp,704
    80002cb8:	69ad                	lui	s3,0xb
    80002cba:	02a986bb          	mulw	a3,s3,a0
    80002cbe:	01b55bbb          	srlw	s7,a0,s11
    80002cc2:	09730a93          	addi	s5,t1,151
    80002cc6:	02b2dc33          	divu	s8,t0,a1
    80002cca:	28d0f213          	andi	tp,ra,653
    80002cce:	01e203b3          	add	t2,tp,t5
    80002cd2:	417dd533          	sra	a0,s11,s7
    80002cd6:	003de5b3          	or	a1,s11,gp
    80002cda:	03f76733          	rem	a4,a4,t6
    80002cde:	86d9                	srai	a3,a3,0x16
    80002ce0:	56fd                	li	a3,-1
    80002ce2:	0285e863          	bltu	a1,s0,80002d12 <main_61_0_t+0x172>
    80002ce6:	84627b37          	lui	s6,0x84627
    80002cea:	02061833          	mulh	a6,a2,zero
    80002cee:	000725b3          	sltz	a1,a4
    80002cf2:	3f7d                	addiw	t5,t5,-1
    80002cf4:	03f76733          	rem	a4,a4,t6
    80002cf8:	03f76733          	rem	a4,a4,t6
    80002cfc:	03d44f3b          	divw	t5,s0,t4
    80002d00:	02b2dc33          	divu	s8,t0,a1
    80002d04:	edf82113          	slti	sp,a6,-289
    80002d08:	03d44f3b          	divw	t5,s0,t4
    80002d0c:	03f76733          	rem	a4,a4,t6
    80002d10:	0aa6                	slli	s5,s5,0x9
    80002d12:	9a7e                	add	s4,s4,t6
    80002d14:	717d                	addi	sp,sp,-16
    80002d16:	e329                	bnez	a4,80002d58 <main_61_0_t+0x1b8>
    80002d18:	0166feb3          	and	t4,a3,s6
    80002d1c:	40dc89bb          	subw	s3,s9,a3
    80002d20:	41205ebb          	sraw	t4,zero,s2
    80002d24:	03f76733          	rem	a4,a4,t6
    80002d28:	0cc1881b          	addiw	a6,gp,204
    80002d2c:	82f9                	srli	a3,a3,0x1e
    80002d2e:	02061833          	mulh	a6,a2,zero
    80002d32:	3f7d                	addiw	t5,t5,-1
    80002d34:	02eb76bb          	remuw	a3,s6,a4
    80002d38:	01b60e63          	beq	a2,s11,80002d54 <main_61_0_t+0x1b4>
    80002d3c:	02061833          	mulh	a6,a2,zero
    80002d40:	018a5213          	srli	tp,s4,0x18
    80002d44:	89d9                	andi	a1,a1,22
    80002d46:	0001                	nop
    80002d48:	01b95f63          	bge	s2,s11,80002d66 <main_61_0_t+0x1c6>
    80002d4c:	03d44f3b          	divw	t5,s0,t4
    80002d50:	023a9163          	bne	s5,gp,80002d72 <main_61_0_t+0x1d2>
    80002d54:	5be3e993          	ori	s3,t2,1470
    80002d58:	89d9                	andi	a1,a1,22
    80002d5a:	9db9                	addw	a1,a1,a4
    80002d5c:	717d                	addi	sp,sp,-16
    80002d5e:	41205ebb          	sraw	t4,zero,s2
    80002d62:	4368d313          	srai	t1,a7,0x36
    80002d66:	01a31093          	slli	ra,t1,0x1a
    80002d6a:	02eb76bb          	remuw	a3,s6,a4
    80002d6e:	40dc89bb          	subw	s3,s9,a3
    80002d72:	009bf963          	bgeu	s7,s1,80002d84 <main_61_0_t+0x1e4>
    80002d76:	01a31093          	slli	ra,t1,0x1a
    80002d7a:	84627b37          	lui	s6,0x84627
    80002d7e:	01ca4133          	xor	sp,s4,t3
    80002d82:	0aa6                	slli	s5,s5,0x9
    80002d84:	86d9                	srai	a3,a3,0x16
    80002d86:	3f7d                	addiw	t5,t5,-1
    80002d88:	02deedbb          	remw	s11,t4,a3
    80002d8c:	40dc89bb          	subw	s3,s9,a3
    80002d90:	9db9                	addw	a1,a1,a4
    80002d92:	003de5b3          	or	a1,s11,gp
    80002d96:	043a9163          	bne	s5,gp,80002dd8 <main_61_0_t+0x238>
    80002d9a:	03272133          	mulhsu	sp,a4,s2
    80002d9e:	28d0f213          	andi	tp,ra,653
    80002da2:	0588                	addi	a0,sp,704
    80002da4:	003de5b3          	or	a1,s11,gp
    80002da8:	01b55bbb          	srlw	s7,a0,s11
    80002dac:	0001                	nop
    80002dae:	8c79                	and	s0,s0,a4
    80002db0:	000725b3          	sltz	a1,a4
    80002db4:	02eb76bb          	remuw	a3,s6,a4
    80002db8:	41660233          	sub	tp,a2,s6
    80002dbc:	edf82113          	slti	sp,a6,-289
    80002dc0:	9a7e                	add	s4,s4,t6
    80002dc2:	04a9                	addi	s1,s1,10
    80002dc4:	03d44f3b          	divw	t5,s0,t4
    80002dc8:	09730a93          	addi	s5,t1,151
    80002dcc:	02415b3b          	divuw	s6,sp,tp
    80002dd0:	69ad                	lui	s3,0xb
    80002dd2:	69ad                	lui	s3,0xb
    80002dd4:	01e203b3          	add	t2,tp,t5
    80002dd8:	8e49                	or	a2,a2,a0
    80002dda:	8a3a                	mv	s4,a4
    80002ddc:	8a3a                	mv	s4,a4
    80002dde:	01ca4133          	xor	sp,s4,t3
    80002de2:	ca8d                	beqz	a3,80002e14 <main_61_0_t+0x274>
    80002de4:	82f9                	srli	a3,a3,0x1e
    80002de6:	41205ebb          	sraw	t4,zero,s2
    80002dea:	eb0d                	bnez	a4,80002e1c <main_61_0_t+0x27c>
    80002dec:	01e203b3          	add	t2,tp,t5
    80002df0:	56fd                	li	a3,-1
    80002df2:	04a9                	addi	s1,s1,10
    80002df4:	40dc89bb          	subw	s3,s9,a3
    80002df8:	0166feb3          	and	t4,a3,s6
    80002dfc:	41bb519b          	sraiw	gp,s6,0x1b
    80002e00:	0094bb33          	sltu	s6,s1,s1
    80002e04:	0001                	nop
    80002e06:	029bf963          	bgeu	s7,s1,80002e38 <main_61_0_t+0x298>
    80002e0a:	0285ea63          	bltu	a1,s0,80002e3e <main_61_0_t+0x29e>
    80002e0e:	82f9                	srli	a3,a3,0x1e
    80002e10:	002495b3          	sll	a1,s1,sp
    80002e14:	0001                	nop
    80002e16:	04d04b63          	bgtz	a3,80002e6c <main_70_0_t+0x1c>
    80002e1a:	8c79                	and	s0,s0,a4
    80002e1c:	01a31093          	slli	ra,t1,0x1a
    80002e20:	02b2dc33          	divu	s8,t0,a1
    80002e24:	8c79                	and	s0,s0,a4
    80002e26:	049bf763          	bgeu	s7,s1,80002e74 <main_70_0_t+0x24>
    80002e2a:	01ca4133          	xor	sp,s4,t3
    80002e2e:	0aa6                	slli	s5,s5,0x9
    80002e30:	02d04763          	bgtz	a3,80002e5e <main_70_0_t+0xe>
    80002e34:	01b55bbb          	srlw	s7,a0,s11
    80002e38:	02fffcb3          	remu	s9,t6,a5
    80002e3c:	0001                	nop
    80002e3e:	c28d                	beqz	a3,80002e60 <main_70_0_t+0x10>
    80002e40:	01e203b3          	add	t2,tp,t5
    80002e44:	4a8d                	li	s5,3
    80002e46:	0091deb3          	srl	t4,gp,s1
    80002e4a:	4989                	li	s3,2
    80002e4c:	0091deb3          	srl	t4,gp,s1

0000000080002e50 <main_70_0_t>:
    80002e50:	03eec933          	div	s2,t4,t5
    80002e54:	1afd                	addi	s5,s5,-1 # afff <_start-0x7fff5001>
    80002e56:	ff3afde3          	bgeu	s5,s3,80002e50 <main_70_0_t>
    80002e5a:	41bb519b          	sraiw	gp,s6,0x1b
    80002e5e:	56fd                	li	a3,-1
    80002e60:	03f76733          	rem	a4,a4,t6
    80002e64:	0cc1881b          	addiw	a6,gp,204
    80002e68:	01ca4133          	xor	sp,s4,t3
    80002e6c:	41660233          	sub	tp,a2,s6
    80002e70:	000807bb          	addw	a5,a6,zero
    80002e74:	82f9                	srli	a3,a3,0x1e
    80002e76:	0094bb33          	sltu	s6,s1,s1
    80002e7a:	00d04363          	bgtz	a3,80002e80 <main_70_0_t+0x30>
    80002e7e:	89d9                	andi	a1,a1,22
    80002e80:	01b95363          	bge	s2,s11,80002e86 <main_70_0_t+0x36>
    80002e84:	0001                	nop
    80002e86:	41bb519b          	sraiw	gp,s6,0x1b
    80002e8a:	03d44f3b          	divw	t5,s0,t4
    80002e8e:	0001                	nop
    80002e90:	8a3a                	mv	s4,a4
    80002e92:	417dd533          	sra	a0,s11,s7
    80002e96:	09730a93          	addi	s5,t1,151
    80002e9a:	003de5b3          	or	a1,s11,gp
    80002e9e:	00ce1c1b          	slliw	s8,t3,0xc
    80002ea2:	84627b37          	lui	s6,0x84627
    80002ea6:	717d                	addi	sp,sp,-16
    80002ea8:	03eec933          	div	s2,t4,t5
    80002eac:	86d9                	srai	a3,a3,0x16
    80002eae:	41205ebb          	sraw	t4,zero,s2
    80002eb2:	82f9                	srli	a3,a3,0x1e
    80002eb4:	56fd                	li	a3,-1
    80002eb6:	8a3a                	mv	s4,a4
    80002eb8:	03498fb3          	mul	t6,s3,s4
    80002ebc:	02a986bb          	mulw	a3,s3,a0
    80002ec0:	0094bb33          	sltu	s6,s1,s1
    80002ec4:	41205ebb          	sraw	t4,zero,s2
    80002ec8:	9a7e                	add	s4,s4,t6
    80002eca:	9d01                	subw	a0,a0,s0
    80002ecc:	04a9                	addi	s1,s1,10
    80002ece:	018a5213          	srli	tp,s4,0x18
    80002ed2:	01a31093          	slli	ra,t1,0x1a
    80002ed6:	41bb519b          	sraiw	gp,s6,0x1b
    80002eda:	8a3a                	mv	s4,a4
    80002edc:	41205ebb          	sraw	t4,zero,s2
    80002ee0:	56fd                	li	a3,-1
    80002ee2:	0285e463          	bltu	a1,s0,80002f0a <main_70_0_t+0xba>
    80002ee6:	9db9                	addw	a1,a1,a4
    80002ee8:	41660233          	sub	tp,a2,s6
    80002eec:	0001                	nop
    80002eee:	003de5b3          	or	a1,s11,gp
    80002ef2:	82f9                	srli	a3,a3,0x1e
    80002ef4:	5be3e993          	ori	s3,t2,1470
    80002ef8:	023830b3          	mulhu	ra,a6,gp
    80002efc:	009bf363          	bgeu	s7,s1,80002f02 <main_70_0_t+0xb2>
    80002f00:	82f9                	srli	a3,a3,0x1e
    80002f02:	003de5b3          	or	a1,s11,gp
    80002f06:	41660233          	sub	tp,a2,s6
    80002f0a:	0001                	nop
    80002f0c:	03f76733          	rem	a4,a4,t6
    80002f10:	89d9                	andi	a1,a1,22
    80002f12:	00d316bb          	sllw	a3,t1,a3
    80002f16:	03eec933          	div	s2,t4,t5
    80002f1a:	c699                	beqz	a3,80002f28 <main_70_0_t+0xd8>
    80002f1c:	41660233          	sub	tp,a2,s6
    80002f20:	89d9                	andi	a1,a1,22
    80002f22:	9db9                	addw	a1,a1,a4
    80002f24:	018a5213          	srli	tp,s4,0x18
    80002f28:	023830b3          	mulhu	ra,a6,gp
    80002f2c:	8f8d                	sub	a5,a5,a1
    80002f2e:	3f7d                	addiw	t5,t5,-1
    80002f30:	3f7d                	addiw	t5,t5,-1
    80002f32:	023830b3          	mulhu	ra,a6,gp
    80002f36:	40dc89bb          	subw	s3,s9,a3
    80002f3a:	40dc89bb          	subw	s3,s9,a3
    80002f3e:	69ad                	lui	s3,0xb
    80002f40:	40dc89bb          	subw	s3,s9,a3
    80002f44:	02deedbb          	remw	s11,t4,a3
    80002f48:	03eec933          	div	s2,t4,t5
    80002f4c:	40dc89bb          	subw	s3,s9,a3
    80002f50:	e3314393          	xori	t2,sp,-461
    80002f54:	9a7e                	add	s4,s4,t6
    80002f56:	8f8d                	sub	a5,a5,a1
    80002f58:	89d9                	andi	a1,a1,22
    80002f5a:	41bb519b          	sraiw	gp,s6,0x1b
    80002f5e:	03498fb3          	mul	t6,s3,s4
    80002f62:	93a6ba13          	sltiu	s4,a3,-1734
    80002f66:	02061833          	mulh	a6,a2,zero
    80002f6a:	01a31093          	slli	ra,t1,0x1a
    80002f6e:	ca81                	beqz	a3,80002f7e <main_70_0_t+0x12e>
    80002f70:	003a9263          	bne	s5,gp,80002f74 <main_70_0_t+0x124>
    80002f74:	717d                	addi	sp,sp,-16
    80002f76:	03272133          	mulhsu	sp,a4,s2
    80002f7a:	93a6ba13          	sltiu	s4,a3,-1734
    80002f7e:	02eb76bb          	remuw	a3,s6,a4
    80002f82:	029bfa63          	bgeu	s7,s1,80002fb6 <main_70_0_t+0x166>
    80002f86:	000725b3          	sltz	a1,a4
    80002f8a:	5be3e993          	ori	s3,t2,1470
    80002f8e:	69ad                	lui	s3,0xb
    80002f90:	0001                	nop
    80002f92:	04a9                	addi	s1,s1,10
    80002f94:	8c21                	xor	s0,s0,s0
    80002f96:	02b2dc33          	divu	s8,t0,a1
    80002f9a:	0aa6                	slli	s5,s5,0x9
    80002f9c:	0001                	nop
    80002f9e:	023830b3          	mulhu	ra,a6,gp
    80002fa2:	9db9                	addw	a1,a1,a4
    80002fa4:	93a6ba13          	sltiu	s4,a3,-1734
    80002fa8:	0001                	nop
    80002faa:	717d                	addi	sp,sp,-16
    80002fac:	3f7d                	addiw	t5,t5,-1
    80002fae:	9d01                	subw	a0,a0,s0
    80002fb0:	86d9                	srai	a3,a3,0x16
    80002fb2:	01ca4133          	xor	sp,s4,t3
    80002fb6:	86d9                	srai	a3,a3,0x16
    80002fb8:	018a5213          	srli	tp,s4,0x18
    80002fbc:	9a7e                	add	s4,s4,t6
    80002fbe:	c299                	beqz	a3,80002fc4 <main_70_0_t+0x174>
    80002fc0:	0a6c4417          	auipc	s0,0xa6c4
    80002fc4:	0085e263          	bltu	a1,s0,80002fc8 <main_70_0_t+0x178>
    80002fc8:	41660233          	sub	tp,a2,s6
    80002fcc:	89d9                	andi	a1,a1,22
    80002fce:	9db9                	addw	a1,a1,a4
    80002fd0:	41205ebb          	sraw	t4,zero,s2
    80002fd4:	03498fb3          	mul	t6,s3,s4
    80002fd8:	0a6c4417          	auipc	s0,0xa6c4
    80002fdc:	417dd533          	sra	a0,s11,s7
    80002fe0:	04a9                	addi	s1,s1,10
    80002fe2:	003de5b3          	or	a1,s11,gp
    80002fe6:	023a9863          	bne	s5,gp,80003016 <main_70_0_t+0x1c6>
    80002fea:	41bb519b          	sraiw	gp,s6,0x1b
    80002fee:	8f8d                	sub	a5,a5,a1
    80002ff0:	01a31093          	slli	ra,t1,0x1a
    80002ff4:	9db9                	addw	a1,a1,a4
    80002ff6:	09730a93          	addi	s5,t1,151
    80002ffa:	0094bb33          	sltu	s6,s1,s1
    80002ffe:	02b2dc33          	divu	s8,t0,a1
    80003002:	717d                	addi	sp,sp,-16
    80003004:	8c21                	xor	s0,s0,s0
    80003006:	00d316bb          	sllw	a3,t1,a3
    8000300a:	717d                	addi	sp,sp,-16
    8000300c:	9db9                	addw	a1,a1,a4
    8000300e:	82f9                	srli	a3,a3,0x1e
    80003010:	0001                	nop
    80003012:	41660233          	sub	tp,a2,s6
    80003016:	0085e563          	bltu	a1,s0,80003020 <main_70_0_t+0x1d0>
    8000301a:	0001                	nop
    8000301c:	02fffcb3          	remu	s9,t6,a5
    80003020:	03498fb3          	mul	t6,s3,s4
    80003024:	40dc89bb          	subw	s3,s9,a3
    80003028:	02d04563          	bgtz	a3,80003052 <main_70_0_t+0x202>
    8000302c:	03eec933          	div	s2,t4,t5
    80003030:	00d04f63          	bgtz	a3,8000304e <main_70_0_t+0x1fe>
    80003034:	4368d313          	srai	t1,a7,0x36
    80003038:	02eb76bb          	remuw	a3,s6,a4
    8000303c:	0094bb33          	sltu	s6,s1,s1
    80003040:	9db9                	addw	a1,a1,a4
    80003042:	0588                	addi	a0,sp,704
    80003044:	93a6ba13          	sltiu	s4,a3,-1734
    80003048:	82f9                	srli	a3,a3,0x1e
    8000304a:	000807bb          	addw	a5,a6,zero
    8000304e:	03272133          	mulhsu	sp,a4,s2
    80003052:	02fffcb3          	remu	s9,t6,a5
    80003056:	018a5213          	srli	tp,s4,0x18
    8000305a:	86d9                	srai	a3,a3,0x16
    8000305c:	02fffcb3          	remu	s9,t6,a5
    80003060:	03f76733          	rem	a4,a4,t6
    80003064:	02b2dc33          	divu	s8,t0,a1
    80003068:	0001                	nop
    8000306a:	03eec933          	div	s2,t4,t5
    8000306e:	41bb519b          	sraiw	gp,s6,0x1b
    80003072:	40dc89bb          	subw	s3,s9,a3
    80003076:	e329                	bnez	a4,800030b8 <main_70_0_t+0x268>
    80003078:	02a986bb          	mulw	a3,s3,a0
    8000307c:	0001                	nop
    8000307e:	01ca4133          	xor	sp,s4,t3
    80003082:	00d316bb          	sllw	a3,t1,a3
    80003086:	86d9                	srai	a3,a3,0x16
    80003088:	84627b37          	lui	s6,0x84627
    8000308c:	9db9                	addw	a1,a1,a4
    8000308e:	03b95763          	bge	s2,s11,800030bc <main_70_0_t+0x26c>
    80003092:	029bf063          	bgeu	s7,s1,800030b2 <main_70_0_t+0x262>
    80003096:	04a9                	addi	s1,s1,10
    80003098:	01b55bbb          	srlw	s7,a0,s11
    8000309c:	000807bb          	addw	a5,a6,zero
    800030a0:	8e49                	or	a2,a2,a0
    800030a2:	000725b3          	sltz	a1,a4
    800030a6:	018a5213          	srli	tp,s4,0x18
    800030aa:	0094bb33          	sltu	s6,s1,s1
    800030ae:	02d04d63          	bgtz	a3,800030e8 <main_70_0_t+0x298>
    800030b2:	8c21                	xor	s0,s0,s0
    800030b4:	03f76733          	rem	a4,a4,t6
    800030b8:	01a31093          	slli	ra,t1,0x1a
    800030bc:	93a6ba13          	sltiu	s4,a3,-1734
    800030c0:	9a7e                	add	s4,s4,t6
    800030c2:	000807bb          	addw	a5,a6,zero
    800030c6:	56fd                	li	a3,-1
    800030c8:	717d                	addi	sp,sp,-16
    800030ca:	02b2dc33          	divu	s8,t0,a1
    800030ce:	717d                	addi	sp,sp,-16
    800030d0:	0001                	nop
    800030d2:	0094bb33          	sltu	s6,s1,s1
    800030d6:	02fffcb3          	remu	s9,t6,a5
    800030da:	8c79                	and	s0,s0,a4
    800030dc:	00ce1c1b          	slliw	s8,t3,0xc
    800030e0:	0166feb3          	and	t4,a3,s6
    800030e4:	02b2dc33          	divu	s8,t0,a1
    800030e8:	8c21                	xor	s0,s0,s0
    800030ea:	41205ebb          	sraw	t4,zero,s2
    800030ee:	8c21                	xor	s0,s0,s0
    800030f0:	0094bb33          	sltu	s6,s1,s1
    800030f4:	01ca4133          	xor	sp,s4,t3
    800030f8:	69ad                	lui	s3,0xb
    800030fa:	03d44f3b          	divw	t5,s0,t4
    800030fe:	9a7e                	add	s4,s4,t6
    80003100:	04a9                	addi	s1,s1,10
    80003102:	01ca4133          	xor	sp,s4,t3
    80003106:	00d04f63          	bgtz	a3,80003124 <main_70_0_t+0x2d4>
    8000310a:	09730a93          	addi	s5,t1,151
    8000310e:	c291                	beqz	a3,80003112 <main_70_0_t+0x2c2>
    80003110:	04a9                	addi	s1,s1,10
    80003112:	0a6c4417          	auipc	s0,0xa6c4
    80003116:	82f9                	srli	a3,a3,0x1e
    80003118:	41205ebb          	sraw	t4,zero,s2
    8000311c:	02a986bb          	mulw	a3,s3,a0
    80003120:	edf82113          	slti	sp,a6,-289
    80003124:	04d04563          	bgtz	a3,8000316e <main_70_0_t+0x31e>
    80003128:	8f8d                	sub	a5,a5,a1
    8000312a:	0085ec63          	bltu	a1,s0,80003142 <main_70_0_t+0x2f2>
    8000312e:	01a31093          	slli	ra,t1,0x1a
    80003132:	4368d313          	srai	t1,a7,0x36
    80003136:	0094bb33          	sltu	s6,s1,s1
    8000313a:	41205ebb          	sraw	t4,zero,s2
    8000313e:	28d0f213          	andi	tp,ra,653
    80003142:	8c79                	and	s0,s0,a4
    80003144:	0a6c4417          	auipc	s0,0xa6c4
    80003148:	023a9f63          	bne	s5,gp,80003186 <main_70_0_t+0x336>
    8000314c:	03f76733          	rem	a4,a4,t6
    80003150:	01e203b3          	add	t2,tp,t5
    80003154:	02b2dc33          	divu	s8,t0,a1
    80003158:	41205ebb          	sraw	t4,zero,s2
    8000315c:	28d0f213          	andi	tp,ra,653
    80003160:	02a986bb          	mulw	a3,s3,a0
    80003164:	018a5213          	srli	tp,s4,0x18
    80003168:	01a31093          	slli	ra,t1,0x1a
    8000316c:	8c79                	and	s0,s0,a4
    8000316e:	4368d313          	srai	t1,a7,0x36
    80003172:	09730a93          	addi	s5,t1,151
    80003176:	00d316bb          	sllw	a3,t1,a3
    8000317a:	02eb76bb          	remuw	a3,s6,a4
    8000317e:	01ca4133          	xor	sp,s4,t3
    80003182:	0cc1881b          	addiw	a6,gp,204
    80003186:	02deedbb          	remw	s11,t4,a3
    8000318a:	9db9                	addw	a1,a1,a4
    8000318c:	0cc1881b          	addiw	a6,gp,204
    80003190:	8f8d                	sub	a5,a5,a1
    80003192:	03f76733          	rem	a4,a4,t6
    80003196:	02fffcb3          	remu	s9,t6,a5
    8000319a:	0094bb33          	sltu	s6,s1,s1
    8000319e:	03f76733          	rem	a4,a4,t6
    800031a2:	0cc1881b          	addiw	a6,gp,204
    800031a6:	00ce1c1b          	slliw	s8,t3,0xc
    800031aa:	01b60963          	beq	a2,s11,800031bc <main_70_0_t+0x36c>
    800031ae:	eb0d                	bnez	a4,800031e0 <main_70_0_t+0x390>
    800031b0:	4368d313          	srai	t1,a7,0x36
    800031b4:	01b55bbb          	srlw	s7,a0,s11
    800031b8:	01a31093          	slli	ra,t1,0x1a
    800031bc:	000725b3          	sltz	a1,a4
    800031c0:	01ca4133          	xor	sp,s4,t3
    800031c4:	8c21                	xor	s0,s0,s0
    800031c6:	8a3a                	mv	s4,a4
    800031c8:	82f9                	srli	a3,a3,0x1e
    800031ca:	03eec933          	div	s2,t4,t5
    800031ce:	9a7e                	add	s4,s4,t6
    800031d0:	5be3e993          	ori	s3,t2,1470
    800031d4:	0091ddb3          	srl	s11,gp,s1
    800031d8:	0a6c4417          	auipc	s0,0xa6c4
    800031dc:	000b561b          	srliw	a2,s6,0x0
    800031e0:	28d0f213          	andi	tp,ra,653
    800031e4:	8a3a                	mv	s4,a4
    800031e6:	8e49                	or	a2,a2,a0
    800031e8:	4368d313          	srai	t1,a7,0x36
    800031ec:	01ca4133          	xor	sp,s4,t3
    800031f0:	00d04363          	bgtz	a3,800031f6 <main_70_0_t+0x3a6>
    800031f4:	ef11                	bnez	a4,80003210 <main_70_0_t+0x3c0>
    800031f6:	3f7d                	addiw	t5,t5,-1
    800031f8:	e311                	bnez	a4,800031fc <main_70_0_t+0x3ac>
    800031fa:	9a7e                	add	s4,s4,t6
    800031fc:	8a3a                	mv	s4,a4
    800031fe:	9db9                	addw	a1,a1,a4
    80003200:	edf82113          	slti	sp,a6,-289
    80003204:	00ce1c1b          	slliw	s8,t3,0xc
    80003208:	0cc1881b          	addiw	a6,gp,204
    8000320c:	0094bb33          	sltu	s6,s1,s1
    80003210:	8a3a                	mv	s4,a4
    80003212:	01b95263          	bge	s2,s11,80003216 <main_70_0_t+0x3c6>
    80003216:	00ce1c1b          	slliw	s8,t3,0xc
    8000321a:	02deedbb          	remw	s11,t4,a3
    8000321e:	8c79                	and	s0,s0,a4
    80003220:	89d9                	andi	a1,a1,22
    80003222:	3f7d                	addiw	t5,t5,-1
    80003224:	03272133          	mulhsu	sp,a4,s2
    80003228:	03498fb3          	mul	t6,s3,s4
    8000322c:	41bb519b          	sraiw	gp,s6,0x1b
    80003230:	9db9                	addw	a1,a1,a4
    80003232:	8c79                	and	s0,s0,a4
    80003234:	4368d313          	srai	t1,a7,0x36
    80003238:	82f9                	srli	a3,a3,0x1e
    8000323a:	3f7d                	addiw	t5,t5,-1
    8000323c:	0001                	nop
    8000323e:	03f76733          	rem	a4,a4,t6
    80003242:	02415b3b          	divuw	s6,sp,tp
    80003246:	0a6c4417          	auipc	s0,0xa6c4
    8000324a:	03d44f3b          	divw	t5,s0,t4
    8000324e:	4368d313          	srai	t1,a7,0x36
    80003252:	8a3a                	mv	s4,a4
    80003254:	03498fb3          	mul	t6,s3,s4
    80003258:	03eec933          	div	s2,t4,t5
    8000325c:	28d0f213          	andi	tp,ra,653
    80003260:	0001                	nop
    80003262:	03eec933          	div	s2,t4,t5
    80003266:	03eec933          	div	s2,t4,t5
    8000326a:	002495b3          	sll	a1,s1,sp
    8000326e:	03b95763          	bge	s2,s11,8000329c <main_70_0_t+0x44c>
    80003272:	02fffcb3          	remu	s9,t6,a5
    80003276:	0166feb3          	and	t4,a3,s6
    8000327a:	41205ebb          	sraw	t4,zero,s2
    8000327e:	40dc89bb          	subw	s3,s9,a3
    80003282:	023a9a63          	bne	s5,gp,800032b6 <main_70_0_t+0x466>
    80003286:	0aa6                	slli	s5,s5,0x9
    80003288:	002495b3          	sll	a1,s1,sp
    8000328c:	01b55bbb          	srlw	s7,a0,s11
    80003290:	03498fb3          	mul	t6,s3,s4
    80003294:	82f9                	srli	a3,a3,0x1e
    80003296:	02deedbb          	remw	s11,t4,a3
    8000329a:	86d9                	srai	a3,a3,0x16
    8000329c:	8f8d                	sub	a5,a5,a1
    8000329e:	93a6ba13          	sltiu	s4,a3,-1734
    800032a2:	0aa6                	slli	s5,s5,0x9
    800032a4:	02d04563          	bgtz	a3,800032ce <main_70_0_t+0x47e>
    800032a8:	01e203b3          	add	t2,tp,t5
    800032ac:	8c21                	xor	s0,s0,s0
    800032ae:	000b561b          	srliw	a2,s6,0x0
    800032b2:	02fffcb3          	remu	s9,t6,a5
    800032b6:	9d01                	subw	a0,a0,s0
    800032b8:	02deedbb          	remw	s11,t4,a3
    800032bc:	41660233          	sub	tp,a2,s6
    800032c0:	01b55bbb          	srlw	s7,a0,s11
    800032c4:	04a9                	addi	s1,s1,10
    800032c6:	01a31093          	slli	ra,t1,0x1a
    800032ca:	41660233          	sub	tp,a2,s6
    800032ce:	02fffcb3          	remu	s9,t6,a5
    800032d2:	0001                	nop
    800032d4:	02061833          	mulh	a6,a2,zero
    800032d8:	0588                	addi	a0,sp,704
    800032da:	01a31093          	slli	ra,t1,0x1a
    800032de:	0166feb3          	and	t4,a3,s6
    800032e2:	9a7e                	add	s4,s4,t6
    800032e4:	0094bb33          	sltu	s6,s1,s1
    800032e8:	00d04663          	bgtz	a3,800032f4 <main_70_0_t+0x4a4>
    800032ec:	84627b37          	lui	s6,0x84627
    800032f0:	4368d313          	srai	t1,a7,0x36
    800032f4:	002495b3          	sll	a1,s1,sp
    800032f8:	41bb519b          	sraiw	gp,s6,0x1b
    800032fc:	86d9                	srai	a3,a3,0x16
    800032fe:	05b60163          	beq	a2,s11,80003340 <main_70_0_t+0x4f0>
    80003302:	000b561b          	srliw	a2,s6,0x0
    80003306:	8f8d                	sub	a5,a5,a1
    80003308:	03b95f63          	bge	s2,s11,80003346 <main_70_0_t+0x4f6>
    8000330c:	002495b3          	sll	a1,s1,sp
    80003310:	edf82113          	slti	sp,a6,-289
    80003314:	9d01                	subw	a0,a0,s0
    80003316:	8a3a                	mv	s4,a4
    80003318:	02deedbb          	remw	s11,t4,a3
    8000331c:	417dd533          	sra	a0,s11,s7
    80003320:	4368d313          	srai	t1,a7,0x36
    80003324:	0166feb3          	and	t4,a3,s6
    80003328:	56fd                	li	a3,-1
    8000332a:	ce89                	beqz	a3,80003344 <main_70_0_t+0x4f4>
    8000332c:	edf82113          	slti	sp,a6,-289
    80003330:	09730a93          	addi	s5,t1,151
    80003334:	01ca4133          	xor	sp,s4,t3
    80003338:	029bf563          	bgeu	s7,s1,80003362 <main_70_0_t+0x512>
    8000333c:	0166feb3          	and	t4,a3,s6
    80003340:	717d                	addi	sp,sp,-16
    80003342:	8a3a                	mv	s4,a4
    80003344:	c6a1                	beqz	a3,8000338c <main_70_0_t+0x53c>
    80003346:	01a31093          	slli	ra,t1,0x1a
    8000334a:	03d44f3b          	divw	t5,s0,t4
    8000334e:	03d44f3b          	divw	t5,s0,t4
    80003352:	84627b37          	lui	s6,0x84627
    80003356:	03272133          	mulhsu	sp,a4,s2
    8000335a:	e3314393          	xori	t2,sp,-461
    8000335e:	00d04863          	bgtz	a3,8000336e <main_70_0_t+0x51e>
    80003362:	89d9                	andi	a1,a1,22
    80003364:	0588                	addi	a0,sp,704
    80003366:	02061833          	mulh	a6,a2,zero
    8000336a:	09730a93          	addi	s5,t1,151
    8000336e:	02a986bb          	mulw	a3,s3,a0
    80003372:	0a6c4417          	auipc	s0,0xa6c4
    80003376:	8c21                	xor	s0,s0,s0
    80003378:	018a5213          	srli	tp,s4,0x18
    8000337c:	02b2dc33          	divu	s8,t0,a1
    80003380:	02eb76bb          	remuw	a3,s6,a4
    80003384:	41660233          	sub	tp,a2,s6
    80003388:	5be3e993          	ori	s3,t2,1470
    8000338c:	03f76733          	rem	a4,a4,t6
    80003390:	41205ebb          	sraw	t4,zero,s2
    80003394:	8e49                	or	a2,a2,a0
    80003396:	9d01                	subw	a0,a0,s0
    80003398:	9db9                	addw	a1,a1,a4
    8000339a:	89d9                	andi	a1,a1,22
    8000339c:	00d04463          	bgtz	a3,800033a4 <main_70_0_t+0x554>
    800033a0:	0094bb33          	sltu	s6,s1,s1
    800033a4:	0094bb33          	sltu	s6,s1,s1
    800033a8:	8f8d                	sub	a5,a5,a1
    800033aa:	84627b37          	lui	s6,0x84627
    800033ae:	93a6ba13          	sltiu	s4,a3,-1734
    800033b2:	09730a93          	addi	s5,t1,151
    800033b6:	4368d313          	srai	t1,a7,0x36
    800033ba:	01e203b3          	add	t2,tp,t5
    800033be:	009bfa63          	bgeu	s7,s1,800033d2 <main_70_0_t+0x582>
    800033c2:	01b55bbb          	srlw	s7,a0,s11
    800033c6:	09730a93          	addi	s5,t1,151
    800033ca:	023a9a63          	bne	s5,gp,800033fe <main_70_0_t+0x5ae>
    800033ce:	0094bb33          	sltu	s6,s1,s1
    800033d2:	4368d313          	srai	t1,a7,0x36
    800033d6:	03498fb3          	mul	t6,s3,s4
    800033da:	41660233          	sub	tp,a2,s6
    800033de:	0166feb3          	and	t4,a3,s6
    800033e2:	0aa6                	slli	s5,s5,0x9
    800033e4:	003de5b3          	or	a1,s11,gp
    800033e8:	02415b3b          	divuw	s6,sp,tp
    800033ec:	8c79                	and	s0,s0,a4
    800033ee:	09730a93          	addi	s5,t1,151
    800033f2:	0166feb3          	and	t4,a3,s6
    800033f6:	9db9                	addw	a1,a1,a4
    800033f8:	8a3a                	mv	s4,a4
    800033fa:	000725b3          	sltz	a1,a4
    800033fe:	0001                	nop
    80003400:	04a9                	addi	s1,s1,10
    80003402:	8f8d                	sub	a5,a5,a1
    80003404:	09730a93          	addi	s5,t1,151
    80003408:	018a5213          	srli	tp,s4,0x18
    8000340c:	69ad                	lui	s3,0xb
    8000340e:	01b55bbb          	srlw	s7,a0,s11
    80003412:	4368d313          	srai	t1,a7,0x36
    80003416:	69ad                	lui	s3,0xb
    80003418:	89d9                	andi	a1,a1,22
    8000341a:	56fd                	li	a3,-1
    8000341c:	41205ebb          	sraw	t4,zero,s2
    80003420:	4368d313          	srai	t1,a7,0x36
    80003424:	8e49                	or	a2,a2,a0
    80003426:	89d9                	andi	a1,a1,22
    80003428:	5be3e993          	ori	s3,t2,1470
    8000342c:	93a6ba13          	sltiu	s4,a3,-1734
    80003430:	8e49                	or	a2,a2,a0
    80003432:	000807bb          	addw	a5,a6,zero
    80003436:	4368d313          	srai	t1,a7,0x36
    8000343a:	018a5213          	srli	tp,s4,0x18
    8000343e:	3f7d                	addiw	t5,t5,-1
    80003440:	000807bb          	addw	a5,a6,zero
    80003444:	edf82113          	slti	sp,a6,-289
    80003448:	717d                	addi	sp,sp,-16
    8000344a:	03272133          	mulhsu	sp,a4,s2
    8000344e:	40dc89bb          	subw	s3,s9,a3
    80003452:	40dc89bb          	subw	s3,s9,a3
    80003456:	01e203b3          	add	t2,tp,t5
    8000345a:	8a3a                	mv	s4,a4
    8000345c:	0166feb3          	and	t4,a3,s6
    80003460:	0588                	addi	a0,sp,704
    80003462:	0166feb3          	and	t4,a3,s6
    80003466:	41660233          	sub	tp,a2,s6
    8000346a:	69ad                	lui	s3,0xb

000000008000346c <main_13>:
    8000346c:	02400eef          	jal	t4,80003490 <main_13+0x24>
    80003470:	a029                	j	8000347a <main_13+0xe>
    80003472:	004000ef          	jal	80003476 <main_13+0xa>
    80003476:	024000ef          	jal	8000349a <main_13+0x2e>
    8000347a:	ff9ff0ef          	jal	80003472 <main_13+0x6>
    8000347e:	028000ef          	jal	800034a6 <main_13+0x3a>
    80003482:	02e000ef          	jal	800034b0 <main_13+0x44>
    80003486:	b7ed                	j	80003470 <main_13+0x4>
    80003488:	004000ef          	jal	8000348c <main_13+0x20>
    8000348c:	a029                	j	80003496 <main_13+0x2a>
    8000348e:	bfd5                	j	80003482 <main_13+0x16>
    80003490:	a031                	j	8000349c <main_13+0x30>
    80003492:	012000ef          	jal	800034a4 <main_13+0x38>
    80003496:	ff9ff0ef          	jal	8000348e <main_13+0x22>
    8000349a:	a801                	j	800034aa <main_13+0x3e>
    8000349c:	004000ef          	jal	800034a0 <main_13+0x34>
    800034a0:	fdfff0ef          	jal	8000347e <main_13+0x12>
    800034a4:	a021                	j	800034ac <main_13+0x40>
    800034a6:	a009                	j	800034a8 <main_13+0x3c>
    800034a8:	bff9                	j	80003486 <main_13+0x1a>
    800034aa:	b7e5                	j	80003492 <main_13+0x26>
    800034ac:	fddff0ef          	jal	80003488 <main_13+0x1c>
    800034b0:	0001                	nop
    800034b2:	03eec933          	div	s2,t4,t5
    800034b6:	41205ebb          	sraw	t4,zero,s2
    800034ba:	89d9                	andi	a1,a1,22
    800034bc:	03d44f3b          	divw	t5,s0,t4
    800034c0:	0094bb33          	sltu	s6,s1,s1
    800034c4:	02eb76bb          	remuw	a3,s6,a4
    800034c8:	3f7d                	addiw	t5,t5,-1
    800034ca:	09730a93          	addi	s5,t1,151
    800034ce:	02415b3b          	divuw	s6,sp,tp
    800034d2:	9db9                	addw	a1,a1,a4
    800034d4:	0001                	nop
    800034d6:	0091ddb3          	srl	s11,gp,s1
    800034da:	02061833          	mulh	a6,a2,zero
    800034de:	003de5b3          	or	a1,s11,gp
    800034e2:	02fffcb3          	remu	s9,t6,a5
    800034e6:	03498fb3          	mul	t6,s3,s4
    800034ea:	eb0d                	bnez	a4,8000351c <main_13+0xb0>
    800034ec:	09730a93          	addi	s5,t1,151
    800034f0:	02fffcb3          	remu	s9,t6,a5
    800034f4:	8c79                	and	s0,s0,a4
    800034f6:	82f9                	srli	a3,a3,0x1e
    800034f8:	edf82113          	slti	sp,a6,-289
    800034fc:	8e49                	or	a2,a2,a0
    800034fe:	02415b3b          	divuw	s6,sp,tp
    80003502:	ca9d                	beqz	a3,80003538 <main_13+0xcc>
    80003504:	8f8d                	sub	a5,a5,a1
    80003506:	8c79                	and	s0,s0,a4
    80003508:	00d04263          	bgtz	a3,8000350c <main_13+0xa0>
    8000350c:	000725b3          	sltz	a1,a4
    80003510:	4368d313          	srai	t1,a7,0x36
    80003514:	02b2dc33          	divu	s8,t0,a1
    80003518:	edf82113          	slti	sp,a6,-289
    8000351c:	01b60663          	beq	a2,s11,80003528 <main_13+0xbc>
    80003520:	03b95b63          	bge	s2,s11,80003556 <main_13+0xea>
    80003524:	02deedbb          	remw	s11,t4,a3
    80003528:	86d9                	srai	a3,a3,0x16
    8000352a:	0a6c4417          	auipc	s0,0xa6c4
    8000352e:	02fffcb3          	remu	s9,t6,a5
    80003532:	02b2dc33          	divu	s8,t0,a1
    80003536:	8c79                	and	s0,s0,a4
    80003538:	41660233          	sub	tp,a2,s6
    8000353c:	02a986bb          	mulw	a3,s3,a0
    80003540:	03eec933          	div	s2,t4,t5
    80003544:	8c79                	and	s0,s0,a4
    80003546:	3f7d                	addiw	t5,t5,-1
    80003548:	01a31093          	slli	ra,t1,0x1a
    8000354c:	00ce1c1b          	slliw	s8,t3,0xc
    80003550:	003de5b3          	or	a1,s11,gp
    80003554:	9db9                	addw	a1,a1,a4
    80003556:	56fd                	li	a3,-1
    80003558:	0001                	nop
    8000355a:	023830b3          	mulhu	ra,a6,gp
    8000355e:	9db9                	addw	a1,a1,a4
    80003560:	049bf363          	bgeu	s7,s1,800035a6 <main_13+0x13a>
    80003564:	0166feb3          	and	t4,a3,s6
    80003568:	417dd533          	sra	a0,s11,s7
    8000356c:	018a5213          	srli	tp,s4,0x18
    80003570:	0091ddb3          	srl	s11,gp,s1
    80003574:	41660233          	sub	tp,a2,s6
    80003578:	000807bb          	addw	a5,a6,zero
    8000357c:	01ca4133          	xor	sp,s4,t3
    80003580:	03d44f3b          	divw	t5,s0,t4
    80003584:	002495b3          	sll	a1,s1,sp
    80003588:	00ce1c1b          	slliw	s8,t3,0xc
    8000358c:	8c79                	and	s0,s0,a4
    8000358e:	02d04063          	bgtz	a3,800035ae <main_13+0x142>
    80003592:	edf82113          	slti	sp,a6,-289
    80003596:	03eec933          	div	s2,t4,t5
    8000359a:	41bb519b          	sraiw	gp,s6,0x1b
    8000359e:	8f8d                	sub	a5,a5,a1
    800035a0:	03b95163          	bge	s2,s11,800035c2 <main_13+0x156>
    800035a4:	c689                	beqz	a3,800035ae <main_13+0x142>
    800035a6:	01b55bbb          	srlw	s7,a0,s11
    800035aa:	40dc89bb          	subw	s3,s9,a3
    800035ae:	00d04663          	bgtz	a3,800035ba <main_13+0x14e>
    800035b2:	01ca4133          	xor	sp,s4,t3
    800035b6:	40dc89bb          	subw	s3,s9,a3
    800035ba:	00ce1c1b          	slliw	s8,t3,0xc
    800035be:	0166feb3          	and	t4,a3,s6
    800035c2:	9d01                	subw	a0,a0,s0
    800035c4:	8e49                	or	a2,a2,a0
    800035c6:	86d9                	srai	a3,a3,0x16
    800035c8:	417dd533          	sra	a0,s11,s7
    800035cc:	28d0f213          	andi	tp,ra,653
    800035d0:	02eb76bb          	remuw	a3,s6,a4
    800035d4:	4368d313          	srai	t1,a7,0x36
    800035d8:	03498fb3          	mul	t6,s3,s4
    800035dc:	02a986bb          	mulw	a3,s3,a0
    800035e0:	02a986bb          	mulw	a3,s3,a0
    800035e4:	8e49                	or	a2,a2,a0
    800035e6:	003de5b3          	or	a1,s11,gp
    800035ea:	41205ebb          	sraw	t4,zero,s2
    800035ee:	86d9                	srai	a3,a3,0x16
    800035f0:	02b2dc33          	divu	s8,t0,a1
    800035f4:	c6a1                	beqz	a3,8000363c <main_13+0x1d0>
    800035f6:	02b2dc33          	divu	s8,t0,a1
    800035fa:	edf82113          	slti	sp,a6,-289
    800035fe:	8f8d                	sub	a5,a5,a1
    80003600:	e3314393          	xori	t2,sp,-461
    80003604:	000807bb          	addw	a5,a6,zero
    80003608:	5be3e993          	ori	s3,t2,1470
    8000360c:	9a7e                	add	s4,s4,t6
    8000360e:	003a9263          	bne	s5,gp,80003612 <main_13+0x1a6>
    80003612:	03498fb3          	mul	t6,s3,s4
    80003616:	e3314393          	xori	t2,sp,-461
    8000361a:	00ce1c1b          	slliw	s8,t3,0xc
    8000361e:	02fffcb3          	remu	s9,t6,a5
    80003622:	0a6c4417          	auipc	s0,0xa6c4
    80003626:	02b2dc33          	divu	s8,t0,a1
    8000362a:	69ad                	lui	s3,0xb
    8000362c:	e3314393          	xori	t2,sp,-461
    80003630:	02061833          	mulh	a6,a2,zero
    80003634:	02061833          	mulh	a6,a2,zero
    80003638:	000807bb          	addw	a5,a6,zero
    8000363c:	e3314393          	xori	t2,sp,-461
    80003640:	023830b3          	mulhu	ra,a6,gp
    80003644:	8c79                	and	s0,s0,a4
    80003646:	0885ef63          	bltu	a1,s0,800036e4 <main_18+0x7a>
    8000364a:	82f9                	srli	a3,a3,0x1e
    8000364c:	c299                	beqz	a3,80003652 <main_13+0x1e6>
    8000364e:	00d316bb          	sllw	a3,t1,a3
    80003652:	03d44f3b          	divw	t5,s0,t4
    80003656:	417dd533          	sra	a0,s11,s7
    8000365a:	8f8d                	sub	a5,a5,a1
    8000365c:	5be3e993          	ori	s3,t2,1470
    80003660:	0cc1881b          	addiw	a6,gp,204
    80003664:	000b561b          	srliw	a2,s6,0x0
    80003668:	04a9                	addi	s1,s1,10

000000008000366a <main_18>:
    8000366a:	04200eef          	jal	t4,800036ac <main_18+0x42>
    8000366e:	046000ef          	jal	800036b4 <main_18+0x4a>
    80003672:	a009                	j	80003674 <main_18+0xa>
    80003674:	bfed                	j	8000366e <main_18+0x4>
    80003676:	a0b9                	j	800036c4 <main_18+0x5a>
    80003678:	028000ef          	jal	800036a0 <main_18+0x36>
    8000367c:	ffbff0ef          	jal	80003676 <main_18+0xc>
    80003680:	01a000ef          	jal	8000369a <main_18+0x30>
    80003684:	a801                	j	80003694 <main_18+0x2a>
    80003686:	a081                	j	800036c6 <main_18+0x5c>
    80003688:	fffff0ef          	jal	80003686 <main_18+0x1c>
    8000368c:	fe7ff0ef          	jal	80003672 <main_18+0x8>
    80003690:	ffdff0ef          	jal	8000368c <main_18+0x22>
    80003694:	a831                	j	800036b0 <main_18+0x46>
    80003696:	a035                	j	800036c2 <main_18+0x58>
    80003698:	a819                	j	800036ae <main_18+0x44>
    8000369a:	a01d                	j	800036c0 <main_18+0x56>
    8000369c:	fe1ff0ef          	jal	8000367c <main_18+0x12>
    800036a0:	018000ef          	jal	800036b8 <main_18+0x4e>
    800036a4:	016000ef          	jal	800036ba <main_18+0x50>
    800036a8:	fe9ff0ef          	jal	80003690 <main_18+0x26>
    800036ac:	b7ed                	j	80003696 <main_18+0x2c>
    800036ae:	bfe9                	j	80003688 <main_18+0x1e>
    800036b0:	ff5ff0ef          	jal	800036a4 <main_18+0x3a>
    800036b4:	fcdff0ef          	jal	80003680 <main_18+0x16>
    800036b8:	b7d5                	j	8000369c <main_18+0x32>
    800036ba:	bff9                	j	80003698 <main_18+0x2e>
    800036bc:	fedff0ef          	jal	800036a8 <main_18+0x3e>
    800036c0:	bf65                	j	80003678 <main_18+0xe>
    800036c2:	bfed                	j	800036bc <main_18+0x52>
    800036c4:	b7c1                	j	80003684 <main_18+0x1a>
    800036c6:	000807bb          	addw	a5,a6,zero
    800036ca:	0a6c4417          	auipc	s0,0xa6c4
    800036ce:	03f76733          	rem	a4,a4,t6
    800036d2:	0588                	addi	a0,sp,704
    800036d4:	03498fb3          	mul	t6,s3,s4
    800036d8:	86d9                	srai	a3,a3,0x16
    800036da:	8c79                	and	s0,s0,a4
    800036dc:	0166feb3          	and	t4,a3,s6
    800036e0:	0a6c4417          	auipc	s0,0xa6c4
    800036e4:	03b95c63          	bge	s2,s11,8000371c <main_18+0xb2>
    800036e8:	02a986bb          	mulw	a3,s3,a0
    800036ec:	02fffcb3          	remu	s9,t6,a5
    800036f0:	89d9                	andi	a1,a1,22
    800036f2:	018a5213          	srli	tp,s4,0x18
    800036f6:	0001                	nop
    800036f8:	003a9463          	bne	s5,gp,80003700 <main_18+0x96>
    800036fc:	41bb519b          	sraiw	gp,s6,0x1b
    80003700:	0588                	addi	a0,sp,704
    80003702:	03f76733          	rem	a4,a4,t6
    80003706:	8c21                	xor	s0,s0,s0
    80003708:	002495b3          	sll	a1,s1,sp
    8000370c:	40dc89bb          	subw	s3,s9,a3
    80003710:	01a31093          	slli	ra,t1,0x1a
    80003714:	018a5213          	srli	tp,s4,0x18
    80003718:	02fffcb3          	remu	s9,t6,a5
    8000371c:	00d316bb          	sllw	a3,t1,a3
    80003720:	03272133          	mulhsu	sp,a4,s2
    80003724:	8e49                	or	a2,a2,a0
    80003726:	003a9a63          	bne	s5,gp,8000373a <main_18+0xd0>
    8000372a:	03498fb3          	mul	t6,s3,s4
    8000372e:	0094bb33          	sltu	s6,s1,s1
    80003732:	03b60463          	beq	a2,s11,8000375a <main_18+0xf0>
    80003736:	417dd533          	sra	a0,s11,s7
    8000373a:	000807bb          	addw	a5,a6,zero
    8000373e:	002495b3          	sll	a1,s1,sp
    80003742:	0aa6                	slli	s5,s5,0x9
    80003744:	03272133          	mulhsu	sp,a4,s2
    80003748:	86d9                	srai	a3,a3,0x16
    8000374a:	86d9                	srai	a3,a3,0x16
    8000374c:	03eec933          	div	s2,t4,t5
    80003750:	0001                	nop
    80003752:	02fffcb3          	remu	s9,t6,a5
    80003756:	40dc89bb          	subw	s3,s9,a3
    8000375a:	0a6c4417          	auipc	s0,0xa6c4
    8000375e:	8f8d                	sub	a5,a5,a1
    80003760:	0085e963          	bltu	a1,s0,80003772 <main_18+0x108>
    80003764:	8a3a                	mv	s4,a4
    80003766:	28d0f213          	andi	tp,ra,653
    8000376a:	28d0f213          	andi	tp,ra,653
    8000376e:	417dd533          	sra	a0,s11,s7
    80003772:	02fffcb3          	remu	s9,t6,a5
    80003776:	00d316bb          	sllw	a3,t1,a3
    8000377a:	edf82113          	slti	sp,a6,-289
    8000377e:	02fffcb3          	remu	s9,t6,a5
    80003782:	8c79                	and	s0,s0,a4
    80003784:	717d                	addi	sp,sp,-16
    80003786:	8e49                	or	a2,a2,a0
    80003788:	41bb519b          	sraiw	gp,s6,0x1b
    8000378c:	0cc1881b          	addiw	a6,gp,204
    80003790:	0094bb33          	sltu	s6,s1,s1
    80003794:	edf82113          	slti	sp,a6,-289
    80003798:	002495b3          	sll	a1,s1,sp
    8000379c:	8a3a                	mv	s4,a4
    8000379e:	03498fb3          	mul	t6,s3,s4
    800037a2:	000725b3          	sltz	a1,a4
    800037a6:	03d44f3b          	divw	t5,s0,t4
    800037aa:	edf82113          	slti	sp,a6,-289
    800037ae:	04a9                	addi	s1,s1,10
    800037b0:	0001                	nop
    800037b2:	02deedbb          	remw	s11,t4,a3
    800037b6:	03498fb3          	mul	t6,s3,s4
    800037ba:	717d                	addi	sp,sp,-16
    800037bc:	0cc1881b          	addiw	a6,gp,204
    800037c0:	000725b3          	sltz	a1,a4
    800037c4:	03498fb3          	mul	t6,s3,s4
    800037c8:	023830b3          	mulhu	ra,a6,gp
    800037cc:	0085ec63          	bltu	a1,s0,800037e4 <main_18+0x17a>
    800037d0:	ce99                	beqz	a3,800037ee <main_18+0x184>
    800037d2:	03498fb3          	mul	t6,s3,s4
    800037d6:	eb1d                	bnez	a4,8000380c <main_18+0x1a2>
    800037d8:	4368d313          	srai	t1,a7,0x36
    800037dc:	84627b37          	lui	s6,0x84627
    800037e0:	3f7d                	addiw	t5,t5,-1
    800037e2:	717d                	addi	sp,sp,-16
    800037e4:	8c79                	and	s0,s0,a4
    800037e6:	00d04463          	bgtz	a3,800037ee <main_18+0x184>
    800037ea:	05b60463          	beq	a2,s11,80003832 <main_18+0x1c8>
    800037ee:	01a31093          	slli	ra,t1,0x1a
    800037f2:	edf82113          	slti	sp,a6,-289
    800037f6:	8e49                	or	a2,a2,a0
    800037f8:	02deedbb          	remw	s11,t4,a3
    800037fc:	0a6c4417          	auipc	s0,0xa6c4
    80003800:	018a5213          	srli	tp,s4,0x18
    80003804:	000b561b          	srliw	a2,s6,0x0
    80003808:	00ce1c1b          	slliw	s8,t3,0xc
    8000380c:	018a5213          	srli	tp,s4,0x18
    80003810:	41205ebb          	sraw	t4,zero,s2
    80003814:	000b561b          	srliw	a2,s6,0x0
    80003818:	01b55bbb          	srlw	s7,a0,s11
    8000381c:	eb0d                	bnez	a4,8000384e <main_18+0x1e4>
    8000381e:	0091ddb3          	srl	s11,gp,s1
    80003822:	000807bb          	addw	a5,a6,zero
    80003826:	417dd533          	sra	a0,s11,s7
    8000382a:	e3314393          	xori	t2,sp,-461
    8000382e:	89d9                	andi	a1,a1,22
    80003830:	89d9                	andi	a1,a1,22
    80003832:	000b561b          	srliw	a2,s6,0x0
    80003836:	000725b3          	sltz	a1,a4
    8000383a:	03b60763          	beq	a2,s11,80003868 <main_18+0x1fe>
    8000383e:	9a7e                	add	s4,s4,t6
    80003840:	417dd533          	sra	a0,s11,s7
    80003844:	8a3a                	mv	s4,a4
    80003846:	0cc1881b          	addiw	a6,gp,204
    8000384a:	03d44f3b          	divw	t5,s0,t4
    8000384e:	9a7e                	add	s4,s4,t6
    80003850:	9a7e                	add	s4,s4,t6
    80003852:	023a9463          	bne	s5,gp,8000387a <main_18+0x210>
    80003856:	8e49                	or	a2,a2,a0
    80003858:	8c21                	xor	s0,s0,s0
    8000385a:	023a9e63          	bne	s5,gp,80003896 <main_18+0x22c>
    8000385e:	03272133          	mulhsu	sp,a4,s2
    80003862:	01e203b3          	add	t2,tp,t5
    80003866:	9db9                	addw	a1,a1,a4
    80003868:	003a9963          	bne	s5,gp,8000387a <main_18+0x210>
    8000386c:	04a9                	addi	s1,s1,10
    8000386e:	0091ddb3          	srl	s11,gp,s1
    80003872:	41bb519b          	sraiw	gp,s6,0x1b
    80003876:	69ad                	lui	s3,0xb
    80003878:	0588                	addi	a0,sp,704
    8000387a:	01b95963          	bge	s2,s11,8000388c <main_18+0x222>
    8000387e:	0cc1881b          	addiw	a6,gp,204
    80003882:	03b60a63          	beq	a2,s11,800038b6 <main_18+0x24c>
    80003886:	0094bb33          	sltu	s6,s1,s1
    8000388a:	717d                	addi	sp,sp,-16
    8000388c:	41660233          	sub	tp,a2,s6
    80003890:	4368d313          	srai	t1,a7,0x36
    80003894:	04a9                	addi	s1,s1,10
    80003896:	8e49                	or	a2,a2,a0
    80003898:	40dc89bb          	subw	s3,s9,a3
    8000389c:	edf82113          	slti	sp,a6,-289
    800038a0:	0588                	addi	a0,sp,704
    800038a2:	01b55bbb          	srlw	s7,a0,s11
    800038a6:	69ad                	lui	s3,0xb
    800038a8:	0aa6                	slli	s5,s5,0x9
    800038aa:	01b55bbb          	srlw	s7,a0,s11
    800038ae:	0a6c4417          	auipc	s0,0xa6c4
    800038b2:	02eb76bb          	remuw	a3,s6,a4
    800038b6:	0091ddb3          	srl	s11,gp,s1
    800038ba:	04a9                	addi	s1,s1,10
    800038bc:	e3314393          	xori	t2,sp,-461
    800038c0:	41660233          	sub	tp,a2,s6
    800038c4:	02b2dc33          	divu	s8,t0,a1
    800038c8:	41660233          	sub	tp,a2,s6
    800038cc:	0001                	nop
    800038ce:	0aa6                	slli	s5,s5,0x9
    800038d0:	0001                	nop
    800038d2:	0588                	addi	a0,sp,704
    800038d4:	01b95263          	bge	s2,s11,800038d8 <main_18+0x26e>
    800038d8:	89d9                	andi	a1,a1,22
    800038da:	417dd533          	sra	a0,s11,s7
    800038de:	02a986bb          	mulw	a3,s3,a0
    800038e2:	93a6ba13          	sltiu	s4,a3,-1734
    800038e6:	02415b3b          	divuw	s6,sp,tp
    800038ea:	02b2dc33          	divu	s8,t0,a1
    800038ee:	0a6c4417          	auipc	s0,0xa6c4
    800038f2:	003a9463          	bne	s5,gp,800038fa <main_18+0x290>
    800038f6:	03d44f3b          	divw	t5,s0,t4
    800038fa:	0aa6                	slli	s5,s5,0x9
    800038fc:	023a9563          	bne	s5,gp,80003926 <main_18+0x2bc>
    80003900:	82f9                	srli	a3,a3,0x1e
    80003902:	01b55bbb          	srlw	s7,a0,s11
    80003906:	01e203b3          	add	t2,tp,t5
    8000390a:	002495b3          	sll	a1,s1,sp
    8000390e:	02b2dc33          	divu	s8,t0,a1
    80003912:	0588                	addi	a0,sp,704
    80003914:	09730a93          	addi	s5,t1,151
    80003918:	02b2dc33          	divu	s8,t0,a1
    8000391c:	5be3e993          	ori	s3,t2,1470
    80003920:	89d9                	andi	a1,a1,22
    80003922:	03b60063          	beq	a2,s11,80003942 <main_18+0x2d8>
    80003926:	02a986bb          	mulw	a3,s3,a0
    8000392a:	4368d313          	srai	t1,a7,0x36
    8000392e:	01b55bbb          	srlw	s7,a0,s11
    80003932:	002495b3          	sll	a1,s1,sp
    80003936:	01ca4133          	xor	sp,s4,t3
    8000393a:	41bb519b          	sraiw	gp,s6,0x1b
    8000393e:	717d                	addi	sp,sp,-16
    80003940:	9d01                	subw	a0,a0,s0
    80003942:	0085e363          	bltu	a1,s0,80003948 <main_18+0x2de>
    80003946:	8a3a                	mv	s4,a4
    80003948:	8f8d                	sub	a5,a5,a1
    8000394a:	02fffcb3          	remu	s9,t6,a5
    8000394e:	0001                	nop
    80003950:	93a6ba13          	sltiu	s4,a3,-1734
    80003954:	0091ddb3          	srl	s11,gp,s1
    80003958:	000807bb          	addw	a5,a6,zero
    8000395c:	02061833          	mulh	a6,a2,zero
    80003960:	0094bb33          	sltu	s6,s1,s1
    80003964:	03272133          	mulhsu	sp,a4,s2
    80003968:	03f76733          	rem	a4,a4,t6
    8000396c:	09730a93          	addi	s5,t1,151
    80003970:	5be3e993          	ori	s3,t2,1470
    80003974:	717d                	addi	sp,sp,-16
    80003976:	01ca4133          	xor	sp,s4,t3
    8000397a:	01b95a63          	bge	s2,s11,8000398e <main_18+0x324>
    8000397e:	41660233          	sub	tp,a2,s6
    80003982:	84627b37          	lui	s6,0x84627
    80003986:	03498fb3          	mul	t6,s3,s4
    8000398a:	02a986bb          	mulw	a3,s3,a0
    8000398e:	0a6c4417          	auipc	s0,0xa6c4
    80003992:	01e203b3          	add	t2,tp,t5
    80003996:	000807bb          	addw	a5,a6,zero
    8000399a:	0001                	nop
    8000399c:	03eec933          	div	s2,t4,t5
    800039a0:	03f76733          	rem	a4,a4,t6
    800039a4:	e3314393          	xori	t2,sp,-461
    800039a8:	000725b3          	sltz	a1,a4
    800039ac:	40dc89bb          	subw	s3,s9,a3
    800039b0:	41660233          	sub	tp,a2,s6
    800039b4:	01e203b3          	add	t2,tp,t5
    800039b8:	86d9                	srai	a3,a3,0x16
    800039ba:	e71d                	bnez	a4,800039e8 <main_18+0x37e>
    800039bc:	02eb76bb          	remuw	a3,s6,a4
    800039c0:	ce85                	beqz	a3,800039f8 <main_18+0x38e>
    800039c2:	01e203b3          	add	t2,tp,t5
    800039c6:	82f9                	srli	a3,a3,0x1e
    800039c8:	02eb76bb          	remuw	a3,s6,a4
    800039cc:	0aa6                	slli	s5,s5,0x9
    800039ce:	86d9                	srai	a3,a3,0x16
    800039d0:	8f8d                	sub	a5,a5,a1
    800039d2:	03eec933          	div	s2,t4,t5
    800039d6:	0091ddb3          	srl	s11,gp,s1
    800039da:	02fffcb3          	remu	s9,t6,a5
    800039de:	82f9                	srli	a3,a3,0x1e
    800039e0:	8e49                	or	a2,a2,a0
    800039e2:	56fd                	li	a3,-1
    800039e4:	40dc89bb          	subw	s3,s9,a3
    800039e8:	0a6c4417          	auipc	s0,0xa6c4
    800039ec:	000b561b          	srliw	a2,s6,0x0
    800039f0:	03eec933          	div	s2,t4,t5
    800039f4:	8f8d                	sub	a5,a5,a1
    800039f6:	0aa6                	slli	s5,s5,0x9
    800039f8:	8c21                	xor	s0,s0,s0
    800039fa:	03eec933          	div	s2,t4,t5
    800039fe:	003de5b3          	or	a1,s11,gp
    80003a02:	000725b3          	sltz	a1,a4
    80003a06:	02d04d63          	bgtz	a3,80003a40 <main_18+0x3d6>
    80003a0a:	0a6c4417          	auipc	s0,0xa6c4
    80003a0e:	03d44f3b          	divw	t5,s0,t4
    80003a12:	02a986bb          	mulw	a3,s3,a0
    80003a16:	000807bb          	addw	a5,a6,zero
    80003a1a:	41205ebb          	sraw	t4,zero,s2
    80003a1e:	02eb76bb          	remuw	a3,s6,a4
    80003a22:	00d04663          	bgtz	a3,80003a2e <main_18+0x3c4>
    80003a26:	02a986bb          	mulw	a3,s3,a0
    80003a2a:	03d44f3b          	divw	t5,s0,t4
    80003a2e:	018a5213          	srli	tp,s4,0x18
    80003a32:	41205ebb          	sraw	t4,zero,s2
    80003a36:	023830b3          	mulhu	ra,a6,gp
    80003a3a:	01b60963          	beq	a2,s11,80003a4c <main_18+0x3e2>
    80003a3e:	89d9                	andi	a1,a1,22
    80003a40:	02061833          	mulh	a6,a2,zero
    80003a44:	01e203b3          	add	t2,tp,t5
    80003a48:	02d04a63          	bgtz	a3,80003a7c <main_18+0x412>
    80003a4c:	04d04263          	bgtz	a3,80003a90 <main_18+0x426>
    80003a50:	03f76733          	rem	a4,a4,t6
    80003a54:	018a5213          	srli	tp,s4,0x18
    80003a58:	03498fb3          	mul	t6,s3,s4
    80003a5c:	41205ebb          	sraw	t4,zero,s2
    80003a60:	02a986bb          	mulw	a3,s3,a0
    80003a64:	9db9                	addw	a1,a1,a4
    80003a66:	86d9                	srai	a3,a3,0x16
    80003a68:	28d0f213          	andi	tp,ra,653
    80003a6c:	01b55bbb          	srlw	s7,a0,s11
    80003a70:	03498fb3          	mul	t6,s3,s4
    80003a74:	0001                	nop
    80003a76:	03eec933          	div	s2,t4,t5
    80003a7a:	9d01                	subw	a0,a0,s0
    80003a7c:	e309                	bnez	a4,80003a7e <main_18+0x414>
    80003a7e:	000725b3          	sltz	a1,a4
    80003a82:	41bb519b          	sraiw	gp,s6,0x1b
    80003a86:	000725b3          	sltz	a1,a4
    80003a8a:	89d9                	andi	a1,a1,22
    80003a8c:	00ce1c1b          	slliw	s8,t3,0xc
    80003a90:	023830b3          	mulhu	ra,a6,gp
    80003a94:	01b95f63          	bge	s2,s11,80003ab2 <main_18+0x448>
    80003a98:	0588                	addi	a0,sp,704
    80003a9a:	01ca4133          	xor	sp,s4,t3
    80003a9e:	8e49                	or	a2,a2,a0
    80003aa0:	0aa6                	slli	s5,s5,0x9
    80003aa2:	4368d313          	srai	t1,a7,0x36
    80003aa6:	8c79                	and	s0,s0,a4
    80003aa8:	9d01                	subw	a0,a0,s0
    80003aaa:	84627b37          	lui	s6,0x84627
    80003aae:	40dc89bb          	subw	s3,s9,a3
    80003ab2:	023830b3          	mulhu	ra,a6,gp
    80003ab6:	03272133          	mulhsu	sp,a4,s2
    80003aba:	00d316bb          	sllw	a3,t1,a3
    80003abe:	5be3e993          	ori	s3,t2,1470
    80003ac2:	09730a93          	addi	s5,t1,151
    80003ac6:	02deedbb          	remw	s11,t4,a3
    80003aca:	8f8d                	sub	a5,a5,a1
    80003acc:	417dd533          	sra	a0,s11,s7
    80003ad0:	40dc89bb          	subw	s3,s9,a3
    80003ad4:	023a9e63          	bne	s5,gp,80003b10 <main_18+0x4a6>
    80003ad8:	09730a93          	addi	s5,t1,151
    80003adc:	edf82113          	slti	sp,a6,-289
    80003ae0:	05b95363          	bge	s2,s11,80003b26 <main_18+0x4bc>
    80003ae4:	02eb76bb          	remuw	a3,s6,a4
    80003ae8:	0a6c4417          	auipc	s0,0xa6c4
    80003aec:	0085ee63          	bltu	a1,s0,80003b08 <main_18+0x49e>
    80003af0:	0588                	addi	a0,sp,704
    80003af2:	03eec933          	div	s2,t4,t5
    80003af6:	03f76733          	rem	a4,a4,t6
    80003afa:	00d316bb          	sllw	a3,t1,a3
    80003afe:	01ca4133          	xor	sp,s4,t3
    80003b02:	edf82113          	slti	sp,a6,-289
    80003b06:	9db9                	addw	a1,a1,a4
    80003b08:	03d44f3b          	divw	t5,s0,t4
    80003b0c:	01b55bbb          	srlw	s7,a0,s11
    80003b10:	e321                	bnez	a4,80003b50 <main_18+0x4e6>
    80003b12:	0285e763          	bltu	a1,s0,80003b40 <main_18+0x4d6>
    80003b16:	84627b37          	lui	s6,0x84627
    80003b1a:	018a5213          	srli	tp,s4,0x18
    80003b1e:	009bf463          	bgeu	s7,s1,80003b26 <main_18+0x4bc>
    80003b22:	000b561b          	srliw	a2,s6,0x0
    80003b26:	0cc1881b          	addiw	a6,gp,204
    80003b2a:	03d44f3b          	divw	t5,s0,t4
    80003b2e:	00d316bb          	sllw	a3,t1,a3
    80003b32:	0166feb3          	and	t4,a3,s6
    80003b36:	8c79                	and	s0,s0,a4
    80003b38:	003a9563          	bne	s5,gp,80003b42 <main_18+0x4d8>
    80003b3c:	0094bb33          	sltu	s6,s1,s1
    80003b40:	69ad                	lui	s3,0xb
    80003b42:	03272133          	mulhsu	sp,a4,s2
    80003b46:	69ad                	lui	s3,0xb
    80003b48:	03272133          	mulhsu	sp,a4,s2
    80003b4c:	01e203b3          	add	t2,tp,t5
    80003b50:	03498fb3          	mul	t6,s3,s4
    80003b54:	000725b3          	sltz	a1,a4
    80003b58:	0094bb33          	sltu	s6,s1,s1
    80003b5c:	0001                	nop
    80003b5e:	eb11                	bnez	a4,80003b72 <main_18+0x508>
    80003b60:	03eec933          	div	s2,t4,t5
    80003b64:	04a9                	addi	s1,s1,10
    80003b66:	93a6ba13          	sltiu	s4,a3,-1734
    80003b6a:	0094bb33          	sltu	s6,s1,s1
    80003b6e:	03f76733          	rem	a4,a4,t6
    80003b72:	edf82113          	slti	sp,a6,-289
    80003b76:	02deedbb          	remw	s11,t4,a3
    80003b7a:	00d04463          	bgtz	a3,80003b82 <main_18+0x518>
    80003b7e:	41205ebb          	sraw	t4,zero,s2
    80003b82:	0aa6                	slli	s5,s5,0x9
    80003b84:	03272133          	mulhsu	sp,a4,s2
    80003b88:	5be3e993          	ori	s3,t2,1470
    80003b8c:	41bb519b          	sraiw	gp,s6,0x1b
    80003b90:	03b95663          	bge	s2,s11,80003bbc <main_18+0x552>
    80003b94:	86d9                	srai	a3,a3,0x16
    80003b96:	02deedbb          	remw	s11,t4,a3
    80003b9a:	02d04b63          	bgtz	a3,80003bd0 <main_18+0x566>
    80003b9e:	023830b3          	mulhu	ra,a6,gp
    80003ba2:	03498fb3          	mul	t6,s3,s4
    80003ba6:	09730a93          	addi	s5,t1,151
    80003baa:	0588                	addi	a0,sp,704
    80003bac:	c289                	beqz	a3,80003bae <main_18+0x544>
    80003bae:	09730a93          	addi	s5,t1,151
    80003bb2:	9db9                	addw	a1,a1,a4
    80003bb4:	000b561b          	srliw	a2,s6,0x0
    80003bb8:	03b60663          	beq	a2,s11,80003be4 <main_18+0x57a>
    80003bbc:	03498fb3          	mul	t6,s3,s4
    80003bc0:	8a3a                	mv	s4,a4
    80003bc2:	0285e163          	bltu	a1,s0,80003be4 <main_18+0x57a>
    80003bc6:	03eec933          	div	s2,t4,t5
    80003bca:	023830b3          	mulhu	ra,a6,gp
    80003bce:	8c21                	xor	s0,s0,s0
    80003bd0:	03272133          	mulhsu	sp,a4,s2
    80003bd4:	003de5b3          	or	a1,s11,gp
    80003bd8:	0a85e563          	bltu	a1,s0,80003c82 <main_32+0x78>
    80003bdc:	02eb76bb          	remuw	a3,s6,a4
    80003be0:	0a6c4417          	auipc	s0,0xa6c4
    80003be4:	04a9                	addi	s1,s1,10
    80003be6:	00d04a63          	bgtz	a3,80003bfa <main_18+0x590>
    80003bea:	0a6c4417          	auipc	s0,0xa6c4
    80003bee:	4368d313          	srai	t1,a7,0x36
    80003bf2:	0a6c4417          	auipc	s0,0xa6c4
    80003bf6:	08d04e63          	bgtz	a3,80003c92 <main_32+0x88>
    80003bfa:	8a3a                	mv	s4,a4
    80003bfc:	5be3e993          	ori	s3,t2,1470
    80003c00:	e3314393          	xori	t2,sp,-461
    80003c04:	9db9                	addw	a1,a1,a4
    80003c06:	07b95463          	bge	s2,s11,80003c6e <main_32+0x64>

0000000080003c0a <main_32>:
    80003c0a:	05a00eef          	jal	t4,80003c64 <main_32+0x5a>
    80003c0e:	a031                	j	80003c1a <main_32+0x10>
    80003c10:	a021                	j	80003c18 <main_32+0xe>
    80003c12:	a80d                	j	80003c44 <main_32+0x3a>
    80003c14:	03a000ef          	jal	80003c4e <main_32+0x44>
    80003c18:	bfed                	j	80003c12 <main_32+0x8>
    80003c1a:	ffbff0ef          	jal	80003c14 <main_32+0xa>
    80003c1e:	022000ef          	jal	80003c40 <main_32+0x36>
    80003c22:	a015                	j	80003c46 <main_32+0x3c>
    80003c24:	030000ef          	jal	80003c54 <main_32+0x4a>
    80003c28:	040000ef          	jal	80003c68 <main_32+0x5e>
    80003c2c:	a801                	j	80003c3c <main_32+0x32>
    80003c2e:	fe1ff0ef          	jal	80003c0e <main_32+0x4>
    80003c32:	a031                	j	80003c3e <main_32+0x34>
    80003c34:	01e000ef          	jal	80003c52 <main_32+0x48>
    80003c38:	010000ef          	jal	80003c48 <main_32+0x3e>
    80003c3c:	a801                	j	80003c4c <main_32+0x42>
    80003c3e:	bfc9                	j	80003c10 <main_32+0x6>
    80003c40:	020000ef          	jal	80003c60 <main_32+0x56>
    80003c44:	b7e5                	j	80003c2c <main_32+0x22>
    80003c46:	bfe1                	j	80003c1e <main_32+0x14>
    80003c48:	fddff0ef          	jal	80003c24 <main_32+0x1a>
    80003c4c:	a801                	j	80003c5c <main_32+0x52>
    80003c4e:	00a000ef          	jal	80003c58 <main_32+0x4e>
    80003c52:	b7dd                	j	80003c38 <main_32+0x2e>
    80003c54:	fdfff0ef          	jal	80003c32 <main_32+0x28>
    80003c58:	fcbff0ef          	jal	80003c22 <main_32+0x18>
    80003c5c:	fcdff0ef          	jal	80003c28 <main_32+0x1e>
    80003c60:	fd5ff0ef          	jal	80003c34 <main_32+0x2a>
    80003c64:	fcbff0ef          	jal	80003c2e <main_32+0x24>
    80003c68:	0001                	nop
    80003c6a:	000807bb          	addw	a5,a6,zero
    80003c6e:	93a6ba13          	sltiu	s4,a3,-1734
    80003c72:	02061833          	mulh	a6,a2,zero
    80003c76:	0091ddb3          	srl	s11,gp,s1
    80003c7a:	03f76733          	rem	a4,a4,t6
    80003c7e:	02eb76bb          	remuw	a3,s6,a4
    80003c82:	02eb76bb          	remuw	a3,s6,a4
    80003c86:	0a6c4417          	auipc	s0,0xa6c4
    80003c8a:	000725b3          	sltz	a1,a4
    80003c8e:	00d316bb          	sllw	a3,t1,a3
    80003c92:	03eec933          	div	s2,t4,t5
    80003c96:	0166feb3          	and	t4,a3,s6
    80003c9a:	41660233          	sub	tp,a2,s6
    80003c9e:	0001                	nop

0000000080003ca0 <main_15>:
    80003ca0:	04200eef          	jal	t4,80003ce2 <main_15+0x42>
    80003ca4:	a025                	j	80003ccc <main_15+0x2c>
    80003ca6:	a805                	j	80003cd6 <main_15+0x36>
    80003ca8:	01a000ef          	jal	80003cc2 <main_15+0x22>
    80003cac:	a029                	j	80003cb6 <main_15+0x16>
    80003cae:	ffbff0ef          	jal	80003ca8 <main_15+0x8>
    80003cb2:	008000ef          	jal	80003cba <main_15+0x1a>
    80003cb6:	ff9ff0ef          	jal	80003cae <main_15+0xe>
    80003cba:	004000ef          	jal	80003cbe <main_15+0x1e>
    80003cbe:	028000ef          	jal	80003ce6 <main_15+0x46>
    80003cc2:	bfc5                	j	80003cb2 <main_15+0x12>
    80003cc4:	fe3ff0ef          	jal	80003ca6 <main_15+0x6>
    80003cc8:	ffdff0ef          	jal	80003cc4 <main_15+0x24>
    80003ccc:	bff5                	j	80003cc8 <main_15+0x28>
    80003cce:	004000ef          	jal	80003cd2 <main_15+0x32>
    80003cd2:	fdbff0ef          	jal	80003cac <main_15+0xc>
    80003cd6:	008000ef          	jal	80003cde <main_15+0x3e>
    80003cda:	fcbff0ef          	jal	80003ca4 <main_15+0x4>
    80003cde:	ff1ff0ef          	jal	80003cce <main_15+0x2e>
    80003ce2:	ff9ff0ef          	jal	80003cda <main_15+0x3a>
    80003ce6:	41660233          	sub	tp,a2,s6
    80003cea:	02eb76bb          	remuw	a3,s6,a4
    80003cee:	56fd                	li	a3,-1
    80003cf0:	41205ebb          	sraw	t4,zero,s2
    80003cf4:	0cc1881b          	addiw	a6,gp,204
    80003cf8:	02deedbb          	remw	s11,t4,a3
    80003cfc:	000725b3          	sltz	a1,a4
    80003d00:	86d9                	srai	a3,a3,0x16
    80003d02:	03eec933          	div	s2,t4,t5
    80003d06:	03eec933          	div	s2,t4,t5
    80003d0a:	02fffcb3          	remu	s9,t6,a5
    80003d0e:	3f7d                	addiw	t5,t5,-1
    80003d10:	002495b3          	sll	a1,s1,sp
    80003d14:	8e49                	or	a2,a2,a0
    80003d16:	04d04063          	bgtz	a3,80003d56 <main_15+0xb6>
    80003d1a:	84627b37          	lui	s6,0x84627
    80003d1e:	01b95363          	bge	s2,s11,80003d24 <main_15+0x84>
    80003d22:	ca8d                	beqz	a3,80003d54 <main_15+0xb4>
    80003d24:	8e49                	or	a2,a2,a0
    80003d26:	9d01                	subw	a0,a0,s0
    80003d28:	8f8d                	sub	a5,a5,a1
    80003d2a:	03d44f3b          	divw	t5,s0,t4
    80003d2e:	0001                	nop
    80003d30:	03f76733          	rem	a4,a4,t6
    80003d34:	000b561b          	srliw	a2,s6,0x0
    80003d38:	5be3e993          	ori	s3,t2,1470
    80003d3c:	00d316bb          	sllw	a3,t1,a3
    80003d40:	02deedbb          	remw	s11,t4,a3
    80003d44:	9d01                	subw	a0,a0,s0
    80003d46:	000807bb          	addw	a5,a6,zero
    80003d4a:	01e203b3          	add	t2,tp,t5
    80003d4e:	86d9                	srai	a3,a3,0x16
    80003d50:	09730a93          	addi	s5,t1,151
    80003d54:	04a9                	addi	s1,s1,10
    80003d56:	86d9                	srai	a3,a3,0x16
    80003d58:	56fd                	li	a3,-1
    80003d5a:	02deedbb          	remw	s11,t4,a3
    80003d5e:	56fd                	li	a3,-1
    80003d60:	023830b3          	mulhu	ra,a6,gp
    80003d64:	02b2dc33          	divu	s8,t0,a1
    80003d68:	0001                	nop
    80003d6a:	03b95763          	bge	s2,s11,80003d98 <main_15+0xf8>
    80003d6e:	000725b3          	sltz	a1,a4
    80003d72:	0085e363          	bltu	a1,s0,80003d78 <main_15+0xd8>
    80003d76:	8c21                	xor	s0,s0,s0
    80003d78:	09730a93          	addi	s5,t1,151
    80003d7c:	02b2dc33          	divu	s8,t0,a1
    80003d80:	02fffcb3          	remu	s9,t6,a5
    80003d84:	ce99                	beqz	a3,80003da2 <main_15+0x102>
    80003d86:	5be3e993          	ori	s3,t2,1470
    80003d8a:	0aa6                	slli	s5,s5,0x9
    80003d8c:	000807bb          	addw	a5,a6,zero
    80003d90:	edf82113          	slti	sp,a6,-289
    80003d94:	0094bb33          	sltu	s6,s1,s1
    80003d98:	8f8d                	sub	a5,a5,a1
    80003d9a:	41660233          	sub	tp,a2,s6
    80003d9e:	03498fb3          	mul	t6,s3,s4
    80003da2:	84627b37          	lui	s6,0x84627
    80003da6:	029bff63          	bgeu	s7,s1,80003de4 <main_15+0x144>
    80003daa:	03f76733          	rem	a4,a4,t6
    80003dae:	0094bb33          	sltu	s6,s1,s1
    80003db2:	03272133          	mulhsu	sp,a4,s2
    80003db6:	00d316bb          	sllw	a3,t1,a3
    80003dba:	c68d                	beqz	a3,80003de4 <main_15+0x144>
    80003dbc:	82f9                	srli	a3,a3,0x1e
    80003dbe:	9d01                	subw	a0,a0,s0
    80003dc0:	9d01                	subw	a0,a0,s0
    80003dc2:	89d9                	andi	a1,a1,22
    80003dc4:	56fd                	li	a3,-1
    80003dc6:	9a7e                	add	s4,s4,t6
    80003dc8:	03f76733          	rem	a4,a4,t6
    80003dcc:	9d01                	subw	a0,a0,s0
    80003dce:	8c79                	and	s0,s0,a4
    80003dd0:	5be3e993          	ori	s3,t2,1470
    80003dd4:	02deedbb          	remw	s11,t4,a3
    80003dd8:	01a31093          	slli	ra,t1,0x1a
    80003ddc:	00ce1c1b          	slliw	s8,t3,0xc
    80003de0:	28d0f213          	andi	tp,ra,653
    80003de4:	03498fb3          	mul	t6,s3,s4
    80003de8:	0cc1881b          	addiw	a6,gp,204
    80003dec:	eb0d                	bnez	a4,80003e1e <main_15+0x17e>
    80003dee:	02061833          	mulh	a6,a2,zero
    80003df2:	9db9                	addw	a1,a1,a4
    80003df4:	03272133          	mulhsu	sp,a4,s2
    80003df8:	00ce1c1b          	slliw	s8,t3,0xc
    80003dfc:	000b561b          	srliw	a2,s6,0x0
    80003e00:	02deedbb          	remw	s11,t4,a3
    80003e04:	9a7e                	add	s4,s4,t6
    80003e06:	69ad                	lui	s3,0xb
    80003e08:	0cc1881b          	addiw	a6,gp,204
    80003e0c:	03f76733          	rem	a4,a4,t6
    80003e10:	01e203b3          	add	t2,tp,t5
    80003e14:	009bff63          	bgeu	s7,s1,80003e32 <main_15+0x192>
    80003e18:	002495b3          	sll	a1,s1,sp
    80003e1c:	69ad                	lui	s3,0xb
    80003e1e:	9db9                	addw	a1,a1,a4
    80003e20:	00ce1c1b          	slliw	s8,t3,0xc
    80003e24:	0a6c4417          	auipc	s0,0xa6c4
    80003e28:	0a6c4417          	auipc	s0,0xa6c4
    80003e2c:	8e49                	or	a2,a2,a0
    80003e2e:	41660233          	sub	tp,a2,s6
    80003e32:	023830b3          	mulhu	ra,a6,gp
    80003e36:	84627b37          	lui	s6,0x84627
    80003e3a:	04a9                	addi	s1,s1,10
    80003e3c:	28d0f213          	andi	tp,ra,653
    80003e40:	0166feb3          	and	t4,a3,s6
    80003e44:	02a986bb          	mulw	a3,s3,a0
    80003e48:	02eb76bb          	remuw	a3,s6,a4
