
riscv_arithmetic_basic_test_0.o:     file format elf64-littleriscv


Disassembly of section .text:

0000000080000000 <_start>:
    80000000:	f14022f3          	csrr	t0,mhartid
    80000004:	4301                	li	t1,0
    80000006:	00628263          	beq	t0,t1,8000000a <_start+0xa>
    8000000a:	00000897          	auipc	a7,0x0
    8000000e:	00c88893          	addi	a7,a7,12 # 80000016 <h0_start>
    80000012:	00088067          	jr	a7

0000000080000016 <h0_start>:
    80000016:	fff0021b          	addiw	tp,zero,-1
    8000001a:	124e                	slli	tp,tp,0x33
    8000001c:	0205                	addi	tp,tp,1 # 1 <_start-0x7fffffff>
    8000001e:	0232                	slli	tp,tp,0xc
    80000020:	10420213          	addi	tp,tp,260 # 104 <_start-0x7ffffefc>
    80000024:	30121073          	csrw	misa,tp

0000000080000028 <kernel_sp>:
    80000028:	0002d297          	auipc	t0,0x2d
    8000002c:	95828293          	addi	t0,t0,-1704 # 8002c980 <kernel_stack_end>

0000000080000030 <trap_vec_init>:
    80000030:	0000a217          	auipc	tp,0xa
    80000034:	93c20213          	addi	tp,tp,-1732 # 8000996c <mtvec_handler>
    80000038:	00026213          	ori	tp,tp,0
    8000003c:	30521073          	csrw	mtvec,tp

0000000080000040 <mepc_setup>:
    80000040:	00000217          	auipc	tp,0x0
    80000044:	02220213          	addi	tp,tp,34 # 80000062 <init>
    80000048:	34121073          	csrw	mepc,tp

000000008000004c <custom_csr_setup>:
    8000004c:	0001                	nop

000000008000004e <init_machine_mode>:
    8000004e:	6209                	lui	tp,0x2
    80000050:	8002021b          	addiw	tp,tp,-2048 # 1800 <_start-0x7fffe800>
    80000054:	30021073          	csrw	mstatus,tp
    80000058:	4201                	li	tp,0
    8000005a:	30421073          	csrw	mie,tp
    8000005e:	30200073          	mret

0000000080000062 <init>:
    80000062:	0007d037          	lui	zero,0x7d
    80000066:	c810001b          	addiw	zero,zero,-895
    8000006a:	00d01013          	slli	zero,zero,0xd
    8000006e:	ad000013          	li	zero,-1328
    80000072:	40a9                	li	ra,10
    80000074:	4109                	li	sp,2
    80000076:	000df1b7          	lui	gp,0xdf
    8000007a:	06d1819b          	addiw	gp,gp,109 # df06d <_start-0x7ff20f93>
    8000007e:	01b2                	slli	gp,gp,0xc
    80000080:	41318193          	addi	gp,gp,1043
    80000084:	0010021b          	addiw	tp,zero,1
    80000088:	027e                	slli	tp,tp,0x1f
    8000008a:	433d                	li	t1,15
    8000008c:	0010039b          	addiw	t2,zero,1
    80000090:	03fe                	slli	t2,t2,0x1f
    80000092:	4401                	li	s0,0
    80000094:	0010049b          	addiw	s1,zero,1
    80000098:	04fe                	slli	s1,s1,0x1f
    8000009a:	0010051b          	addiw	a0,zero,1
    8000009e:	057e                	slli	a0,a0,0x1f
    800000a0:	0010059b          	addiw	a1,zero,1
    800000a4:	05fe                	slli	a1,a1,0x1f
    800000a6:	0010061b          	addiw	a2,zero,1
    800000aa:	067e                	slli	a2,a2,0x1f
    800000ac:	4685                	li	a3,1
    800000ae:	0010071b          	addiw	a4,zero,1
    800000b2:	077e                	slli	a4,a4,0x1f
    800000b4:	0010079b          	addiw	a5,zero,1
    800000b8:	07fe                	slli	a5,a5,0x1f
    800000ba:	0007d837          	lui	a6,0x7d
    800000be:	8678081b          	addiw	a6,a6,-1945 # 7c867 <_start-0x7ff83799>
    800000c2:	0836                	slli	a6,a6,0xd
    800000c4:	21280813          	addi	a6,a6,530
    800000c8:	000808b7          	lui	a7,0x80
    800000cc:	f858889b          	addiw	a7,a7,-123 # 7ff85 <_start-0x7ff8007b>
    800000d0:	08b6                	slli	a7,a7,0xd
    800000d2:	1fb88893          	addi	a7,a7,507
    800000d6:	000d0937          	lui	s2,0xd0
    800000da:	c799091b          	addiw	s2,s2,-903 # cfc79 <_start-0x7ff30387>
    800000de:	0932                	slli	s2,s2,0xc
    800000e0:	f9b90913          	addi	s2,s2,-101
    800000e4:	000fe9b7          	lui	s3,0xfe
    800000e8:	73d9899b          	addiw	s3,s3,1853 # fe73d <_start-0x7ff018c3>
    800000ec:	09b2                	slli	s3,s3,0xc
    800000ee:	5bf98993          	addi	s3,s3,1471
    800000f2:	00100a1b          	addiw	s4,zero,1
    800000f6:	0a7e                	slli	s4,s4,0x1f
    800000f8:	4a81                	li	s5,0
    800000fa:	4b2d                	li	s6,11
    800000fc:	4b89                	li	s7,2
    800000fe:	4c25                	li	s8,9
    80000100:	4cb5                	li	s9,13
    80000102:	00100d9b          	addiw	s11,zero,1
    80000106:	0dfe                	slli	s11,s11,0x1f
    80000108:	4e01                	li	t3,0
    8000010a:	00078eb7          	lui	t4,0x78
    8000010e:	63de8e9b          	addiw	t4,t4,1597 # 7863d <_start-0x7ff879c3>
    80000112:	0eb6                	slli	t4,t4,0xd
    80000114:	af0e8e93          	addi	t4,t4,-1296
    80000118:	4f01                	li	t5,0
    8000011a:	00100f9b          	addiw	t6,zero,1
    8000011e:	0ffe                	slli	t6,t6,0x1f
    80000120:	00025d17          	auipc	s10,0x25
    80000124:	b60d0d13          	addi	s10,s10,-1184 # 80024c80 <user_stack_end>

0000000080000128 <main>:
    80000128:	04200eef          	jal	t4,8000016a <main+0x42>
    8000012c:	014000ef          	jal	80000140 <main+0x18>
    80000130:	04a000ef          	jal	8000017a <main+0x52>
    80000134:	a005                	j	80000154 <main+0x2c>
    80000136:	036000ef          	jal	8000016c <main+0x44>
    8000013a:	a03d                	j	80000168 <main+0x40>
    8000013c:	fffff0ef          	jal	8000013a <main+0x12>
    80000140:	016000ef          	jal	80000156 <main+0x2e>
    80000144:	ff9ff0ef          	jal	8000013c <main+0x14>
    80000148:	a021                	j	80000150 <main+0x28>
    8000014a:	010000ef          	jal	8000015a <main+0x32>
    8000014e:	a809                	j	80000160 <main+0x38>
    80000150:	ffbff0ef          	jal	8000014a <main+0x22>
    80000154:	a011                	j	80000158 <main+0x30>
    80000156:	a831                	j	80000172 <main+0x4a>
    80000158:	a839                	j	80000176 <main+0x4e>
    8000015a:	fd3ff0ef          	jal	8000012c <main+0x4>
    8000015e:	a801                	j	8000016e <main+0x46>
    80000160:	b7e5                	j	80000148 <main+0x20>
    80000162:	004000ef          	jal	80000166 <main+0x3e>
    80000166:	bfc1                	j	80000136 <main+0xe>
    80000168:	bfed                	j	80000162 <main+0x3a>
    8000016a:	bfe9                	j	80000144 <main+0x1c>
    8000016c:	bfcd                	j	8000015e <main+0x36>
    8000016e:	fe1ff0ef          	jal	8000014e <main+0x26>
    80000172:	fc3ff0ef          	jal	80000134 <main+0xc>
    80000176:	fbbff0ef          	jal	80000130 <main+0x8>
    8000017a:	01b55bbb          	srlw	s7,a0,s11
    8000017e:	54f5                	li	s1,-3
    80000180:	edf82113          	slti	sp,a6,-289
    80000184:	03eeca33          	div	s4,t4,t5
    80000188:	28d0f213          	andi	tp,ra,653
    8000018c:	8279                	srli	a2,a2,0x1e
    8000018e:	498d                	li	s3,3
    80000190:	417dd5b3          	sra	a1,s11,s7
    80000194:	e3314393          	xori	t2,sp,-461

0000000080000198 <main_76_0_t>:
    80000198:	8c21                	xor	s0,s0,s0
    8000019a:	02fffe33          	remu	t3,t6,a5
    8000019e:	5be3ea93          	ori	s5,t2,1470
    800001a2:	6aad                	lui	s5,0xb
    800001a4:	0499                	addi	s1,s1,6
    800001a6:	417dd5b3          	sra	a1,s11,s7
    800001aa:	ff34c7e3          	blt	s1,s3,80000198 <main_76_0_t>
    800001ae:	02fffe33          	remu	t3,t6,a5

00000000800001b2 <main_4>:
    800001b2:	01000eef          	jal	t4,800001c2 <main_4+0x10>
    800001b6:	018000ef          	jal	800001ce <main_4+0x1c>
    800001ba:	a829                	j	800001d4 <main_4+0x22>
    800001bc:	bfed                	j	800001b6 <main_4+0x4>
    800001be:	bffd                	j	800001bc <main_4+0xa>
    800001c0:	bffd                	j	800001be <main_4+0xc>
    800001c2:	a811                	j	800001d6 <main_4+0x24>
    800001c4:	014000ef          	jal	800001d8 <main_4+0x26>
    800001c8:	ff9ff0ef          	jal	800001c0 <main_4+0xe>
    800001cc:	a005                	j	800001ec <main_4+0x3a>
    800001ce:	a011                	j	800001d2 <main_4+0x20>
    800001d0:	a819                	j	800001e6 <main_4+0x34>
    800001d2:	b7e5                	j	800001ba <main_4+0x8>
    800001d4:	a005                	j	800001f4 <main_4+0x42>
    800001d6:	a021                	j	800001de <main_4+0x2c>
    800001d8:	a029                	j	800001e2 <main_4+0x30>
    800001da:	ff7ff0ef          	jal	800001d0 <main_4+0x1e>
    800001de:	006000ef          	jal	800001e4 <main_4+0x32>
    800001e2:	a021                	j	800001ea <main_4+0x38>
    800001e4:	b7c5                	j	800001c4 <main_4+0x12>
    800001e6:	00a000ef          	jal	800001f0 <main_4+0x3e>
    800001ea:	b7cd                	j	800001cc <main_4+0x1a>
    800001ec:	fefff0ef          	jal	800001da <main_4+0x28>
    800001f0:	fd9ff0ef          	jal	800001c8 <main_4+0x16>
    800001f4:	8a3a                	mv	s4,a4
    800001f6:	439d                	li	t2,7
    800001f8:	4f85                	li	t6,1

00000000800001fa <main_73_0_t>:
    800001fa:	02a9873b          	mulw	a4,s3,a0
    800001fe:	13fd                	addi	t2,t2,-1
    80000200:	fff3dde3          	bge	t2,t6,800001fa <main_73_0_t>
    80000204:	000b569b          	srliw	a3,s6,0x0
    80000208:	4495                	li	s1,5
    8000020a:	86d9                	srai	a3,a3,0x16
    8000020c:	0001                	nop
    8000020e:	40dc8a3b          	subw	s4,s9,a3
    80000212:	00d3173b          	sllw	a4,t1,a3
    80000216:	86d9                	srai	a3,a3,0x16
    80000218:	018a5213          	srli	tp,s4,0x18
    8000021c:	03272133          	mulhsu	sp,a4,s2
    80000220:	4368d313          	srai	t1,a7,0x36
    80000224:	02a9873b          	mulw	a4,s3,a0
    80000228:	40dc8a3b          	subw	s4,s9,a3
    8000022c:	0091de33          	srl	t3,gp,s1
    80000230:	41bb519b          	sraiw	gp,s6,0x1b
    80000234:	4f51                	li	t5,20
    80000236:	6a2d                	lui	s4,0xb

0000000080000238 <main_51_0_t>:
    80000238:	023830b3          	mulhu	ra,a6,gp
    8000023c:	e3314393          	xori	t2,sp,-461
    80000240:	0001                	nop
    80000242:	8fa1                	xor	a5,a5,s0
    80000244:	0489                	addi	s1,s1,2
    80000246:	41205fbb          	sraw	t6,zero,s2
    8000024a:	000b569b          	srliw	a3,s6,0x0
    8000024e:	0590                	addi	a2,sp,704
    80000250:	397d                	addiw	s2,s2,-1
    80000252:	0091de33          	srl	t3,gp,s1
    80000256:	ffe4e1e3          	bltu	s1,t5,80000238 <main_51_0_t>
    8000025a:	0a6c4417          	auipc	s0,0xa6c4

000000008000025e <main_7>:
    8000025e:	01800eef          	jal	t4,80000276 <main_7+0x18>
    80000262:	a009                	j	80000264 <main_7+0x6>
    80000264:	a801                	j	80000274 <main_7+0x16>
    80000266:	a809                	j	80000278 <main_7+0x1a>
    80000268:	008000ef          	jal	80000270 <main_7+0x12>
    8000026c:	bff5                	j	80000268 <main_7+0xa>
    8000026e:	bfe5                	j	80000266 <main_7+0x8>
    80000270:	a009                	j	80000272 <main_7+0x14>
    80000272:	bff5                	j	8000026e <main_7+0x10>
    80000274:	bfe5                	j	8000026c <main_7+0xe>
    80000276:	b7f5                	j	80000262 <main_7+0x4>
    80000278:	02fffcb3          	remu	s9,t6,a5
    8000027c:	45a9                	li	a1,10
    8000027e:	01ca4133          	xor	sp,s4,t3
    80000282:	8c79                	and	s0,s0,a4
    80000284:	03272133          	mulhsu	sp,a4,s2
    80000288:	5bf5                	li	s7,-3

000000008000028a <main_68_1_t>:
    8000028a:	577d                	li	a4,-1
    8000028c:	15dd                	addi	a1,a1,-9
    8000028e:	9c81                	subw	s1,s1,s0
    80000290:	0001                	nop
    80000292:	4791                	li	a5,4
    80000294:	9e39                	addw	a2,a2,a4
    80000296:	4829                	li	a6,10

0000000080000298 <main_68_0_t>:
    80000298:	8c21                	xor	s0,s0,s0
    8000029a:	0795                	addi	a5,a5,5
    8000029c:	ff07eee3          	bltu	a5,a6,80000298 <main_68_0_t>
    800002a0:	9c81                	subw	s1,s1,s0
    800002a2:	ff75d4e3          	bge	a1,s7,8000028a <main_68_1_t>
    800002a6:	01e203b3          	add	t2,tp,t5

00000000800002aa <main_39>:
    800002aa:	01000eef          	jal	t4,800002ba <main_39+0x10>
    800002ae:	a03d                	j	800002dc <main_39+0x32>
    800002b0:	036000ef          	jal	800002e6 <main_39+0x3c>
    800002b4:	a089                	j	800002f6 <main_39+0x4c>
    800002b6:	a839                	j	800002d4 <main_39+0x2a>
    800002b8:	a801                	j	800002c8 <main_39+0x1e>
    800002ba:	036000ef          	jal	800002f0 <main_39+0x46>
    800002be:	a829                	j	800002d8 <main_39+0x2e>
    800002c0:	a819                	j	800002d6 <main_39+0x2c>
    800002c2:	028000ef          	jal	800002ea <main_39+0x40>
    800002c6:	a831                	j	800002e2 <main_39+0x38>
    800002c8:	034000ef          	jal	800002fc <main_39+0x52>
    800002cc:	fe3ff0ef          	jal	800002ae <main_39+0x4>
    800002d0:	02a000ef          	jal	800002fa <main_39+0x50>
    800002d4:	a035                	j	80000300 <main_39+0x56>
    800002d6:	bfe9                	j	800002b0 <main_39+0x6>
    800002d8:	026000ef          	jal	800002fe <main_39+0x54>
    800002dc:	bfe9                	j	800002b6 <main_39+0xc>
    800002de:	fd7ff0ef          	jal	800002b4 <main_39+0xa>
    800002e2:	ffdff0ef          	jal	800002de <main_39+0x34>
    800002e6:	00c000ef          	jal	800002f2 <main_39+0x48>
    800002ea:	fe7ff0ef          	jal	800002d0 <main_39+0x26>
    800002ee:	bfd1                	j	800002c2 <main_39+0x18>
    800002f0:	bfc1                	j	800002c0 <main_39+0x16>
    800002f2:	fd5ff0ef          	jal	800002c6 <main_39+0x1c>
    800002f6:	fc9ff0ef          	jal	800002be <main_39+0x14>
    800002fa:	bf7d                	j	800002b8 <main_39+0xe>
    800002fc:	bfc1                	j	800002cc <main_39+0x22>
    800002fe:	bfc5                	j	800002ee <main_39+0x44>
    80000300:	0cc1881b          	addiw	a6,gp,204
    80000304:	47a9                	li	a5,10
    80000306:	41660233          	sub	tp,a2,s6
    8000030a:	018a5213          	srli	tp,s4,0x18
    8000030e:	018a5213          	srli	tp,s4,0x18
    80000312:	00d3173b          	sllw	a4,t1,a3
    80000316:	02fffe33          	remu	t3,t6,a5
    8000031a:	4485                	li	s1,1
    8000031c:	4368d313          	srai	t1,a7,0x36

0000000080000320 <main_72_0_t>:
    80000320:	023830b3          	mulhu	ra,a6,gp
    80000324:	41660233          	sub	tp,a2,s6
    80000328:	0cc1899b          	addiw	s3,gp,204
    8000032c:	17dd                	addi	a5,a5,-9
    8000032e:	03eeca33          	div	s4,t4,t5
    80000332:	fe9797e3          	bne	a5,s1,80000320 <main_72_0_t>
    80000336:	8c79                	and	s0,s0,a4

0000000080000338 <main_14>:
    80000338:	02200eef          	jal	t4,8000035a <main_14+0x22>
    8000033c:	a01d                	j	80000362 <main_14+0x2a>
    8000033e:	010000ef          	jal	8000034e <main_14+0x16>
    80000342:	bfed                	j	8000033c <main_14+0x4>
    80000344:	ffbff0ef          	jal	8000033e <main_14+0x6>
    80000348:	01c000ef          	jal	80000364 <main_14+0x2c>
    8000034c:	a839                	j	8000036a <main_14+0x32>
    8000034e:	008000ef          	jal	80000356 <main_14+0x1e>
    80000352:	a811                	j	80000366 <main_14+0x2e>
    80000354:	bfe5                	j	8000034c <main_14+0x14>
    80000356:	ffdff0ef          	jal	80000352 <main_14+0x1a>
    8000035a:	fefff0ef          	jal	80000348 <main_14+0x10>
    8000035e:	ff7ff0ef          	jal	80000354 <main_14+0x1c>
    80000362:	bff5                	j	8000035e <main_14+0x26>
    80000364:	b7c5                	j	80000344 <main_14+0xc>
    80000366:	fddff0ef          	jal	80000342 <main_14+0xa>
    8000036a:	03eec933          	div	s2,t4,t5

000000008000036e <main_8>:
    8000036e:	01400eef          	jal	t4,80000382 <main_8+0x14>
    80000372:	a039                	j	80000380 <main_8+0x12>
    80000374:	a811                	j	80000388 <main_8+0x1a>
    80000376:	bffd                	j	80000374 <main_8+0x6>
    80000378:	a821                	j	80000390 <main_8+0x22>
    8000037a:	a031                	j	80000386 <main_8+0x18>
    8000037c:	fffff0ef          	jal	8000037a <main_8+0xc>
    80000380:	a029                	j	8000038a <main_8+0x1c>
    80000382:	ff5ff0ef          	jal	80000376 <main_8+0x8>
    80000386:	bfcd                	j	80000378 <main_8+0xa>
    80000388:	b7ed                	j	80000372 <main_8+0x4>
    8000038a:	004000ef          	jal	8000038e <main_8+0x20>
    8000038e:	b7fd                	j	8000037c <main_8+0xe>
    80000390:	01b55bbb          	srlw	s7,a0,s11
    80000394:	4401                	li	s0,0
    80000396:	4f85                	li	t6,1

0000000080000398 <main_71_1_t>:
    80000398:	09730c13          	addi	s8,t1,151
    8000039c:	0409                	addi	s0,s0,2 # 8a6c425c <_end+0xa6978d4>
    8000039e:	0729                	addi	a4,a4,10
    800003a0:	57d9                	li	a5,-10
    800003a2:	0001                	nop

00000000800003a4 <main_71_0_t>:
    800003a4:	02deef3b          	remw	t5,t4,a3
    800003a8:	8ad9                	andi	a3,a3,22
    800003aa:	07a9                	addi	a5,a5,10
    800003ac:	dfe5                	beqz	a5,800003a4 <main_71_0_t>
    800003ae:	fff445e3          	blt	s0,t6,80000398 <main_71_1_t>
    800003b2:	84627cb7          	lui	s9,0x84627

00000000800003b6 <main_28>:
    800003b6:	00a00eef          	jal	t4,800003c0 <main_28+0xa>
    800003ba:	a809                	j	800003cc <main_28+0x16>
    800003bc:	fffff0ef          	jal	800003ba <main_28+0x4>
    800003c0:	bff5                	j	800003bc <main_28+0x6>
    800003c2:	a021                	j	800003ca <main_28+0x14>
    800003c4:	a009                	j	800003c6 <main_28+0x10>
    800003c6:	bff5                	j	800003c2 <main_28+0xc>
    800003c8:	a029                	j	800003d2 <main_28+0x1c>
    800003ca:	a011                	j	800003ce <main_28+0x18>
    800003cc:	bff5                	j	800003c8 <main_28+0x12>
    800003ce:	006000ef          	jal	800003d4 <main_28+0x1e>
    800003d2:	bfcd                	j	800003c4 <main_28+0xe>
    800003d4:	86d9                	srai	a3,a3,0x16
    800003d6:	4415                	li	s0,5
    800003d8:	0001                	nop
    800003da:	717d                	addi	sp,sp,-16
    800003dc:	09730b93          	addi	s7,t1,151
    800003e0:	00072633          	sltz	a2,a4
    800003e4:	e3314393          	xori	t2,sp,-461
    800003e8:	4921                	li	s2,8
    800003ea:	417dd5b3          	sra	a1,s11,s7
    800003ee:	01b55cbb          	srlw	s9,a0,s11

00000000800003f2 <main_62_0_t>:
    800003f2:	84627c37          	lui	s8,0x84627
    800003f6:	01ca4133          	xor	sp,s4,t3
    800003fa:	00249633          	sll	a2,s1,sp
    800003fe:	023830b3          	mulhu	ra,a6,gp
    80000402:	0429                	addi	s0,s0,10
    80000404:	0001                	nop
    80000406:	86d9                	srai	a3,a3,0x16
    80000408:	00249633          	sll	a2,s1,sp
    8000040c:	00d3173b          	sllw	a4,t1,a3
    80000410:	0008083b          	addw	a6,a6,zero
    80000414:	e3314393          	xori	t2,sp,-461
    80000418:	8959                	andi	a0,a0,22
    8000041a:	fd244ce3          	blt	s0,s2,800003f2 <main_62_0_t>
    8000041e:	02a9873b          	mulw	a4,s3,a0
    80000422:	408d                	li	ra,3
    80000424:	5175                	li	sp,-3
    80000426:	81f9                	srli	a1,a1,0x1e

0000000080000428 <main_66_1_t>:
    80000428:	05a9                	addi	a1,a1,10
    8000042a:	0091dfb3          	srl	t6,gp,s1
    8000042e:	10f5                	addi	ra,ra,-3
    80000430:	4721                	li	a4,8
    80000432:	0001                	nop
    80000434:	28d0f413          	andi	s0,ra,653
    80000438:	8659                	srai	a2,a2,0x16

000000008000043a <main_66_0_t>:
    8000043a:	5be3eb93          	ori	s7,t2,1470
    8000043e:	177d                	addi	a4,a4,-1
    80000440:	ff6d                	bnez	a4,8000043a <main_66_0_t>
    80000442:	fe2083e3          	beq	ra,sp,80000428 <main_66_1_t>
    80000446:	0091dfb3          	srl	t6,gp,s1

000000008000044a <main_27>:
    8000044a:	00c00eef          	jal	t4,80000456 <main_27+0xc>
    8000044e:	a0a1                	j	80000496 <main_27+0x4c>
    80000450:	004000ef          	jal	80000454 <main_27+0xa>
    80000454:	a01d                	j	8000047a <main_27+0x30>
    80000456:	a03d                	j	80000484 <main_27+0x3a>
    80000458:	a091                	j	8000049c <main_27+0x52>
    8000045a:	016000ef          	jal	80000470 <main_27+0x26>
    8000045e:	a035                	j	8000048a <main_27+0x40>
    80000460:	a029                	j	8000046a <main_27+0x20>
    80000462:	036000ef          	jal	80000498 <main_27+0x4e>
    80000466:	038000ef          	jal	8000049e <main_27+0x54>
    8000046a:	01c000ef          	jal	80000486 <main_27+0x3c>
    8000046e:	a021                	j	80000476 <main_27+0x2c>
    80000470:	a005                	j	80000490 <main_27+0x46>
    80000472:	fedff0ef          	jal	8000045e <main_27+0x14>
    80000476:	00a000ef          	jal	80000480 <main_27+0x36>
    8000047a:	b7dd                	j	80000460 <main_27+0x16>
    8000047c:	ff7ff0ef          	jal	80000472 <main_27+0x28>
    80000480:	00e000ef          	jal	8000048e <main_27+0x44>
    80000484:	bfe5                	j	8000047c <main_27+0x32>
    80000486:	fd3ff0ef          	jal	80000458 <main_27+0xe>
    8000048a:	fc5ff0ef          	jal	8000044e <main_27+0x4>
    8000048e:	bfe1                	j	80000466 <main_27+0x1c>
    80000490:	bff9                	j	8000046e <main_27+0x24>
    80000492:	fc9ff0ef          	jal	8000045a <main_27+0x10>
    80000496:	b7f1                	j	80000462 <main_27+0x18>
    80000498:	fb9ff0ef          	jal	80000450 <main_27+0x6>
    8000049c:	bfdd                	j	80000492 <main_27+0x48>
    8000049e:	02a986bb          	mulw	a3,s3,a0
    800004a2:	4695                	li	a3,5
    800004a4:	0001                	nop
    800004a6:	5761                	li	a4,-8

00000000800004a8 <main_54_1_t>:
    800004a8:	5be3eb13          	ori	s6,t2,1470
    800004ac:	8d21                	xor	a0,a0,s0
    800004ae:	0a6c4417          	auipc	s0,0xa6c4
    800004b2:	39fd                	addiw	s3,s3,-1
    800004b4:	417dd533          	sra	a0,s11,s7
    800004b8:	16e5                	addi	a3,a3,-7
    800004ba:	4a25                	li	s4,9
    800004bc:	0cc1899b          	addiw	s3,gp,204
    800004c0:	4f0d                	li	t5,3
    800004c2:	9bfe                	add	s7,s7,t6
    800004c4:	0a6c4417          	auipc	s0,0xa6c4

00000000800004c8 <main_54_0_t>:
    800004c8:	03498233          	mul	tp,s3,s4
    800004cc:	1a69                	addi	s4,s4,-6 # affa <_start-0x7fff5006>
    800004ce:	02b2de33          	divu	t3,t0,a1
    800004d2:	87d9                	srai	a5,a5,0x16
    800004d4:	02b2de33          	divu	t3,t0,a1
    800004d8:	ffea58e3          	bge	s4,t5,800004c8 <main_54_0_t>
    800004dc:	e3314393          	xori	t2,sp,-461
    800004e0:	fce6d4e3          	bge	a3,a4,800004a8 <main_54_1_t>
    800004e4:	03498233          	mul	tp,s3,s4
    800004e8:	54e9                	li	s1,-6
    800004ea:	0001                	nop
    800004ec:	8959                	andi	a0,a0,22
    800004ee:	41660233          	sub	tp,a2,s6
    800004f2:	01ca4133          	xor	sp,s4,t3
    800004f6:	edf82113          	slti	sp,a6,-289
    800004fa:	01ca4133          	xor	sp,s4,t3
    800004fe:	edf82113          	slti	sp,a6,-289
    80000502:	41660233          	sub	tp,a2,s6
    80000506:	01ca4133          	xor	sp,s4,t3
    8000050a:	5cd9                	li	s9,-10
    8000050c:	28d0f213          	andi	tp,ra,653

0000000080000510 <main_44_0_t>:
    80000510:	8ec9                	or	a3,a3,a0
    80000512:	02a9873b          	mulw	a4,s3,a0
    80000516:	0001                	nop
    80000518:	03d44bbb          	divw	s7,s0,t4
    8000051c:	03d44bbb          	divw	s7,s0,t4
    80000520:	023830b3          	mulhu	ra,a6,gp
    80000524:	417dd5b3          	sra	a1,s11,s7
    80000528:	8c79                	and	s0,s0,a4
    8000052a:	03f767b3          	rem	a5,a4,t6
    8000052e:	8c79                	and	s0,s0,a4
    80000530:	14f9                	addi	s1,s1,-2
    80000532:	02061933          	mulh	s2,a2,zero
    80000536:	0008083b          	addw	a6,a6,zero
    8000053a:	4368d313          	srai	t1,a7,0x36
    8000053e:	fd9489e3          	beq	s1,s9,80000510 <main_44_0_t>
    80000542:	00072633          	sltz	a2,a4
    80000546:	40a1                	li	ra,8
    80000548:	41205fbb          	sraw	t6,zero,s2
    8000054c:	28d0f313          	andi	t1,ra,653
    80000550:	4c21                	li	s8,8
    80000552:	02061933          	mulh	s2,a2,zero
    80000556:	8cc9                	or	s1,s1,a0
    80000558:	813a                	mv	sp,a4
    8000055a:	8179                	srli	a0,a0,0x1e
    8000055c:	0cc1891b          	addiw	s2,gp,204
    80000560:	02383133          	mulhu	sp,a6,gp
    80000564:	00072633          	sltz	a2,a4
    80000568:	397d                	addiw	s2,s2,-1

000000008000056a <main_45_0_t>:
    8000056a:	8c79                	and	s0,s0,a4
    8000056c:	0f26                	slli	t5,t5,0x9
    8000056e:	e3314413          	xori	s0,sp,-461
    80000572:	01ca41b3          	xor	gp,s4,t3
    80000576:	02a9873b          	mulw	a4,s3,a0
    8000057a:	018a5313          	srli	t1,s4,0x18
    8000057e:	10ed                	addi	ra,ra,-5
    80000580:	0a6c4497          	auipc	s1,0xa6c4
    80000584:	ff80f3e3          	bgeu	ra,s8,8000056a <main_45_0_t>
    80000588:	9e81                	subw	a3,a3,s0
    8000058a:	4b9d                	li	s7,7
    8000058c:	0cc1891b          	addiw	s2,gp,204
    80000590:	e3314393          	xori	t2,sp,-461
    80000594:	4c1d                	li	s8,7

0000000080000596 <main_78_1_t>:
    80000596:	56fd                	li	a3,-1
    80000598:	8e21                	xor	a2,a2,s0
    8000059a:	1be1                	addi	s7,s7,-8
    8000059c:	28d0f213          	andi	tp,ra,653
    800005a0:	5865                	li	a6,-7
    800005a2:	4ca5                	li	s9,9

00000000800005a4 <main_78_0_t>:
    800005a4:	edf82113          	slti	sp,a6,-289
    800005a8:	0821                	addi	a6,a6,8
    800005aa:	ff980de3          	beq	a6,s9,800005a4 <main_78_0_t>
    800005ae:	023830b3          	mulhu	ra,a6,gp
    800005b2:	ff8bd2e3          	bge	s7,s8,80000596 <main_78_1_t>
    800005b6:	01b55e3b          	srlw	t3,a0,s11
    800005ba:	459d                	li	a1,7
    800005bc:	03272133          	mulhsu	sp,a4,s2
    800005c0:	01ca4133          	xor	sp,s4,t3
    800005c4:	8fa1                	xor	a5,a5,s0
    800005c6:	40dc8a3b          	subw	s4,s9,a3
    800005ca:	41205f3b          	sraw	t5,zero,s2
    800005ce:	003de633          	or	a2,s11,gp
    800005d2:	01a31093          	slli	ra,t1,0x1a
    800005d6:	0166ff33          	and	t5,a3,s6
    800005da:	8fc9                	or	a5,a5,a0
    800005dc:	8fc9                	or	a5,a5,a0
    800005de:	0a6c4417          	auipc	s0,0xa6c4
    800005e2:	28d0f213          	andi	tp,ra,653
    800005e6:	5ff9                	li	t6,-2
    800005e8:	8fa1                	xor	a5,a5,s0

00000000800005ea <main_52_0_t>:
    800005ea:	02deee3b          	remw	t3,t4,a3
    800005ee:	00d3173b          	sllw	a4,t1,a3
    800005f2:	0094bbb3          	sltu	s7,s1,s1
    800005f6:	15f5                	addi	a1,a1,-3
    800005f8:	0166ff33          	and	t5,a3,s6
    800005fc:	02fffdb3          	remu	s11,t6,a5
    80000600:	57fd                	li	a5,-1
    80000602:	fff5d4e3          	bge	a1,t6,800005ea <main_52_0_t>
    80000606:	edf82113          	slti	sp,a6,-289
    8000060a:	5af5                	li	s5,-3
    8000060c:	000725b3          	sltz	a1,a4
    80000610:	9c01                	subw	s0,s0,s0
    80000612:	80ba                	mv	ra,a4
    80000614:	000725b3          	sltz	a1,a4
    80000618:	01b55cbb          	srlw	s9,a0,s11
    8000061c:	4619                	li	a2,6

000000008000061e <main_69_0_t>:
    8000061e:	40dc8a3b          	subw	s4,s9,a3
    80000622:	002495b3          	sll	a1,s1,sp
    80000626:	57fd                	li	a5,-1
    80000628:	9cb9                	addw	s1,s1,a4
    8000062a:	0aa5                	addi	s5,s5,9 # b009 <_start-0x7fff4ff7>
    8000062c:	02a9873b          	mulw	a4,s3,a0
    80000630:	41660233          	sub	tp,a2,s6
    80000634:	feca85e3          	beq	s5,a2,8000061e <main_69_0_t>
    80000638:	8c79                	and	s0,s0,a4
    8000063a:	4211                	li	tp,4
    8000063c:	02b2ddb3          	divu	s11,t0,a1
    80000640:	00249633          	sll	a2,s1,sp
    80000644:	9e81                	subw	a3,a3,s0
    80000646:	4a91                	li	s5,4
    80000648:	57fd                	li	a5,-1
    8000064a:	02deeebb          	remw	t4,t4,a3
    8000064e:	023830b3          	mulhu	ra,a6,gp

0000000080000652 <main_46_0_t>:
    80000652:	0166ffb3          	and	t6,a3,s6
    80000656:	57fd                	li	a5,-1
    80000658:	023830b3          	mulhu	ra,a6,gp
    8000065c:	03eec9b3          	div	s3,t4,t5
    80000660:	edf82113          	slti	sp,a6,-289
    80000664:	1279                	addi	tp,tp,-2 # fffffffffffffffe <_end+0xffffffff7ffd3676>
    80000666:	03272133          	mulhsu	sp,a4,s2
    8000066a:	00d3173b          	sllw	a4,t1,a3
    8000066e:	00072633          	sltz	a2,a4
    80000672:	01e20433          	add	s0,tp,t5
    80000676:	9b7e                	add	s6,s6,t6
    80000678:	fd527de3          	bgeu	tp,s5,80000652 <main_46_0_t>
    8000067c:	41660333          	sub	t1,a2,s6
    80000680:	4589                	li	a1,2
    80000682:	01e203b3          	add	t2,tp,t5
    80000686:	57fd                	li	a5,-1
    80000688:	02061933          	mulh	s2,a2,zero
    8000068c:	8c79                	and	s0,s0,a4
    8000068e:	5eb1                	li	t4,-20
    80000690:	417dd533          	sra	a0,s11,s7
    80000694:	edf82113          	slti	sp,a6,-289

0000000080000698 <main_49_0_t>:
    80000698:	02415bbb          	divuw	s7,sp,tp
    8000069c:	00d3173b          	sllw	a4,t1,a3
    800006a0:	15f1                	addi	a1,a1,-4
    800006a2:	86d9                	srai	a3,a3,0x16
    800006a4:	01b55c3b          	srlw	s8,a0,s11
    800006a8:	0a6c4417          	auipc	s0,0xa6c4
    800006ac:	40dc8a3b          	subw	s4,s9,a3
    800006b0:	41205fbb          	sraw	t6,zero,s2
    800006b4:	57fd                	li	a5,-1
    800006b6:	0091de33          	srl	t3,gp,s1
    800006ba:	03f767b3          	rem	a5,a4,t6
    800006be:	9c01                	subw	s0,s0,s0
    800006c0:	02fffdb3          	remu	s11,t6,a5
    800006c4:	03d44bbb          	divw	s7,s0,t4
    800006c8:	00072633          	sltz	a2,a4
    800006cc:	0a6c4417          	auipc	s0,0xa6c4
    800006d0:	00249633          	sll	a2,s1,sp
    800006d4:	fdd5d2e3          	bge	a1,t4,80000698 <main_49_0_t>
    800006d8:	09730b13          	addi	s6,t1,151

00000000800006dc <main_16>:
    800006dc:	00800eef          	jal	t4,800006e4 <main_16+0x8>
    800006e0:	a025                	j	80000708 <main_16+0x2c>
    800006e2:	a809                	j	800006f4 <main_16+0x18>
    800006e4:	a01d                	j	8000070a <main_16+0x2e>
    800006e6:	a025                	j	8000070e <main_16+0x32>
    800006e8:	004000ef          	jal	800006ec <main_16+0x10>
    800006ec:	026000ef          	jal	80000712 <main_16+0x36>
    800006f0:	010000ef          	jal	80000700 <main_16+0x24>
    800006f4:	026000ef          	jal	8000071a <main_16+0x3e>
    800006f8:	bfc5                	j	800006e8 <main_16+0xc>
    800006fa:	a831                	j	80000716 <main_16+0x3a>
    800006fc:	fe7ff0ef          	jal	800006e2 <main_16+0x6>
    80000700:	004000ef          	jal	80000704 <main_16+0x28>
    80000704:	fe3ff0ef          	jal	800006e6 <main_16+0xa>
    80000708:	bfc5                	j	800006f8 <main_16+0x1c>
    8000070a:	ff1ff0ef          	jal	800006fa <main_16+0x1e>
    8000070e:	fefff0ef          	jal	800006fc <main_16+0x20>
    80000712:	fdfff0ef          	jal	800006f0 <main_16+0x14>
    80000716:	fcbff0ef          	jal	800006e0 <main_16+0x4>
    8000071a:	86d9                	srai	a3,a3,0x16

000000008000071c <main_24>:
    8000071c:	00c00eef          	jal	t4,80000728 <main_24+0xc>
    80000720:	024000ef          	jal	80000744 <main_24+0x28>
    80000724:	00c000ef          	jal	80000730 <main_24+0x14>
    80000728:	a809                	j	8000073a <main_24+0x1e>
    8000072a:	004000ef          	jal	8000072e <main_24+0x12>
    8000072e:	bfdd                	j	80000724 <main_24+0x8>
    80000730:	a009                	j	80000732 <main_24+0x16>
    80000732:	006000ef          	jal	80000738 <main_24+0x1c>
    80000736:	a809                	j	80000748 <main_24+0x2c>
    80000738:	b7e5                	j	80000720 <main_24+0x4>
    8000073a:	004000ef          	jal	8000073e <main_24+0x22>
    8000073e:	a009                	j	80000740 <main_24+0x24>
    80000740:	a009                	j	80000742 <main_24+0x26>
    80000742:	b7e5                	j	8000072a <main_24+0xe>
    80000744:	ff3ff0ef          	jal	80000736 <main_24+0x1a>
    80000748:	02fffcb3          	remu	s9,t6,a5
    8000074c:	5cdd                	li	s9,-9
    8000074e:	0cc1899b          	addiw	s3,gp,204
    80000752:	4e81                	li	t4,0
    80000754:	0091dfb3          	srl	t6,gp,s1
    80000758:	02b2de33          	divu	t3,t0,a1

000000008000075c <main_53_1_t>:
    8000075c:	02deefbb          	remw	t6,t4,a3
    80000760:	84627c37          	lui	s8,0x84627
    80000764:	0c85                	addi	s9,s9,1 # ffffffff84627001 <_end+0xffffffff045fa679>
    80000766:	01e20433          	add	s0,tp,t5
    8000076a:	03498233          	mul	tp,s3,s4
    8000076e:	4695                	li	a3,5
    80000770:	e3314413          	xori	s0,sp,-461
    80000774:	058c                	addi	a1,sp,704
    80000776:	0001                	nop
    80000778:	8c79                	and	s0,s0,a4
    8000077a:	5349                	li	t1,-14
    8000077c:	01b55dbb          	srlw	s11,a0,s11

0000000080000780 <main_53_0_t>:
    80000780:	8c79                	and	s0,s0,a4
    80000782:	018a5213          	srli	tp,s4,0x18
    80000786:	16fd                	addi	a3,a3,-1
    80000788:	02ffff33          	remu	t5,t6,a5
    8000078c:	587d                	li	a6,-1
    8000078e:	fe66d9e3          	bge	a3,t1,80000780 <main_53_0_t>
    80000792:	00249633          	sll	a2,s1,sp
    80000796:	9c01                	subw	s0,s0,s0
    80000798:	717d                	addi	sp,sp,-16
    8000079a:	fddcc1e3          	blt	s9,t4,8000075c <main_53_1_t>
    8000079e:	41660233          	sub	tp,a2,s6
    800007a2:	5971                	li	s2,-4
    800007a4:	01b55dbb          	srlw	s11,a0,s11
    800007a8:	4709                	li	a4,2
    800007aa:	587d                	li	a6,-1

00000000800007ac <main_42_1_t>:
    800007ac:	edf82113          	slti	sp,a6,-289
    800007b0:	00072633          	sltz	a2,a4
    800007b4:	0919                	addi	s2,s2,6
    800007b6:	5259                	li	tp,-10
    800007b8:	09730c13          	addi	s8,t1,151
    800007bc:	0001                	nop
    800007be:	4ea9                	li	t4,10

00000000800007c0 <main_42_0_t>:
    800007c0:	84627cb7          	lui	s9,0x84627
    800007c4:	02eb77bb          	remuw	a5,s6,a4
    800007c8:	9cb9                	addw	s1,s1,a4
    800007ca:	0211                	addi	tp,tp,4 # 4 <_start-0x7ffffffc>
    800007cc:	ffd21ae3          	bne	tp,t4,800007c0 <main_42_0_t>
    800007d0:	fce90ee3          	beq	s2,a4,800007ac <main_42_1_t>
    800007d4:	03d44cbb          	divw	s9,s0,t4

00000000800007d8 <main_37>:
    800007d8:	02600eef          	jal	t4,800007fe <main_37+0x26>
    800007dc:	014000ef          	jal	800007f0 <main_37+0x18>
    800007e0:	00c000ef          	jal	800007ec <main_37+0x14>
    800007e4:	036000ef          	jal	8000081a <main_37+0x42>
    800007e8:	028000ef          	jal	80000810 <main_37+0x38>
    800007ec:	00c000ef          	jal	800007f8 <main_37+0x20>
    800007f0:	012000ef          	jal	80000802 <main_37+0x2a>
    800007f4:	010000ef          	jal	80000804 <main_37+0x2c>
    800007f8:	a01d                	j	8000081e <main_37+0x46>
    800007fa:	a811                	j	8000080e <main_37+0x36>
    800007fc:	a039                	j	8000080a <main_37+0x32>
    800007fe:	008000ef          	jal	80000806 <main_37+0x2e>
    80000802:	a029                	j	8000080c <main_37+0x34>
    80000804:	a801                	j	80000814 <main_37+0x3c>
    80000806:	ff7ff0ef          	jal	800007fc <main_37+0x24>
    8000080a:	bfc5                	j	800007fa <main_37+0x22>
    8000080c:	a031                	j	80000818 <main_37+0x40>
    8000080e:	b7dd                	j	800007f4 <main_37+0x1c>
    80000810:	fcdff0ef          	jal	800007dc <main_37+0x4>
    80000814:	fd1ff0ef          	jal	800007e4 <main_37+0xc>
    80000818:	b7e1                	j	800007e0 <main_37+0x8>
    8000081a:	fcfff0ef          	jal	800007e8 <main_37+0x10>
    8000081e:	9d01                	subw	a0,a0,s0

0000000080000820 <main_19>:
    80000820:	00800eef          	jal	t4,80000828 <main_19+0x8>
    80000824:	a819                	j	8000083a <main_19+0x1a>
    80000826:	a039                	j	80000834 <main_19+0x14>
    80000828:	010000ef          	jal	80000838 <main_19+0x18>
    8000082c:	012000ef          	jal	8000083e <main_19+0x1e>
    80000830:	ff5ff0ef          	jal	80000824 <main_19+0x4>
    80000834:	ff9ff0ef          	jal	8000082c <main_19+0xc>
    80000838:	a029                	j	80000842 <main_19+0x22>
    8000083a:	016000ef          	jal	80000850 <main_19+0x30>
    8000083e:	008000ef          	jal	80000846 <main_19+0x26>
    80000842:	006000ef          	jal	80000848 <main_19+0x28>
    80000846:	b7ed                	j	80000830 <main_19+0x10>
    80000848:	004000ef          	jal	8000084c <main_19+0x2c>
    8000084c:	fdbff0ef          	jal	80000826 <main_19+0x6>
    80000850:	02fffcb3          	remu	s9,t6,a5
    80000854:	4b9d                	li	s7,7
    80000856:	4939                	li	s2,14
    80000858:	02deeebb          	remw	t4,t4,a3

000000008000085c <main_79_0_t>:
    8000085c:	9d01                	subw	a0,a0,s0
    8000085e:	03498233          	mul	tp,s3,s4
    80000862:	0cc1881b          	addiw	a6,gp,204
    80000866:	0ba5                	addi	s7,s7,9
    80000868:	01a31093          	slli	ra,t1,0x1a
    8000086c:	023830b3          	mulhu	ra,a6,gp
    80000870:	84627c37          	lui	s8,0x84627
    80000874:	ff2be4e3          	bltu	s7,s2,8000085c <main_79_0_t>
    80000878:	93a6ba93          	sltiu	s5,a3,-1734
    8000087c:	4215                	li	tp,5
    8000087e:	8179                	srli	a0,a0,0x1e
    80000880:	03272133          	mulhsu	sp,a4,s2
    80000884:	0588                	addi	a0,sp,704
    80000886:	4c05                	li	s8,1
    80000888:	0588                	addi	a0,sp,704
    8000088a:	6a2d                	lui	s4,0xb

000000008000088c <main_41_0_t>:
    8000088c:	0094bbb3          	sltu	s7,s1,s1
    80000890:	03f767b3          	rem	a5,a4,t6
    80000894:	02415bbb          	divuw	s7,sp,tp
    80000898:	01a31093          	slli	ra,t1,0x1a
    8000089c:	03eec9b3          	div	s3,t4,t5
    800008a0:	018a5313          	srli	t1,s4,0x18
    800008a4:	01a31093          	slli	ra,t1,0x1a
    800008a8:	1271                	addi	tp,tp,-4 # fffffffffffffffc <_end+0xffffffff7ffd3674>
    800008aa:	41205fbb          	sraw	t6,zero,s2
    800008ae:	fd825fe3          	bge	tp,s8,8000088c <main_41_0_t>
    800008b2:	417dd5b3          	sra	a1,s11,s7
    800008b6:	4d95                	li	s11,5
    800008b8:	02ffff33          	remu	t5,t6,a5
    800008bc:	4589                	li	a1,2
    800008be:	00249733          	sll	a4,s1,sp
    800008c2:	0b26                	slli	s6,s6,0x9
    800008c4:	6b2d                	lui	s6,0xb
    800008c6:	02415cbb          	divuw	s9,sp,tp

00000000800008ca <main_43_1_t>:
    800008ca:	0a6c4497          	auipc	s1,0xa6c4
    800008ce:	1dfd                	addi	s11,s11,-1
    800008d0:	717d                	addi	sp,sp,-16
    800008d2:	4699                	li	a3,6
    800008d4:	0580                	addi	s0,sp,704
    800008d6:	01ca4133          	xor	sp,s4,t3
    800008da:	0001                	nop
    800008dc:	417dd633          	sra	a2,s11,s7
    800008e0:	0a6c4497          	auipc	s1,0xa6c4
    800008e4:	000b579b          	srliw	a5,s6,0x0
    800008e8:	02b2deb3          	divu	t4,t0,a1
    800008ec:	01a31093          	slli	ra,t1,0x1a
    800008f0:	00249733          	sll	a4,s1,sp
    800008f4:	4315                	li	t1,5
    800008f6:	3a7d                	addiw	s4,s4,-1 # afff <_start-0x7fff5001>
    800008f8:	8b59                	andi	a4,a4,22
    800008fa:	00ce1e9b          	slliw	t4,t3,0xc

00000000800008fe <main_43_0_t>:
    800008fe:	8f49                	or	a4,a4,a0
    80000900:	16f9                	addi	a3,a3,-2
    80000902:	84627cb7          	lui	s9,0x84627
    80000906:	fe66dce3          	bge	a3,t1,800008fe <main_43_0_t>
    8000090a:	02eb783b          	remuw	a6,s6,a4
    8000090e:	0b26                	slli	s6,s6,0x9
    80000910:	9c81                	subw	s1,s1,s0
    80000912:	02eb783b          	remuw	a6,s6,a4
    80000916:	fabddae3          	bge	s11,a1,800008ca <main_43_1_t>
    8000091a:	0580                	addi	s0,sp,704

000000008000091c <main_3>:
    8000091c:	01600eef          	jal	t4,80000932 <main_3+0x16>
    80000920:	a839                	j	8000093e <main_3+0x22>
    80000922:	fffff0ef          	jal	80000920 <main_3+0x4>
    80000926:	ffdff0ef          	jal	80000922 <main_3+0x6>
    8000092a:	01e000ef          	jal	80000948 <main_3+0x2c>
    8000092e:	016000ef          	jal	80000944 <main_3+0x28>
    80000932:	a029                	j	8000093c <main_3+0x20>
    80000934:	a019                	j	8000093a <main_3+0x1e>
    80000936:	00a000ef          	jal	80000940 <main_3+0x24>
    8000093a:	a829                	j	80000954 <main_3+0x38>
    8000093c:	bfed                	j	80000936 <main_3+0x1a>
    8000093e:	a809                	j	80000950 <main_3+0x34>
    80000940:	00a000ef          	jal	8000094a <main_3+0x2e>
    80000944:	ff1ff0ef          	jal	80000934 <main_3+0x18>
    80000948:	bff9                	j	80000926 <main_3+0xa>
    8000094a:	b7c5                	j	8000092a <main_3+0xe>
    8000094c:	fe3ff0ef          	jal	8000092e <main_3+0x12>
    80000950:	ffdff0ef          	jal	8000094c <main_3+0x30>
    80000954:	9d01                	subw	a0,a0,s0

0000000080000956 <main_35>:
    80000956:	02a00eef          	jal	t4,80000980 <main_35+0x2a>
    8000095a:	a031                	j	80000966 <main_35+0x10>
    8000095c:	028000ef          	jal	80000984 <main_35+0x2e>
    80000960:	01e000ef          	jal	8000097e <main_35+0x28>
    80000964:	a011                	j	80000968 <main_35+0x12>
    80000966:	a039                	j	80000974 <main_35+0x1e>
    80000968:	00e000ef          	jal	80000976 <main_35+0x20>
    8000096c:	a039                	j	8000097a <main_35+0x24>
    8000096e:	a009                	j	80000970 <main_35+0x1a>
    80000970:	fedff0ef          	jal	8000095c <main_35+0x6>
    80000974:	bfc5                	j	80000964 <main_35+0xe>
    80000976:	ff9ff0ef          	jal	8000096e <main_35+0x18>
    8000097a:	fe7ff0ef          	jal	80000960 <main_35+0xa>
    8000097e:	bff1                	j	8000095a <main_35+0x4>
    80000980:	fedff0ef          	jal	8000096c <main_35+0x16>
    80000984:	01e203b3          	add	t2,tp,t5
    80000988:	4519                	li	a0,6
    8000098a:	000b571b          	srliw	a4,s6,0x0
    8000098e:	03d44c3b          	divw	s8,s0,t4
    80000992:	41660233          	sub	tp,a2,s6
    80000996:	02deeebb          	remw	t4,t4,a3
    8000099a:	43b5                	li	t2,13
    8000099c:	39fd                	addiw	s3,s3,-1
    8000099e:	0cc1899b          	addiw	s3,gp,204
    800009a2:	93a6bb13          	sltiu	s6,a3,-1734
    800009a6:	41660233          	sub	tp,a2,s6

00000000800009aa <main_50_0_t>:
    800009aa:	8e0d                	sub	a2,a2,a1
    800009ac:	39fd                	addiw	s3,s3,-1
    800009ae:	5be3ea93          	ori	s5,t2,1470
    800009b2:	40dc8abb          	subw	s5,s9,a3
    800009b6:	050d                	addi	a0,a0,3
    800009b8:	717d                	addi	sp,sp,-16
    800009ba:	00d317bb          	sllw	a5,t1,a3
    800009be:	02eb77bb          	remuw	a5,s6,a4
    800009c2:	00ce1d9b          	slliw	s11,t3,0xc
    800009c6:	84627c37          	lui	s8,0x84627
    800009ca:	8c0d                	sub	s0,s0,a1
    800009cc:	28d0f213          	andi	tp,ra,653
    800009d0:	6aad                	lui	s5,0xb
    800009d2:	9cb9                	addw	s1,s1,a4
    800009d4:	417dd633          	sra	a2,s11,s7
    800009d8:	03272133          	mulhsu	sp,a4,s2
    800009dc:	020619b3          	mulh	s3,a2,zero
    800009e0:	80ba                	mv	ra,a4
    800009e2:	fc7544e3          	blt	a0,t2,800009aa <main_50_0_t>
    800009e6:	0cc1899b          	addiw	s3,gp,204
    800009ea:	4605                	li	a2,1
    800009ec:	4525                	li	a0,9

00000000800009ee <main_67_1_t>:
    800009ee:	02415dbb          	divuw	s11,sp,tp
    800009f2:	0611                	addi	a2,a2,4
    800009f4:	59d9                	li	s3,-10
    800009f6:	5969                	li	s2,-6

00000000800009f8 <main_67_0_t>:
    800009f8:	03272133          	mulhsu	sp,a4,s2
    800009fc:	099d                	addi	s3,s3,7
    800009fe:	ff29cde3          	blt	s3,s2,800009f8 <main_67_0_t>
    80000a02:	fea666e3          	bltu	a2,a0,800009ee <main_67_1_t>
    80000a06:	03d44dbb          	divw	s11,s0,t4
    80000a0a:	53fd                	li	t2,-1
    80000a0c:	93a6bb93          	sltiu	s7,a3,-1734
    80000a10:	0166fab3          	and	s5,a3,s6
    80000a14:	4120593b          	sraw	s2,zero,s2
    80000a18:	5e41                	li	t3,-16

0000000080000a1a <main_47_1_t>:
    80000a1a:	8c79                	and	s0,s0,a4
    80000a1c:	e3314493          	xori	s1,sp,-461
    80000a20:	13e9                	addi	t2,t2,-6
    80000a22:	01a31113          	slli	sp,t1,0x1a
    80000a26:	01a31113          	slli	sp,t1,0x1a
    80000a2a:	5579                	li	a0,-2
    80000a2c:	0001                	nop
    80000a2e:	03498333          	mul	t1,s3,s4
    80000a32:	86d9                	srai	a3,a3,0x16
    80000a34:	0a6c4597          	auipc	a1,0xa6c4
    80000a38:	8279                	srli	a2,a2,0x1e
    80000a3a:	41660333          	sub	t1,a2,s6
    80000a3e:	0094bcb3          	sltu	s9,s1,s1
    80000a42:	8c0d                	sub	s0,s0,a1
    80000a44:	032721b3          	mulhsu	gp,a4,s2

0000000080000a48 <main_47_0_t>:
    80000a48:	02a9883b          	mulw	a6,s3,a0
    80000a4c:	0509                	addi	a0,a0,2
    80000a4e:	07a9                	addi	a5,a5,10
    80000a50:	dd65                	beqz	a0,80000a48 <main_47_0_t>
    80000a52:	01ca41b3          	xor	gp,s4,t3
    80000a56:	03498333          	mul	t1,s3,s4
    80000a5a:	0590                	addi	a2,sp,704
    80000a5c:	000b579b          	srliw	a5,s6,0x0
    80000a60:	9b7e                	add	s6,s6,t6
    80000a62:	0590                	addi	a2,sp,704
    80000a64:	03eecab3          	div	s5,t4,t5
    80000a68:	39fd                	addiw	s3,s3,-1
    80000a6a:	fbc3d8e3          	bge	t2,t3,80000a1a <main_47_1_t>
    80000a6e:	84627cb7          	lui	s9,0x84627
    80000a72:	5ee9                	li	t4,-6
    80000a74:	000726b3          	sltz	a3,a4
    80000a78:	4619                	li	a2,6

0000000080000a7a <main_48_1_t>:
    80000a7a:	04a9                	addi	s1,s1,10 # 8a6c48ea <_end+0xa697f62>
    80000a7c:	41bb519b          	sraiw	gp,s6,0x1b
    80000a80:	0ea5                	addi	t4,t4,9
    80000a82:	586d                	li	a6,-5
    80000a84:	8ec9                	or	a3,a3,a0
    80000a86:	9c81                	subw	s1,s1,s0
    80000a88:	03f76933          	rem	s2,a4,t6
    80000a8c:	000726b3          	sltz	a3,a4
    80000a90:	01b55dbb          	srlw	s11,a0,s11
    80000a94:	45bd                	li	a1,15
    80000a96:	09730c13          	addi	s8,t1,151

0000000080000a9a <main_48_0_t>:
    80000a9a:	01e203b3          	add	t2,tp,t5
    80000a9e:	018a5213          	srli	tp,s4,0x18
    80000aa2:	00ce1e1b          	slliw	t3,t3,0xc
    80000aa6:	080d                	addi	a6,a6,3
    80000aa8:	40dc8b3b          	subw	s6,s9,a3
    80000aac:	0b26                	slli	s6,s6,0x9
    80000aae:	023830b3          	mulhu	ra,a6,gp
    80000ab2:	feb844e3          	blt	a6,a1,80000a9a <main_48_0_t>
    80000ab6:	fccee2e3          	bltu	t4,a2,80000a7a <main_48_1_t>
    80000aba:	000809bb          	addw	s3,a6,zero
    80000abe:	5675                	li	a2,-3
    80000ac0:	02b2dcb3          	divu	s9,t0,a1
    80000ac4:	5e59                	li	t3,-10
    80000ac6:	0091deb3          	srl	t4,gp,s1

0000000080000aca <main_63_0_t>:
    80000aca:	000725b3          	sltz	a1,a4
    80000ace:	1665                	addi	a2,a2,-7
    80000ad0:	717d                	addi	sp,sp,-16
    80000ad2:	ffc60ce3          	beq	a2,t3,80000aca <main_63_0_t>
    80000ad6:	9c01                	subw	s0,s0,s0

0000000080000ad8 <main_11>:
    80000ad8:	00400eef          	jal	t4,80000adc <main_11+0x4>
    80000adc:	a025                	j	80000b04 <main_11+0x2c>
    80000ade:	012000ef          	jal	80000af0 <main_11+0x18>
    80000ae2:	00c000ef          	jal	80000aee <main_11+0x16>
    80000ae6:	00e000ef          	jal	80000af4 <main_11+0x1c>
    80000aea:	bff5                	j	80000ae6 <main_11+0xe>
    80000aec:	bffd                	j	80000aea <main_11+0x12>
    80000aee:	a039                	j	80000afc <main_11+0x24>
    80000af0:	00e000ef          	jal	80000afe <main_11+0x26>
    80000af4:	012000ef          	jal	80000b06 <main_11+0x2e>
    80000af8:	fe7ff0ef          	jal	80000ade <main_11+0x6>
    80000afc:	a011                	j	80000b00 <main_11+0x28>
    80000afe:	a029                	j	80000b08 <main_11+0x30>
    80000b00:	ff9ff0ef          	jal	80000af8 <main_11+0x20>
    80000b04:	b7e5                	j	80000aec <main_11+0x14>
    80000b06:	bff1                	j	80000ae2 <main_11+0xa>
    80000b08:	01e203b3          	add	t2,tp,t5
    80000b0c:	50fd                	li	ra,-1
    80000b0e:	28d0f313          	andi	t1,ra,653
    80000b12:	e3314413          	xori	s0,sp,-461
    80000b16:	0001                	nop
    80000b18:	4489                	li	s1,2
    80000b1a:	717d                	addi	sp,sp,-16
    80000b1c:	813a                	mv	sp,a4

0000000080000b1e <main_56_0_t>:
    80000b1e:	39fd                	addiw	s3,s3,-1
    80000b20:	93a6bb13          	sltiu	s6,a3,-1734
    80000b24:	00a5                	addi	ra,ra,9
    80000b26:	39fd                	addiw	s3,s3,-1
    80000b28:	01b55cbb          	srlw	s9,a0,s11
    80000b2c:	0091deb3          	srl	t4,gp,s1
    80000b30:	edf82193          	slti	gp,a6,-289
    80000b34:	41205fbb          	sraw	t6,zero,s2
    80000b38:	0001                	nop
    80000b3a:	02deeebb          	remw	t4,t4,a3
    80000b3e:	01a31113          	slli	sp,t1,0x1a
    80000b42:	fc90eee3          	bltu	ra,s1,80000b1e <main_56_0_t>
    80000b46:	0f26                	slli	t5,t5,0x9
    80000b48:	4b11                	li	s6,4
    80000b4a:	40dc8a3b          	subw	s4,s9,a3
    80000b4e:	93a6ba93          	sltiu	s5,a3,-1734
    80000b52:	01ca4133          	xor	sp,s4,t3
    80000b56:	6a2d                	lui	s4,0xb
    80000b58:	4989                	li	s3,2
    80000b5a:	4368d313          	srai	t1,a7,0x36
    80000b5e:	8d8d                	sub	a1,a1,a1
    80000b60:	03498233          	mul	tp,s3,s4
    80000b64:	0a6c4417          	auipc	s0,0xa6c4
    80000b68:	0001                	nop
    80000b6a:	000725b3          	sltz	a1,a4
    80000b6e:	000725b3          	sltz	a1,a4
    80000b72:	02415c3b          	divuw	s8,sp,tp

0000000080000b76 <main_59_0_t>:
    80000b76:	02fffe33          	remu	t3,t6,a5
    80000b7a:	93a6ba93          	sltiu	s5,a3,-1734
    80000b7e:	6a2d                	lui	s4,0xb
    80000b80:	28d0f213          	andi	tp,ra,653
    80000b84:	0166ffb3          	and	t6,a3,s6
    80000b88:	09730b93          	addi	s7,t1,151
    80000b8c:	577d                	li	a4,-1
    80000b8e:	40dc8a3b          	subw	s4,s9,a3
    80000b92:	8d8d                	sub	a1,a1,a1
    80000b94:	0001                	nop
    80000b96:	00d316bb          	sllw	a3,t1,a3
    80000b9a:	03498233          	mul	tp,s3,s4
    80000b9e:	8cc9                	or	s1,s1,a0
    80000ba0:	1b6d                	addi	s6,s6,-5 # affb <_start-0x7fff5005>
    80000ba2:	fd3b5ae3          	bge	s6,s3,80000b76 <main_59_0_t>
    80000ba6:	edf82113          	slti	sp,a6,-289
    80000baa:	5a6d                	li	s4,-5
    80000bac:	03eec9b3          	div	s3,t4,t5
    80000bb0:	002495b3          	sll	a1,s1,sp
    80000bb4:	88d9                	andi	s1,s1,22
    80000bb6:	57fd                	li	a5,-1
    80000bb8:	8c0d                	sub	s0,s0,a1
    80000bba:	6aad                	lui	s5,0xb
    80000bbc:	01ca4133          	xor	sp,s4,t3
    80000bc0:	03eec9b3          	div	s3,t4,t5
    80000bc4:	5be3ea93          	ori	s5,t2,1470
    80000bc8:	4751                	li	a4,20
    80000bca:	8fa1                	xor	a5,a5,s0
    80000bcc:	8fc9                	or	a5,a5,a0
    80000bce:	4368d313          	srai	t1,a7,0x36
    80000bd2:	8fc9                	or	a5,a5,a0
    80000bd4:	80ba                	mv	ra,a4
    80000bd6:	03d44c3b          	divw	s8,s0,t4
    80000bda:	417dd533          	sra	a0,s11,s7

0000000080000bde <main_75_0_t>:
    80000bde:	397d                	addiw	s2,s2,-1
    80000be0:	e3314393          	xori	t2,sp,-461
    80000be4:	018a5213          	srli	tp,s4,0x18
    80000be8:	417dd533          	sra	a0,s11,s7
    80000bec:	41bb519b          	sraiw	gp,s6,0x1b
    80000bf0:	02061933          	mulh	s2,a2,zero
    80000bf4:	0a0d                	addi	s4,s4,3 # b003 <_start-0x7fff4ffd>
    80000bf6:	018a5213          	srli	tp,s4,0x18
    80000bfa:	feea42e3          	blt	s4,a4,80000bde <main_75_0_t>
    80000bfe:	000b561b          	srliw	a2,s6,0x0
    80000c02:	0cc1881b          	addiw	a6,gp,204
    80000c06:	3f7d                	addiw	t5,t5,-1
    80000c08:	0094bb33          	sltu	s6,s1,s1
    80000c0c:	3f7d                	addiw	t5,t5,-1
    80000c0e:	04a9                	addi	s1,s1,10
    80000c10:	0cc1881b          	addiw	a6,gp,204
    80000c14:	01ca4133          	xor	sp,s4,t3
    80000c18:	3f7d                	addiw	t5,t5,-1
    80000c1a:	03eec933          	div	s2,t4,t5
    80000c1e:	8e49                	or	a2,a2,a0
    80000c20:	02deedbb          	remw	s11,t4,a3
    80000c24:	01a31093          	slli	ra,t1,0x1a
    80000c28:	69ad                	lui	s3,0xb
    80000c2a:	84627b37          	lui	s6,0x84627
    80000c2e:	01ca4133          	xor	sp,s4,t3
    80000c32:	02d04e63          	bgtz	a3,80000c6e <main_75_0_t+0x90>
    80000c36:	000725b3          	sltz	a1,a4
    80000c3a:	09730a93          	addi	s5,t1,151
    80000c3e:	41bb519b          	sraiw	gp,s6,0x1b
    80000c42:	002495b3          	sll	a1,s1,sp
    80000c46:	41bb519b          	sraiw	gp,s6,0x1b
    80000c4a:	0091ddb3          	srl	s11,gp,s1
    80000c4e:	40dc89bb          	subw	s3,s9,a3
    80000c52:	28d0f213          	andi	tp,ra,653
    80000c56:	82f9                	srli	a3,a3,0x1e
    80000c58:	09730a93          	addi	s5,t1,151
    80000c5c:	0094bb33          	sltu	s6,s1,s1
    80000c60:	8c21                	xor	s0,s0,s0
    80000c62:	023830b3          	mulhu	ra,a6,gp
    80000c66:	02d04963          	bgtz	a3,80000c98 <main_75_0_t+0xba>
    80000c6a:	003de5b3          	or	a1,s11,gp
    80000c6e:	417dd533          	sra	a0,s11,s7
    80000c72:	0001                	nop
    80000c74:	8e49                	or	a2,a2,a0
    80000c76:	01b60263          	beq	a2,s11,80000c7a <main_75_0_t+0x9c>
    80000c7a:	8c21                	xor	s0,s0,s0
    80000c7c:	41205ebb          	sraw	t4,zero,s2
    80000c80:	89d9                	andi	a1,a1,22
    80000c82:	09730a93          	addi	s5,t1,151
    80000c86:	03272133          	mulhsu	sp,a4,s2
    80000c8a:	03b95c63          	bge	s2,s11,80000cc2 <main_75_0_t+0xe4>
    80000c8e:	003de5b3          	or	a1,s11,gp
    80000c92:	0588                	addi	a0,sp,704
    80000c94:	0085e463          	bltu	a1,s0,80000c9c <main_75_0_t+0xbe>
    80000c98:	417dd533          	sra	a0,s11,s7
    80000c9c:	0aa6                	slli	s5,s5,0x9
    80000c9e:	41bb519b          	sraiw	gp,s6,0x1b
    80000ca2:	e3314393          	xori	t2,sp,-461
    80000ca6:	5be3e993          	ori	s3,t2,1470
    80000caa:	02a986bb          	mulw	a3,s3,a0
    80000cae:	02a986bb          	mulw	a3,s3,a0
    80000cb2:	03b60d63          	beq	a2,s11,80000cec <main_75_0_t+0x10e>
    80000cb6:	0091ddb3          	srl	s11,gp,s1
    80000cba:	4368d313          	srai	t1,a7,0x36
    80000cbe:	28d0f213          	andi	tp,ra,653
    80000cc2:	0085e863          	bltu	a1,s0,80000cd2 <main_75_0_t+0xf4>
    80000cc6:	8e49                	or	a2,a2,a0
    80000cc8:	8c79                	and	s0,s0,a4
    80000cca:	40dc89bb          	subw	s3,s9,a3
    80000cce:	02a986bb          	mulw	a3,s3,a0
    80000cd2:	8e49                	or	a2,a2,a0
    80000cd4:	02415b3b          	divuw	s6,sp,tp
    80000cd8:	5be3e993          	ori	s3,t2,1470
    80000cdc:	edf82113          	slti	sp,a6,-289
    80000ce0:	93a6ba13          	sltiu	s4,a3,-1734
    80000ce4:	03eec933          	div	s2,t4,t5
    80000ce8:	40dc89bb          	subw	s3,s9,a3
    80000cec:	018a5213          	srli	tp,s4,0x18
    80000cf0:	0001                	nop
    80000cf2:	e715                	bnez	a4,80000d1e <main_75_0_t+0x140>
    80000cf4:	5be3e993          	ori	s3,t2,1470
    80000cf8:	03272133          	mulhsu	sp,a4,s2
    80000cfc:	05b60463          	beq	a2,s11,80000d44 <main_75_0_t+0x166>
    80000d00:	0cc1881b          	addiw	a6,gp,204
    80000d04:	02b2dc33          	divu	s8,t0,a1
    80000d08:	09730a93          	addi	s5,t1,151
    80000d0c:	9d01                	subw	a0,a0,s0
    80000d0e:	e3314393          	xori	t2,sp,-461
    80000d12:	03eec933          	div	s2,t4,t5
    80000d16:	84627b37          	lui	s6,0x84627
    80000d1a:	01ca4133          	xor	sp,s4,t3
    80000d1e:	000725b3          	sltz	a1,a4
    80000d22:	84627b37          	lui	s6,0x84627
    80000d26:	9a7e                	add	s4,s4,t6
    80000d28:	0001                	nop
    80000d2a:	00ce1c1b          	slliw	s8,t3,0xc
    80000d2e:	00d04f63          	bgtz	a3,80000d4c <main_75_0_t+0x16e>
    80000d32:	0a6c4417          	auipc	s0,0xa6c4
    80000d36:	023830b3          	mulhu	ra,a6,gp
    80000d3a:	05b60363          	beq	a2,s11,80000d80 <main_75_0_t+0x1a2>
    80000d3e:	717d                	addi	sp,sp,-16
    80000d40:	02a986bb          	mulw	a3,s3,a0
    80000d44:	02a986bb          	mulw	a3,s3,a0
    80000d48:	0cc1881b          	addiw	a6,gp,204
    80000d4c:	023a9663          	bne	s5,gp,80000d78 <main_75_0_t+0x19a>
    80000d50:	0091ddb3          	srl	s11,gp,s1
    80000d54:	02deedbb          	remw	s11,t4,a3
    80000d58:	93a6ba13          	sltiu	s4,a3,-1734
    80000d5c:	000b561b          	srliw	a2,s6,0x0
    80000d60:	8a3a                	mv	s4,a4
    80000d62:	023830b3          	mulhu	ra,a6,gp
    80000d66:	0588                	addi	a0,sp,704
    80000d68:	02a986bb          	mulw	a3,s3,a0
    80000d6c:	03d44f3b          	divw	t5,s0,t4
    80000d70:	417dd533          	sra	a0,s11,s7
    80000d74:	8c79                	and	s0,s0,a4
    80000d76:	c299                	beqz	a3,80000d7c <main_75_0_t+0x19e>
    80000d78:	09b60d63          	beq	a2,s11,80000e12 <main_64_0_t+0x42>
    80000d7c:	00ce1c1b          	slliw	s8,t3,0xc
    80000d80:	003de5b3          	or	a1,s11,gp
    80000d84:	8f8d                	sub	a5,a5,a1
    80000d86:	86d9                	srai	a3,a3,0x16
    80000d88:	4368d313          	srai	t1,a7,0x36
    80000d8c:	86d9                	srai	a3,a3,0x16
    80000d8e:	03f76733          	rem	a4,a4,t6
    80000d92:	8c79                	and	s0,s0,a4
    80000d94:	9db9                	addw	a1,a1,a4
    80000d96:	06d04963          	bgtz	a3,80000e08 <main_64_0_t+0x38>
    80000d9a:	000725b3          	sltz	a1,a4
    80000d9e:	000725b3          	sltz	a1,a4
    80000da2:	4a21                	li	s4,8
    80000da4:	397d                	addiw	s2,s2,-1
    80000da6:	4ca1                	li	s9,8
    80000da8:	6aad                	lui	s5,0xb

0000000080000daa <main_64_1_t>:
    80000daa:	8b3a                	mv	s6,a4
    80000dac:	1a79                	addi	s4,s4,-2
    80000dae:	02415dbb          	divuw	s11,sp,tp
    80000db2:	02ffff33          	remu	t5,t6,a5
    80000db6:	002496b3          	sll	a3,s1,sp
    80000dba:	4409                	li	s0,2
    80000dbc:	8fc9                	or	a5,a5,a0
    80000dbe:	0001                	nop
    80000dc0:	09730c13          	addi	s8,t1,151
    80000dc4:	01ca41b3          	xor	gp,s4,t3
    80000dc8:	0fa6                	slli	t6,t6,0x9
    80000dca:	003de6b3          	or	a3,s11,gp
    80000dce:	8279                	srli	a2,a2,0x1e

0000000080000dd0 <main_64_0_t>:
    80000dd0:	40dc8b3b          	subw	s6,s9,a3
    80000dd4:	0001                	nop
    80000dd6:	147d                	addi	s0,s0,-1 # 8a6c4d31 <_end+0xa6983a9>
    80000dd8:	0008093b          	addw	s2,a6,zero
    80000ddc:	f875                	bnez	s0,80000dd0 <main_64_0_t>
    80000dde:	0091dfb3          	srl	t6,gp,s1
    80000de2:	00ce1e9b          	slliw	t4,t3,0xc
    80000de6:	9b7e                	add	s6,s6,t6
    80000de8:	0001                	nop
    80000dea:	03d44dbb          	divw	s11,s0,t4
    80000dee:	09730c13          	addi	s8,t1,151
    80000df2:	41bb521b          	sraiw	tp,s6,0x1b
    80000df6:	0590                	addi	a2,sp,704
    80000df8:	8c8d                	sub	s1,s1,a1
    80000dfa:	fb9a78e3          	bgeu	s4,s9,80000daa <main_64_1_t>
    80000dfe:	4368d393          	srai	t2,a7,0x36
    80000e02:	02eb76bb          	remuw	a3,s6,a4
    80000e06:	86d9                	srai	a3,a3,0x16
    80000e08:	8a3a                	mv	s4,a4
    80000e0a:	28d0f213          	andi	tp,ra,653
    80000e0e:	01b55bbb          	srlw	s7,a0,s11
    80000e12:	02a986bb          	mulw	a3,s3,a0
    80000e16:	0285e363          	bltu	a1,s0,80000e3c <main_64_0_t+0x6c>
    80000e1a:	28d0f213          	andi	tp,ra,653
    80000e1e:	41205ebb          	sraw	t4,zero,s2
    80000e22:	40dc89bb          	subw	s3,s9,a3
    80000e26:	84627b37          	lui	s6,0x84627
    80000e2a:	02061833          	mulh	a6,a2,zero
    80000e2e:	9a7e                	add	s4,s4,t6
    80000e30:	03498fb3          	mul	t6,s3,s4
    80000e34:	93a6ba13          	sltiu	s4,a3,-1734
    80000e38:	0a6c4417          	auipc	s0,0xa6c4
    80000e3c:	82f9                	srli	a3,a3,0x1e
    80000e3e:	82f9                	srli	a3,a3,0x1e
    80000e40:	0001                	nop
    80000e42:	03b60e63          	beq	a2,s11,80000e7e <main_64_0_t+0xae>
    80000e46:	0094bb33          	sltu	s6,s1,s1
    80000e4a:	000807bb          	addw	a5,a6,zero
    80000e4e:	9d01                	subw	a0,a0,s0
    80000e50:	41660233          	sub	tp,a2,s6
    80000e54:	8f8d                	sub	a5,a5,a1
    80000e56:	03272133          	mulhsu	sp,a4,s2
    80000e5a:	40dc89bb          	subw	s3,s9,a3
    80000e5e:	9d01                	subw	a0,a0,s0
    80000e60:	04a9                	addi	s1,s1,10
    80000e62:	41bb519b          	sraiw	gp,s6,0x1b
    80000e66:	009bf663          	bgeu	s7,s1,80000e72 <main_64_0_t+0xa2>
    80000e6a:	018a5213          	srli	tp,s4,0x18
    80000e6e:	e3314393          	xori	t2,sp,-461
    80000e72:	86d9                	srai	a3,a3,0x16
    80000e74:	89d9                	andi	a1,a1,22
    80000e76:	8e49                	or	a2,a2,a0
    80000e78:	9a7e                	add	s4,s4,t6
    80000e7a:	01b60663          	beq	a2,s11,80000e86 <main_64_0_t+0xb6>
    80000e7e:	417dd533          	sra	a0,s11,s7
    80000e82:	01b95363          	bge	s2,s11,80000e88 <main_64_0_t+0xb8>
    80000e86:	717d                	addi	sp,sp,-16
    80000e88:	000725b3          	sltz	a1,a4
    80000e8c:	03f76733          	rem	a4,a4,t6
    80000e90:	09730a93          	addi	s5,t1,151
    80000e94:	56fd                	li	a3,-1
    80000e96:	000807bb          	addw	a5,a6,zero
    80000e9a:	023830b3          	mulhu	ra,a6,gp
    80000e9e:	0285e963          	bltu	a1,s0,80000ed0 <main_64_0_t+0x100>
    80000ea2:	9a7e                	add	s4,s4,t6
    80000ea4:	3f7d                	addiw	t5,t5,-1
    80000ea6:	02b2dc33          	divu	s8,t0,a1
    80000eaa:	0cc1881b          	addiw	a6,gp,204
    80000eae:	0001                	nop
    80000eb0:	edf82113          	slti	sp,a6,-289
    80000eb4:	41660233          	sub	tp,a2,s6
    80000eb8:	01e203b3          	add	t2,tp,t5
    80000ebc:	03f76733          	rem	a4,a4,t6
    80000ec0:	8f8d                	sub	a5,a5,a1
    80000ec2:	8e49                	or	a2,a2,a0
    80000ec4:	8a3a                	mv	s4,a4
    80000ec6:	41660233          	sub	tp,a2,s6
    80000eca:	000807bb          	addw	a5,a6,zero
    80000ece:	9d01                	subw	a0,a0,s0
    80000ed0:	0166feb3          	and	t4,a3,s6
    80000ed4:	0091ddb3          	srl	s11,gp,s1
    80000ed8:	0166feb3          	and	t4,a3,s6
    80000edc:	01b55bbb          	srlw	s7,a0,s11
    80000ee0:	03f76733          	rem	a4,a4,t6
    80000ee4:	02415b3b          	divuw	s6,sp,tp
    80000ee8:	40dc89bb          	subw	s3,s9,a3
    80000eec:	5be3e993          	ori	s3,t2,1470
    80000ef0:	01b95f63          	bge	s2,s11,80000f0e <main_64_0_t+0x13e>
    80000ef4:	8f8d                	sub	a5,a5,a1
    80000ef6:	00d316bb          	sllw	a3,t1,a3
    80000efa:	01e203b3          	add	t2,tp,t5
    80000efe:	3f7d                	addiw	t5,t5,-1
    80000f00:	41205ebb          	sraw	t4,zero,s2
    80000f04:	e3314393          	xori	t2,sp,-461
    80000f08:	8c21                	xor	s0,s0,s0
    80000f0a:	0094bb33          	sltu	s6,s1,s1
    80000f0e:	3f7d                	addiw	t5,t5,-1
    80000f10:	02d04e63          	bgtz	a3,80000f4c <main_64_0_t+0x17c>
    80000f14:	00ce1c1b          	slliw	s8,t3,0xc
    80000f18:	41660233          	sub	tp,a2,s6
    80000f1c:	84627b37          	lui	s6,0x84627
    80000f20:	56fd                	li	a3,-1
    80000f22:	04a9                	addi	s1,s1,10
    80000f24:	8f8d                	sub	a5,a5,a1
    80000f26:	04a9                	addi	s1,s1,10
    80000f28:	e705                	bnez	a4,80000f50 <main_64_0_t+0x180>
    80000f2a:	018a5213          	srli	tp,s4,0x18
    80000f2e:	3f7d                	addiw	t5,t5,-1
    80000f30:	8a3a                	mv	s4,a4
    80000f32:	01b95a63          	bge	s2,s11,80000f46 <main_64_0_t+0x176>
    80000f36:	00ce1c1b          	slliw	s8,t3,0xc
    80000f3a:	28d0f213          	andi	tp,ra,653
    80000f3e:	03eec933          	div	s2,t4,t5
    80000f42:	02a986bb          	mulw	a3,s3,a0
    80000f46:	0001                	nop
    80000f48:	03d44f3b          	divw	t5,s0,t4
    80000f4c:	0085e263          	bltu	a1,s0,80000f50 <main_64_0_t+0x180>
    80000f50:	02a986bb          	mulw	a3,s3,a0
    80000f54:	28d0f213          	andi	tp,ra,653
    80000f58:	41205ebb          	sraw	t4,zero,s2
    80000f5c:	28d0f213          	andi	tp,ra,653
    80000f60:	03272133          	mulhsu	sp,a4,s2
    80000f64:	3f7d                	addiw	t5,t5,-1
    80000f66:	09730a93          	addi	s5,t1,151
    80000f6a:	00ce1c1b          	slliw	s8,t3,0xc
    80000f6e:	3f7d                	addiw	t5,t5,-1
    80000f70:	8a3a                	mv	s4,a4
    80000f72:	ce91                	beqz	a3,80000f8e <main_64_0_t+0x1be>
    80000f74:	41205ebb          	sraw	t4,zero,s2
    80000f78:	0001                	nop
    80000f7a:	0cc1881b          	addiw	a6,gp,204
    80000f7e:	023a9b63          	bne	s5,gp,80000fb4 <main_64_0_t+0x1e4>
    80000f82:	01e203b3          	add	t2,tp,t5
    80000f86:	eb11                	bnez	a4,80000f9a <main_64_0_t+0x1ca>
    80000f88:	0a6c4417          	auipc	s0,0xa6c4
    80000f8c:	8c21                	xor	s0,s0,s0
    80000f8e:	01e203b3          	add	t2,tp,t5
    80000f92:	000807bb          	addw	a5,a6,zero
    80000f96:	00ce1c1b          	slliw	s8,t3,0xc
    80000f9a:	0166feb3          	and	t4,a3,s6
    80000f9e:	41205ebb          	sraw	t4,zero,s2
    80000fa2:	0588                	addi	a0,sp,704
    80000fa4:	00d04463          	bgtz	a3,80000fac <main_64_0_t+0x1dc>
    80000fa8:	4368d313          	srai	t1,a7,0x36
    80000fac:	8e49                	or	a2,a2,a0
    80000fae:	8c79                	and	s0,s0,a4
    80000fb0:	03f76733          	rem	a4,a4,t6
    80000fb4:	717d                	addi	sp,sp,-16
    80000fb6:	8a3a                	mv	s4,a4
    80000fb8:	41660233          	sub	tp,a2,s6
    80000fbc:	edf82113          	slti	sp,a6,-289
    80000fc0:	01ca4133          	xor	sp,s4,t3
    80000fc4:	4368d313          	srai	t1,a7,0x36
    80000fc8:	4368d313          	srai	t1,a7,0x36
    80000fcc:	56fd                	li	a3,-1
    80000fce:	8c21                	xor	s0,s0,s0
    80000fd0:	03272133          	mulhsu	sp,a4,s2
    80000fd4:	ca91                	beqz	a3,80000fe8 <main_64_0_t+0x218>
    80000fd6:	82f9                	srli	a3,a3,0x1e
    80000fd8:	84627b37          	lui	s6,0x84627
    80000fdc:	40dc89bb          	subw	s3,s9,a3
    80000fe0:	41205ebb          	sraw	t4,zero,s2
    80000fe4:	41205ebb          	sraw	t4,zero,s2
    80000fe8:	e319                	bnez	a4,80000fee <main_64_0_t+0x21e>
    80000fea:	03b60f63          	beq	a2,s11,80001028 <main_64_0_t+0x258>
    80000fee:	5be3e993          	ori	s3,t2,1470
    80000ff2:	03d44f3b          	divw	t5,s0,t4
    80000ff6:	0aa6                	slli	s5,s5,0x9
    80000ff8:	03d44f3b          	divw	t5,s0,t4
    80000ffc:	03b60e63          	beq	a2,s11,80001038 <main_64_0_t+0x268>
    80001000:	01a31093          	slli	ra,t1,0x1a
    80001004:	00d316bb          	sllw	a3,t1,a3
    80001008:	28d0f213          	andi	tp,ra,653
    8000100c:	0091ddb3          	srl	s11,gp,s1
    80001010:	9db9                	addw	a1,a1,a4
    80001012:	4368d313          	srai	t1,a7,0x36
    80001016:	717d                	addi	sp,sp,-16
    80001018:	82f9                	srli	a3,a3,0x1e
    8000101a:	82f9                	srli	a3,a3,0x1e
    8000101c:	8c79                	and	s0,s0,a4
    8000101e:	c691                	beqz	a3,8000102a <main_64_0_t+0x25a>
    80001020:	9db9                	addw	a1,a1,a4
    80001022:	82f9                	srli	a3,a3,0x1e
    80001024:	000725b3          	sltz	a1,a4
    80001028:	69ad                	lui	s3,0xb
    8000102a:	41bb519b          	sraiw	gp,s6,0x1b
    8000102e:	ca95                	beqz	a3,80001062 <main_64_0_t+0x292>
    80001030:	e3314393          	xori	t2,sp,-461
    80001034:	03d44f3b          	divw	t5,s0,t4
    80001038:	8c21                	xor	s0,s0,s0
    8000103a:	02a986bb          	mulw	a3,s3,a0
    8000103e:	69ad                	lui	s3,0xb
    80001040:	89d9                	andi	a1,a1,22
    80001042:	8c21                	xor	s0,s0,s0
    80001044:	01b60963          	beq	a2,s11,80001056 <main_64_0_t+0x286>
    80001048:	02a986bb          	mulw	a3,s3,a0
    8000104c:	0001                	nop
    8000104e:	93a6ba13          	sltiu	s4,a3,-1734
    80001052:	00ce1c1b          	slliw	s8,t3,0xc
    80001056:	93a6ba13          	sltiu	s4,a3,-1734
    8000105a:	000725b3          	sltz	a1,a4
    8000105e:	4368d313          	srai	t1,a7,0x36
    80001062:	02d04a63          	bgtz	a3,80001096 <main_64_0_t+0x2c6>
    80001066:	41660233          	sub	tp,a2,s6
    8000106a:	09730a93          	addi	s5,t1,151
    8000106e:	edf82113          	slti	sp,a6,-289
    80001072:	02415b3b          	divuw	s6,sp,tp
    80001076:	8f8d                	sub	a5,a5,a1
    80001078:	3f7d                	addiw	t5,t5,-1
    8000107a:	edf82113          	slti	sp,a6,-289
    8000107e:	01e203b3          	add	t2,tp,t5
    80001082:	09730a93          	addi	s5,t1,151
    80001086:	0001                	nop
    80001088:	00ce1c1b          	slliw	s8,t3,0xc
    8000108c:	8f8d                	sub	a5,a5,a1
    8000108e:	56fd                	li	a3,-1
    80001090:	0aa6                	slli	s5,s5,0x9
    80001092:	03272133          	mulhsu	sp,a4,s2
    80001096:	0a6c4417          	auipc	s0,0xa6c4
    8000109a:	00ce1c1b          	slliw	s8,t3,0xc
    8000109e:	03498fb3          	mul	t6,s3,s4
    800010a2:	0cc1881b          	addiw	a6,gp,204
    800010a6:	edf82113          	slti	sp,a6,-289
    800010aa:	00ce1c1b          	slliw	s8,t3,0xc
    800010ae:	4368d313          	srai	t1,a7,0x36
    800010b2:	00ce1c1b          	slliw	s8,t3,0xc
    800010b6:	40dc89bb          	subw	s3,s9,a3
    800010ba:	02061833          	mulh	a6,a2,zero
    800010be:	8a3a                	mv	s4,a4
    800010c0:	03272133          	mulhsu	sp,a4,s2
    800010c4:	0001                	nop
    800010c6:	86d9                	srai	a3,a3,0x16
    800010c8:	01ca4133          	xor	sp,s4,t3
    800010cc:	c289                	beqz	a3,800010ce <main_64_0_t+0x2fe>
    800010ce:	0001                	nop
    800010d0:	8f8d                	sub	a5,a5,a1
    800010d2:	89d9                	andi	a1,a1,22
    800010d4:	01a31093          	slli	ra,t1,0x1a
    800010d8:	03d44f3b          	divw	t5,s0,t4
    800010dc:	93a6ba13          	sltiu	s4,a3,-1734
    800010e0:	0091ddb3          	srl	s11,gp,s1
    800010e4:	000725b3          	sltz	a1,a4
    800010e8:	01ca4133          	xor	sp,s4,t3
    800010ec:	28d0f213          	andi	tp,ra,653
    800010f0:	02415b3b          	divuw	s6,sp,tp
    800010f4:	8c79                	and	s0,s0,a4
    800010f6:	03eec933          	div	s2,t4,t5
    800010fa:	0091ddb3          	srl	s11,gp,s1
    800010fe:	9d01                	subw	a0,a0,s0
    80001100:	9d01                	subw	a0,a0,s0
    80001102:	0aa6                	slli	s5,s5,0x9
    80001104:	0001                	nop
    80001106:	023830b3          	mulhu	ra,a6,gp
    8000110a:	0588                	addi	a0,sp,704
    8000110c:	03272133          	mulhsu	sp,a4,s2
    80001110:	02415b3b          	divuw	s6,sp,tp
    80001114:	02eb76bb          	remuw	a3,s6,a4
    80001118:	93a6ba13          	sltiu	s4,a3,-1734
    8000111c:	02fffcb3          	remu	s9,t6,a5
    80001120:	8c79                	and	s0,s0,a4
    80001122:	e319                	bnez	a4,80001128 <main_64_0_t+0x358>
    80001124:	0094bb33          	sltu	s6,s1,s1
    80001128:	023a9163          	bne	s5,gp,8000114a <main_64_0_t+0x37a>
    8000112c:	01e203b3          	add	t2,tp,t5
    80001130:	023a9563          	bne	s5,gp,8000115a <main_64_0_t+0x38a>
    80001134:	0a6c4417          	auipc	s0,0xa6c4
    80001138:	03b60f63          	beq	a2,s11,80001176 <main_64_0_t+0x3a6>
    8000113c:	56fd                	li	a3,-1
    8000113e:	3f7d                	addiw	t5,t5,-1
    80001140:	01a31093          	slli	ra,t1,0x1a
    80001144:	01e203b3          	add	t2,tp,t5
    80001148:	717d                	addi	sp,sp,-16
    8000114a:	40dc89bb          	subw	s3,s9,a3
    8000114e:	e3314393          	xori	t2,sp,-461
    80001152:	02a986bb          	mulw	a3,s3,a0
    80001156:	417dd533          	sra	a0,s11,s7
    8000115a:	023830b3          	mulhu	ra,a6,gp
    8000115e:	0001                	nop
    80001160:	e31d                	bnez	a4,80001186 <main_64_0_t+0x3b6>
    80001162:	02061833          	mulh	a6,a2,zero
    80001166:	0aa6                	slli	s5,s5,0x9
    80001168:	023830b3          	mulhu	ra,a6,gp
    8000116c:	0001                	nop
    8000116e:	0cc1881b          	addiw	a6,gp,204
    80001172:	03b95063          	bge	s2,s11,80001192 <main_64_0_t+0x3c2>
    80001176:	8e49                	or	a2,a2,a0
    80001178:	000725b3          	sltz	a1,a4
    8000117c:	023830b3          	mulhu	ra,a6,gp
    80001180:	0588                	addi	a0,sp,704
    80001182:	03272133          	mulhsu	sp,a4,s2
    80001186:	0094bb33          	sltu	s6,s1,s1
    8000118a:	023a9c63          	bne	s5,gp,800011c2 <main_64_0_t+0x3f2>
    8000118e:	28d0f213          	andi	tp,ra,653
    80001192:	69ad                	lui	s3,0xb
    80001194:	c689                	beqz	a3,8000119e <main_64_0_t+0x3ce>
    80001196:	029bf163          	bgeu	s7,s1,800011b8 <main_64_0_t+0x3e8>
    8000119a:	01a31093          	slli	ra,t1,0x1a
    8000119e:	56fd                	li	a3,-1
    800011a0:	02eb76bb          	remuw	a3,s6,a4
    800011a4:	5be3e993          	ori	s3,t2,1470
    800011a8:	5be3e993          	ori	s3,t2,1470
    800011ac:	02eb76bb          	remuw	a3,s6,a4
    800011b0:	02b2dc33          	divu	s8,t0,a1
    800011b4:	0094bb33          	sltu	s6,s1,s1
    800011b8:	0094bb33          	sltu	s6,s1,s1
    800011bc:	000725b3          	sltz	a1,a4
    800011c0:	04a9                	addi	s1,s1,10
    800011c2:	28d0f213          	andi	tp,ra,653
    800011c6:	003a9963          	bne	s5,gp,800011d8 <main_64_0_t+0x408>
    800011ca:	02eb76bb          	remuw	a3,s6,a4
    800011ce:	86d9                	srai	a3,a3,0x16
    800011d0:	93a6ba13          	sltiu	s4,a3,-1734
    800011d4:	0166feb3          	and	t4,a3,s6
    800011d8:	01b60563          	beq	a2,s11,800011e2 <main_64_0_t+0x412>
    800011dc:	86d9                	srai	a3,a3,0x16
    800011de:	0094bb33          	sltu	s6,s1,s1
    800011e2:	04a9                	addi	s1,s1,10
    800011e4:	02fffcb3          	remu	s9,t6,a5
    800011e8:	84627b37          	lui	s6,0x84627
    800011ec:	0588                	addi	a0,sp,704
    800011ee:	0a6c4417          	auipc	s0,0xa6c4
    800011f2:	41bb519b          	sraiw	gp,s6,0x1b
    800011f6:	41660233          	sub	tp,a2,s6
    800011fa:	000b561b          	srliw	a2,s6,0x0
    800011fe:	023a9a63          	bne	s5,gp,80001232 <main_64_0_t+0x462>
    80001202:	0085e463          	bltu	a1,s0,8000120a <main_64_0_t+0x43a>
    80001206:	009bf363          	bgeu	s7,s1,8000120c <main_64_0_t+0x43c>
    8000120a:	56fd                	li	a3,-1
    8000120c:	8f8d                	sub	a5,a5,a1
    8000120e:	00ce1c1b          	slliw	s8,t3,0xc
    80001212:	8a3a                	mv	s4,a4
    80001214:	41660233          	sub	tp,a2,s6
    80001218:	01ca4133          	xor	sp,s4,t3
    8000121c:	41660233          	sub	tp,a2,s6
    80001220:	000807bb          	addw	a5,a6,zero
    80001224:	01e203b3          	add	t2,tp,t5
    80001228:	86d9                	srai	a3,a3,0x16
    8000122a:	00d04e63          	bgtz	a3,80001246 <main_64_0_t+0x476>
    8000122e:	003a9263          	bne	s5,gp,80001232 <main_64_0_t+0x462>
    80001232:	000807bb          	addw	a5,a6,zero
    80001236:	69ad                	lui	s3,0xb
    80001238:	8c21                	xor	s0,s0,s0
    8000123a:	0094bb33          	sltu	s6,s1,s1
    8000123e:	93a6ba13          	sltiu	s4,a3,-1734
    80001242:	0a6c4417          	auipc	s0,0xa6c4
    80001246:	0588                	addi	a0,sp,704
    80001248:	0166feb3          	and	t4,a3,s6
    8000124c:	02061833          	mulh	a6,a2,zero
    80001250:	018a5213          	srli	tp,s4,0x18
    80001254:	000b561b          	srliw	a2,s6,0x0
    80001258:	09730a93          	addi	s5,t1,151
    8000125c:	0cc1881b          	addiw	a6,gp,204
    80001260:	28d0f213          	andi	tp,ra,653
    80001264:	0091ddb3          	srl	s11,gp,s1
    80001268:	5be3e993          	ori	s3,t2,1470
    8000126c:	02061833          	mulh	a6,a2,zero
    80001270:	003de5b3          	or	a1,s11,gp
    80001274:	01a31093          	slli	ra,t1,0x1a
    80001278:	3f7d                	addiw	t5,t5,-1
    8000127a:	82f9                	srli	a3,a3,0x1e
    8000127c:	93a6ba13          	sltiu	s4,a3,-1734
    80001280:	417dd533          	sra	a0,s11,s7
    80001284:	4368d313          	srai	t1,a7,0x36
    80001288:	40dc89bb          	subw	s3,s9,a3
    8000128c:	41bb519b          	sraiw	gp,s6,0x1b
    80001290:	0001                	nop
    80001292:	93a6ba13          	sltiu	s4,a3,-1734
    80001296:	0094bb33          	sltu	s6,s1,s1
    8000129a:	03eec933          	div	s2,t4,t5
    8000129e:	84627b37          	lui	s6,0x84627
    800012a2:	0001                	nop
    800012a4:	e321                	bnez	a4,800012e4 <main_64_0_t+0x514>
    800012a6:	02061833          	mulh	a6,a2,zero
    800012aa:	0285ee63          	bltu	a1,s0,800012e6 <main_64_0_t+0x516>
    800012ae:	0cc1881b          	addiw	a6,gp,204
    800012b2:	4368d313          	srai	t1,a7,0x36
    800012b6:	04a9                	addi	s1,s1,10
    800012b8:	417dd533          	sra	a0,s11,s7
    800012bc:	09730a93          	addi	s5,t1,151
    800012c0:	02a986bb          	mulw	a3,s3,a0
    800012c4:	03d44f3b          	divw	t5,s0,t4
    800012c8:	0001                	nop
    800012ca:	8c21                	xor	s0,s0,s0
    800012cc:	02061833          	mulh	a6,a2,zero
    800012d0:	0091ddb3          	srl	s11,gp,s1
    800012d4:	00ce1c1b          	slliw	s8,t3,0xc
    800012d8:	9d01                	subw	a0,a0,s0
    800012da:	01b55bbb          	srlw	s7,a0,s11
    800012de:	0cc1881b          	addiw	a6,gp,204
    800012e2:	0001                	nop
    800012e4:	9db9                	addw	a1,a1,a4
    800012e6:	0aa6                	slli	s5,s5,0x9
    800012e8:	01e203b3          	add	t2,tp,t5
    800012ec:	9d01                	subw	a0,a0,s0
    800012ee:	56fd                	li	a3,-1
    800012f0:	3f7d                	addiw	t5,t5,-1
    800012f2:	40dc89bb          	subw	s3,s9,a3
    800012f6:	0166feb3          	and	t4,a3,s6
    800012fa:	0cc1881b          	addiw	a6,gp,204
    800012fe:	3f7d                	addiw	t5,t5,-1
    80001300:	8c21                	xor	s0,s0,s0
    80001302:	000b561b          	srliw	a2,s6,0x0
    80001306:	000b561b          	srliw	a2,s6,0x0
    8000130a:	0285e663          	bltu	a1,s0,80001336 <main_64_0_t+0x566>
    8000130e:	029bfa63          	bgeu	s7,s1,80001342 <main_64_0_t+0x572>
    80001312:	0588                	addi	a0,sp,704
    80001314:	40dc89bb          	subw	s3,s9,a3
    80001318:	41660233          	sub	tp,a2,s6
    8000131c:	02d04863          	bgtz	a3,8000134c <main_64_0_t+0x57c>
    80001320:	003de5b3          	or	a1,s11,gp
    80001324:	9d01                	subw	a0,a0,s0
    80001326:	03498fb3          	mul	t6,s3,s4
    8000132a:	02d04b63          	bgtz	a3,80001360 <main_64_0_t+0x590>
    8000132e:	0094bb33          	sltu	s6,s1,s1
    80001332:	0001                	nop
    80001334:	56fd                	li	a3,-1
    80001336:	8f8d                	sub	a5,a5,a1
    80001338:	05b60163          	beq	a2,s11,8000137a <main_64_0_t+0x5aa>
    8000133c:	8a3a                	mv	s4,a4
    8000133e:	41bb519b          	sraiw	gp,s6,0x1b
    80001342:	9d01                	subw	a0,a0,s0
    80001344:	4368d313          	srai	t1,a7,0x36
    80001348:	02a986bb          	mulw	a3,s3,a0
    8000134c:	01a31093          	slli	ra,t1,0x1a
    80001350:	000807bb          	addw	a5,a6,zero
    80001354:	0a6c4417          	auipc	s0,0xa6c4
    80001358:	0166feb3          	and	t4,a3,s6
    8000135c:	4368d313          	srai	t1,a7,0x36
    80001360:	02deedbb          	remw	s11,t4,a3
    80001364:	8f8d                	sub	a5,a5,a1
    80001366:	717d                	addi	sp,sp,-16
    80001368:	09730a93          	addi	s5,t1,151
    8000136c:	8a3a                	mv	s4,a4
    8000136e:	40dc89bb          	subw	s3,s9,a3
    80001372:	01b55bbb          	srlw	s7,a0,s11
    80001376:	023a9c63          	bne	s5,gp,800013ae <main_64_0_t+0x5de>
    8000137a:	93a6ba13          	sltiu	s4,a3,-1734
    8000137e:	0285e063          	bltu	a1,s0,8000139e <main_64_0_t+0x5ce>
    80001382:	02fffcb3          	remu	s9,t6,a5
    80001386:	003de5b3          	or	a1,s11,gp
    8000138a:	03498fb3          	mul	t6,s3,s4
    8000138e:	000b561b          	srliw	a2,s6,0x0
    80001392:	01b55bbb          	srlw	s7,a0,s11
    80001396:	84627b37          	lui	s6,0x84627
    8000139a:	03272133          	mulhsu	sp,a4,s2
    8000139e:	9a7e                	add	s4,s4,t6
    800013a0:	e3314393          	xori	t2,sp,-461
    800013a4:	5be3e993          	ori	s3,t2,1470
    800013a8:	3f7d                	addiw	t5,t5,-1
    800013aa:	417dd533          	sra	a0,s11,s7
    800013ae:	0166feb3          	and	t4,a3,s6
    800013b2:	0a6c4417          	auipc	s0,0xa6c4
    800013b6:	000807bb          	addw	a5,a6,zero
    800013ba:	000b561b          	srliw	a2,s6,0x0
    800013be:	41205ebb          	sraw	t4,zero,s2
    800013c2:	00d04a63          	bgtz	a3,800013d6 <main_64_0_t+0x606>
    800013c6:	89d9                	andi	a1,a1,22
    800013c8:	04a9                	addi	s1,s1,10
    800013ca:	03498fb3          	mul	t6,s3,s4
    800013ce:	01b60263          	beq	a2,s11,800013d2 <main_64_0_t+0x602>
    800013d2:	40dc89bb          	subw	s3,s9,a3
    800013d6:	84627b37          	lui	s6,0x84627
    800013da:	00d04363          	bgtz	a3,800013e0 <main_64_0_t+0x610>
    800013de:	04a9                	addi	s1,s1,10
    800013e0:	8f8d                	sub	a5,a5,a1
    800013e2:	0166feb3          	and	t4,a3,s6
    800013e6:	03d44f3b          	divw	t5,s0,t4
    800013ea:	018a5213          	srli	tp,s4,0x18
    800013ee:	002495b3          	sll	a1,s1,sp
    800013f2:	417dd533          	sra	a0,s11,s7
    800013f6:	0588                	addi	a0,sp,704
    800013f8:	0aa6                	slli	s5,s5,0x9
    800013fa:	8e49                	or	a2,a2,a0
    800013fc:	9a7e                	add	s4,s4,t6
    800013fe:	0094bb33          	sltu	s6,s1,s1
    80001402:	ce99                	beqz	a3,80001420 <main_64_0_t+0x650>
    80001404:	02061833          	mulh	a6,a2,zero
    80001408:	9a7e                	add	s4,s4,t6
    8000140a:	01a31093          	slli	ra,t1,0x1a
    8000140e:	03b95963          	bge	s2,s11,80001440 <main_64_0_t+0x670>
    80001412:	0001                	nop
    80001414:	02b2dc33          	divu	s8,t0,a1
    80001418:	0588                	addi	a0,sp,704
    8000141a:	009bf963          	bgeu	s7,s1,8000142c <main_64_0_t+0x65c>
    8000141e:	69ad                	lui	s3,0xb
    80001420:	02fffcb3          	remu	s9,t6,a5
    80001424:	03b95f63          	bge	s2,s11,80001462 <main_64_0_t+0x692>
    80001428:	40dc89bb          	subw	s3,s9,a3
    8000142c:	0094bb33          	sltu	s6,s1,s1
    80001430:	9a7e                	add	s4,s4,t6
    80001432:	eb05                	bnez	a4,80001462 <main_64_0_t+0x692>
    80001434:	e311                	bnez	a4,80001438 <main_64_0_t+0x668>
    80001436:	8e49                	or	a2,a2,a0
    80001438:	002495b3          	sll	a1,s1,sp
    8000143c:	01b95e63          	bge	s2,s11,80001458 <main_64_0_t+0x688>
    80001440:	01ca4133          	xor	sp,s4,t3
    80001444:	8a3a                	mv	s4,a4
    80001446:	0091ddb3          	srl	s11,gp,s1
    8000144a:	0085e363          	bltu	a1,s0,80001450 <main_64_0_t+0x680>
    8000144e:	86d9                	srai	a3,a3,0x16
    80001450:	0085e263          	bltu	a1,s0,80001454 <main_64_0_t+0x684>
    80001454:	8c21                	xor	s0,s0,s0
    80001456:	69ad                	lui	s3,0xb
    80001458:	000b561b          	srliw	a2,s6,0x0
    8000145c:	8c21                	xor	s0,s0,s0
    8000145e:	01b60663          	beq	a2,s11,8000146a <main_64_0_t+0x69a>
    80001462:	0166feb3          	and	t4,a3,s6
    80001466:	0094bb33          	sltu	s6,s1,s1
    8000146a:	3f7d                	addiw	t5,t5,-1
    8000146c:	03d44f3b          	divw	t5,s0,t4
    80001470:	023830b3          	mulhu	ra,a6,gp
    80001474:	01a31093          	slli	ra,t1,0x1a
    80001478:	02061833          	mulh	a6,a2,zero
    8000147c:	8c21                	xor	s0,s0,s0
    8000147e:	40dc89bb          	subw	s3,s9,a3
    80001482:	40dc89bb          	subw	s3,s9,a3
    80001486:	0cc1881b          	addiw	a6,gp,204
    8000148a:	4c9d                	li	s9,7
    8000148c:	4e9d                	li	t4,7

000000008000148e <main_58_0_t>:
    8000148e:	09730a93          	addi	s5,t1,151
    80001492:	1cdd                	addi	s9,s9,-9 # ffffffff84626ff7 <_end+0xffffffff045fa66f>
    80001494:	8e79                	and	a2,a2,a4
    80001496:	ffdcdce3          	bge	s9,t4,8000148e <main_58_0_t>
    8000149a:	edf82113          	slti	sp,a6,-289
    8000149e:	02eb76bb          	remuw	a3,s6,a4
    800014a2:	01b55bbb          	srlw	s7,a0,s11
    800014a6:	04d04263          	bgtz	a3,800014ea <main_58_0_t+0x5c>
    800014aa:	28d0f213          	andi	tp,ra,653
    800014ae:	01b55bbb          	srlw	s7,a0,s11
    800014b2:	89d9                	andi	a1,a1,22
    800014b4:	9db9                	addw	a1,a1,a4
    800014b6:	0001                	nop
    800014b8:	023830b3          	mulhu	ra,a6,gp
    800014bc:	3f7d                	addiw	t5,t5,-1
    800014be:	002495b3          	sll	a1,s1,sp
    800014c2:	03d44f3b          	divw	t5,s0,t4
    800014c6:	02415b3b          	divuw	s6,sp,tp
    800014ca:	003a9463          	bne	s5,gp,800014d2 <main_58_0_t+0x44>
    800014ce:	02eb76bb          	remuw	a3,s6,a4
    800014d2:	417dd533          	sra	a0,s11,s7
    800014d6:	02fffcb3          	remu	s9,t6,a5
    800014da:	02061833          	mulh	a6,a2,zero
    800014de:	84627b37          	lui	s6,0x84627
    800014e2:	0094bb33          	sltu	s6,s1,s1
    800014e6:	03eec933          	div	s2,t4,t5
    800014ea:	03f76733          	rem	a4,a4,t6
    800014ee:	003de5b3          	or	a1,s11,gp
    800014f2:	82f9                	srli	a3,a3,0x1e
    800014f4:	02061833          	mulh	a6,a2,zero
    800014f8:	8c21                	xor	s0,s0,s0
    800014fa:	86d9                	srai	a3,a3,0x16
    800014fc:	02b2dc33          	divu	s8,t0,a1
    80001500:	9d01                	subw	a0,a0,s0
    80001502:	02fffcb3          	remu	s9,t6,a5
    80001506:	0aa6                	slli	s5,s5,0x9
    80001508:	93a6ba13          	sltiu	s4,a3,-1734
    8000150c:	41660233          	sub	tp,a2,s6
    80001510:	edf82113          	slti	sp,a6,-289
    80001514:	03d44f3b          	divw	t5,s0,t4
    80001518:	9d01                	subw	a0,a0,s0
    8000151a:	8c79                	and	s0,s0,a4
    8000151c:	02deedbb          	remw	s11,t4,a3
    80001520:	0588                	addi	a0,sp,704
    80001522:	40dc89bb          	subw	s3,s9,a3
    80001526:	8c21                	xor	s0,s0,s0
    80001528:	eb1d                	bnez	a4,8000155e <main_58_0_t+0xd0>
    8000152a:	01a31093          	slli	ra,t1,0x1a
    8000152e:	03d44f3b          	divw	t5,s0,t4
    80001532:	003de5b3          	or	a1,s11,gp
    80001536:	03eec933          	div	s2,t4,t5
    8000153a:	9d01                	subw	a0,a0,s0
    8000153c:	003de5b3          	or	a1,s11,gp
    80001540:	8f8d                	sub	a5,a5,a1
    80001542:	0001                	nop
    80001544:	28d0f213          	andi	tp,ra,653
    80001548:	09730a93          	addi	s5,t1,151
    8000154c:	0285e763          	bltu	a1,s0,8000157a <main_58_0_t+0xec>
    80001550:	84627b37          	lui	s6,0x84627
    80001554:	0aa6                	slli	s5,s5,0x9
    80001556:	01b55bbb          	srlw	s7,a0,s11
    8000155a:	5be3e993          	ori	s3,t2,1470
    8000155e:	02fffcb3          	remu	s9,t6,a5
    80001562:	84627b37          	lui	s6,0x84627
    80001566:	0485e663          	bltu	a1,s0,800015b2 <main_58_0_t+0x124>
    8000156a:	417dd533          	sra	a0,s11,s7
    8000156e:	000725b3          	sltz	a1,a4
    80001572:	03272133          	mulhsu	sp,a4,s2
    80001576:	41bb519b          	sraiw	gp,s6,0x1b
    8000157a:	02eb76bb          	remuw	a3,s6,a4
    8000157e:	edf82113          	slti	sp,a6,-289
    80001582:	717d                	addi	sp,sp,-16
    80001584:	000807bb          	addw	a5,a6,zero
    80001588:	023830b3          	mulhu	ra,a6,gp
    8000158c:	e3314393          	xori	t2,sp,-461
    80001590:	02415b3b          	divuw	s6,sp,tp
    80001594:	02061833          	mulh	a6,a2,zero
    80001598:	41660233          	sub	tp,a2,s6
    8000159c:	018a5213          	srli	tp,s4,0x18
    800015a0:	9db9                	addw	a1,a1,a4
    800015a2:	002495b3          	sll	a1,s1,sp
    800015a6:	02415b3b          	divuw	s6,sp,tp
    800015aa:	03d44f3b          	divw	t5,s0,t4
    800015ae:	003a9863          	bne	s5,gp,800015be <main_58_0_t+0x130>
    800015b2:	000807bb          	addw	a5,a6,zero
    800015b6:	02061833          	mulh	a6,a2,zero
    800015ba:	86d9                	srai	a3,a3,0x16
    800015bc:	82f9                	srli	a3,a3,0x1e
    800015be:	000725b3          	sltz	a1,a4
    800015c2:	41bb519b          	sraiw	gp,s6,0x1b
    800015c6:	03272133          	mulhsu	sp,a4,s2
    800015ca:	009bf663          	bgeu	s7,s1,800015d6 <main_58_0_t+0x148>
    800015ce:	000807bb          	addw	a5,a6,zero
    800015d2:	0a6c4417          	auipc	s0,0xa6c4
    800015d6:	3f7d                	addiw	t5,t5,-1
    800015d8:	023830b3          	mulhu	ra,a6,gp
    800015dc:	0cc1881b          	addiw	a6,gp,204
    800015e0:	00d316bb          	sllw	a3,t1,a3
    800015e4:	03b95263          	bge	s2,s11,80001608 <main_58_0_t+0x17a>
    800015e8:	0094bb33          	sltu	s6,s1,s1
    800015ec:	02deedbb          	remw	s11,t4,a3
    800015f0:	03b95a63          	bge	s2,s11,80001624 <main_58_0_t+0x196>
    800015f4:	0aa6                	slli	s5,s5,0x9
    800015f6:	82f9                	srli	a3,a3,0x1e
    800015f8:	56fd                	li	a3,-1
    800015fa:	8c79                	and	s0,s0,a4
    800015fc:	e711                	bnez	a4,80001608 <main_58_0_t+0x17a>
    800015fe:	ef11                	bnez	a4,8000161a <main_58_0_t+0x18c>
    80001600:	01a31093          	slli	ra,t1,0x1a
    80001604:	9db9                	addw	a1,a1,a4
    80001606:	0aa6                	slli	s5,s5,0x9
    80001608:	02415b3b          	divuw	s6,sp,tp
    8000160c:	9d01                	subw	a0,a0,s0
    8000160e:	5be3e993          	ori	s3,t2,1470
    80001612:	002495b3          	sll	a1,s1,sp
    80001616:	00d316bb          	sllw	a3,t1,a3
    8000161a:	023a9663          	bne	s5,gp,80001646 <main_58_0_t+0x1b8>
    8000161e:	717d                	addi	sp,sp,-16
    80001620:	02fffcb3          	remu	s9,t6,a5
    80001624:	003de5b3          	or	a1,s11,gp
    80001628:	02fffcb3          	remu	s9,t6,a5
    8000162c:	9d01                	subw	a0,a0,s0
    8000162e:	5be3e993          	ori	s3,t2,1470
    80001632:	41660233          	sub	tp,a2,s6
    80001636:	0091ddb3          	srl	s11,gp,s1
    8000163a:	0a6c4417          	auipc	s0,0xa6c4
    8000163e:	000b561b          	srliw	a2,s6,0x0
    80001642:	018a5213          	srli	tp,s4,0x18
    80001646:	9d01                	subw	a0,a0,s0
    80001648:	023a9963          	bne	s5,gp,8000167a <main_58_0_t+0x1ec>
    8000164c:	56fd                	li	a3,-1
    8000164e:	02deedbb          	remw	s11,t4,a3
    80001652:	0a6c4417          	auipc	s0,0xa6c4
    80001656:	8c21                	xor	s0,s0,s0
    80001658:	09730a93          	addi	s5,t1,151
    8000165c:	02b2dc33          	divu	s8,t0,a1
    80001660:	eb01                	bnez	a4,80001670 <main_58_0_t+0x1e2>
    80001662:	41bb519b          	sraiw	gp,s6,0x1b
    80001666:	01a31093          	slli	ra,t1,0x1a
    8000166a:	02415b3b          	divuw	s6,sp,tp
    8000166e:	8c79                	and	s0,s0,a4
    80001670:	003a9863          	bne	s5,gp,80001680 <main_58_0_t+0x1f2>
    80001674:	41660233          	sub	tp,a2,s6
    80001678:	8c79                	and	s0,s0,a4
    8000167a:	018a5213          	srli	tp,s4,0x18
    8000167e:	717d                	addi	sp,sp,-16
    80001680:	8c79                	and	s0,s0,a4
    80001682:	0091ddb3          	srl	s11,gp,s1
    80001686:	003de5b3          	or	a1,s11,gp
    8000168a:	0094bb33          	sltu	s6,s1,s1
    8000168e:	0aa6                	slli	s5,s5,0x9
    80001690:	03272133          	mulhsu	sp,a4,s2
    80001694:	03272133          	mulhsu	sp,a4,s2
    80001698:	023830b3          	mulhu	ra,a6,gp
    8000169c:	0285ef63          	bltu	a1,s0,800016da <main_58_0_t+0x24c>
    800016a0:	02061833          	mulh	a6,a2,zero
    800016a4:	03498fb3          	mul	t6,s3,s4
    800016a8:	9db9                	addw	a1,a1,a4
    800016aa:	00d316bb          	sllw	a3,t1,a3
    800016ae:	01b55bbb          	srlw	s7,a0,s11
    800016b2:	8c79                	and	s0,s0,a4
    800016b4:	5be3e993          	ori	s3,t2,1470
    800016b8:	002495b3          	sll	a1,s1,sp
    800016bc:	02061833          	mulh	a6,a2,zero
    800016c0:	000807bb          	addw	a5,a6,zero
    800016c4:	0001                	nop
    800016c6:	0085e363          	bltu	a1,s0,800016cc <main_58_0_t+0x23e>
    800016ca:	04a9                	addi	s1,s1,10
    800016cc:	69ad                	lui	s3,0xb
    800016ce:	8c79                	and	s0,s0,a4
    800016d0:	9db9                	addw	a1,a1,a4
    800016d2:	03272133          	mulhsu	sp,a4,s2
    800016d6:	02a986bb          	mulw	a3,s3,a0
    800016da:	002495b3          	sll	a1,s1,sp
    800016de:	28d0f213          	andi	tp,ra,653
    800016e2:	000725b3          	sltz	a1,a4
    800016e6:	02fffcb3          	remu	s9,t6,a5
    800016ea:	0cc1881b          	addiw	a6,gp,204
    800016ee:	01e203b3          	add	t2,tp,t5
    800016f2:	82f9                	srli	a3,a3,0x1e
    800016f4:	89d9                	andi	a1,a1,22
    800016f6:	01b55bbb          	srlw	s7,a0,s11
    800016fa:	4368d313          	srai	t1,a7,0x36
    800016fe:	93a6ba13          	sltiu	s4,a3,-1734
    80001702:	e319                	bnez	a4,80001708 <main_58_0_t+0x27a>
    80001704:	0091ddb3          	srl	s11,gp,s1
    80001708:	417dd533          	sra	a0,s11,s7
    8000170c:	4368d313          	srai	t1,a7,0x36
    80001710:	4368d313          	srai	t1,a7,0x36
    80001714:	029bf263          	bgeu	s7,s1,80001738 <main_58_0_t+0x2aa>
    80001718:	89d9                	andi	a1,a1,22
    8000171a:	0588                	addi	a0,sp,704
    8000171c:	003a9e63          	bne	s5,gp,80001738 <main_58_0_t+0x2aa>
    80001720:	417dd533          	sra	a0,s11,s7
    80001724:	69ad                	lui	s3,0xb
    80001726:	0094bb33          	sltu	s6,s1,s1
    8000172a:	04a9                	addi	s1,s1,10
    8000172c:	9d01                	subw	a0,a0,s0
    8000172e:	e319                	bnez	a4,80001734 <main_58_0_t+0x2a6>
    80001730:	edf82113          	slti	sp,a6,-289
    80001734:	002495b3          	sll	a1,s1,sp
    80001738:	8f8d                	sub	a5,a5,a1
    8000173a:	e3314393          	xori	t2,sp,-461
    8000173e:	41bb519b          	sraiw	gp,s6,0x1b
    80001742:	03272133          	mulhsu	sp,a4,s2
    80001746:	018a5213          	srli	tp,s4,0x18
    8000174a:	000725b3          	sltz	a1,a4
    8000174e:	009bff63          	bgeu	s7,s1,8000176c <main_58_0_t+0x2de>
    80001752:	41205ebb          	sraw	t4,zero,s2
    80001756:	5be3e993          	ori	s3,t2,1470
    8000175a:	01b60963          	beq	a2,s11,8000176c <main_58_0_t+0x2de>
    8000175e:	003de5b3          	or	a1,s11,gp
    80001762:	01e203b3          	add	t2,tp,t5
    80001766:	0285e363          	bltu	a1,s0,8000178c <main_58_0_t+0x2fe>
    8000176a:	0001                	nop
    8000176c:	03b60563          	beq	a2,s11,80001796 <main_58_0_t+0x308>
    80001770:	0094bb33          	sltu	s6,s1,s1
    80001774:	02d04763          	bgtz	a3,800017a2 <main_58_0_t+0x314>
    80001778:	0588                	addi	a0,sp,704
    8000177a:	89d9                	andi	a1,a1,22
    8000177c:	9a7e                	add	s4,s4,t6
    8000177e:	02eb76bb          	remuw	a3,s6,a4
    80001782:	86d9                	srai	a3,a3,0x16
    80001784:	0a6c4417          	auipc	s0,0xa6c4
    80001788:	e3314393          	xori	t2,sp,-461
    8000178c:	3f7d                	addiw	t5,t5,-1
    8000178e:	002495b3          	sll	a1,s1,sp
    80001792:	e3314393          	xori	t2,sp,-461
    80001796:	003a9963          	bne	s5,gp,800017a8 <main_58_0_t+0x31a>
    8000179a:	01ca4133          	xor	sp,s4,t3
    8000179e:	8e49                	or	a2,a2,a0
    800017a0:	ca8d                	beqz	a3,800017d2 <main_58_0_t+0x344>
    800017a2:	69ad                	lui	s3,0xb
    800017a4:	023a9e63          	bne	s5,gp,800017e0 <main_58_0_t+0x352>
    800017a8:	0aa6                	slli	s5,s5,0x9
    800017aa:	89d9                	andi	a1,a1,22
    800017ac:	009bf663          	bgeu	s7,s1,800017b8 <main_58_0_t+0x32a>
    800017b0:	40dc89bb          	subw	s3,s9,a3
    800017b4:	03272133          	mulhsu	sp,a4,s2
    800017b8:	86d9                	srai	a3,a3,0x16
    800017ba:	0cc1881b          	addiw	a6,gp,204
    800017be:	e305                	bnez	a4,800017de <main_58_0_t+0x350>
    800017c0:	03d44f3b          	divw	t5,s0,t4
    800017c4:	4368d313          	srai	t1,a7,0x36
    800017c8:	5be3e993          	ori	s3,t2,1470
    800017cc:	89d9                	andi	a1,a1,22
    800017ce:	0166feb3          	and	t4,a3,s6
    800017d2:	000807bb          	addw	a5,a6,zero
    800017d6:	02061833          	mulh	a6,a2,zero
    800017da:	03498fb3          	mul	t6,s3,s4
    800017de:	8f8d                	sub	a5,a5,a1
    800017e0:	9db9                	addw	a1,a1,a4
    800017e2:	40dc89bb          	subw	s3,s9,a3
    800017e6:	0a6c4417          	auipc	s0,0xa6c4
    800017ea:	40dc89bb          	subw	s3,s9,a3
    800017ee:	e3314393          	xori	t2,sp,-461
    800017f2:	89d9                	andi	a1,a1,22
    800017f4:	02b2dc33          	divu	s8,t0,a1
    800017f8:	03f76733          	rem	a4,a4,t6
    800017fc:	03b60863          	beq	a2,s11,8000182c <main_58_0_t+0x39e>
    80001800:	9a7e                	add	s4,s4,t6
    80001802:	0cc1881b          	addiw	a6,gp,204
    80001806:	ce95                	beqz	a3,80001842 <main_58_0_t+0x3b4>
    80001808:	0588                	addi	a0,sp,704
    8000180a:	0001                	nop
    8000180c:	5be3e993          	ori	s3,t2,1470
    80001810:	05b95163          	bge	s2,s11,80001852 <main_58_0_t+0x3c4>
    80001814:	56fd                	li	a3,-1
    80001816:	0091ddb3          	srl	s11,gp,s1
    8000181a:	0001                	nop
    8000181c:	3f7d                	addiw	t5,t5,-1
    8000181e:	000b561b          	srliw	a2,s6,0x0
    80001822:	9db9                	addw	a1,a1,a4
    80001824:	029bf363          	bgeu	s7,s1,8000184a <main_58_0_t+0x3bc>
    80001828:	002495b3          	sll	a1,s1,sp
    8000182c:	01b55bbb          	srlw	s7,a0,s11
    80001830:	e3314393          	xori	t2,sp,-461
    80001834:	8a3a                	mv	s4,a4
    80001836:	01b55bbb          	srlw	s7,a0,s11
    8000183a:	000807bb          	addw	a5,a6,zero
    8000183e:	03272133          	mulhsu	sp,a4,s2
    80001842:	003a9463          	bne	s5,gp,8000184a <main_58_0_t+0x3bc>
    80001846:	28d0f213          	andi	tp,ra,653
    8000184a:	3f7d                	addiw	t5,t5,-1
    8000184c:	0aa6                	slli	s5,s5,0x9
    8000184e:	03272133          	mulhsu	sp,a4,s2
    80001852:	023830b3          	mulhu	ra,a6,gp
    80001856:	01e203b3          	add	t2,tp,t5
    8000185a:	0166feb3          	and	t4,a3,s6
    8000185e:	00ce1c1b          	slliw	s8,t3,0xc
    80001862:	0001                	nop
    80001864:	00ce1c1b          	slliw	s8,t3,0xc
    80001868:	003de5b3          	or	a1,s11,gp
    8000186c:	03eec933          	div	s2,t4,t5
    80001870:	0aa6                	slli	s5,s5,0x9
    80001872:	000725b3          	sltz	a1,a4
    80001876:	02fffcb3          	remu	s9,t6,a5
    8000187a:	02415b3b          	divuw	s6,sp,tp
    8000187e:	02deedbb          	remw	s11,t4,a3
    80001882:	02fffcb3          	remu	s9,t6,a5
    80001886:	4368d313          	srai	t1,a7,0x36
    8000188a:	01a31093          	slli	ra,t1,0x1a
    8000188e:	023830b3          	mulhu	ra,a6,gp
    80001892:	0588                	addi	a0,sp,704
    80001894:	8f8d                	sub	a5,a5,a1
    80001896:	00d316bb          	sllw	a3,t1,a3
    8000189a:	0cc1881b          	addiw	a6,gp,204
    8000189e:	0091ddb3          	srl	s11,gp,s1
    800018a2:	0cc1881b          	addiw	a6,gp,204
    800018a6:	03d44f3b          	divw	t5,s0,t4
    800018aa:	02415b3b          	divuw	s6,sp,tp
    800018ae:	8a3a                	mv	s4,a4
    800018b0:	40dc89bb          	subw	s3,s9,a3
    800018b4:	00ce1c1b          	slliw	s8,t3,0xc
    800018b8:	c2b1                	beqz	a3,800018fc <main_58_0_t+0x46e>
    800018ba:	03272133          	mulhsu	sp,a4,s2
    800018be:	02deedbb          	remw	s11,t4,a3
    800018c2:	002495b3          	sll	a1,s1,sp
    800018c6:	04a9                	addi	s1,s1,10
    800018c8:	04a9                	addi	s1,s1,10
    800018ca:	28d0f213          	andi	tp,ra,653
    800018ce:	03eec933          	div	s2,t4,t5
    800018d2:	82f9                	srli	a3,a3,0x1e
    800018d4:	00ce1c1b          	slliw	s8,t3,0xc
    800018d8:	02a986bb          	mulw	a3,s3,a0
    800018dc:	8c21                	xor	s0,s0,s0
    800018de:	03d44f3b          	divw	t5,s0,t4
    800018e2:	40dc89bb          	subw	s3,s9,a3
    800018e6:	000b561b          	srliw	a2,s6,0x0
    800018ea:	417dd533          	sra	a0,s11,s7
    800018ee:	0094bb33          	sltu	s6,s1,s1
    800018f2:	023830b3          	mulhu	ra,a6,gp
    800018f6:	56fd                	li	a3,-1
    800018f8:	02fffcb3          	remu	s9,t6,a5
    800018fc:	0091ddb3          	srl	s11,gp,s1
    80001900:	000b561b          	srliw	a2,s6,0x0
    80001904:	018a5213          	srli	tp,s4,0x18
    80001908:	0a6c4417          	auipc	s0,0xa6c4
    8000190c:	02d04b63          	bgtz	a3,80001942 <main_58_0_t+0x4b4>
    80001910:	41660233          	sub	tp,a2,s6
    80001914:	9a7e                	add	s4,s4,t6
    80001916:	000b561b          	srliw	a2,s6,0x0
    8000191a:	417dd533          	sra	a0,s11,s7
    8000191e:	01a31093          	slli	ra,t1,0x1a
    80001922:	9a7e                	add	s4,s4,t6
    80001924:	0094bb33          	sltu	s6,s1,s1
    80001928:	0aa6                	slli	s5,s5,0x9
    8000192a:	3f7d                	addiw	t5,t5,-1
    8000192c:	417dd533          	sra	a0,s11,s7
    80001930:	8c79                	and	s0,s0,a4
    80001932:	0094bb33          	sltu	s6,s1,s1
    80001936:	03eec933          	div	s2,t4,t5
    8000193a:	02a986bb          	mulw	a3,s3,a0
    8000193e:	0166feb3          	and	t4,a3,s6
    80001942:	03b60963          	beq	a2,s11,80001974 <main_26+0x2e>

0000000080001946 <main_26>:
    80001946:	01600eef          	jal	t4,8000195c <main_26+0x16>
    8000194a:	01c000ef          	jal	80001966 <main_26+0x20>
    8000194e:	a829                	j	80001968 <main_26+0x22>
    80001950:	ffbff0ef          	jal	8000194a <main_26+0x4>
    80001954:	a011                	j	80001958 <main_26+0x12>
    80001956:	bfe5                	j	8000194e <main_26+0x8>
    80001958:	ff9ff0ef          	jal	80001950 <main_26+0xa>
    8000195c:	008000ef          	jal	80001964 <main_26+0x1e>
    80001960:	ff7ff0ef          	jal	80001956 <main_26+0x10>
    80001964:	bfc5                	j	80001954 <main_26+0xe>
    80001966:	bfed                	j	80001960 <main_26+0x1a>
    80001968:	e3314393          	xori	t2,sp,-461
    8000196c:	0085e263          	bltu	a1,s0,80001970 <main_26+0x2a>
    80001970:	417dd533          	sra	a0,s11,s7
    80001974:	8f8d                	sub	a5,a5,a1
    80001976:	0094bb33          	sltu	s6,s1,s1
    8000197a:	ca95                	beqz	a3,800019ae <main_26+0x68>
    8000197c:	01ca4133          	xor	sp,s4,t3
    80001980:	03498fb3          	mul	t6,s3,s4
    80001984:	02eb76bb          	remuw	a3,s6,a4
    80001988:	04a9                	addi	s1,s1,10
    8000198a:	03f76733          	rem	a4,a4,t6
    8000198e:	0094bb33          	sltu	s6,s1,s1
    80001992:	41660233          	sub	tp,a2,s6
    80001996:	03d44f3b          	divw	t5,s0,t4
    8000199a:	002495b3          	sll	a1,s1,sp
    8000199e:	8c79                	and	s0,s0,a4
    800019a0:	e309                	bnez	a4,800019a2 <main_26+0x5c>
    800019a2:	000725b3          	sltz	a1,a4
    800019a6:	41205ebb          	sraw	t4,zero,s2
    800019aa:	03498fb3          	mul	t6,s3,s4
    800019ae:	0588                	addi	a0,sp,704
    800019b0:	0a6c4417          	auipc	s0,0xa6c4
    800019b4:	8a3a                	mv	s4,a4
    800019b6:	03498fb3          	mul	t6,s3,s4
    800019ba:	03d44f3b          	divw	t5,s0,t4
    800019be:	9d01                	subw	a0,a0,s0
    800019c0:	0588                	addi	a0,sp,704
    800019c2:	03498fb3          	mul	t6,s3,s4
    800019c6:	000b561b          	srliw	a2,s6,0x0
    800019ca:	8a3a                	mv	s4,a4
    800019cc:	41205ebb          	sraw	t4,zero,s2
    800019d0:	02061833          	mulh	a6,a2,zero
    800019d4:	03d44f3b          	divw	t5,s0,t4
    800019d8:	0094bb33          	sltu	s6,s1,s1
    800019dc:	40dc89bb          	subw	s3,s9,a3
    800019e0:	003de5b3          	or	a1,s11,gp
    800019e4:	02b2dc33          	divu	s8,t0,a1
    800019e8:	0588                	addi	a0,sp,704
    800019ea:	03d44f3b          	divw	t5,s0,t4
    800019ee:	03498fb3          	mul	t6,s3,s4
    800019f2:	0cc1881b          	addiw	a6,gp,204
    800019f6:	03d44f3b          	divw	t5,s0,t4
    800019fa:	0588                	addi	a0,sp,704
    800019fc:	69ad                	lui	s3,0xb
    800019fe:	002495b3          	sll	a1,s1,sp
    80001a02:	0166feb3          	and	t4,a3,s6
    80001a06:	e341                	bnez	a4,80001a86 <main_31+0x64>
    80001a08:	04a9                	addi	s1,s1,10
    80001a0a:	03498fb3          	mul	t6,s3,s4
    80001a0e:	69ad                	lui	s3,0xb
    80001a10:	41205ebb          	sraw	t4,zero,s2
    80001a14:	0091ddb3          	srl	s11,gp,s1
    80001a18:	02b2dc33          	divu	s8,t0,a1
    80001a1c:	9a7e                	add	s4,s4,t6
    80001a1e:	00ce1c1b          	slliw	s8,t3,0xc

0000000080001a22 <main_31>:
    80001a22:	00400eef          	jal	t4,80001a26 <main_31+0x4>
    80001a26:	a809                	j	80001a38 <main_31+0x16>
    80001a28:	02e000ef          	jal	80001a56 <main_31+0x34>
    80001a2c:	038000ef          	jal	80001a64 <main_31+0x42>
    80001a30:	a02d                	j	80001a5a <main_31+0x38>
    80001a32:	a829                	j	80001a4c <main_31+0x2a>
    80001a34:	02a000ef          	jal	80001a5e <main_31+0x3c>
    80001a38:	a801                	j	80001a48 <main_31+0x26>
    80001a3a:	ffbff0ef          	jal	80001a34 <main_31+0x12>
    80001a3e:	a011                	j	80001a42 <main_31+0x20>
    80001a40:	a019                	j	80001a46 <main_31+0x24>
    80001a42:	024000ef          	jal	80001a66 <main_31+0x44>
    80001a46:	bfd5                	j	80001a3a <main_31+0x18>
    80001a48:	ff9ff0ef          	jal	80001a40 <main_31+0x1e>
    80001a4c:	020000ef          	jal	80001a6c <main_31+0x4a>
    80001a50:	fd9ff0ef          	jal	80001a28 <main_31+0x6>
    80001a54:	a819                	j	80001a6a <main_31+0x48>
    80001a56:	fd7ff0ef          	jal	80001a2c <main_31+0xa>
    80001a5a:	006000ef          	jal	80001a60 <main_31+0x3e>
    80001a5e:	bfdd                	j	80001a54 <main_31+0x32>
    80001a60:	fdfff0ef          	jal	80001a3e <main_31+0x1c>
    80001a64:	b7f9                	j	80001a32 <main_31+0x10>
    80001a66:	febff0ef          	jal	80001a50 <main_31+0x2e>
    80001a6a:	b7d9                	j	80001a30 <main_31+0xe>
    80001a6c:	00d316bb          	sllw	a3,t1,a3
    80001a70:	01b60363          	beq	a2,s11,80001a76 <main_31+0x54>
    80001a74:	69ad                	lui	s3,0xb
    80001a76:	002495b3          	sll	a1,s1,sp
    80001a7a:	8a3a                	mv	s4,a4
    80001a7c:	0001                	nop
    80001a7e:	02a986bb          	mulw	a3,s3,a0
    80001a82:	05b95263          	bge	s2,s11,80001ac6 <main_31+0xa4>
    80001a86:	000b561b          	srliw	a2,s6,0x0
    80001a8a:	03272133          	mulhsu	sp,a4,s2
    80001a8e:	03272133          	mulhsu	sp,a4,s2
    80001a92:	01b55bbb          	srlw	s7,a0,s11
    80001a96:	02d04563          	bgtz	a3,80001ac0 <main_31+0x9e>
    80001a9a:	28d0f213          	andi	tp,ra,653
    80001a9e:	03f76733          	rem	a4,a4,t6
    80001aa2:	3f7d                	addiw	t5,t5,-1
    80001aa4:	c681                	beqz	a3,80001aac <main_31+0x8a>
    80001aa6:	0588                	addi	a0,sp,704
    80001aa8:	000807bb          	addw	a5,a6,zero
    80001aac:	41205ebb          	sraw	t4,zero,s2
    80001ab0:	01b55bbb          	srlw	s7,a0,s11
    80001ab4:	0166feb3          	and	t4,a3,s6
    80001ab8:	02a986bb          	mulw	a3,s3,a0
    80001abc:	02fffcb3          	remu	s9,t6,a5
    80001ac0:	ef19                	bnez	a4,80001ade <main_31+0xbc>
    80001ac2:	02eb76bb          	remuw	a3,s6,a4
    80001ac6:	40dc89bb          	subw	s3,s9,a3
    80001aca:	0aa6                	slli	s5,s5,0x9
    80001acc:	03eec933          	div	s2,t4,t5
    80001ad0:	8e49                	or	a2,a2,a0
    80001ad2:	02415b3b          	divuw	s6,sp,tp
    80001ad6:	018a5213          	srli	tp,s4,0x18
    80001ada:	01b95463          	bge	s2,s11,80001ae2 <main_31+0xc0>
    80001ade:	000725b3          	sltz	a1,a4
    80001ae2:	00d316bb          	sllw	a3,t1,a3
    80001ae6:	0aa6                	slli	s5,s5,0x9
    80001ae8:	41205ebb          	sraw	t4,zero,s2
    80001aec:	41bb519b          	sraiw	gp,s6,0x1b
    80001af0:	01b55bbb          	srlw	s7,a0,s11
    80001af4:	02deedbb          	remw	s11,t4,a3
    80001af8:	02eb76bb          	remuw	a3,s6,a4
    80001afc:	41660233          	sub	tp,a2,s6
    80001b00:	03498fb3          	mul	t6,s3,s4
    80001b04:	8e49                	or	a2,a2,a0
    80001b06:	003de5b3          	or	a1,s11,gp
    80001b0a:	c299                	beqz	a3,80001b10 <main_31+0xee>
    80001b0c:	02deedbb          	remw	s11,t4,a3
    80001b10:	0094bb33          	sltu	s6,s1,s1
    80001b14:	02fffcb3          	remu	s9,t6,a5
    80001b18:	69ad                	lui	s3,0xb
    80001b1a:	82f9                	srli	a3,a3,0x1e
    80001b1c:	01b55bbb          	srlw	s7,a0,s11
    80001b20:	0094bb33          	sltu	s6,s1,s1
    80001b24:	69ad                	lui	s3,0xb
    80001b26:	00ce1c1b          	slliw	s8,t3,0xc
    80001b2a:	02415b3b          	divuw	s6,sp,tp
    80001b2e:	023830b3          	mulhu	ra,a6,gp
    80001b32:	9db9                	addw	a1,a1,a4
    80001b34:	00d316bb          	sllw	a3,t1,a3
    80001b38:	8f8d                	sub	a5,a5,a1
    80001b3a:	8c79                	and	s0,s0,a4
    80001b3c:	0aa6                	slli	s5,s5,0x9
    80001b3e:	9db9                	addw	a1,a1,a4
    80001b40:	93a6ba13          	sltiu	s4,a3,-1734
    80001b44:	02a986bb          	mulw	a3,s3,a0
    80001b48:	9a7e                	add	s4,s4,t6
    80001b4a:	9a7e                	add	s4,s4,t6
    80001b4c:	023a9b63          	bne	s5,gp,80001b82 <main_31+0x160>
    80001b50:	000725b3          	sltz	a1,a4
    80001b54:	56fd                	li	a3,-1
    80001b56:	9db9                	addw	a1,a1,a4
    80001b58:	000b561b          	srliw	a2,s6,0x0
    80001b5c:	8c21                	xor	s0,s0,s0
    80001b5e:	28d0f213          	andi	tp,ra,653
    80001b62:	9d01                	subw	a0,a0,s0
    80001b64:	8c79                	and	s0,s0,a4
    80001b66:	3f7d                	addiw	t5,t5,-1
    80001b68:	8c79                	and	s0,s0,a4
    80001b6a:	ca8d                	beqz	a3,80001b9c <main_31+0x17a>
    80001b6c:	8c79                	and	s0,s0,a4
    80001b6e:	023830b3          	mulhu	ra,a6,gp
    80001b72:	02eb76bb          	remuw	a3,s6,a4
    80001b76:	04a9                	addi	s1,s1,10
    80001b78:	0cc1881b          	addiw	a6,gp,204
    80001b7c:	41660233          	sub	tp,a2,s6
    80001b80:	0aa6                	slli	s5,s5,0x9
    80001b82:	8c79                	and	s0,s0,a4
    80001b84:	000807bb          	addw	a5,a6,zero
    80001b88:	0091ddb3          	srl	s11,gp,s1
    80001b8c:	0085ea63          	bltu	a1,s0,80001ba0 <main_31+0x17e>
    80001b90:	3f7d                	addiw	t5,t5,-1
    80001b92:	0085e263          	bltu	a1,s0,80001b96 <main_31+0x174>
    80001b96:	000b561b          	srliw	a2,s6,0x0
    80001b9a:	04a9                	addi	s1,s1,10
    80001b9c:	02a986bb          	mulw	a3,s3,a0
    80001ba0:	84627b37          	lui	s6,0x84627
    80001ba4:	0001                	nop
    80001ba6:	8c21                	xor	s0,s0,s0
    80001ba8:	00d316bb          	sllw	a3,t1,a3
    80001bac:	01a31093          	slli	ra,t1,0x1a
    80001bb0:	40dc89bb          	subw	s3,s9,a3
    80001bb4:	01ca4133          	xor	sp,s4,t3
    80001bb8:	03d44f3b          	divw	t5,s0,t4
    80001bbc:	0001                	nop
    80001bbe:	0094bb33          	sltu	s6,s1,s1
    80001bc2:	0001                	nop
    80001bc4:	03498fb3          	mul	t6,s3,s4
    80001bc8:	0001                	nop
    80001bca:	89d9                	andi	a1,a1,22
    80001bcc:	0aa6                	slli	s5,s5,0x9
    80001bce:	023830b3          	mulhu	ra,a6,gp
    80001bd2:	00d04f63          	bgtz	a3,80001bf0 <main_31+0x1ce>
    80001bd6:	02415b3b          	divuw	s6,sp,tp
    80001bda:	03d44f3b          	divw	t5,s0,t4
    80001bde:	86d9                	srai	a3,a3,0x16
    80001be0:	93a6ba13          	sltiu	s4,a3,-1734
    80001be4:	03498fb3          	mul	t6,s3,s4
    80001be8:	41660233          	sub	tp,a2,s6
    80001bec:	4368d313          	srai	t1,a7,0x36
    80001bf0:	01ca4133          	xor	sp,s4,t3
    80001bf4:	41205ebb          	sraw	t4,zero,s2
    80001bf8:	9d01                	subw	a0,a0,s0
    80001bfa:	04a9                	addi	s1,s1,10
    80001bfc:	03272133          	mulhsu	sp,a4,s2
    80001c00:	04d04563          	bgtz	a3,80001c4a <main_31+0x228>
    80001c04:	0166feb3          	and	t4,a3,s6
    80001c08:	0001                	nop
    80001c0a:	02b2dc33          	divu	s8,t0,a1
    80001c0e:	01ca4133          	xor	sp,s4,t3
    80001c12:	84627b37          	lui	s6,0x84627
    80001c16:	02a986bb          	mulw	a3,s3,a0
    80001c1a:	41660233          	sub	tp,a2,s6
    80001c1e:	28d0f213          	andi	tp,ra,653
    80001c22:	03272133          	mulhsu	sp,a4,s2
    80001c26:	01e203b3          	add	t2,tp,t5
    80001c2a:	02deedbb          	remw	s11,t4,a3
    80001c2e:	02eb76bb          	remuw	a3,s6,a4
    80001c32:	02415b3b          	divuw	s6,sp,tp
    80001c36:	3f7d                	addiw	t5,t5,-1
    80001c38:	01a31093          	slli	ra,t1,0x1a
    80001c3c:	03d44f3b          	divw	t5,s0,t4
    80001c40:	56fd                	li	a3,-1
    80001c42:	edf82113          	slti	sp,a6,-289
    80001c46:	0166feb3          	and	t4,a3,s6
    80001c4a:	0588                	addi	a0,sp,704
    80001c4c:	01ca4133          	xor	sp,s4,t3
    80001c50:	8c21                	xor	s0,s0,s0
    80001c52:	e3314393          	xori	t2,sp,-461
    80001c56:	8a3a                	mv	s4,a4
    80001c58:	02415b3b          	divuw	s6,sp,tp
    80001c5c:	69ad                	lui	s3,0xb
    80001c5e:	9db9                	addw	a1,a1,a4
    80001c60:	9a7e                	add	s4,s4,t6
    80001c62:	8c21                	xor	s0,s0,s0
    80001c64:	02fffcb3          	remu	s9,t6,a5
    80001c68:	9db9                	addw	a1,a1,a4
    80001c6a:	9db9                	addw	a1,a1,a4
    80001c6c:	01a31093          	slli	ra,t1,0x1a
    80001c70:	02eb76bb          	remuw	a3,s6,a4
    80001c74:	02fffcb3          	remu	s9,t6,a5
    80001c78:	02fffcb3          	remu	s9,t6,a5
    80001c7c:	03f76733          	rem	a4,a4,t6
    80001c80:	0285e563          	bltu	a1,s0,80001caa <main_31+0x288>
    80001c84:	0aa6                	slli	s5,s5,0x9
    80001c86:	0a6c4417          	auipc	s0,0xa6c4
    80001c8a:	03272133          	mulhsu	sp,a4,s2
    80001c8e:	02b2dc33          	divu	s8,t0,a1
    80001c92:	0166feb3          	and	t4,a3,s6
    80001c96:	e3314393          	xori	t2,sp,-461
    80001c9a:	02b2dc33          	divu	s8,t0,a1
    80001c9e:	00d316bb          	sllw	a3,t1,a3
    80001ca2:	9a7e                	add	s4,s4,t6
    80001ca4:	8e49                	or	a2,a2,a0
    80001ca6:	00ce1c1b          	slliw	s8,t3,0xc
    80001caa:	029bfc63          	bgeu	s7,s1,80001ce2 <main_31+0x2c0>
    80001cae:	e309                	bnez	a4,80001cb0 <main_31+0x28e>
    80001cb0:	0166feb3          	and	t4,a3,s6
    80001cb4:	02eb76bb          	remuw	a3,s6,a4
    80001cb8:	09730a93          	addi	s5,t1,151
    80001cbc:	40dc89bb          	subw	s3,s9,a3
    80001cc0:	01ca4133          	xor	sp,s4,t3
    80001cc4:	4368d313          	srai	t1,a7,0x36
    80001cc8:	02deedbb          	remw	s11,t4,a3
    80001ccc:	0091ddb3          	srl	s11,gp,s1
    80001cd0:	8c21                	xor	s0,s0,s0
    80001cd2:	82f9                	srli	a3,a3,0x1e
    80001cd4:	02a986bb          	mulw	a3,s3,a0
    80001cd8:	02a986bb          	mulw	a3,s3,a0
    80001cdc:	0001                	nop
    80001cde:	417dd533          	sra	a0,s11,s7
    80001ce2:	0091ddb3          	srl	s11,gp,s1
    80001ce6:	8c21                	xor	s0,s0,s0
    80001ce8:	01b60863          	beq	a2,s11,80001cf8 <main_31+0x2d6>
    80001cec:	86d9                	srai	a3,a3,0x16
    80001cee:	8e49                	or	a2,a2,a0
    80001cf0:	41205ebb          	sraw	t4,zero,s2
    80001cf4:	edf82113          	slti	sp,a6,-289
    80001cf8:	02061833          	mulh	a6,a2,zero
    80001cfc:	02eb76bb          	remuw	a3,s6,a4
    80001d00:	07b95163          	bge	s2,s11,80001d62 <main_21+0x4a>
    80001d04:	93a6ba13          	sltiu	s4,a3,-1734
    80001d08:	02deedbb          	remw	s11,t4,a3
    80001d0c:	01b55bbb          	srlw	s7,a0,s11
    80001d10:	03d44f3b          	divw	t5,s0,t4
    80001d14:	018a5213          	srli	tp,s4,0x18

0000000080001d18 <main_21>:
    80001d18:	01c00eef          	jal	t4,80001d34 <main_21+0x1c>
    80001d1c:	a019                	j	80001d22 <main_21+0xa>
    80001d1e:	00e000ef          	jal	80001d2c <main_21+0x14>
    80001d22:	00e000ef          	jal	80001d30 <main_21+0x18>
    80001d26:	bfdd                	j	80001d1c <main_21+0x4>
    80001d28:	010000ef          	jal	80001d38 <main_21+0x20>
    80001d2c:	ffdff0ef          	jal	80001d28 <main_21+0x10>
    80001d30:	b7fd                	j	80001d1e <main_21+0x6>
    80001d32:	bfd5                	j	80001d26 <main_21+0xe>
    80001d34:	a009                	j	80001d36 <main_21+0x1e>
    80001d36:	a011                	j	80001d3a <main_21+0x22>
    80001d38:	a011                	j	80001d3c <main_21+0x24>
    80001d3a:	bfe5                	j	80001d32 <main_21+0x1a>
    80001d3c:	5be3e993          	ori	s3,t2,1470
    80001d40:	01e203b3          	add	t2,tp,t5
    80001d44:	9db9                	addw	a1,a1,a4
    80001d46:	9db9                	addw	a1,a1,a4
    80001d48:	e3314393          	xori	t2,sp,-461
    80001d4c:	edf82113          	slti	sp,a6,-289
    80001d50:	02b2dc33          	divu	s8,t0,a1
    80001d54:	9d01                	subw	a0,a0,s0
    80001d56:	02415b3b          	divuw	s6,sp,tp
    80001d5a:	02b2dc33          	divu	s8,t0,a1
    80001d5e:	03498fb3          	mul	t6,s3,s4
    80001d62:	002495b3          	sll	a1,s1,sp
    80001d66:	03272133          	mulhsu	sp,a4,s2
    80001d6a:	000725b3          	sltz	a1,a4
    80001d6e:	41bb519b          	sraiw	gp,s6,0x1b
    80001d72:	00d04f63          	bgtz	a3,80001d90 <main_21+0x78>
    80001d76:	417dd533          	sra	a0,s11,s7
    80001d7a:	69ad                	lui	s3,0xb
    80001d7c:	9d01                	subw	a0,a0,s0
    80001d7e:	023830b3          	mulhu	ra,a6,gp
    80001d82:	0166feb3          	and	t4,a3,s6
    80001d86:	ca81                	beqz	a3,80001d96 <main_21+0x7e>
    80001d88:	0094bb33          	sltu	s6,s1,s1
    80001d8c:	0094bb33          	sltu	s6,s1,s1
    80001d90:	82f9                	srli	a3,a3,0x1e
    80001d92:	01ca4133          	xor	sp,s4,t3
    80001d96:	e3314393          	xori	t2,sp,-461
    80001d9a:	00d316bb          	sllw	a3,t1,a3
    80001d9e:	56fd                	li	a3,-1
    80001da0:	8c21                	xor	s0,s0,s0
    80001da2:	03b60c63          	beq	a2,s11,80001dda <main_21+0xc2>
    80001da6:	5be3e993          	ori	s3,t2,1470
    80001daa:	018a5213          	srli	tp,s4,0x18
    80001dae:	03498fb3          	mul	t6,s3,s4
    80001db2:	41660233          	sub	tp,a2,s6
    80001db6:	02a986bb          	mulw	a3,s3,a0
    80001dba:	02b2dc33          	divu	s8,t0,a1
    80001dbe:	0094bb33          	sltu	s6,s1,s1
    80001dc2:	02d04863          	bgtz	a3,80001df2 <main_21+0xda>
    80001dc6:	82f9                	srli	a3,a3,0x1e
    80001dc8:	02b2dc33          	divu	s8,t0,a1
    80001dcc:	02fffcb3          	remu	s9,t6,a5
    80001dd0:	41205ebb          	sraw	t4,zero,s2
    80001dd4:	02415b3b          	divuw	s6,sp,tp
    80001dd8:	9a7e                	add	s4,s4,t6
    80001dda:	03d44f3b          	divw	t5,s0,t4
    80001dde:	28d0f213          	andi	tp,ra,653
    80001de2:	9d01                	subw	a0,a0,s0
    80001de4:	5be3e993          	ori	s3,t2,1470
    80001de8:	023a9f63          	bne	s5,gp,80001e26 <main_21+0x10e>
    80001dec:	0aa6                	slli	s5,s5,0x9
    80001dee:	82f9                	srli	a3,a3,0x1e
    80001df0:	9db9                	addw	a1,a1,a4
    80001df2:	40dc89bb          	subw	s3,s9,a3
    80001df6:	4368d313          	srai	t1,a7,0x36
    80001dfa:	9db9                	addw	a1,a1,a4
    80001dfc:	002495b3          	sll	a1,s1,sp
    80001e00:	8a3a                	mv	s4,a4
    80001e02:	69ad                	lui	s3,0xb
    80001e04:	0001                	nop
    80001e06:	02b2dc33          	divu	s8,t0,a1
    80001e0a:	01b55bbb          	srlw	s7,a0,s11
    80001e0e:	0285e963          	bltu	a1,s0,80001e40 <main_21+0x128>
    80001e12:	89d9                	andi	a1,a1,22
    80001e14:	01a31093          	slli	ra,t1,0x1a
    80001e18:	0091ddb3          	srl	s11,gp,s1
    80001e1c:	0001                	nop
    80001e1e:	009bf463          	bgeu	s7,s1,80001e26 <main_21+0x10e>
    80001e22:	41205ebb          	sraw	t4,zero,s2
    80001e26:	0166feb3          	and	t4,a3,s6
    80001e2a:	0091ddb3          	srl	s11,gp,s1
    80001e2e:	56fd                	li	a3,-1
    80001e30:	04a9                	addi	s1,s1,10
    80001e32:	ce99                	beqz	a3,80001e50 <main_21+0x138>
    80001e34:	029bf463          	bgeu	s7,s1,80001e5c <main_21+0x144>
    80001e38:	86d9                	srai	a3,a3,0x16
    80001e3a:	000b561b          	srliw	a2,s6,0x0
    80001e3e:	0001                	nop
    80001e40:	8e49                	or	a2,a2,a0
    80001e42:	0166feb3          	and	t4,a3,s6
    80001e46:	000b561b          	srliw	a2,s6,0x0
    80001e4a:	02deedbb          	remw	s11,t4,a3
    80001e4e:	8e49                	or	a2,a2,a0
    80001e50:	9db9                	addw	a1,a1,a4
    80001e52:	0cc1881b          	addiw	a6,gp,204
    80001e56:	8c21                	xor	s0,s0,s0
    80001e58:	03b60f63          	beq	a2,s11,80001e96 <main_21+0x17e>
    80001e5c:	000807bb          	addw	a5,a6,zero
    80001e60:	03f76733          	rem	a4,a4,t6
    80001e64:	0a6c4417          	auipc	s0,0xa6c4
    80001e68:	84627b37          	lui	s6,0x84627
    80001e6c:	717d                	addi	sp,sp,-16
    80001e6e:	0085e563          	bltu	a1,s0,80001e78 <main_21+0x160>
    80001e72:	003a9863          	bne	s5,gp,80001e82 <main_21+0x16a>
    80001e76:	89d9                	andi	a1,a1,22
    80001e78:	0085e863          	bltu	a1,s0,80001e88 <main_21+0x170>
    80001e7c:	9db9                	addw	a1,a1,a4
    80001e7e:	02415b3b          	divuw	s6,sp,tp
    80001e82:	003a9e63          	bne	s5,gp,80001e9e <main_21+0x186>
    80001e86:	717d                	addi	sp,sp,-16
    80001e88:	0166feb3          	and	t4,a3,s6
    80001e8c:	e309                	bnez	a4,80001e8e <main_21+0x176>
    80001e8e:	02eb76bb          	remuw	a3,s6,a4
    80001e92:	01e203b3          	add	t2,tp,t5
    80001e96:	4368d313          	srai	t1,a7,0x36
    80001e9a:	002495b3          	sll	a1,s1,sp
    80001e9e:	717d                	addi	sp,sp,-16
    80001ea0:	02d04663          	bgtz	a3,80001ecc <main_21+0x1b4>
    80001ea4:	018a5213          	srli	tp,s4,0x18
    80001ea8:	03d44f3b          	divw	t5,s0,t4
    80001eac:	0cc1881b          	addiw	a6,gp,204
    80001eb0:	56fd                	li	a3,-1
    80001eb2:	000725b3          	sltz	a1,a4
    80001eb6:	02415b3b          	divuw	s6,sp,tp
    80001eba:	89d9                	andi	a1,a1,22
    80001ebc:	01a31093          	slli	ra,t1,0x1a
    80001ec0:	01b55bbb          	srlw	s7,a0,s11
    80001ec4:	09730a93          	addi	s5,t1,151
    80001ec8:	00d316bb          	sllw	a3,t1,a3
    80001ecc:	8f8d                	sub	a5,a5,a1
    80001ece:	82f9                	srli	a3,a3,0x1e
    80001ed0:	000b561b          	srliw	a2,s6,0x0
    80001ed4:	03b95d63          	bge	s2,s11,80001f0e <main_21+0x1f6>
    80001ed8:	01ca4133          	xor	sp,s4,t3
    80001edc:	4368d313          	srai	t1,a7,0x36
    80001ee0:	0094bb33          	sltu	s6,s1,s1
    80001ee4:	717d                	addi	sp,sp,-16
    80001ee6:	000b561b          	srliw	a2,s6,0x0
    80001eea:	28d0f213          	andi	tp,ra,653
    80001eee:	02fffcb3          	remu	s9,t6,a5
    80001ef2:	003de5b3          	or	a1,s11,gp
    80001ef6:	84627b37          	lui	s6,0x84627
    80001efa:	0588                	addi	a0,sp,704
    80001efc:	03b60163          	beq	a2,s11,80001f1e <main_21+0x206>
    80001f00:	e319                	bnez	a4,80001f06 <main_21+0x1ee>
    80001f02:	0166feb3          	and	t4,a3,s6
    80001f06:	00d316bb          	sllw	a3,t1,a3
    80001f0a:	01b55bbb          	srlw	s7,a0,s11
    80001f0e:	003de5b3          	or	a1,s11,gp
    80001f12:	0085e263          	bltu	a1,s0,80001f16 <main_21+0x1fe>
    80001f16:	03d44f3b          	divw	t5,s0,t4
    80001f1a:	03f76733          	rem	a4,a4,t6
    80001f1e:	8c79                	and	s0,s0,a4
    80001f20:	00ce1c1b          	slliw	s8,t3,0xc
    80001f24:	02b2dc33          	divu	s8,t0,a1
    80001f28:	0094bb33          	sltu	s6,s1,s1
    80001f2c:	4368d313          	srai	t1,a7,0x36
    80001f30:	01b55bbb          	srlw	s7,a0,s11
    80001f34:	02d04c63          	bgtz	a3,80001f6c <main_21+0x254>
    80001f38:	01b55bbb          	srlw	s7,a0,s11
    80001f3c:	84627b37          	lui	s6,0x84627
    80001f40:	4368d313          	srai	t1,a7,0x36
    80001f44:	01b95363          	bge	s2,s11,80001f4a <main_21+0x232>
    80001f48:	56fd                	li	a3,-1
    80001f4a:	0a6c4417          	auipc	s0,0xa6c4
    80001f4e:	41bb519b          	sraiw	gp,s6,0x1b
    80001f52:	02deedbb          	remw	s11,t4,a3
    80001f56:	023830b3          	mulhu	ra,a6,gp
    80001f5a:	043a9263          	bne	s5,gp,80001f9e <main_21+0x286>
    80001f5e:	023830b3          	mulhu	ra,a6,gp
    80001f62:	9a7e                	add	s4,s4,t6
    80001f64:	000725b3          	sltz	a1,a4
    80001f68:	41bb519b          	sraiw	gp,s6,0x1b
    80001f6c:	000b561b          	srliw	a2,s6,0x0
    80001f70:	04a9                	addi	s1,s1,10
    80001f72:	8e49                	or	a2,a2,a0
    80001f74:	02eb76bb          	remuw	a3,s6,a4
    80001f78:	69ad                	lui	s3,0xb
    80001f7a:	018a5213          	srli	tp,s4,0x18
    80001f7e:	edf82113          	slti	sp,a6,-289
    80001f82:	8f8d                	sub	a5,a5,a1
    80001f84:	41205ebb          	sraw	t4,zero,s2
    80001f88:	01a31093          	slli	ra,t1,0x1a
    80001f8c:	000807bb          	addw	a5,a6,zero
    80001f90:	043a9163          	bne	s5,gp,80001fd2 <main_21+0x2ba>
    80001f94:	c699                	beqz	a3,80001fa2 <main_21+0x28a>
    80001f96:	03eec933          	div	s2,t4,t5
    80001f9a:	02deedbb          	remw	s11,t4,a3
    80001f9e:	9a7e                	add	s4,s4,t6
    80001fa0:	717d                	addi	sp,sp,-16
    80001fa2:	000725b3          	sltz	a1,a4
    80001fa6:	5be3e993          	ori	s3,t2,1470
    80001faa:	9db9                	addw	a1,a1,a4
    80001fac:	09730a93          	addi	s5,t1,151
    80001fb0:	c299                	beqz	a3,80001fb6 <main_21+0x29e>
    80001fb2:	02fffcb3          	remu	s9,t6,a5
    80001fb6:	00ce1c1b          	slliw	s8,t3,0xc
    80001fba:	41205ebb          	sraw	t4,zero,s2
    80001fbe:	02deedbb          	remw	s11,t4,a3
    80001fc2:	03498fb3          	mul	t6,s3,s4
    80001fc6:	000725b3          	sltz	a1,a4
    80001fca:	002495b3          	sll	a1,s1,sp
    80001fce:	02fffcb3          	remu	s9,t6,a5
    80001fd2:	000725b3          	sltz	a1,a4
    80001fd6:	93a6ba13          	sltiu	s4,a3,-1734
    80001fda:	84627b37          	lui	s6,0x84627
    80001fde:	02415b3b          	divuw	s6,sp,tp
    80001fe2:	9a7e                	add	s4,s4,t6
    80001fe4:	417dd533          	sra	a0,s11,s7
    80001fe8:	000b561b          	srliw	a2,s6,0x0
    80001fec:	8e49                	or	a2,a2,a0
    80001fee:	9a7e                	add	s4,s4,t6
    80001ff0:	03b60963          	beq	a2,s11,80002022 <main_21+0x30a>
    80001ff4:	01e203b3          	add	t2,tp,t5
    80001ff8:	82f9                	srli	a3,a3,0x1e
    80001ffa:	000725b3          	sltz	a1,a4
    80001ffe:	02deedbb          	remw	s11,t4,a3
    80002002:	86d9                	srai	a3,a3,0x16
    80002004:	000807bb          	addw	a5,a6,zero
    80002008:	ce91                	beqz	a3,80002024 <main_21+0x30c>
    8000200a:	01a31093          	slli	ra,t1,0x1a
    8000200e:	03d44f3b          	divw	t5,s0,t4
    80002012:	8c21                	xor	s0,s0,s0
    80002014:	e701                	bnez	a4,8000201c <main_21+0x304>
    80002016:	edf82113          	slti	sp,a6,-289
    8000201a:	9a7e                	add	s4,s4,t6
    8000201c:	8c79                	and	s0,s0,a4
    8000201e:	03498fb3          	mul	t6,s3,s4
    80002022:	9a7e                	add	s4,s4,t6
    80002024:	ca9d                	beqz	a3,8000205a <main_21+0x342>
    80002026:	000b561b          	srliw	a2,s6,0x0
    8000202a:	28d0f213          	andi	tp,ra,653
    8000202e:	9d01                	subw	a0,a0,s0
    80002030:	93a6ba13          	sltiu	s4,a3,-1734
    80002034:	40dc89bb          	subw	s3,s9,a3
    80002038:	023830b3          	mulhu	ra,a6,gp
    8000203c:	9a7e                	add	s4,s4,t6
    8000203e:	5be3e993          	ori	s3,t2,1470
    80002042:	0485e063          	bltu	a1,s0,80002082 <main_21+0x36a>
    80002046:	41660233          	sub	tp,a2,s6
    8000204a:	82f9                	srli	a3,a3,0x1e
    8000204c:	03d44f3b          	divw	t5,s0,t4
    80002050:	01e203b3          	add	t2,tp,t5
    80002054:	000b561b          	srliw	a2,s6,0x0
    80002058:	9a7e                	add	s4,s4,t6
    8000205a:	417dd533          	sra	a0,s11,s7
    8000205e:	02b2dc33          	divu	s8,t0,a1
    80002062:	03272133          	mulhsu	sp,a4,s2
    80002066:	93a6ba13          	sltiu	s4,a3,-1734
    8000206a:	84627b37          	lui	s6,0x84627
    8000206e:	4368d313          	srai	t1,a7,0x36
    80002072:	4368d313          	srai	t1,a7,0x36
    80002076:	8c79                	and	s0,s0,a4
    80002078:	0588                	addi	a0,sp,704
    8000207a:	0166feb3          	and	t4,a3,s6
    8000207e:	8a3a                	mv	s4,a4
    80002080:	89d9                	andi	a1,a1,22
    80002082:	000725b3          	sltz	a1,a4
    80002086:	e3314393          	xori	t2,sp,-461
    8000208a:	8f8d                	sub	a5,a5,a1
    8000208c:	0001                	nop
    8000208e:	03b95a63          	bge	s2,s11,800020c2 <main_21+0x3aa>
    80002092:	023830b3          	mulhu	ra,a6,gp
    80002096:	0085e963          	bltu	a1,s0,800020a8 <main_21+0x390>
    8000209a:	69ad                	lui	s3,0xb
    8000209c:	01a31093          	slli	ra,t1,0x1a
    800020a0:	02415b3b          	divuw	s6,sp,tp
    800020a4:	56fd                	li	a3,-1
    800020a6:	0aa6                	slli	s5,s5,0x9
    800020a8:	02a986bb          	mulw	a3,s3,a0
    800020ac:	0a6c4417          	auipc	s0,0xa6c4
    800020b0:	9a7e                	add	s4,s4,t6
    800020b2:	e3314393          	xori	t2,sp,-461
    800020b6:	0cc1881b          	addiw	a6,gp,204
    800020ba:	003a9863          	bne	s5,gp,800020ca <main_21+0x3b2>
    800020be:	09730a93          	addi	s5,t1,151
    800020c2:	41660233          	sub	tp,a2,s6
    800020c6:	c68d                	beqz	a3,800020f0 <main_21+0x3d8>
    800020c8:	8e49                	or	a2,a2,a0
    800020ca:	3f7d                	addiw	t5,t5,-1
    800020cc:	002495b3          	sll	a1,s1,sp
    800020d0:	03498fb3          	mul	t6,s3,s4
    800020d4:	0285eb63          	bltu	a1,s0,8000210a <main_21+0x3f2>
    800020d8:	02a986bb          	mulw	a3,s3,a0
    800020dc:	01e203b3          	add	t2,tp,t5
    800020e0:	28d0f213          	andi	tp,ra,653
    800020e4:	000725b3          	sltz	a1,a4
    800020e8:	03d44f3b          	divw	t5,s0,t4
    800020ec:	56fd                	li	a3,-1
    800020ee:	8c79                	and	s0,s0,a4
    800020f0:	002495b3          	sll	a1,s1,sp
    800020f4:	003de5b3          	or	a1,s11,gp
    800020f8:	02fffcb3          	remu	s9,t6,a5
    800020fc:	69ad                	lui	s3,0xb
    800020fe:	01a31093          	slli	ra,t1,0x1a
    80002102:	8e49                	or	a2,a2,a0
    80002104:	8f8d                	sub	a5,a5,a1
    80002106:	003a9563          	bne	s5,gp,80002110 <main_21+0x3f8>
    8000210a:	02fffcb3          	remu	s9,t6,a5
    8000210e:	8a3a                	mv	s4,a4
    80002110:	41205ebb          	sraw	t4,zero,s2
    80002114:	000b561b          	srliw	a2,s6,0x0
    80002118:	28d0f213          	andi	tp,ra,653
    8000211c:	000725b3          	sltz	a1,a4
    80002120:	8c79                	and	s0,s0,a4
    80002122:	c2d9                	beqz	a3,800021a8 <main_33+0x66>
    80002124:	000725b3          	sltz	a1,a4
    80002128:	e3314393          	xori	t2,sp,-461
    8000212c:	023830b3          	mulhu	ra,a6,gp
    80002130:	417dd533          	sra	a0,s11,s7
    80002134:	018a5213          	srli	tp,s4,0x18
    80002138:	02415b3b          	divuw	s6,sp,tp
    8000213c:	9db9                	addw	a1,a1,a4
    8000213e:	000b561b          	srliw	a2,s6,0x0

0000000080002142 <main_33>:
    80002142:	03a00eef          	jal	t4,8000217c <main_33+0x3a>
    80002146:	028000ef          	jal	8000216e <main_33+0x2c>
    8000214a:	00c000ef          	jal	80002156 <main_33+0x14>
    8000214e:	04c000ef          	jal	8000219a <main_33+0x58>
    80002152:	022000ef          	jal	80002174 <main_33+0x32>
    80002156:	00c000ef          	jal	80002162 <main_33+0x20>
    8000215a:	a821                	j	80002172 <main_33+0x30>
    8000215c:	a80d                	j	8000218e <main_33+0x4c>
    8000215e:	008000ef          	jal	80002166 <main_33+0x24>
    80002162:	fedff0ef          	jal	8000214e <main_33+0xc>
    80002166:	fe5ff0ef          	jal	8000214a <main_33+0x8>
    8000216a:	ff5ff0ef          	jal	8000215e <main_33+0x1c>
    8000216e:	01a000ef          	jal	80002188 <main_33+0x46>
    80002172:	b7ed                	j	8000215c <main_33+0x1a>
    80002174:	fe7ff0ef          	jal	8000215a <main_33+0x18>
    80002178:	01c000ef          	jal	80002194 <main_33+0x52>
    8000217c:	fcbff0ef          	jal	80002146 <main_33+0x4>
    80002180:	bfc9                	j	80002152 <main_33+0x10>
    80002182:	004000ef          	jal	80002186 <main_33+0x44>
    80002186:	bfcd                	j	80002178 <main_33+0x36>
    80002188:	ffbff0ef          	jal	80002182 <main_33+0x40>
    8000218c:	bff9                	j	8000216a <main_33+0x28>
    8000218e:	004000ef          	jal	80002192 <main_33+0x50>
    80002192:	bfed                	j	8000218c <main_33+0x4a>
    80002194:	004000ef          	jal	80002198 <main_33+0x56>
    80002198:	b7e5                	j	80002180 <main_33+0x3e>
    8000219a:	edf82113          	slti	sp,a6,-289
    8000219e:	8a3a                	mv	s4,a4
    800021a0:	05b95163          	bge	s2,s11,800021e2 <main_33+0xa0>
    800021a4:	02deedbb          	remw	s11,t4,a3
    800021a8:	8c21                	xor	s0,s0,s0
    800021aa:	0094bb33          	sltu	s6,s1,s1
    800021ae:	02415b3b          	divuw	s6,sp,tp
    800021b2:	0aa6                	slli	s5,s5,0x9
    800021b4:	009bf463          	bgeu	s7,s1,800021bc <main_33+0x7a>
    800021b8:	002495b3          	sll	a1,s1,sp
    800021bc:	03eec933          	div	s2,t4,t5
    800021c0:	02eb76bb          	remuw	a3,s6,a4
    800021c4:	0aa6                	slli	s5,s5,0x9
    800021c6:	03eec933          	div	s2,t4,t5
    800021ca:	56fd                	li	a3,-1
    800021cc:	01e203b3          	add	t2,tp,t5
    800021d0:	03d44f3b          	divw	t5,s0,t4
    800021d4:	ef05                	bnez	a4,8000220c <main_33+0xca>
    800021d6:	02415b3b          	divuw	s6,sp,tp
    800021da:	4368d313          	srai	t1,a7,0x36
    800021de:	8f8d                	sub	a5,a5,a1
    800021e0:	86d9                	srai	a3,a3,0x16
    800021e2:	02eb76bb          	remuw	a3,s6,a4
    800021e6:	003a9e63          	bne	s5,gp,80002202 <main_33+0xc0>
    800021ea:	5be3e993          	ori	s3,t2,1470
    800021ee:	03eec933          	div	s2,t4,t5
    800021f2:	717d                	addi	sp,sp,-16
    800021f4:	0aa6                	slli	s5,s5,0x9
    800021f6:	002495b3          	sll	a1,s1,sp
    800021fa:	69ad                	lui	s3,0xb
    800021fc:	8e49                	or	a2,a2,a0
    800021fe:	02deedbb          	remw	s11,t4,a3
    80002202:	8f8d                	sub	a5,a5,a1
    80002204:	000725b3          	sltz	a1,a4
    80002208:	0094bb33          	sltu	s6,s1,s1
    8000220c:	03498fb3          	mul	t6,s3,s4
    80002210:	56fd                	li	a3,-1
    80002212:	9d01                	subw	a0,a0,s0
    80002214:	02b2dc33          	divu	s8,t0,a1
    80002218:	00d04463          	bgtz	a3,80002220 <main_33+0xde>
    8000221c:	03d44f3b          	divw	t5,s0,t4
    80002220:	9db9                	addw	a1,a1,a4
    80002222:	003a9463          	bne	s5,gp,8000222a <main_33+0xe8>
    80002226:	41660233          	sub	tp,a2,s6
    8000222a:	0cc1881b          	addiw	a6,gp,204
    8000222e:	86d9                	srai	a3,a3,0x16
    80002230:	8c79                	and	s0,s0,a4
    80002232:	03f76733          	rem	a4,a4,t6
    80002236:	28d0f213          	andi	tp,ra,653
    8000223a:	edf82113          	slti	sp,a6,-289
    8000223e:	00d316bb          	sllw	a3,t1,a3
    80002242:	41660233          	sub	tp,a2,s6
    80002246:	9a7e                	add	s4,s4,t6
    80002248:	02deedbb          	remw	s11,t4,a3
    8000224c:	0166feb3          	and	t4,a3,s6
    80002250:	02a986bb          	mulw	a3,s3,a0
    80002254:	0001                	nop
    80002256:	000725b3          	sltz	a1,a4
    8000225a:	02a986bb          	mulw	a3,s3,a0
    8000225e:	69ad                	lui	s3,0xb
    80002260:	9db9                	addw	a1,a1,a4
    80002262:	e70d                	bnez	a4,8000228c <main_33+0x14a>
    80002264:	003de5b3          	or	a1,s11,gp
    80002268:	023a9a63          	bne	s5,gp,8000229c <main_33+0x15a>
    8000226c:	9a7e                	add	s4,s4,t6
    8000226e:	002495b3          	sll	a1,s1,sp
    80002272:	0cc1881b          	addiw	a6,gp,204
    80002276:	03d44f3b          	divw	t5,s0,t4
    8000227a:	02fffcb3          	remu	s9,t6,a5
    8000227e:	03272133          	mulhsu	sp,a4,s2
    80002282:	82f9                	srli	a3,a3,0x1e
    80002284:	28d0f213          	andi	tp,ra,653
    80002288:	41660233          	sub	tp,a2,s6
    8000228c:	02b2dc33          	divu	s8,t0,a1
    80002290:	02eb76bb          	remuw	a3,s6,a4
    80002294:	0cc1881b          	addiw	a6,gp,204
    80002298:	3f7d                	addiw	t5,t5,-1
    8000229a:	9a7e                	add	s4,s4,t6
    8000229c:	0091ddb3          	srl	s11,gp,s1
    800022a0:	01a31093          	slli	ra,t1,0x1a
    800022a4:	02415b3b          	divuw	s6,sp,tp
    800022a8:	edf82113          	slti	sp,a6,-289
    800022ac:	02fffcb3          	remu	s9,t6,a5
    800022b0:	8a3a                	mv	s4,a4
    800022b2:	c289                	beqz	a3,800022b4 <main_33+0x172>
    800022b4:	01a31093          	slli	ra,t1,0x1a
    800022b8:	41bb519b          	sraiw	gp,s6,0x1b
    800022bc:	417dd533          	sra	a0,s11,s7
    800022c0:	41660233          	sub	tp,a2,s6
    800022c4:	69ad                	lui	s3,0xb
    800022c6:	02061833          	mulh	a6,a2,zero
    800022ca:	01b95563          	bge	s2,s11,800022d4 <main_33+0x192>
    800022ce:	28d0f213          	andi	tp,ra,653
    800022d2:	82f9                	srli	a3,a3,0x1e
    800022d4:	5be3e993          	ori	s3,t2,1470
    800022d8:	0091ddb3          	srl	s11,gp,s1
    800022dc:	02b2dc33          	divu	s8,t0,a1
    800022e0:	02d04963          	bgtz	a3,80002312 <main_33+0x1d0>
    800022e4:	4368d313          	srai	t1,a7,0x36
    800022e8:	9db9                	addw	a1,a1,a4
    800022ea:	002495b3          	sll	a1,s1,sp
    800022ee:	e321                	bnez	a4,8000232e <main_33+0x1ec>
    800022f0:	9db9                	addw	a1,a1,a4
    800022f2:	86d9                	srai	a3,a3,0x16
    800022f4:	40dc89bb          	subw	s3,s9,a3
    800022f8:	02deedbb          	remw	s11,t4,a3
    800022fc:	01ca4133          	xor	sp,s4,t3
    80002300:	69ad                	lui	s3,0xb
    80002302:	01ca4133          	xor	sp,s4,t3
    80002306:	03b95263          	bge	s2,s11,8000232a <main_33+0x1e8>
    8000230a:	717d                	addi	sp,sp,-16
    8000230c:	02deedbb          	remw	s11,t4,a3
    80002310:	3f7d                	addiw	t5,t5,-1
    80002312:	01a31093          	slli	ra,t1,0x1a
    80002316:	01b95a63          	bge	s2,s11,8000232a <main_33+0x1e8>
    8000231a:	023830b3          	mulhu	ra,a6,gp
    8000231e:	03272133          	mulhsu	sp,a4,s2
    80002322:	93a6ba13          	sltiu	s4,a3,-1734
    80002326:	000b561b          	srliw	a2,s6,0x0
    8000232a:	02b2dc33          	divu	s8,t0,a1
    8000232e:	0aa6                	slli	s5,s5,0x9
    80002330:	00ce1c1b          	slliw	s8,t3,0xc
    80002334:	09730a93          	addi	s5,t1,151
    80002338:	01b55bbb          	srlw	s7,a0,s11
    8000233c:	03272133          	mulhsu	sp,a4,s2
    80002340:	8a3a                	mv	s4,a4
    80002342:	9db9                	addw	a1,a1,a4
    80002344:	40dc89bb          	subw	s3,s9,a3
    80002348:	0cc1881b          	addiw	a6,gp,204
    8000234c:	8e49                	or	a2,a2,a0
    8000234e:	5be3e993          	ori	s3,t2,1470
    80002352:	03eec933          	div	s2,t4,t5
    80002356:	003a9463          	bne	s5,gp,8000235e <main_33+0x21c>
    8000235a:	41bb519b          	sraiw	gp,s6,0x1b
    8000235e:	41bb519b          	sraiw	gp,s6,0x1b
    80002362:	edf82113          	slti	sp,a6,-289
    80002366:	01e203b3          	add	t2,tp,t5
    8000236a:	edf82113          	slti	sp,a6,-289
    8000236e:	0aa6                	slli	s5,s5,0x9
    80002370:	56fd                	li	a3,-1
    80002372:	002495b3          	sll	a1,s1,sp
    80002376:	09730a93          	addi	s5,t1,151
    8000237a:	56fd                	li	a3,-1
    8000237c:	8f8d                	sub	a5,a5,a1
    8000237e:	02deedbb          	remw	s11,t4,a3
    80002382:	ce85                	beqz	a3,800023ba <main_33+0x278>
    80002384:	02eb76bb          	remuw	a3,s6,a4
    80002388:	0285e563          	bltu	a1,s0,800023b2 <main_33+0x270>
    8000238c:	03b95963          	bge	s2,s11,800023be <main_33+0x27c>
    80002390:	0085ea63          	bltu	a1,s0,800023a4 <main_33+0x262>
    80002394:	02a986bb          	mulw	a3,s3,a0
    80002398:	01b60d63          	beq	a2,s11,800023b2 <main_33+0x270>
    8000239c:	02061833          	mulh	a6,a2,zero
    800023a0:	03d44f3b          	divw	t5,s0,t4
    800023a4:	8f8d                	sub	a5,a5,a1
    800023a6:	9db9                	addw	a1,a1,a4
    800023a8:	8a3a                	mv	s4,a4
    800023aa:	0001                	nop
    800023ac:	56fd                	li	a3,-1
    800023ae:	03272133          	mulhsu	sp,a4,s2
    800023b2:	69ad                	lui	s3,0xb
    800023b4:	9d01                	subw	a0,a0,s0
    800023b6:	01b95263          	bge	s2,s11,800023ba <main_33+0x278>
    800023ba:	40dc89bb          	subw	s3,s9,a3
    800023be:	02eb76bb          	remuw	a3,s6,a4
    800023c2:	0166feb3          	and	t4,a3,s6
    800023c6:	e719                	bnez	a4,800023d4 <main_33+0x292>
    800023c8:	8f8d                	sub	a5,a5,a1
    800023ca:	0aa6                	slli	s5,s5,0x9
    800023cc:	56fd                	li	a3,-1
    800023ce:	0166feb3          	and	t4,a3,s6
    800023d2:	0588                	addi	a0,sp,704
    800023d4:	02415b3b          	divuw	s6,sp,tp
    800023d8:	9d01                	subw	a0,a0,s0
    800023da:	02b2dc33          	divu	s8,t0,a1
    800023de:	84627b37          	lui	s6,0x84627
    800023e2:	0094bb33          	sltu	s6,s1,s1
    800023e6:	ca85                	beqz	a3,80002416 <main_33+0x2d4>
    800023e8:	9d01                	subw	a0,a0,s0
    800023ea:	04a9                	addi	s1,s1,10
    800023ec:	02b2dc33          	divu	s8,t0,a1
    800023f0:	93a6ba13          	sltiu	s4,a3,-1734
    800023f4:	03272133          	mulhsu	sp,a4,s2
    800023f8:	8e49                	or	a2,a2,a0
    800023fa:	029bfb63          	bgeu	s7,s1,80002430 <main_33+0x2ee>
    800023fe:	5be3e993          	ori	s3,t2,1470
    80002402:	02deedbb          	remw	s11,t4,a3
    80002406:	86d9                	srai	a3,a3,0x16
    80002408:	03272133          	mulhsu	sp,a4,s2
    8000240c:	00d316bb          	sllw	a3,t1,a3
    80002410:	56fd                	li	a3,-1
    80002412:	03b95f63          	bge	s2,s11,80002450 <main_33+0x30e>
    80002416:	56fd                	li	a3,-1
    80002418:	0001                	nop
    8000241a:	02fffcb3          	remu	s9,t6,a5
    8000241e:	02eb76bb          	remuw	a3,s6,a4
    80002422:	018a5213          	srli	tp,s4,0x18
    80002426:	03d44f3b          	divw	t5,s0,t4
    8000242a:	01b60463          	beq	a2,s11,80002432 <main_33+0x2f0>
    8000242e:	3f7d                	addiw	t5,t5,-1
    80002430:	89d9                	andi	a1,a1,22
    80002432:	0091ddb3          	srl	s11,gp,s1
    80002436:	93a6ba13          	sltiu	s4,a3,-1734
    8000243a:	8c79                	and	s0,s0,a4
    8000243c:	01e203b3          	add	t2,tp,t5
    80002440:	03272133          	mulhsu	sp,a4,s2
    80002444:	84627b37          	lui	s6,0x84627
    80002448:	8f8d                	sub	a5,a5,a1
    8000244a:	02fffcb3          	remu	s9,t6,a5
    8000244e:	69ad                	lui	s3,0xb
    80002450:	0166feb3          	and	t4,a3,s6
    80002454:	01b55bbb          	srlw	s7,a0,s11
    80002458:	8a3a                	mv	s4,a4
    8000245a:	0aa6                	slli	s5,s5,0x9
    8000245c:	9db9                	addw	a1,a1,a4
    8000245e:	03eec933          	div	s2,t4,t5
    80002462:	000807bb          	addw	a5,a6,zero
    80002466:	4368d313          	srai	t1,a7,0x36
    8000246a:	ef05                	bnez	a4,800024a2 <main_33+0x360>
    8000246c:	0cc1881b          	addiw	a6,gp,204
    80002470:	01ca4133          	xor	sp,s4,t3
    80002474:	0094bb33          	sltu	s6,s1,s1
    80002478:	40dc89bb          	subw	s3,s9,a3
    8000247c:	03272133          	mulhsu	sp,a4,s2
    80002480:	0094bb33          	sltu	s6,s1,s1
    80002484:	018a5213          	srli	tp,s4,0x18
    80002488:	0588                	addi	a0,sp,704
    8000248a:	41bb519b          	sraiw	gp,s6,0x1b
    8000248e:	04a9                	addi	s1,s1,10
    80002490:	01b95963          	bge	s2,s11,800024a2 <main_33+0x360>
    80002494:	5be3e993          	ori	s3,t2,1470
    80002498:	0aa6                	slli	s5,s5,0x9
    8000249a:	41205ebb          	sraw	t4,zero,s2
    8000249e:	05b95263          	bge	s2,s11,800024e2 <main_33+0x3a0>
    800024a2:	84627b37          	lui	s6,0x84627
    800024a6:	02a986bb          	mulw	a3,s3,a0
    800024aa:	56fd                	li	a3,-1
    800024ac:	8c21                	xor	s0,s0,s0
    800024ae:	02a986bb          	mulw	a3,s3,a0
    800024b2:	8f8d                	sub	a5,a5,a1
    800024b4:	03f76733          	rem	a4,a4,t6
    800024b8:	000b561b          	srliw	a2,s6,0x0
    800024bc:	0094bb33          	sltu	s6,s1,s1
    800024c0:	0588                	addi	a0,sp,704
    800024c2:	003de5b3          	or	a1,s11,gp
    800024c6:	09730a93          	addi	s5,t1,151
    800024ca:	8c79                	and	s0,s0,a4
    800024cc:	5be3e993          	ori	s3,t2,1470
    800024d0:	049bf263          	bgeu	s7,s1,80002514 <main_33+0x3d2>
    800024d4:	01b55bbb          	srlw	s7,a0,s11
    800024d8:	01e203b3          	add	t2,tp,t5
    800024dc:	9db9                	addw	a1,a1,a4
    800024de:	93a6ba13          	sltiu	s4,a3,-1734
    800024e2:	01a31093          	slli	ra,t1,0x1a
    800024e6:	0166feb3          	and	t4,a3,s6
    800024ea:	02a986bb          	mulw	a3,s3,a0
    800024ee:	9a7e                	add	s4,s4,t6
    800024f0:	02fffcb3          	remu	s9,t6,a5
    800024f4:	02061833          	mulh	a6,a2,zero
    800024f8:	8c79                	and	s0,s0,a4
    800024fa:	0001                	nop
    800024fc:	e31d                	bnez	a4,80002522 <main_33+0x3e0>
    800024fe:	4368d313          	srai	t1,a7,0x36
    80002502:	0001                	nop
    80002504:	0085e463          	bltu	a1,s0,8000250c <main_33+0x3ca>
    80002508:	02b2dc33          	divu	s8,t0,a1
    8000250c:	417dd533          	sra	a0,s11,s7
    80002510:	00d316bb          	sllw	a3,t1,a3
    80002514:	9a7e                	add	s4,s4,t6
    80002516:	8e49                	or	a2,a2,a0
    80002518:	41660233          	sub	tp,a2,s6
    8000251c:	009bfd63          	bgeu	s7,s1,80002536 <main_33+0x3f4>
    80002520:	04a9                	addi	s1,s1,10
    80002522:	018a5213          	srli	tp,s4,0x18
    80002526:	69ad                	lui	s3,0xb
    80002528:	0a6c4417          	auipc	s0,0xa6c4
    8000252c:	8c21                	xor	s0,s0,s0
    8000252e:	000807bb          	addw	a5,a6,zero
    80002532:	02deedbb          	remw	s11,t4,a3
    80002536:	41205ebb          	sraw	t4,zero,s2
    8000253a:	02eb76bb          	remuw	a3,s6,a4
    8000253e:	02a986bb          	mulw	a3,s3,a0
    80002542:	01ca4133          	xor	sp,s4,t3
    80002546:	04a9                	addi	s1,s1,10
    80002548:	edf82113          	slti	sp,a6,-289
    8000254c:	029bf063          	bgeu	s7,s1,8000256c <main_33+0x42a>
    80002550:	89d9                	andi	a1,a1,22
    80002552:	02b2dc33          	divu	s8,t0,a1
    80002556:	02eb76bb          	remuw	a3,s6,a4
    8000255a:	41205ebb          	sraw	t4,zero,s2
    8000255e:	4368d313          	srai	t1,a7,0x36
    80002562:	5be3e993          	ori	s3,t2,1470
    80002566:	9a7e                	add	s4,s4,t6
    80002568:	0166feb3          	and	t4,a3,s6
    8000256c:	8c79                	and	s0,s0,a4
    8000256e:	93a6ba13          	sltiu	s4,a3,-1734
    80002572:	41205ebb          	sraw	t4,zero,s2
    80002576:	56fd                	li	a3,-1
    80002578:	e3314393          	xori	t2,sp,-461
    8000257c:	8f8d                	sub	a5,a5,a1
    8000257e:	8a3a                	mv	s4,a4
    80002580:	41660233          	sub	tp,a2,s6
    80002584:	09730a93          	addi	s5,t1,151
    80002588:	049bf063          	bgeu	s7,s1,800025c8 <main_33+0x486>
    8000258c:	0588                	addi	a0,sp,704
    8000258e:	00ce1c1b          	slliw	s8,t3,0xc
    80002592:	03b95a63          	bge	s2,s11,800025c6 <main_33+0x484>
    80002596:	03f76733          	rem	a4,a4,t6
    8000259a:	03272133          	mulhsu	sp,a4,s2
    8000259e:	00ce1c1b          	slliw	s8,t3,0xc
    800025a2:	0091ddb3          	srl	s11,gp,s1
    800025a6:	009bf263          	bgeu	s7,s1,800025aa <main_33+0x468>
    800025aa:	86d9                	srai	a3,a3,0x16
    800025ac:	018a5213          	srli	tp,s4,0x18
    800025b0:	93a6ba13          	sltiu	s4,a3,-1734
    800025b4:	69ad                	lui	s3,0xb
    800025b6:	023830b3          	mulhu	ra,a6,gp
    800025ba:	0001                	nop
    800025bc:	8a3a                	mv	s4,a4
    800025be:	5be3e993          	ori	s3,t2,1470
    800025c2:	89d9                	andi	a1,a1,22
    800025c4:	89d9                	andi	a1,a1,22
    800025c6:	3f7d                	addiw	t5,t5,-1
    800025c8:	41205ebb          	sraw	t4,zero,s2
    800025cc:	89d9                	andi	a1,a1,22
    800025ce:	8e49                	or	a2,a2,a0
    800025d0:	0a6c4417          	auipc	s0,0xa6c4
    800025d4:	69ad                	lui	s3,0xb
    800025d6:	02061833          	mulh	a6,a2,zero
    800025da:	0a6c4417          	auipc	s0,0xa6c4
    800025de:	02eb76bb          	remuw	a3,s6,a4
    800025e2:	8e49                	or	a2,a2,a0
    800025e4:	93a6ba13          	sltiu	s4,a3,-1734
    800025e8:	69ad                	lui	s3,0xb
    800025ea:	8e49                	or	a2,a2,a0
    800025ec:	0001                	nop
    800025ee:	01e203b3          	add	t2,tp,t5
    800025f2:	03eec933          	div	s2,t4,t5
    800025f6:	00ce1c1b          	slliw	s8,t3,0xc
    800025fa:	009bf363          	bgeu	s7,s1,80002600 <main_33+0x4be>
    800025fe:	8c79                	and	s0,s0,a4
    80002600:	8e49                	or	a2,a2,a0
    80002602:	02a986bb          	mulw	a3,s3,a0
    80002606:	5be3e993          	ori	s3,t2,1470
    8000260a:	41bb519b          	sraiw	gp,s6,0x1b
    8000260e:	000b561b          	srliw	a2,s6,0x0
    80002612:	ef2d                	bnez	a4,8000268c <main_5+0x76>
    80002614:	8a3a                	mv	s4,a4

0000000080002616 <main_5>:
    80002616:	02200eef          	jal	t4,80002638 <main_5+0x22>
    8000261a:	a831                	j	80002636 <main_5+0x20>
    8000261c:	03e000ef          	jal	8000265a <main_5+0x44>
    80002620:	a829                	j	8000263a <main_5+0x24>
    80002622:	ff9ff0ef          	jal	8000261a <main_5+0x4>
    80002626:	ff7ff0ef          	jal	8000261c <main_5+0x6>
    8000262a:	a819                	j	80002640 <main_5+0x2a>
    8000262c:	a091                	j	80002670 <main_5+0x5a>
    8000262e:	034000ef          	jal	80002662 <main_5+0x4c>
    80002632:	03c000ef          	jal	8000266e <main_5+0x58>
    80002636:	a039                	j	80002644 <main_5+0x2e>
    80002638:	a839                	j	80002656 <main_5+0x40>
    8000263a:	a811                	j	8000264e <main_5+0x38>
    8000263c:	02c000ef          	jal	80002668 <main_5+0x52>
    80002640:	fe3ff0ef          	jal	80002622 <main_5+0xc>
    80002644:	a019                	j	8000264a <main_5+0x34>
    80002646:	fdbff0ef          	jal	80002620 <main_5+0xa>
    8000264a:	fe3ff0ef          	jal	8000262c <main_5+0x16>
    8000264e:	fe5ff0ef          	jal	80002632 <main_5+0x1c>
    80002652:	018000ef          	jal	8000266a <main_5+0x54>
    80002656:	fd9ff0ef          	jal	8000262e <main_5+0x18>
    8000265a:	004000ef          	jal	8000265e <main_5+0x48>
    8000265e:	008000ef          	jal	80002666 <main_5+0x50>
    80002662:	fe5ff0ef          	jal	80002646 <main_5+0x30>
    80002666:	bfd9                	j	8000263c <main_5+0x26>
    80002668:	b7c9                	j	8000262a <main_5+0x14>
    8000266a:	fbdff0ef          	jal	80002626 <main_5+0x10>
    8000266e:	b7d5                	j	80002652 <main_5+0x3c>
    80002670:	03eec933          	div	s2,t4,t5
    80002674:	023a9d63          	bne	s5,gp,800026ae <main_5+0x98>
    80002678:	00ce1c1b          	slliw	s8,t3,0xc
    8000267c:	edf82113          	slti	sp,a6,-289
    80002680:	8a3a                	mv	s4,a4
    80002682:	0094bb33          	sltu	s6,s1,s1
    80002686:	40dc89bb          	subw	s3,s9,a3
    8000268a:	717d                	addi	sp,sp,-16
    8000268c:	40dc89bb          	subw	s3,s9,a3
    80002690:	40dc89bb          	subw	s3,s9,a3
    80002694:	0285ee63          	bltu	a1,s0,800026d0 <main_5+0xba>
    80002698:	003de5b3          	or	a1,s11,gp
    8000269c:	28d0f213          	andi	tp,ra,653
    800026a0:	8f8d                	sub	a5,a5,a1
    800026a2:	018a5213          	srli	tp,s4,0x18
    800026a6:	0166feb3          	and	t4,a3,s6
    800026aa:	02eb76bb          	remuw	a3,s6,a4
    800026ae:	e3314393          	xori	t2,sp,-461
    800026b2:	01b55bbb          	srlw	s7,a0,s11
    800026b6:	01e203b3          	add	t2,tp,t5
    800026ba:	41205ebb          	sraw	t4,zero,s2
    800026be:	0166feb3          	and	t4,a3,s6
    800026c2:	5be3e993          	ori	s3,t2,1470
    800026c6:	0aa6                	slli	s5,s5,0x9
    800026c8:	018a5213          	srli	tp,s4,0x18
    800026cc:	01b60363          	beq	a2,s11,800026d2 <main_5+0xbc>
    800026d0:	0001                	nop
    800026d2:	01e203b3          	add	t2,tp,t5
    800026d6:	8c21                	xor	s0,s0,s0
    800026d8:	e321                	bnez	a4,80002718 <main_5+0x102>
    800026da:	0166feb3          	and	t4,a3,s6
    800026de:	9d01                	subw	a0,a0,s0
    800026e0:	09730a93          	addi	s5,t1,151
    800026e4:	9db9                	addw	a1,a1,a4
    800026e6:	41660233          	sub	tp,a2,s6
    800026ea:	0aa6                	slli	s5,s5,0x9
    800026ec:	04a9                	addi	s1,s1,10
    800026ee:	41bb519b          	sraiw	gp,s6,0x1b
    800026f2:	02b2dc33          	divu	s8,t0,a1
    800026f6:	02061833          	mulh	a6,a2,zero
    800026fa:	00d316bb          	sllw	a3,t1,a3
    800026fe:	03d44f3b          	divw	t5,s0,t4
    80002702:	0001                	nop
    80002704:	0cc1881b          	addiw	a6,gp,204
    80002708:	003de5b3          	or	a1,s11,gp
    8000270c:	41660233          	sub	tp,a2,s6
    80002710:	01e203b3          	add	t2,tp,t5
    80002714:	05b95063          	bge	s2,s11,80002754 <main_5+0x13e>
    80002718:	c681                	beqz	a3,80002720 <main_5+0x10a>
    8000271a:	8c79                	and	s0,s0,a4
    8000271c:	000b561b          	srliw	a2,s6,0x0
    80002720:	00ce1c1b          	slliw	s8,t3,0xc
    80002724:	05b60563          	beq	a2,s11,8000276e <main_5+0x158>
    80002728:	00d316bb          	sllw	a3,t1,a3
    8000272c:	3f7d                	addiw	t5,t5,-1
    8000272e:	02deedbb          	remw	s11,t4,a3
    80002732:	05b60463          	beq	a2,s11,8000277a <main_5+0x164>
    80002736:	03272133          	mulhsu	sp,a4,s2
    8000273a:	00d316bb          	sllw	a3,t1,a3
    8000273e:	00d04963          	bgtz	a3,80002750 <main_5+0x13a>
    80002742:	0166feb3          	and	t4,a3,s6
    80002746:	69ad                	lui	s3,0xb
    80002748:	000807bb          	addw	a5,a6,zero
    8000274c:	40dc89bb          	subw	s3,s9,a3
    80002750:	003a9463          	bne	s5,gp,80002758 <main_5+0x142>
    80002754:	41660233          	sub	tp,a2,s6
    80002758:	40dc89bb          	subw	s3,s9,a3
    8000275c:	0094bb33          	sltu	s6,s1,s1
    80002760:	86d9                	srai	a3,a3,0x16
    80002762:	000725b3          	sltz	a1,a4
    80002766:	01a31093          	slli	ra,t1,0x1a
    8000276a:	01b55bbb          	srlw	s7,a0,s11
    8000276e:	00ce1c1b          	slliw	s8,t3,0xc
    80002772:	09730a93          	addi	s5,t1,151
    80002776:	5be3e993          	ori	s3,t2,1470
    8000277a:	8e49                	or	a2,a2,a0
    8000277c:	002495b3          	sll	a1,s1,sp
    80002780:	82f9                	srli	a3,a3,0x1e
    80002782:	717d                	addi	sp,sp,-16
    80002784:	8a3a                	mv	s4,a4
    80002786:	0cc1881b          	addiw	a6,gp,204
    8000278a:	3f7d                	addiw	t5,t5,-1
    8000278c:	9d01                	subw	a0,a0,s0
    8000278e:	9db9                	addw	a1,a1,a4
    80002790:	e71d                	bnez	a4,800027be <main_5+0x1a8>
    80002792:	8a3a                	mv	s4,a4
    80002794:	ce89                	beqz	a3,800027ae <main_5+0x198>
    80002796:	0001                	nop
    80002798:	02415b3b          	divuw	s6,sp,tp
    8000279c:	003a9563          	bne	s5,gp,800027a6 <main_5+0x190>
    800027a0:	8a3a                	mv	s4,a4
    800027a2:	03498fb3          	mul	t6,s3,s4
    800027a6:	023830b3          	mulhu	ra,a6,gp
    800027aa:	01ca4133          	xor	sp,s4,t3
    800027ae:	8c21                	xor	s0,s0,s0
    800027b0:	69ad                	lui	s3,0xb
    800027b2:	02415b3b          	divuw	s6,sp,tp
    800027b6:	28d0f213          	andi	tp,ra,653
    800027ba:	03498fb3          	mul	t6,s3,s4
    800027be:	000725b3          	sltz	a1,a4
    800027c2:	00d316bb          	sllw	a3,t1,a3
    800027c6:	000807bb          	addw	a5,a6,zero
    800027ca:	02061833          	mulh	a6,a2,zero
    800027ce:	0166feb3          	and	t4,a3,s6
    800027d2:	5be3e993          	ori	s3,t2,1470
    800027d6:	02a986bb          	mulw	a3,s3,a0
    800027da:	018a5213          	srli	tp,s4,0x18
    800027de:	02415b3b          	divuw	s6,sp,tp
    800027e2:	8c21                	xor	s0,s0,s0
    800027e4:	02415b3b          	divuw	s6,sp,tp
    800027e8:	8c79                	and	s0,s0,a4
    800027ea:	69ad                	lui	s3,0xb
    800027ec:	8c21                	xor	s0,s0,s0
    800027ee:	02b2dc33          	divu	s8,t0,a1
    800027f2:	41205ebb          	sraw	t4,zero,s2
    800027f6:	41660233          	sub	tp,a2,s6
    800027fa:	03f76733          	rem	a4,a4,t6
    800027fe:	02415b3b          	divuw	s6,sp,tp
    80002802:	03b95a63          	bge	s2,s11,80002836 <main_5+0x220>
    80002806:	01a31093          	slli	ra,t1,0x1a
    8000280a:	018a5213          	srli	tp,s4,0x18
    8000280e:	018a5213          	srli	tp,s4,0x18
    80002812:	84627b37          	lui	s6,0x84627
    80002816:	009bf263          	bgeu	s7,s1,8000281a <main_5+0x204>
    8000281a:	3f7d                	addiw	t5,t5,-1
    8000281c:	000807bb          	addw	a5,a6,zero
    80002820:	41660233          	sub	tp,a2,s6
    80002824:	84627b37          	lui	s6,0x84627
    80002828:	0588                	addi	a0,sp,704
    8000282a:	0094bb33          	sltu	s6,s1,s1
    8000282e:	0001                	nop
    80002830:	56fd                	li	a3,-1
    80002832:	02eb76bb          	remuw	a3,s6,a4
    80002836:	02eb76bb          	remuw	a3,s6,a4
    8000283a:	009bfa63          	bgeu	s7,s1,8000284e <main_5+0x238>
    8000283e:	000725b3          	sltz	a1,a4
    80002842:	0001                	nop
    80002844:	04a9                	addi	s1,s1,10
    80002846:	02fffcb3          	remu	s9,t6,a5
    8000284a:	01e203b3          	add	t2,tp,t5
    8000284e:	717d                	addi	sp,sp,-16
    80002850:	86d9                	srai	a3,a3,0x16
    80002852:	000807bb          	addw	a5,a6,zero
    80002856:	023a9363          	bne	s5,gp,8000287c <main_5+0x266>
    8000285a:	00ce1c1b          	slliw	s8,t3,0xc
    8000285e:	000807bb          	addw	a5,a6,zero
    80002862:	0285e663          	bltu	a1,s0,8000288e <main_5+0x278>
    80002866:	09730a93          	addi	s5,t1,151
    8000286a:	01e203b3          	add	t2,tp,t5
    8000286e:	03eec933          	div	s2,t4,t5
    80002872:	00d316bb          	sllw	a3,t1,a3
    80002876:	0091ddb3          	srl	s11,gp,s1
    8000287a:	8f8d                	sub	a5,a5,a1
    8000287c:	86d9                	srai	a3,a3,0x16
    8000287e:	002495b3          	sll	a1,s1,sp
    80002882:	28d0f213          	andi	tp,ra,653
    80002886:	0a6c4417          	auipc	s0,0xa6c4
    8000288a:	417dd533          	sra	a0,s11,s7
    8000288e:	0285e663          	bltu	a1,s0,800028ba <main_5+0x2a4>
    80002892:	02061833          	mulh	a6,a2,zero
    80002896:	8c21                	xor	s0,s0,s0
    80002898:	8c79                	and	s0,s0,a4
    8000289a:	28d0f213          	andi	tp,ra,653
    8000289e:	417dd533          	sra	a0,s11,s7
    800028a2:	04a9                	addi	s1,s1,10
    800028a4:	03d44f3b          	divw	t5,s0,t4
    800028a8:	03272133          	mulhsu	sp,a4,s2
    800028ac:	41205ebb          	sraw	t4,zero,s2
    800028b0:	84627b37          	lui	s6,0x84627
    800028b4:	002495b3          	sll	a1,s1,sp
    800028b8:	3f7d                	addiw	t5,t5,-1
    800028ba:	02b2dc33          	divu	s8,t0,a1
    800028be:	023830b3          	mulhu	ra,a6,gp
    800028c2:	e3314393          	xori	t2,sp,-461
    800028c6:	03b60563          	beq	a2,s11,800028f0 <main_5+0x2da>
    800028ca:	000725b3          	sltz	a1,a4
    800028ce:	0085e963          	bltu	a1,s0,800028e0 <main_5+0x2ca>
    800028d2:	03b60b63          	beq	a2,s11,80002908 <main_5+0x2f2>
    800028d6:	4368d313          	srai	t1,a7,0x36
    800028da:	69ad                	lui	s3,0xb
    800028dc:	003a9963          	bne	s5,gp,800028ee <main_5+0x2d8>
    800028e0:	02fffcb3          	remu	s9,t6,a5
    800028e4:	41bb519b          	sraiw	gp,s6,0x1b
    800028e8:	03eec933          	div	s2,t4,t5
    800028ec:	0aa6                	slli	s5,s5,0x9
    800028ee:	8a3a                	mv	s4,a4
    800028f0:	03272133          	mulhsu	sp,a4,s2
    800028f4:	0cc1881b          	addiw	a6,gp,204
    800028f8:	5be3e993          	ori	s3,t2,1470
    800028fc:	003de5b3          	or	a1,s11,gp
    80002900:	8c21                	xor	s0,s0,s0
    80002902:	01b95363          	bge	s2,s11,80002908 <main_5+0x2f2>
    80002906:	ce91                	beqz	a3,80002922 <main_5+0x30c>
    80002908:	03272133          	mulhsu	sp,a4,s2
    8000290c:	02b2dc33          	divu	s8,t0,a1
    80002910:	69ad                	lui	s3,0xb
    80002912:	4368d313          	srai	t1,a7,0x36
    80002916:	03272133          	mulhsu	sp,a4,s2
    8000291a:	9db9                	addw	a1,a1,a4
    8000291c:	93a6ba13          	sltiu	s4,a3,-1734
    80002920:	0588                	addi	a0,sp,704
    80002922:	01b60263          	beq	a2,s11,80002926 <main_5+0x310>
    80002926:	01e203b3          	add	t2,tp,t5
    8000292a:	56fd                	li	a3,-1
    8000292c:	89d9                	andi	a1,a1,22
    8000292e:	9d01                	subw	a0,a0,s0
    80002930:	e30d                	bnez	a4,80002952 <main_5+0x33c>
    80002932:	018a5213          	srli	tp,s4,0x18
    80002936:	000b561b          	srliw	a2,s6,0x0
    8000293a:	09730a93          	addi	s5,t1,151
    8000293e:	01b95363          	bge	s2,s11,80002944 <main_5+0x32e>
    80002942:	89d9                	andi	a1,a1,22
    80002944:	02d04763          	bgtz	a3,80002972 <main_5+0x35c>
    80002948:	717d                	addi	sp,sp,-16
    8000294a:	01a31093          	slli	ra,t1,0x1a
    8000294e:	003a9963          	bne	s5,gp,80002960 <main_5+0x34a>
    80002952:	8c79                	and	s0,s0,a4
    80002954:	e311                	bnez	a4,80002958 <main_5+0x342>
    80002956:	9a7e                	add	s4,s4,t6
    80002958:	0085e863          	bltu	a1,s0,80002968 <main_5+0x352>
    8000295c:	0285ec63          	bltu	a1,s0,80002994 <main_5+0x37e>
    80002960:	89d9                	andi	a1,a1,22
    80002962:	00ce1c1b          	slliw	s8,t3,0xc
    80002966:	717d                	addi	sp,sp,-16
    80002968:	04a9                	addi	s1,s1,10
    8000296a:	00ce1c1b          	slliw	s8,t3,0xc
    8000296e:	717d                	addi	sp,sp,-16
    80002970:	8c21                	xor	s0,s0,s0
    80002972:	0166feb3          	and	t4,a3,s6
    80002976:	01a31093          	slli	ra,t1,0x1a
    8000297a:	0aa6                	slli	s5,s5,0x9
    8000297c:	8c21                	xor	s0,s0,s0
    8000297e:	0cc1881b          	addiw	a6,gp,204
    80002982:	02061833          	mulh	a6,a2,zero
    80002986:	edf82113          	slti	sp,a6,-289
    8000298a:	03272133          	mulhsu	sp,a4,s2
    8000298e:	0aa6                	slli	s5,s5,0x9
    80002990:	0085e463          	bltu	a1,s0,80002998 <main_5+0x382>
    80002994:	000807bb          	addw	a5,a6,zero
    80002998:	000b561b          	srliw	a2,s6,0x0
    8000299c:	9d01                	subw	a0,a0,s0
    8000299e:	8f8d                	sub	a5,a5,a1
    800029a0:	417dd533          	sra	a0,s11,s7
    800029a4:	0cc1881b          	addiw	a6,gp,204
    800029a8:	41660233          	sub	tp,a2,s6
    800029ac:	03f76733          	rem	a4,a4,t6
    800029b0:	023830b3          	mulhu	ra,a6,gp
    800029b4:	00d316bb          	sllw	a3,t1,a3
    800029b8:	86d9                	srai	a3,a3,0x16
    800029ba:	82f9                	srli	a3,a3,0x1e
    800029bc:	4368d313          	srai	t1,a7,0x36
    800029c0:	02d04f63          	bgtz	a3,800029fe <main_5+0x3e8>
    800029c4:	41205ebb          	sraw	t4,zero,s2
    800029c8:	003de5b3          	or	a1,s11,gp
    800029cc:	023830b3          	mulhu	ra,a6,gp
    800029d0:	003de5b3          	or	a1,s11,gp
    800029d4:	e3314393          	xori	t2,sp,-461
    800029d8:	0001                	nop
    800029da:	00d04863          	bgtz	a3,800029ea <main_5+0x3d4>
    800029de:	03d44f3b          	divw	t5,s0,t4
    800029e2:	9db9                	addw	a1,a1,a4
    800029e4:	84627b37          	lui	s6,0x84627
    800029e8:	8e49                	or	a2,a2,a0
    800029ea:	717d                	addi	sp,sp,-16
    800029ec:	00d04263          	bgtz	a3,800029f0 <main_5+0x3da>
    800029f0:	82f9                	srli	a3,a3,0x1e
    800029f2:	000725b3          	sltz	a1,a4
    800029f6:	0a6c4417          	auipc	s0,0xa6c4
    800029fa:	8f8d                	sub	a5,a5,a1
    800029fc:	0588                	addi	a0,sp,704
    800029fe:	0285eb63          	bltu	a1,s0,80002a34 <main_5+0x41e>
    80002a02:	edf82113          	slti	sp,a6,-289
    80002a06:	03b60063          	beq	a2,s11,80002a26 <main_5+0x410>
    80002a0a:	02415b3b          	divuw	s6,sp,tp
    80002a0e:	01e203b3          	add	t2,tp,t5
    80002a12:	049bf263          	bgeu	s7,s1,80002a56 <main_5+0x440>
    80002a16:	03f76733          	rem	a4,a4,t6
    80002a1a:	41bb519b          	sraiw	gp,s6,0x1b
    80002a1e:	717d                	addi	sp,sp,-16
    80002a20:	002495b3          	sll	a1,s1,sp
    80002a24:	8f8d                	sub	a5,a5,a1
    80002a26:	02b2dc33          	divu	s8,t0,a1
    80002a2a:	0091ddb3          	srl	s11,gp,s1
    80002a2e:	28d0f213          	andi	tp,ra,653
    80002a32:	8c21                	xor	s0,s0,s0
    80002a34:	01e203b3          	add	t2,tp,t5
    80002a38:	01ca4133          	xor	sp,s4,t3
    80002a3c:	02a986bb          	mulw	a3,s3,a0
    80002a40:	69ad                	lui	s3,0xb
    80002a42:	000807bb          	addw	a5,a6,zero
    80002a46:	0cc1881b          	addiw	a6,gp,204
    80002a4a:	8f8d                	sub	a5,a5,a1
    80002a4c:	0094bb33          	sltu	s6,s1,s1
    80002a50:	82f9                	srli	a3,a3,0x1e
    80002a52:	000807bb          	addw	a5,a6,zero
    80002a56:	0094bb33          	sltu	s6,s1,s1
    80002a5a:	ca8d                	beqz	a3,80002a8c <main_5+0x476>
    80002a5c:	05b95263          	bge	s2,s11,80002aa0 <main_5+0x48a>
    80002a60:	018a5213          	srli	tp,s4,0x18
    80002a64:	009bf563          	bgeu	s7,s1,80002a6e <main_5+0x458>
    80002a68:	0094bb33          	sltu	s6,s1,s1
    80002a6c:	8a3a                	mv	s4,a4
    80002a6e:	03d44f3b          	divw	t5,s0,t4
    80002a72:	41bb519b          	sraiw	gp,s6,0x1b
    80002a76:	8f8d                	sub	a5,a5,a1
    80002a78:	02a986bb          	mulw	a3,s3,a0
    80002a7c:	0166feb3          	and	t4,a3,s6
    80002a80:	009bff63          	bgeu	s7,s1,80002a9e <main_5+0x488>
    80002a84:	0588                	addi	a0,sp,704
    80002a86:	8c79                	and	s0,s0,a4
    80002a88:	417dd533          	sra	a0,s11,s7
    80002a8c:	018a5213          	srli	tp,s4,0x18
    80002a90:	84627b37          	lui	s6,0x84627
    80002a94:	02415b3b          	divuw	s6,sp,tp
    80002a98:	000725b3          	sltz	a1,a4
    80002a9c:	ef01                	bnez	a4,80002ab4 <main_5+0x49e>
    80002a9e:	82f9                	srli	a3,a3,0x1e
    80002aa0:	02deedbb          	remw	s11,t4,a3
    80002aa4:	023830b3          	mulhu	ra,a6,gp
    80002aa8:	0001                	nop
    80002aaa:	09730a93          	addi	s5,t1,151
    80002aae:	06d04b63          	bgtz	a3,80002b24 <main_38+0x62>
    80002ab2:	8c79                	and	s0,s0,a4
    80002ab4:	8e49                	or	a2,a2,a0
    80002ab6:	0e9bfb63          	bgeu	s7,s1,80002bac <main_61_0_t+0xc>
    80002aba:	28d0f213          	andi	tp,ra,653
    80002abe:	8c79                	and	s0,s0,a4
    80002ac0:	8a3a                	mv	s4,a4

0000000080002ac2 <main_38>:
    80002ac2:	01400eef          	jal	t4,80002ad6 <main_38+0x14>
    80002ac6:	a029                	j	80002ad0 <main_38+0xe>
    80002ac8:	044000ef          	jal	80002b0c <main_38+0x4a>
    80002acc:	a829                	j	80002ae6 <main_38+0x24>
    80002ace:	bfed                	j	80002ac8 <main_38+0x6>
    80002ad0:	014000ef          	jal	80002ae4 <main_38+0x22>
    80002ad4:	a831                	j	80002af0 <main_38+0x2e>
    80002ad6:	008000ef          	jal	80002ade <main_38+0x1c>
    80002ada:	01a000ef          	jal	80002af4 <main_38+0x32>
    80002ade:	00e000ef          	jal	80002aec <main_38+0x2a>
    80002ae2:	b7ed                	j	80002acc <main_38+0xa>
    80002ae4:	a01d                	j	80002b0a <main_38+0x48>
    80002ae6:	b7fd                	j	80002ad4 <main_38+0x12>
    80002ae8:	a809                	j	80002afa <main_38+0x38>
    80002aea:	a821                	j	80002b02 <main_38+0x40>
    80002aec:	a031                	j	80002af8 <main_38+0x36>
    80002aee:	a801                	j	80002afe <main_38+0x3c>
    80002af0:	ffbff0ef          	jal	80002aea <main_38+0x28>
    80002af4:	01c000ef          	jal	80002b10 <main_38+0x4e>
    80002af8:	b7ed                	j	80002ae2 <main_38+0x20>
    80002afa:	fd5ff0ef          	jal	80002ace <main_38+0xc>
    80002afe:	fc9ff0ef          	jal	80002ac6 <main_38+0x4>
    80002b02:	004000ef          	jal	80002b06 <main_38+0x44>
    80002b06:	fe3ff0ef          	jal	80002ae8 <main_38+0x26>
    80002b0a:	bfc1                	j	80002ada <main_38+0x18>
    80002b0c:	fe3ff0ef          	jal	80002aee <main_38+0x2c>
    80002b10:	8c79                	and	s0,s0,a4
    80002b12:	41660233          	sub	tp,a2,s6
    80002b16:	03f76733          	rem	a4,a4,t6
    80002b1a:	02415b3b          	divuw	s6,sp,tp
    80002b1e:	0001                	nop
    80002b20:	edf82113          	slti	sp,a6,-289
    80002b24:	9db9                	addw	a1,a1,a4
    80002b26:	8c21                	xor	s0,s0,s0
    80002b28:	0001                	nop
    80002b2a:	4368d313          	srai	t1,a7,0x36
    80002b2e:	e3314393          	xori	t2,sp,-461
    80002b32:	01e203b3          	add	t2,tp,t5
    80002b36:	02eb76bb          	remuw	a3,s6,a4
    80002b3a:	00ce1c1b          	slliw	s8,t3,0xc
    80002b3e:	0001                	nop
    80002b40:	000725b3          	sltz	a1,a4
    80002b44:	4e29                	li	t3,10
    80002b46:	03d44c3b          	divw	s8,s0,t4
    80002b4a:	02ffff33          	remu	t5,t6,a5
    80002b4e:	0729                	addi	a4,a4,10
    80002b50:	4da9                	li	s11,10
    80002b52:	03d44c3b          	divw	s8,s0,t4
    80002b56:	02b2deb3          	divu	t4,t0,a1

0000000080002b5a <main_61_1_t>:
    80002b5a:	0166fa33          	and	s4,a3,s6
    80002b5e:	8fa1                	xor	a5,a5,s0
    80002b60:	00d317bb          	sllw	a5,t1,a3
    80002b64:	03eeca33          	div	s4,t4,t5
    80002b68:	4120583b          	sraw	a6,zero,s2
    80002b6c:	0001                	nop
    80002b6e:	09730b93          	addi	s7,t1,151
    80002b72:	9d39                	addw	a0,a0,a4
    80002b74:	0094bc33          	sltu	s8,s1,s1
    80002b78:	1e75                	addi	t3,t3,-3
    80002b7a:	0001                	nop
    80002b7c:	5471                	li	s0,-4
    80002b7e:	0001                	nop
    80002b80:	edf82193          	slti	gp,a6,-289
    80002b84:	0fa6                	slli	t6,t6,0x9
    80002b86:	8cf9                	and	s1,s1,a4
    80002b88:	4368d393          	srai	t2,a7,0x36
    80002b8c:	e3314493          	xori	s1,sp,-461
    80002b90:	01ca41b3          	xor	gp,s4,t3
    80002b94:	edf82193          	slti	gp,a6,-289
    80002b98:	86d9                	srai	a3,a3,0x16
    80002b9a:	02415c3b          	divuw	s8,sp,tp
    80002b9e:	0590                	addi	a2,sp,704

0000000080002ba0 <main_61_0_t>:
    80002ba0:	8a59                	andi	a2,a2,22
    80002ba2:	0409                	addi	s0,s0,2 # 8a6c69f8 <_end+0xa69a070>
    80002ba4:	fc75                	bnez	s0,80002ba0 <main_61_0_t>
    80002ba6:	fbbe7ae3          	bgeu	t3,s11,80002b5a <main_61_1_t>
    80002baa:	8fa1                	xor	a5,a5,s0
    80002bac:	02eb76bb          	remuw	a3,s6,a4
    80002bb0:	023830b3          	mulhu	ra,a6,gp
    80002bb4:	023830b3          	mulhu	ra,a6,gp
    80002bb8:	03498fb3          	mul	t6,s3,s4
    80002bbc:	eb01                	bnez	a4,80002bcc <main_61_0_t+0x2c>
    80002bbe:	8f8d                	sub	a5,a5,a1
    80002bc0:	4368d313          	srai	t1,a7,0x36
    80002bc4:	02b2dc33          	divu	s8,t0,a1
    80002bc8:	03272133          	mulhsu	sp,a4,s2
    80002bcc:	41660233          	sub	tp,a2,s6
    80002bd0:	0a6c4417          	auipc	s0,0xa6c4
    80002bd4:	002495b3          	sll	a1,s1,sp
    80002bd8:	9d01                	subw	a0,a0,s0
    80002bda:	417dd533          	sra	a0,s11,s7
    80002bde:	03d44f3b          	divw	t5,s0,t4
    80002be2:	e709                	bnez	a4,80002bec <main_61_0_t+0x4c>
    80002be4:	000807bb          	addw	a5,a6,zero
    80002be8:	02a986bb          	mulw	a3,s3,a0
    80002bec:	0001                	nop
    80002bee:	417dd533          	sra	a0,s11,s7
    80002bf2:	8a3a                	mv	s4,a4
    80002bf4:	9a7e                	add	s4,s4,t6
    80002bf6:	717d                	addi	sp,sp,-16
    80002bf8:	01a31093          	slli	ra,t1,0x1a
    80002bfc:	03272133          	mulhsu	sp,a4,s2
    80002c00:	0a6c4417          	auipc	s0,0xa6c4
    80002c04:	03d44f3b          	divw	t5,s0,t4
    80002c08:	84627b37          	lui	s6,0x84627
    80002c0c:	8e49                	or	a2,a2,a0
    80002c0e:	4368d313          	srai	t1,a7,0x36
    80002c12:	417dd533          	sra	a0,s11,s7
    80002c16:	01ca4133          	xor	sp,s4,t3
    80002c1a:	69ad                	lui	s3,0xb
    80002c1c:	56fd                	li	a3,-1
    80002c1e:	9db9                	addw	a1,a1,a4
    80002c20:	0a6c4417          	auipc	s0,0xa6c4
    80002c24:	03b95863          	bge	s2,s11,80002c54 <main_61_0_t+0xb4>
    80002c28:	c69d                	beqz	a3,80002c56 <main_61_0_t+0xb6>
    80002c2a:	02415b3b          	divuw	s6,sp,tp
    80002c2e:	69ad                	lui	s3,0xb
    80002c30:	82f9                	srli	a3,a3,0x1e
    80002c32:	41660233          	sub	tp,a2,s6
    80002c36:	03272133          	mulhsu	sp,a4,s2
    80002c3a:	9d01                	subw	a0,a0,s0
    80002c3c:	002495b3          	sll	a1,s1,sp
    80002c40:	01ca4133          	xor	sp,s4,t3
    80002c44:	69ad                	lui	s3,0xb
    80002c46:	0001                	nop
    80002c48:	0091ddb3          	srl	s11,gp,s1
    80002c4c:	0aa6                	slli	s5,s5,0x9
    80002c4e:	029bfa63          	bgeu	s7,s1,80002c82 <main_61_0_t+0xe2>
    80002c52:	69ad                	lui	s3,0xb
    80002c54:	0001                	nop
    80002c56:	02eb76bb          	remuw	a3,s6,a4
    80002c5a:	717d                	addi	sp,sp,-16
    80002c5c:	03d44f3b          	divw	t5,s0,t4
    80002c60:	86d9                	srai	a3,a3,0x16
    80002c62:	0285e663          	bltu	a1,s0,80002c8e <main_61_0_t+0xee>
    80002c66:	8a3a                	mv	s4,a4
    80002c68:	edf82113          	slti	sp,a6,-289
    80002c6c:	40dc89bb          	subw	s3,s9,a3
    80002c70:	003de5b3          	or	a1,s11,gp
    80002c74:	003a9363          	bne	s5,gp,80002c7a <main_61_0_t+0xda>
    80002c78:	69ad                	lui	s3,0xb
    80002c7a:	edf82113          	slti	sp,a6,-289
    80002c7e:	002495b3          	sll	a1,s1,sp
    80002c82:	0a6c4417          	auipc	s0,0xa6c4
    80002c86:	09730a93          	addi	s5,t1,151
    80002c8a:	000725b3          	sltz	a1,a4
    80002c8e:	01a31093          	slli	ra,t1,0x1a
    80002c92:	02deedbb          	remw	s11,t4,a3
    80002c96:	01a31093          	slli	ra,t1,0x1a
    80002c9a:	8c79                	and	s0,s0,a4
    80002c9c:	edf82113          	slti	sp,a6,-289
    80002ca0:	00d316bb          	sllw	a3,t1,a3
    80002ca4:	e3314393          	xori	t2,sp,-461
    80002ca8:	003de5b3          	or	a1,s11,gp
    80002cac:	69ad                	lui	s3,0xb
    80002cae:	0091ddb3          	srl	s11,gp,s1
    80002cb2:	0094bb33          	sltu	s6,s1,s1
    80002cb6:	0588                	addi	a0,sp,704
    80002cb8:	69ad                	lui	s3,0xb
    80002cba:	02a986bb          	mulw	a3,s3,a0
    80002cbe:	01b55bbb          	srlw	s7,a0,s11
    80002cc2:	09730a93          	addi	s5,t1,151
    80002cc6:	02b2dc33          	divu	s8,t0,a1
    80002cca:	28d0f213          	andi	tp,ra,653
    80002cce:	01e203b3          	add	t2,tp,t5
    80002cd2:	417dd533          	sra	a0,s11,s7
    80002cd6:	003de5b3          	or	a1,s11,gp
    80002cda:	03f76733          	rem	a4,a4,t6
    80002cde:	86d9                	srai	a3,a3,0x16
    80002ce0:	56fd                	li	a3,-1
    80002ce2:	0285e863          	bltu	a1,s0,80002d12 <main_61_0_t+0x172>
    80002ce6:	84627b37          	lui	s6,0x84627
    80002cea:	02061833          	mulh	a6,a2,zero
    80002cee:	000725b3          	sltz	a1,a4
    80002cf2:	3f7d                	addiw	t5,t5,-1
    80002cf4:	03f76733          	rem	a4,a4,t6
    80002cf8:	03f76733          	rem	a4,a4,t6
    80002cfc:	03d44f3b          	divw	t5,s0,t4
    80002d00:	02b2dc33          	divu	s8,t0,a1
    80002d04:	edf82113          	slti	sp,a6,-289
    80002d08:	03d44f3b          	divw	t5,s0,t4
    80002d0c:	03f76733          	rem	a4,a4,t6
    80002d10:	0aa6                	slli	s5,s5,0x9
    80002d12:	9a7e                	add	s4,s4,t6
    80002d14:	717d                	addi	sp,sp,-16
    80002d16:	e329                	bnez	a4,80002d58 <main_61_0_t+0x1b8>
    80002d18:	0166feb3          	and	t4,a3,s6
    80002d1c:	40dc89bb          	subw	s3,s9,a3
    80002d20:	41205ebb          	sraw	t4,zero,s2
    80002d24:	03f76733          	rem	a4,a4,t6
    80002d28:	0cc1881b          	addiw	a6,gp,204
    80002d2c:	82f9                	srli	a3,a3,0x1e
    80002d2e:	02061833          	mulh	a6,a2,zero
    80002d32:	3f7d                	addiw	t5,t5,-1
    80002d34:	02eb76bb          	remuw	a3,s6,a4
    80002d38:	01b60e63          	beq	a2,s11,80002d54 <main_61_0_t+0x1b4>
    80002d3c:	02061833          	mulh	a6,a2,zero
    80002d40:	018a5213          	srli	tp,s4,0x18
    80002d44:	89d9                	andi	a1,a1,22
    80002d46:	0001                	nop
    80002d48:	01b95f63          	bge	s2,s11,80002d66 <main_61_0_t+0x1c6>
    80002d4c:	03d44f3b          	divw	t5,s0,t4
    80002d50:	023a9163          	bne	s5,gp,80002d72 <main_61_0_t+0x1d2>
    80002d54:	5be3e993          	ori	s3,t2,1470
    80002d58:	89d9                	andi	a1,a1,22
    80002d5a:	9db9                	addw	a1,a1,a4
    80002d5c:	717d                	addi	sp,sp,-16
    80002d5e:	41205ebb          	sraw	t4,zero,s2
    80002d62:	4368d313          	srai	t1,a7,0x36
    80002d66:	01a31093          	slli	ra,t1,0x1a
    80002d6a:	02eb76bb          	remuw	a3,s6,a4
    80002d6e:	40dc89bb          	subw	s3,s9,a3
    80002d72:	009bf963          	bgeu	s7,s1,80002d84 <main_61_0_t+0x1e4>
    80002d76:	01a31093          	slli	ra,t1,0x1a
    80002d7a:	84627b37          	lui	s6,0x84627
    80002d7e:	01ca4133          	xor	sp,s4,t3
    80002d82:	0aa6                	slli	s5,s5,0x9
    80002d84:	86d9                	srai	a3,a3,0x16
    80002d86:	3f7d                	addiw	t5,t5,-1
    80002d88:	02deedbb          	remw	s11,t4,a3
    80002d8c:	40dc89bb          	subw	s3,s9,a3
    80002d90:	9db9                	addw	a1,a1,a4
    80002d92:	003de5b3          	or	a1,s11,gp
    80002d96:	043a9163          	bne	s5,gp,80002dd8 <main_61_0_t+0x238>
    80002d9a:	03272133          	mulhsu	sp,a4,s2
    80002d9e:	28d0f213          	andi	tp,ra,653
    80002da2:	0588                	addi	a0,sp,704
    80002da4:	003de5b3          	or	a1,s11,gp
    80002da8:	01b55bbb          	srlw	s7,a0,s11
    80002dac:	0001                	nop
    80002dae:	8c79                	and	s0,s0,a4
    80002db0:	000725b3          	sltz	a1,a4
    80002db4:	02eb76bb          	remuw	a3,s6,a4
    80002db8:	41660233          	sub	tp,a2,s6
    80002dbc:	edf82113          	slti	sp,a6,-289
    80002dc0:	9a7e                	add	s4,s4,t6
    80002dc2:	04a9                	addi	s1,s1,10
    80002dc4:	03d44f3b          	divw	t5,s0,t4
    80002dc8:	09730a93          	addi	s5,t1,151
    80002dcc:	02415b3b          	divuw	s6,sp,tp
    80002dd0:	69ad                	lui	s3,0xb
    80002dd2:	69ad                	lui	s3,0xb
    80002dd4:	01e203b3          	add	t2,tp,t5
    80002dd8:	8e49                	or	a2,a2,a0
    80002dda:	8a3a                	mv	s4,a4
    80002ddc:	8a3a                	mv	s4,a4
    80002dde:	01ca4133          	xor	sp,s4,t3
    80002de2:	ca8d                	beqz	a3,80002e14 <main_61_0_t+0x274>
    80002de4:	82f9                	srli	a3,a3,0x1e
    80002de6:	41205ebb          	sraw	t4,zero,s2
    80002dea:	eb0d                	bnez	a4,80002e1c <main_61_0_t+0x27c>
    80002dec:	01e203b3          	add	t2,tp,t5
    80002df0:	56fd                	li	a3,-1
    80002df2:	04a9                	addi	s1,s1,10
    80002df4:	40dc89bb          	subw	s3,s9,a3
    80002df8:	0166feb3          	and	t4,a3,s6
    80002dfc:	41bb519b          	sraiw	gp,s6,0x1b
    80002e00:	0094bb33          	sltu	s6,s1,s1
    80002e04:	0001                	nop
    80002e06:	029bf963          	bgeu	s7,s1,80002e38 <main_61_0_t+0x298>
    80002e0a:	0285ea63          	bltu	a1,s0,80002e3e <main_61_0_t+0x29e>
    80002e0e:	82f9                	srli	a3,a3,0x1e
    80002e10:	002495b3          	sll	a1,s1,sp
    80002e14:	0001                	nop
    80002e16:	04d04b63          	bgtz	a3,80002e6c <main_70_0_t+0x1c>
    80002e1a:	8c79                	and	s0,s0,a4
    80002e1c:	01a31093          	slli	ra,t1,0x1a
    80002e20:	02b2dc33          	divu	s8,t0,a1
    80002e24:	8c79                	and	s0,s0,a4
    80002e26:	049bf763          	bgeu	s7,s1,80002e74 <main_70_0_t+0x24>
    80002e2a:	01ca4133          	xor	sp,s4,t3
    80002e2e:	0aa6                	slli	s5,s5,0x9
    80002e30:	02d04763          	bgtz	a3,80002e5e <main_70_0_t+0xe>
    80002e34:	01b55bbb          	srlw	s7,a0,s11
    80002e38:	02fffcb3          	remu	s9,t6,a5
    80002e3c:	0001                	nop
    80002e3e:	c28d                	beqz	a3,80002e60 <main_70_0_t+0x10>
    80002e40:	01e203b3          	add	t2,tp,t5
    80002e44:	4a8d                	li	s5,3
    80002e46:	0091deb3          	srl	t4,gp,s1
    80002e4a:	4989                	li	s3,2
    80002e4c:	0091deb3          	srl	t4,gp,s1

0000000080002e50 <main_70_0_t>:
    80002e50:	03eec933          	div	s2,t4,t5
    80002e54:	1afd                	addi	s5,s5,-1 # afff <_start-0x7fff5001>
    80002e56:	ff3afde3          	bgeu	s5,s3,80002e50 <main_70_0_t>
    80002e5a:	41bb519b          	sraiw	gp,s6,0x1b
    80002e5e:	56fd                	li	a3,-1
    80002e60:	03f76733          	rem	a4,a4,t6
    80002e64:	0cc1881b          	addiw	a6,gp,204
    80002e68:	01ca4133          	xor	sp,s4,t3
    80002e6c:	41660233          	sub	tp,a2,s6
    80002e70:	000807bb          	addw	a5,a6,zero
    80002e74:	82f9                	srli	a3,a3,0x1e
    80002e76:	0094bb33          	sltu	s6,s1,s1
    80002e7a:	00d04363          	bgtz	a3,80002e80 <main_70_0_t+0x30>
    80002e7e:	89d9                	andi	a1,a1,22
    80002e80:	01b95363          	bge	s2,s11,80002e86 <main_70_0_t+0x36>
    80002e84:	0001                	nop
    80002e86:	41bb519b          	sraiw	gp,s6,0x1b
    80002e8a:	03d44f3b          	divw	t5,s0,t4
    80002e8e:	0001                	nop
    80002e90:	8a3a                	mv	s4,a4
    80002e92:	417dd533          	sra	a0,s11,s7
    80002e96:	09730a93          	addi	s5,t1,151
    80002e9a:	003de5b3          	or	a1,s11,gp
    80002e9e:	00ce1c1b          	slliw	s8,t3,0xc
    80002ea2:	84627b37          	lui	s6,0x84627
    80002ea6:	717d                	addi	sp,sp,-16
    80002ea8:	03eec933          	div	s2,t4,t5
    80002eac:	86d9                	srai	a3,a3,0x16
    80002eae:	41205ebb          	sraw	t4,zero,s2
    80002eb2:	82f9                	srli	a3,a3,0x1e
    80002eb4:	56fd                	li	a3,-1
    80002eb6:	8a3a                	mv	s4,a4
    80002eb8:	03498fb3          	mul	t6,s3,s4
    80002ebc:	02a986bb          	mulw	a3,s3,a0
    80002ec0:	0094bb33          	sltu	s6,s1,s1
    80002ec4:	41205ebb          	sraw	t4,zero,s2
    80002ec8:	9a7e                	add	s4,s4,t6
    80002eca:	9d01                	subw	a0,a0,s0
    80002ecc:	04a9                	addi	s1,s1,10
    80002ece:	018a5213          	srli	tp,s4,0x18
    80002ed2:	01a31093          	slli	ra,t1,0x1a
    80002ed6:	41bb519b          	sraiw	gp,s6,0x1b
    80002eda:	8a3a                	mv	s4,a4
    80002edc:	41205ebb          	sraw	t4,zero,s2
    80002ee0:	56fd                	li	a3,-1
    80002ee2:	0285e463          	bltu	a1,s0,80002f0a <main_70_0_t+0xba>
    80002ee6:	9db9                	addw	a1,a1,a4
    80002ee8:	41660233          	sub	tp,a2,s6
    80002eec:	0001                	nop
    80002eee:	003de5b3          	or	a1,s11,gp
    80002ef2:	82f9                	srli	a3,a3,0x1e
    80002ef4:	5be3e993          	ori	s3,t2,1470
    80002ef8:	023830b3          	mulhu	ra,a6,gp
    80002efc:	009bf363          	bgeu	s7,s1,80002f02 <main_70_0_t+0xb2>
    80002f00:	82f9                	srli	a3,a3,0x1e
    80002f02:	003de5b3          	or	a1,s11,gp
    80002f06:	41660233          	sub	tp,a2,s6
    80002f0a:	0001                	nop
    80002f0c:	03f76733          	rem	a4,a4,t6
    80002f10:	89d9                	andi	a1,a1,22
    80002f12:	00d316bb          	sllw	a3,t1,a3
    80002f16:	03eec933          	div	s2,t4,t5
    80002f1a:	c699                	beqz	a3,80002f28 <main_70_0_t+0xd8>
    80002f1c:	41660233          	sub	tp,a2,s6
    80002f20:	89d9                	andi	a1,a1,22
    80002f22:	9db9                	addw	a1,a1,a4
    80002f24:	018a5213          	srli	tp,s4,0x18
    80002f28:	023830b3          	mulhu	ra,a6,gp
    80002f2c:	8f8d                	sub	a5,a5,a1
    80002f2e:	3f7d                	addiw	t5,t5,-1
    80002f30:	3f7d                	addiw	t5,t5,-1
    80002f32:	023830b3          	mulhu	ra,a6,gp
    80002f36:	40dc89bb          	subw	s3,s9,a3
    80002f3a:	40dc89bb          	subw	s3,s9,a3
    80002f3e:	69ad                	lui	s3,0xb
    80002f40:	40dc89bb          	subw	s3,s9,a3
    80002f44:	02deedbb          	remw	s11,t4,a3
    80002f48:	03eec933          	div	s2,t4,t5
    80002f4c:	40dc89bb          	subw	s3,s9,a3
    80002f50:	e3314393          	xori	t2,sp,-461
    80002f54:	9a7e                	add	s4,s4,t6
    80002f56:	8f8d                	sub	a5,a5,a1
    80002f58:	89d9                	andi	a1,a1,22
    80002f5a:	41bb519b          	sraiw	gp,s6,0x1b
    80002f5e:	03498fb3          	mul	t6,s3,s4
    80002f62:	93a6ba13          	sltiu	s4,a3,-1734
    80002f66:	02061833          	mulh	a6,a2,zero
    80002f6a:	01a31093          	slli	ra,t1,0x1a
    80002f6e:	ca81                	beqz	a3,80002f7e <main_70_0_t+0x12e>
    80002f70:	003a9263          	bne	s5,gp,80002f74 <main_70_0_t+0x124>
    80002f74:	717d                	addi	sp,sp,-16
    80002f76:	03272133          	mulhsu	sp,a4,s2
    80002f7a:	93a6ba13          	sltiu	s4,a3,-1734
    80002f7e:	02eb76bb          	remuw	a3,s6,a4
    80002f82:	029bfa63          	bgeu	s7,s1,80002fb6 <main_70_0_t+0x166>
    80002f86:	000725b3          	sltz	a1,a4
    80002f8a:	5be3e993          	ori	s3,t2,1470
    80002f8e:	69ad                	lui	s3,0xb
    80002f90:	0001                	nop
    80002f92:	04a9                	addi	s1,s1,10
    80002f94:	8c21                	xor	s0,s0,s0
    80002f96:	02b2dc33          	divu	s8,t0,a1
    80002f9a:	0aa6                	slli	s5,s5,0x9
    80002f9c:	0001                	nop
    80002f9e:	023830b3          	mulhu	ra,a6,gp
    80002fa2:	9db9                	addw	a1,a1,a4
    80002fa4:	93a6ba13          	sltiu	s4,a3,-1734
    80002fa8:	0001                	nop
    80002faa:	717d                	addi	sp,sp,-16
    80002fac:	3f7d                	addiw	t5,t5,-1
    80002fae:	9d01                	subw	a0,a0,s0
    80002fb0:	86d9                	srai	a3,a3,0x16
    80002fb2:	01ca4133          	xor	sp,s4,t3
    80002fb6:	86d9                	srai	a3,a3,0x16
    80002fb8:	018a5213          	srli	tp,s4,0x18
    80002fbc:	9a7e                	add	s4,s4,t6
    80002fbe:	c299                	beqz	a3,80002fc4 <main_70_0_t+0x174>
    80002fc0:	0a6c4417          	auipc	s0,0xa6c4
    80002fc4:	0085e263          	bltu	a1,s0,80002fc8 <main_70_0_t+0x178>
    80002fc8:	41660233          	sub	tp,a2,s6
    80002fcc:	89d9                	andi	a1,a1,22
    80002fce:	9db9                	addw	a1,a1,a4
    80002fd0:	41205ebb          	sraw	t4,zero,s2
    80002fd4:	03498fb3          	mul	t6,s3,s4
    80002fd8:	0a6c4417          	auipc	s0,0xa6c4
    80002fdc:	417dd533          	sra	a0,s11,s7
    80002fe0:	04a9                	addi	s1,s1,10
    80002fe2:	003de5b3          	or	a1,s11,gp
    80002fe6:	023a9863          	bne	s5,gp,80003016 <main_70_0_t+0x1c6>
    80002fea:	41bb519b          	sraiw	gp,s6,0x1b
    80002fee:	8f8d                	sub	a5,a5,a1
    80002ff0:	01a31093          	slli	ra,t1,0x1a
    80002ff4:	9db9                	addw	a1,a1,a4
    80002ff6:	09730a93          	addi	s5,t1,151
    80002ffa:	0094bb33          	sltu	s6,s1,s1
    80002ffe:	02b2dc33          	divu	s8,t0,a1
    80003002:	717d                	addi	sp,sp,-16
    80003004:	8c21                	xor	s0,s0,s0
    80003006:	00d316bb          	sllw	a3,t1,a3
    8000300a:	717d                	addi	sp,sp,-16
    8000300c:	9db9                	addw	a1,a1,a4
    8000300e:	82f9                	srli	a3,a3,0x1e
    80003010:	0001                	nop
    80003012:	41660233          	sub	tp,a2,s6
    80003016:	0085e563          	bltu	a1,s0,80003020 <main_70_0_t+0x1d0>
    8000301a:	0001                	nop
    8000301c:	02fffcb3          	remu	s9,t6,a5
    80003020:	03498fb3          	mul	t6,s3,s4
    80003024:	40dc89bb          	subw	s3,s9,a3
    80003028:	02d04563          	bgtz	a3,80003052 <main_70_0_t+0x202>
    8000302c:	03eec933          	div	s2,t4,t5
    80003030:	00d04f63          	bgtz	a3,8000304e <main_70_0_t+0x1fe>
    80003034:	4368d313          	srai	t1,a7,0x36
    80003038:	02eb76bb          	remuw	a3,s6,a4
    8000303c:	0094bb33          	sltu	s6,s1,s1
    80003040:	9db9                	addw	a1,a1,a4
    80003042:	0588                	addi	a0,sp,704
    80003044:	93a6ba13          	sltiu	s4,a3,-1734
    80003048:	82f9                	srli	a3,a3,0x1e
    8000304a:	000807bb          	addw	a5,a6,zero
    8000304e:	03272133          	mulhsu	sp,a4,s2
    80003052:	02fffcb3          	remu	s9,t6,a5
    80003056:	018a5213          	srli	tp,s4,0x18
    8000305a:	86d9                	srai	a3,a3,0x16
    8000305c:	02fffcb3          	remu	s9,t6,a5
    80003060:	03f76733          	rem	a4,a4,t6
    80003064:	02b2dc33          	divu	s8,t0,a1
    80003068:	0001                	nop
    8000306a:	03eec933          	div	s2,t4,t5
    8000306e:	41bb519b          	sraiw	gp,s6,0x1b
    80003072:	40dc89bb          	subw	s3,s9,a3
    80003076:	e329                	bnez	a4,800030b8 <main_70_0_t+0x268>
    80003078:	02a986bb          	mulw	a3,s3,a0
    8000307c:	0001                	nop
    8000307e:	01ca4133          	xor	sp,s4,t3
    80003082:	00d316bb          	sllw	a3,t1,a3
    80003086:	86d9                	srai	a3,a3,0x16
    80003088:	84627b37          	lui	s6,0x84627
    8000308c:	9db9                	addw	a1,a1,a4
    8000308e:	03b95763          	bge	s2,s11,800030bc <main_70_0_t+0x26c>
    80003092:	029bf063          	bgeu	s7,s1,800030b2 <main_70_0_t+0x262>
    80003096:	04a9                	addi	s1,s1,10
    80003098:	01b55bbb          	srlw	s7,a0,s11
    8000309c:	000807bb          	addw	a5,a6,zero
    800030a0:	8e49                	or	a2,a2,a0
    800030a2:	000725b3          	sltz	a1,a4
    800030a6:	018a5213          	srli	tp,s4,0x18
    800030aa:	0094bb33          	sltu	s6,s1,s1
    800030ae:	02d04d63          	bgtz	a3,800030e8 <main_70_0_t+0x298>
    800030b2:	8c21                	xor	s0,s0,s0
    800030b4:	03f76733          	rem	a4,a4,t6
    800030b8:	01a31093          	slli	ra,t1,0x1a
    800030bc:	93a6ba13          	sltiu	s4,a3,-1734
    800030c0:	9a7e                	add	s4,s4,t6
    800030c2:	000807bb          	addw	a5,a6,zero
    800030c6:	56fd                	li	a3,-1
    800030c8:	717d                	addi	sp,sp,-16
    800030ca:	02b2dc33          	divu	s8,t0,a1
    800030ce:	717d                	addi	sp,sp,-16
    800030d0:	0001                	nop
    800030d2:	0094bb33          	sltu	s6,s1,s1
    800030d6:	02fffcb3          	remu	s9,t6,a5
    800030da:	8c79                	and	s0,s0,a4
    800030dc:	00ce1c1b          	slliw	s8,t3,0xc
    800030e0:	0166feb3          	and	t4,a3,s6
    800030e4:	02b2dc33          	divu	s8,t0,a1
    800030e8:	8c21                	xor	s0,s0,s0
    800030ea:	41205ebb          	sraw	t4,zero,s2
    800030ee:	8c21                	xor	s0,s0,s0
    800030f0:	0094bb33          	sltu	s6,s1,s1
    800030f4:	01ca4133          	xor	sp,s4,t3
    800030f8:	69ad                	lui	s3,0xb
    800030fa:	03d44f3b          	divw	t5,s0,t4
    800030fe:	9a7e                	add	s4,s4,t6
    80003100:	04a9                	addi	s1,s1,10
    80003102:	01ca4133          	xor	sp,s4,t3
    80003106:	00d04f63          	bgtz	a3,80003124 <main_70_0_t+0x2d4>
    8000310a:	09730a93          	addi	s5,t1,151
    8000310e:	c291                	beqz	a3,80003112 <main_70_0_t+0x2c2>
    80003110:	04a9                	addi	s1,s1,10
    80003112:	0a6c4417          	auipc	s0,0xa6c4
    80003116:	82f9                	srli	a3,a3,0x1e
    80003118:	41205ebb          	sraw	t4,zero,s2
    8000311c:	02a986bb          	mulw	a3,s3,a0
    80003120:	edf82113          	slti	sp,a6,-289
    80003124:	04d04563          	bgtz	a3,8000316e <main_70_0_t+0x31e>
    80003128:	8f8d                	sub	a5,a5,a1
    8000312a:	0085ec63          	bltu	a1,s0,80003142 <main_70_0_t+0x2f2>
    8000312e:	01a31093          	slli	ra,t1,0x1a
    80003132:	4368d313          	srai	t1,a7,0x36
    80003136:	0094bb33          	sltu	s6,s1,s1
    8000313a:	41205ebb          	sraw	t4,zero,s2
    8000313e:	28d0f213          	andi	tp,ra,653
    80003142:	8c79                	and	s0,s0,a4
    80003144:	0a6c4417          	auipc	s0,0xa6c4
    80003148:	023a9f63          	bne	s5,gp,80003186 <main_70_0_t+0x336>
    8000314c:	03f76733          	rem	a4,a4,t6
    80003150:	01e203b3          	add	t2,tp,t5
    80003154:	02b2dc33          	divu	s8,t0,a1
    80003158:	41205ebb          	sraw	t4,zero,s2
    8000315c:	28d0f213          	andi	tp,ra,653
    80003160:	02a986bb          	mulw	a3,s3,a0
    80003164:	018a5213          	srli	tp,s4,0x18
    80003168:	01a31093          	slli	ra,t1,0x1a
    8000316c:	8c79                	and	s0,s0,a4
    8000316e:	4368d313          	srai	t1,a7,0x36
    80003172:	09730a93          	addi	s5,t1,151
    80003176:	00d316bb          	sllw	a3,t1,a3
    8000317a:	02eb76bb          	remuw	a3,s6,a4
    8000317e:	01ca4133          	xor	sp,s4,t3
    80003182:	0cc1881b          	addiw	a6,gp,204
    80003186:	02deedbb          	remw	s11,t4,a3
    8000318a:	9db9                	addw	a1,a1,a4
    8000318c:	0cc1881b          	addiw	a6,gp,204
    80003190:	8f8d                	sub	a5,a5,a1
    80003192:	03f76733          	rem	a4,a4,t6
    80003196:	02fffcb3          	remu	s9,t6,a5
    8000319a:	0094bb33          	sltu	s6,s1,s1
    8000319e:	03f76733          	rem	a4,a4,t6
    800031a2:	0cc1881b          	addiw	a6,gp,204
    800031a6:	00ce1c1b          	slliw	s8,t3,0xc
    800031aa:	01b60963          	beq	a2,s11,800031bc <main_70_0_t+0x36c>
    800031ae:	eb0d                	bnez	a4,800031e0 <main_70_0_t+0x390>
    800031b0:	4368d313          	srai	t1,a7,0x36
    800031b4:	01b55bbb          	srlw	s7,a0,s11
    800031b8:	01a31093          	slli	ra,t1,0x1a
    800031bc:	000725b3          	sltz	a1,a4
    800031c0:	01ca4133          	xor	sp,s4,t3
    800031c4:	8c21                	xor	s0,s0,s0
    800031c6:	8a3a                	mv	s4,a4
    800031c8:	82f9                	srli	a3,a3,0x1e
    800031ca:	03eec933          	div	s2,t4,t5
    800031ce:	9a7e                	add	s4,s4,t6
    800031d0:	5be3e993          	ori	s3,t2,1470
    800031d4:	0091ddb3          	srl	s11,gp,s1
    800031d8:	0a6c4417          	auipc	s0,0xa6c4
    800031dc:	000b561b          	srliw	a2,s6,0x0
    800031e0:	28d0f213          	andi	tp,ra,653
    800031e4:	8a3a                	mv	s4,a4
    800031e6:	8e49                	or	a2,a2,a0
    800031e8:	4368d313          	srai	t1,a7,0x36
    800031ec:	01ca4133          	xor	sp,s4,t3
    800031f0:	00d04363          	bgtz	a3,800031f6 <main_70_0_t+0x3a6>
    800031f4:	ef11                	bnez	a4,80003210 <main_70_0_t+0x3c0>
    800031f6:	3f7d                	addiw	t5,t5,-1
    800031f8:	e311                	bnez	a4,800031fc <main_70_0_t+0x3ac>
    800031fa:	9a7e                	add	s4,s4,t6
    800031fc:	8a3a                	mv	s4,a4
    800031fe:	9db9                	addw	a1,a1,a4
    80003200:	edf82113          	slti	sp,a6,-289
    80003204:	00ce1c1b          	slliw	s8,t3,0xc
    80003208:	0cc1881b          	addiw	a6,gp,204
    8000320c:	0094bb33          	sltu	s6,s1,s1
    80003210:	8a3a                	mv	s4,a4
    80003212:	01b95263          	bge	s2,s11,80003216 <main_70_0_t+0x3c6>
    80003216:	00ce1c1b          	slliw	s8,t3,0xc
    8000321a:	02deedbb          	remw	s11,t4,a3
    8000321e:	8c79                	and	s0,s0,a4
    80003220:	89d9                	andi	a1,a1,22
    80003222:	3f7d                	addiw	t5,t5,-1
    80003224:	03272133          	mulhsu	sp,a4,s2
    80003228:	03498fb3          	mul	t6,s3,s4
    8000322c:	41bb519b          	sraiw	gp,s6,0x1b
    80003230:	9db9                	addw	a1,a1,a4
    80003232:	8c79                	and	s0,s0,a4
    80003234:	4368d313          	srai	t1,a7,0x36
    80003238:	82f9                	srli	a3,a3,0x1e
    8000323a:	3f7d                	addiw	t5,t5,-1
    8000323c:	0001                	nop
    8000323e:	03f76733          	rem	a4,a4,t6
    80003242:	02415b3b          	divuw	s6,sp,tp
    80003246:	0a6c4417          	auipc	s0,0xa6c4
    8000324a:	03d44f3b          	divw	t5,s0,t4
    8000324e:	4368d313          	srai	t1,a7,0x36
    80003252:	8a3a                	mv	s4,a4
    80003254:	03498fb3          	mul	t6,s3,s4
    80003258:	03eec933          	div	s2,t4,t5
    8000325c:	28d0f213          	andi	tp,ra,653
    80003260:	0001                	nop
    80003262:	03eec933          	div	s2,t4,t5
    80003266:	03eec933          	div	s2,t4,t5
    8000326a:	002495b3          	sll	a1,s1,sp
    8000326e:	03b95763          	bge	s2,s11,8000329c <main_70_0_t+0x44c>
    80003272:	02fffcb3          	remu	s9,t6,a5
    80003276:	0166feb3          	and	t4,a3,s6
    8000327a:	41205ebb          	sraw	t4,zero,s2
    8000327e:	40dc89bb          	subw	s3,s9,a3
    80003282:	023a9a63          	bne	s5,gp,800032b6 <main_70_0_t+0x466>
    80003286:	0aa6                	slli	s5,s5,0x9
    80003288:	002495b3          	sll	a1,s1,sp
    8000328c:	01b55bbb          	srlw	s7,a0,s11
    80003290:	03498fb3          	mul	t6,s3,s4
    80003294:	82f9                	srli	a3,a3,0x1e
    80003296:	02deedbb          	remw	s11,t4,a3
    8000329a:	86d9                	srai	a3,a3,0x16
    8000329c:	8f8d                	sub	a5,a5,a1
    8000329e:	93a6ba13          	sltiu	s4,a3,-1734
    800032a2:	0aa6                	slli	s5,s5,0x9
    800032a4:	02d04563          	bgtz	a3,800032ce <main_70_0_t+0x47e>
    800032a8:	01e203b3          	add	t2,tp,t5
    800032ac:	8c21                	xor	s0,s0,s0
    800032ae:	000b561b          	srliw	a2,s6,0x0
    800032b2:	02fffcb3          	remu	s9,t6,a5
    800032b6:	9d01                	subw	a0,a0,s0
    800032b8:	02deedbb          	remw	s11,t4,a3
    800032bc:	41660233          	sub	tp,a2,s6
    800032c0:	01b55bbb          	srlw	s7,a0,s11
    800032c4:	04a9                	addi	s1,s1,10
    800032c6:	01a31093          	slli	ra,t1,0x1a
    800032ca:	41660233          	sub	tp,a2,s6
    800032ce:	02fffcb3          	remu	s9,t6,a5
    800032d2:	0001                	nop
    800032d4:	02061833          	mulh	a6,a2,zero
    800032d8:	0588                	addi	a0,sp,704
    800032da:	01a31093          	slli	ra,t1,0x1a
    800032de:	0166feb3          	and	t4,a3,s6
    800032e2:	9a7e                	add	s4,s4,t6
    800032e4:	0094bb33          	sltu	s6,s1,s1
    800032e8:	00d04663          	bgtz	a3,800032f4 <main_70_0_t+0x4a4>
    800032ec:	84627b37          	lui	s6,0x84627
    800032f0:	4368d313          	srai	t1,a7,0x36
    800032f4:	002495b3          	sll	a1,s1,sp
    800032f8:	41bb519b          	sraiw	gp,s6,0x1b
    800032fc:	86d9                	srai	a3,a3,0x16
    800032fe:	05b60163          	beq	a2,s11,80003340 <main_70_0_t+0x4f0>
    80003302:	000b561b          	srliw	a2,s6,0x0
    80003306:	8f8d                	sub	a5,a5,a1
    80003308:	03b95f63          	bge	s2,s11,80003346 <main_70_0_t+0x4f6>
    8000330c:	002495b3          	sll	a1,s1,sp
    80003310:	edf82113          	slti	sp,a6,-289
    80003314:	9d01                	subw	a0,a0,s0
    80003316:	8a3a                	mv	s4,a4
    80003318:	02deedbb          	remw	s11,t4,a3
    8000331c:	417dd533          	sra	a0,s11,s7
    80003320:	4368d313          	srai	t1,a7,0x36
    80003324:	0166feb3          	and	t4,a3,s6
    80003328:	56fd                	li	a3,-1
    8000332a:	ce89                	beqz	a3,80003344 <main_70_0_t+0x4f4>
    8000332c:	edf82113          	slti	sp,a6,-289
    80003330:	09730a93          	addi	s5,t1,151
    80003334:	01ca4133          	xor	sp,s4,t3
    80003338:	029bf563          	bgeu	s7,s1,80003362 <main_70_0_t+0x512>
    8000333c:	0166feb3          	and	t4,a3,s6
    80003340:	717d                	addi	sp,sp,-16
    80003342:	8a3a                	mv	s4,a4
    80003344:	c6a1                	beqz	a3,8000338c <main_70_0_t+0x53c>
    80003346:	01a31093          	slli	ra,t1,0x1a
    8000334a:	03d44f3b          	divw	t5,s0,t4
    8000334e:	03d44f3b          	divw	t5,s0,t4
    80003352:	84627b37          	lui	s6,0x84627
    80003356:	03272133          	mulhsu	sp,a4,s2
    8000335a:	e3314393          	xori	t2,sp,-461
    8000335e:	00d04863          	bgtz	a3,8000336e <main_70_0_t+0x51e>
    80003362:	89d9                	andi	a1,a1,22
    80003364:	0588                	addi	a0,sp,704
    80003366:	02061833          	mulh	a6,a2,zero
    8000336a:	09730a93          	addi	s5,t1,151
    8000336e:	02a986bb          	mulw	a3,s3,a0
    80003372:	0a6c4417          	auipc	s0,0xa6c4
    80003376:	8c21                	xor	s0,s0,s0
    80003378:	018a5213          	srli	tp,s4,0x18
    8000337c:	02b2dc33          	divu	s8,t0,a1
    80003380:	02eb76bb          	remuw	a3,s6,a4
    80003384:	41660233          	sub	tp,a2,s6
    80003388:	5be3e993          	ori	s3,t2,1470
    8000338c:	03f76733          	rem	a4,a4,t6
    80003390:	41205ebb          	sraw	t4,zero,s2
    80003394:	8e49                	or	a2,a2,a0
    80003396:	9d01                	subw	a0,a0,s0
    80003398:	9db9                	addw	a1,a1,a4
    8000339a:	89d9                	andi	a1,a1,22
    8000339c:	00d04463          	bgtz	a3,800033a4 <main_70_0_t+0x554>
    800033a0:	0094bb33          	sltu	s6,s1,s1
    800033a4:	0094bb33          	sltu	s6,s1,s1
    800033a8:	8f8d                	sub	a5,a5,a1
    800033aa:	84627b37          	lui	s6,0x84627
    800033ae:	93a6ba13          	sltiu	s4,a3,-1734
    800033b2:	09730a93          	addi	s5,t1,151
    800033b6:	4368d313          	srai	t1,a7,0x36
    800033ba:	01e203b3          	add	t2,tp,t5
    800033be:	009bfa63          	bgeu	s7,s1,800033d2 <main_70_0_t+0x582>
    800033c2:	01b55bbb          	srlw	s7,a0,s11
    800033c6:	09730a93          	addi	s5,t1,151
    800033ca:	023a9a63          	bne	s5,gp,800033fe <main_70_0_t+0x5ae>
    800033ce:	0094bb33          	sltu	s6,s1,s1
    800033d2:	4368d313          	srai	t1,a7,0x36
    800033d6:	03498fb3          	mul	t6,s3,s4
    800033da:	41660233          	sub	tp,a2,s6
    800033de:	0166feb3          	and	t4,a3,s6
    800033e2:	0aa6                	slli	s5,s5,0x9
    800033e4:	003de5b3          	or	a1,s11,gp
    800033e8:	02415b3b          	divuw	s6,sp,tp
    800033ec:	8c79                	and	s0,s0,a4
    800033ee:	09730a93          	addi	s5,t1,151
    800033f2:	0166feb3          	and	t4,a3,s6
    800033f6:	9db9                	addw	a1,a1,a4
    800033f8:	8a3a                	mv	s4,a4
    800033fa:	000725b3          	sltz	a1,a4
    800033fe:	0001                	nop
    80003400:	04a9                	addi	s1,s1,10
    80003402:	8f8d                	sub	a5,a5,a1
    80003404:	09730a93          	addi	s5,t1,151
    80003408:	018a5213          	srli	tp,s4,0x18
    8000340c:	69ad                	lui	s3,0xb
    8000340e:	01b55bbb          	srlw	s7,a0,s11
    80003412:	4368d313          	srai	t1,a7,0x36
    80003416:	69ad                	lui	s3,0xb
    80003418:	89d9                	andi	a1,a1,22
    8000341a:	56fd                	li	a3,-1
    8000341c:	41205ebb          	sraw	t4,zero,s2
    80003420:	4368d313          	srai	t1,a7,0x36
    80003424:	8e49                	or	a2,a2,a0
    80003426:	89d9                	andi	a1,a1,22
    80003428:	5be3e993          	ori	s3,t2,1470
    8000342c:	93a6ba13          	sltiu	s4,a3,-1734
    80003430:	8e49                	or	a2,a2,a0
    80003432:	000807bb          	addw	a5,a6,zero
    80003436:	4368d313          	srai	t1,a7,0x36
    8000343a:	018a5213          	srli	tp,s4,0x18
    8000343e:	3f7d                	addiw	t5,t5,-1
    80003440:	000807bb          	addw	a5,a6,zero
    80003444:	edf82113          	slti	sp,a6,-289
    80003448:	717d                	addi	sp,sp,-16
    8000344a:	03272133          	mulhsu	sp,a4,s2
    8000344e:	40dc89bb          	subw	s3,s9,a3
    80003452:	40dc89bb          	subw	s3,s9,a3
    80003456:	01e203b3          	add	t2,tp,t5
    8000345a:	8a3a                	mv	s4,a4
    8000345c:	0166feb3          	and	t4,a3,s6
    80003460:	0588                	addi	a0,sp,704
    80003462:	0166feb3          	and	t4,a3,s6
    80003466:	41660233          	sub	tp,a2,s6
    8000346a:	69ad                	lui	s3,0xb

000000008000346c <main_13>:
    8000346c:	02400eef          	jal	t4,80003490 <main_13+0x24>
    80003470:	a029                	j	8000347a <main_13+0xe>
    80003472:	004000ef          	jal	80003476 <main_13+0xa>
    80003476:	024000ef          	jal	8000349a <main_13+0x2e>
    8000347a:	ff9ff0ef          	jal	80003472 <main_13+0x6>
    8000347e:	028000ef          	jal	800034a6 <main_13+0x3a>
    80003482:	02e000ef          	jal	800034b0 <main_13+0x44>
    80003486:	b7ed                	j	80003470 <main_13+0x4>
    80003488:	004000ef          	jal	8000348c <main_13+0x20>
    8000348c:	a029                	j	80003496 <main_13+0x2a>
    8000348e:	bfd5                	j	80003482 <main_13+0x16>
    80003490:	a031                	j	8000349c <main_13+0x30>
    80003492:	012000ef          	jal	800034a4 <main_13+0x38>
    80003496:	ff9ff0ef          	jal	8000348e <main_13+0x22>
    8000349a:	a801                	j	800034aa <main_13+0x3e>
    8000349c:	004000ef          	jal	800034a0 <main_13+0x34>
    800034a0:	fdfff0ef          	jal	8000347e <main_13+0x12>
    800034a4:	a021                	j	800034ac <main_13+0x40>
    800034a6:	a009                	j	800034a8 <main_13+0x3c>
    800034a8:	bff9                	j	80003486 <main_13+0x1a>
    800034aa:	b7e5                	j	80003492 <main_13+0x26>
    800034ac:	fddff0ef          	jal	80003488 <main_13+0x1c>
    800034b0:	0001                	nop
    800034b2:	03eec933          	div	s2,t4,t5
    800034b6:	41205ebb          	sraw	t4,zero,s2
    800034ba:	89d9                	andi	a1,a1,22
    800034bc:	03d44f3b          	divw	t5,s0,t4
    800034c0:	0094bb33          	sltu	s6,s1,s1
    800034c4:	02eb76bb          	remuw	a3,s6,a4
    800034c8:	3f7d                	addiw	t5,t5,-1
    800034ca:	09730a93          	addi	s5,t1,151
    800034ce:	02415b3b          	divuw	s6,sp,tp
    800034d2:	9db9                	addw	a1,a1,a4
    800034d4:	0001                	nop
    800034d6:	0091ddb3          	srl	s11,gp,s1
    800034da:	02061833          	mulh	a6,a2,zero
    800034de:	003de5b3          	or	a1,s11,gp
    800034e2:	02fffcb3          	remu	s9,t6,a5
    800034e6:	03498fb3          	mul	t6,s3,s4
    800034ea:	eb0d                	bnez	a4,8000351c <main_13+0xb0>
    800034ec:	09730a93          	addi	s5,t1,151
    800034f0:	02fffcb3          	remu	s9,t6,a5
    800034f4:	8c79                	and	s0,s0,a4
    800034f6:	82f9                	srli	a3,a3,0x1e
    800034f8:	edf82113          	slti	sp,a6,-289
    800034fc:	8e49                	or	a2,a2,a0
    800034fe:	02415b3b          	divuw	s6,sp,tp
    80003502:	ca9d                	beqz	a3,80003538 <main_13+0xcc>
    80003504:	8f8d                	sub	a5,a5,a1
    80003506:	8c79                	and	s0,s0,a4
    80003508:	00d04263          	bgtz	a3,8000350c <main_13+0xa0>
    8000350c:	000725b3          	sltz	a1,a4
    80003510:	4368d313          	srai	t1,a7,0x36
    80003514:	02b2dc33          	divu	s8,t0,a1
    80003518:	edf82113          	slti	sp,a6,-289
    8000351c:	01b60663          	beq	a2,s11,80003528 <main_13+0xbc>
    80003520:	03b95b63          	bge	s2,s11,80003556 <main_13+0xea>
    80003524:	02deedbb          	remw	s11,t4,a3
    80003528:	86d9                	srai	a3,a3,0x16
    8000352a:	0a6c4417          	auipc	s0,0xa6c4
    8000352e:	02fffcb3          	remu	s9,t6,a5
    80003532:	02b2dc33          	divu	s8,t0,a1
    80003536:	8c79                	and	s0,s0,a4
    80003538:	41660233          	sub	tp,a2,s6
    8000353c:	02a986bb          	mulw	a3,s3,a0
    80003540:	03eec933          	div	s2,t4,t5
    80003544:	8c79                	and	s0,s0,a4
    80003546:	3f7d                	addiw	t5,t5,-1
    80003548:	01a31093          	slli	ra,t1,0x1a
    8000354c:	00ce1c1b          	slliw	s8,t3,0xc
    80003550:	003de5b3          	or	a1,s11,gp
    80003554:	9db9                	addw	a1,a1,a4
    80003556:	56fd                	li	a3,-1
    80003558:	0001                	nop
    8000355a:	023830b3          	mulhu	ra,a6,gp
    8000355e:	9db9                	addw	a1,a1,a4
    80003560:	049bf363          	bgeu	s7,s1,800035a6 <main_13+0x13a>
    80003564:	0166feb3          	and	t4,a3,s6
    80003568:	417dd533          	sra	a0,s11,s7
    8000356c:	018a5213          	srli	tp,s4,0x18
    80003570:	0091ddb3          	srl	s11,gp,s1
    80003574:	41660233          	sub	tp,a2,s6
    80003578:	000807bb          	addw	a5,a6,zero
    8000357c:	01ca4133          	xor	sp,s4,t3
    80003580:	03d44f3b          	divw	t5,s0,t4
    80003584:	002495b3          	sll	a1,s1,sp
    80003588:	00ce1c1b          	slliw	s8,t3,0xc
    8000358c:	8c79                	and	s0,s0,a4
    8000358e:	02d04063          	bgtz	a3,800035ae <main_13+0x142>
    80003592:	edf82113          	slti	sp,a6,-289
    80003596:	03eec933          	div	s2,t4,t5
    8000359a:	41bb519b          	sraiw	gp,s6,0x1b
    8000359e:	8f8d                	sub	a5,a5,a1
    800035a0:	03b95163          	bge	s2,s11,800035c2 <main_13+0x156>
    800035a4:	c689                	beqz	a3,800035ae <main_13+0x142>
    800035a6:	01b55bbb          	srlw	s7,a0,s11
    800035aa:	40dc89bb          	subw	s3,s9,a3
    800035ae:	00d04663          	bgtz	a3,800035ba <main_13+0x14e>
    800035b2:	01ca4133          	xor	sp,s4,t3
    800035b6:	40dc89bb          	subw	s3,s9,a3
    800035ba:	00ce1c1b          	slliw	s8,t3,0xc
    800035be:	0166feb3          	and	t4,a3,s6
    800035c2:	9d01                	subw	a0,a0,s0
    800035c4:	8e49                	or	a2,a2,a0
    800035c6:	86d9                	srai	a3,a3,0x16
    800035c8:	417dd533          	sra	a0,s11,s7
    800035cc:	28d0f213          	andi	tp,ra,653
    800035d0:	02eb76bb          	remuw	a3,s6,a4
    800035d4:	4368d313          	srai	t1,a7,0x36
    800035d8:	03498fb3          	mul	t6,s3,s4
    800035dc:	02a986bb          	mulw	a3,s3,a0
    800035e0:	02a986bb          	mulw	a3,s3,a0
    800035e4:	8e49                	or	a2,a2,a0
    800035e6:	003de5b3          	or	a1,s11,gp
    800035ea:	41205ebb          	sraw	t4,zero,s2
    800035ee:	86d9                	srai	a3,a3,0x16
    800035f0:	02b2dc33          	divu	s8,t0,a1
    800035f4:	c6a1                	beqz	a3,8000363c <main_13+0x1d0>
    800035f6:	02b2dc33          	divu	s8,t0,a1
    800035fa:	edf82113          	slti	sp,a6,-289
    800035fe:	8f8d                	sub	a5,a5,a1
    80003600:	e3314393          	xori	t2,sp,-461
    80003604:	000807bb          	addw	a5,a6,zero
    80003608:	5be3e993          	ori	s3,t2,1470
    8000360c:	9a7e                	add	s4,s4,t6
    8000360e:	003a9263          	bne	s5,gp,80003612 <main_13+0x1a6>
    80003612:	03498fb3          	mul	t6,s3,s4
    80003616:	e3314393          	xori	t2,sp,-461
    8000361a:	00ce1c1b          	slliw	s8,t3,0xc
    8000361e:	02fffcb3          	remu	s9,t6,a5
    80003622:	0a6c4417          	auipc	s0,0xa6c4
    80003626:	02b2dc33          	divu	s8,t0,a1
    8000362a:	69ad                	lui	s3,0xb
    8000362c:	e3314393          	xori	t2,sp,-461
    80003630:	02061833          	mulh	a6,a2,zero
    80003634:	02061833          	mulh	a6,a2,zero
    80003638:	000807bb          	addw	a5,a6,zero
    8000363c:	e3314393          	xori	t2,sp,-461
    80003640:	023830b3          	mulhu	ra,a6,gp
    80003644:	8c79                	and	s0,s0,a4
    80003646:	0885ef63          	bltu	a1,s0,800036e4 <main_18+0x7a>
    8000364a:	82f9                	srli	a3,a3,0x1e
    8000364c:	c299                	beqz	a3,80003652 <main_13+0x1e6>
    8000364e:	00d316bb          	sllw	a3,t1,a3
    80003652:	03d44f3b          	divw	t5,s0,t4
    80003656:	417dd533          	sra	a0,s11,s7
    8000365a:	8f8d                	sub	a5,a5,a1
    8000365c:	5be3e993          	ori	s3,t2,1470
    80003660:	0cc1881b          	addiw	a6,gp,204
    80003664:	000b561b          	srliw	a2,s6,0x0
    80003668:	04a9                	addi	s1,s1,10

000000008000366a <main_18>:
    8000366a:	04200eef          	jal	t4,800036ac <main_18+0x42>
    8000366e:	046000ef          	jal	800036b4 <main_18+0x4a>
    80003672:	a009                	j	80003674 <main_18+0xa>
    80003674:	bfed                	j	8000366e <main_18+0x4>
    80003676:	a0b9                	j	800036c4 <main_18+0x5a>
    80003678:	028000ef          	jal	800036a0 <main_18+0x36>
    8000367c:	ffbff0ef          	jal	80003676 <main_18+0xc>
    80003680:	01a000ef          	jal	8000369a <main_18+0x30>
    80003684:	a801                	j	80003694 <main_18+0x2a>
    80003686:	a081                	j	800036c6 <main_18+0x5c>
    80003688:	fffff0ef          	jal	80003686 <main_18+0x1c>
    8000368c:	fe7ff0ef          	jal	80003672 <main_18+0x8>
    80003690:	ffdff0ef          	jal	8000368c <main_18+0x22>
    80003694:	a831                	j	800036b0 <main_18+0x46>
    80003696:	a035                	j	800036c2 <main_18+0x58>
    80003698:	a819                	j	800036ae <main_18+0x44>
    8000369a:	a01d                	j	800036c0 <main_18+0x56>
    8000369c:	fe1ff0ef          	jal	8000367c <main_18+0x12>
    800036a0:	018000ef          	jal	800036b8 <main_18+0x4e>
    800036a4:	016000ef          	jal	800036ba <main_18+0x50>
    800036a8:	fe9ff0ef          	jal	80003690 <main_18+0x26>
    800036ac:	b7ed                	j	80003696 <main_18+0x2c>
    800036ae:	bfe9                	j	80003688 <main_18+0x1e>
    800036b0:	ff5ff0ef          	jal	800036a4 <main_18+0x3a>
    800036b4:	fcdff0ef          	jal	80003680 <main_18+0x16>
    800036b8:	b7d5                	j	8000369c <main_18+0x32>
    800036ba:	bff9                	j	80003698 <main_18+0x2e>
    800036bc:	fedff0ef          	jal	800036a8 <main_18+0x3e>
    800036c0:	bf65                	j	80003678 <main_18+0xe>
    800036c2:	bfed                	j	800036bc <main_18+0x52>
    800036c4:	b7c1                	j	80003684 <main_18+0x1a>
    800036c6:	000807bb          	addw	a5,a6,zero
    800036ca:	0a6c4417          	auipc	s0,0xa6c4
    800036ce:	03f76733          	rem	a4,a4,t6
    800036d2:	0588                	addi	a0,sp,704
    800036d4:	03498fb3          	mul	t6,s3,s4
    800036d8:	86d9                	srai	a3,a3,0x16
    800036da:	8c79                	and	s0,s0,a4
    800036dc:	0166feb3          	and	t4,a3,s6
    800036e0:	0a6c4417          	auipc	s0,0xa6c4
    800036e4:	03b95c63          	bge	s2,s11,8000371c <main_18+0xb2>
    800036e8:	02a986bb          	mulw	a3,s3,a0
    800036ec:	02fffcb3          	remu	s9,t6,a5
    800036f0:	89d9                	andi	a1,a1,22
    800036f2:	018a5213          	srli	tp,s4,0x18
    800036f6:	0001                	nop
    800036f8:	003a9463          	bne	s5,gp,80003700 <main_18+0x96>
    800036fc:	41bb519b          	sraiw	gp,s6,0x1b
    80003700:	0588                	addi	a0,sp,704
    80003702:	03f76733          	rem	a4,a4,t6
    80003706:	8c21                	xor	s0,s0,s0
    80003708:	002495b3          	sll	a1,s1,sp
    8000370c:	40dc89bb          	subw	s3,s9,a3
    80003710:	01a31093          	slli	ra,t1,0x1a
    80003714:	018a5213          	srli	tp,s4,0x18
    80003718:	02fffcb3          	remu	s9,t6,a5
    8000371c:	00d316bb          	sllw	a3,t1,a3
    80003720:	03272133          	mulhsu	sp,a4,s2
    80003724:	8e49                	or	a2,a2,a0
    80003726:	003a9a63          	bne	s5,gp,8000373a <main_18+0xd0>
    8000372a:	03498fb3          	mul	t6,s3,s4
    8000372e:	0094bb33          	sltu	s6,s1,s1
    80003732:	03b60463          	beq	a2,s11,8000375a <main_18+0xf0>
    80003736:	417dd533          	sra	a0,s11,s7
    8000373a:	000807bb          	addw	a5,a6,zero
    8000373e:	002495b3          	sll	a1,s1,sp
    80003742:	0aa6                	slli	s5,s5,0x9
    80003744:	03272133          	mulhsu	sp,a4,s2
    80003748:	86d9                	srai	a3,a3,0x16
    8000374a:	86d9                	srai	a3,a3,0x16
    8000374c:	03eec933          	div	s2,t4,t5
    80003750:	0001                	nop
    80003752:	02fffcb3          	remu	s9,t6,a5
    80003756:	40dc89bb          	subw	s3,s9,a3
    8000375a:	0a6c4417          	auipc	s0,0xa6c4
    8000375e:	8f8d                	sub	a5,a5,a1
    80003760:	0085e963          	bltu	a1,s0,80003772 <main_18+0x108>
    80003764:	8a3a                	mv	s4,a4
    80003766:	28d0f213          	andi	tp,ra,653
    8000376a:	28d0f213          	andi	tp,ra,653
    8000376e:	417dd533          	sra	a0,s11,s7
    80003772:	02fffcb3          	remu	s9,t6,a5
    80003776:	00d316bb          	sllw	a3,t1,a3
    8000377a:	edf82113          	slti	sp,a6,-289
    8000377e:	02fffcb3          	remu	s9,t6,a5
    80003782:	8c79                	and	s0,s0,a4
    80003784:	717d                	addi	sp,sp,-16
    80003786:	8e49                	or	a2,a2,a0
    80003788:	41bb519b          	sraiw	gp,s6,0x1b
    8000378c:	0cc1881b          	addiw	a6,gp,204
    80003790:	0094bb33          	sltu	s6,s1,s1
    80003794:	edf82113          	slti	sp,a6,-289
    80003798:	002495b3          	sll	a1,s1,sp
    8000379c:	8a3a                	mv	s4,a4
    8000379e:	03498fb3          	mul	t6,s3,s4
    800037a2:	000725b3          	sltz	a1,a4
    800037a6:	03d44f3b          	divw	t5,s0,t4
    800037aa:	edf82113          	slti	sp,a6,-289
    800037ae:	04a9                	addi	s1,s1,10
    800037b0:	0001                	nop
    800037b2:	02deedbb          	remw	s11,t4,a3
    800037b6:	03498fb3          	mul	t6,s3,s4
    800037ba:	717d                	addi	sp,sp,-16
    800037bc:	0cc1881b          	addiw	a6,gp,204
    800037c0:	000725b3          	sltz	a1,a4
    800037c4:	03498fb3          	mul	t6,s3,s4
    800037c8:	023830b3          	mulhu	ra,a6,gp
    800037cc:	0085ec63          	bltu	a1,s0,800037e4 <main_18+0x17a>
    800037d0:	ce99                	beqz	a3,800037ee <main_18+0x184>
    800037d2:	03498fb3          	mul	t6,s3,s4
    800037d6:	eb1d                	bnez	a4,8000380c <main_18+0x1a2>
    800037d8:	4368d313          	srai	t1,a7,0x36
    800037dc:	84627b37          	lui	s6,0x84627
    800037e0:	3f7d                	addiw	t5,t5,-1
    800037e2:	717d                	addi	sp,sp,-16
    800037e4:	8c79                	and	s0,s0,a4
    800037e6:	00d04463          	bgtz	a3,800037ee <main_18+0x184>
    800037ea:	05b60463          	beq	a2,s11,80003832 <main_18+0x1c8>
    800037ee:	01a31093          	slli	ra,t1,0x1a
    800037f2:	edf82113          	slti	sp,a6,-289
    800037f6:	8e49                	or	a2,a2,a0
    800037f8:	02deedbb          	remw	s11,t4,a3
    800037fc:	0a6c4417          	auipc	s0,0xa6c4
    80003800:	018a5213          	srli	tp,s4,0x18
    80003804:	000b561b          	srliw	a2,s6,0x0
    80003808:	00ce1c1b          	slliw	s8,t3,0xc
    8000380c:	018a5213          	srli	tp,s4,0x18
    80003810:	41205ebb          	sraw	t4,zero,s2
    80003814:	000b561b          	srliw	a2,s6,0x0
    80003818:	01b55bbb          	srlw	s7,a0,s11
    8000381c:	eb0d                	bnez	a4,8000384e <main_18+0x1e4>
    8000381e:	0091ddb3          	srl	s11,gp,s1
    80003822:	000807bb          	addw	a5,a6,zero
    80003826:	417dd533          	sra	a0,s11,s7
    8000382a:	e3314393          	xori	t2,sp,-461
    8000382e:	89d9                	andi	a1,a1,22
    80003830:	89d9                	andi	a1,a1,22
    80003832:	000b561b          	srliw	a2,s6,0x0
    80003836:	000725b3          	sltz	a1,a4
    8000383a:	03b60763          	beq	a2,s11,80003868 <main_18+0x1fe>
    8000383e:	9a7e                	add	s4,s4,t6
    80003840:	417dd533          	sra	a0,s11,s7
    80003844:	8a3a                	mv	s4,a4
    80003846:	0cc1881b          	addiw	a6,gp,204
    8000384a:	03d44f3b          	divw	t5,s0,t4
    8000384e:	9a7e                	add	s4,s4,t6
    80003850:	9a7e                	add	s4,s4,t6
    80003852:	023a9463          	bne	s5,gp,8000387a <main_18+0x210>
    80003856:	8e49                	or	a2,a2,a0
    80003858:	8c21                	xor	s0,s0,s0
    8000385a:	023a9e63          	bne	s5,gp,80003896 <main_18+0x22c>
    8000385e:	03272133          	mulhsu	sp,a4,s2
    80003862:	01e203b3          	add	t2,tp,t5
    80003866:	9db9                	addw	a1,a1,a4
    80003868:	003a9963          	bne	s5,gp,8000387a <main_18+0x210>
    8000386c:	04a9                	addi	s1,s1,10
    8000386e:	0091ddb3          	srl	s11,gp,s1
    80003872:	41bb519b          	sraiw	gp,s6,0x1b
    80003876:	69ad                	lui	s3,0xb
    80003878:	0588                	addi	a0,sp,704
    8000387a:	01b95963          	bge	s2,s11,8000388c <main_18+0x222>
    8000387e:	0cc1881b          	addiw	a6,gp,204
    80003882:	03b60a63          	beq	a2,s11,800038b6 <main_18+0x24c>
    80003886:	0094bb33          	sltu	s6,s1,s1
    8000388a:	717d                	addi	sp,sp,-16
    8000388c:	41660233          	sub	tp,a2,s6
    80003890:	4368d313          	srai	t1,a7,0x36
    80003894:	04a9                	addi	s1,s1,10
    80003896:	8e49                	or	a2,a2,a0
    80003898:	40dc89bb          	subw	s3,s9,a3
    8000389c:	edf82113          	slti	sp,a6,-289
    800038a0:	0588                	addi	a0,sp,704
    800038a2:	01b55bbb          	srlw	s7,a0,s11
    800038a6:	69ad                	lui	s3,0xb
    800038a8:	0aa6                	slli	s5,s5,0x9
    800038aa:	01b55bbb          	srlw	s7,a0,s11
    800038ae:	0a6c4417          	auipc	s0,0xa6c4
    800038b2:	02eb76bb          	remuw	a3,s6,a4
    800038b6:	0091ddb3          	srl	s11,gp,s1
    800038ba:	04a9                	addi	s1,s1,10
    800038bc:	e3314393          	xori	t2,sp,-461
    800038c0:	41660233          	sub	tp,a2,s6
    800038c4:	02b2dc33          	divu	s8,t0,a1
    800038c8:	41660233          	sub	tp,a2,s6
    800038cc:	0001                	nop
    800038ce:	0aa6                	slli	s5,s5,0x9
    800038d0:	0001                	nop
    800038d2:	0588                	addi	a0,sp,704
    800038d4:	01b95263          	bge	s2,s11,800038d8 <main_18+0x26e>
    800038d8:	89d9                	andi	a1,a1,22
    800038da:	417dd533          	sra	a0,s11,s7
    800038de:	02a986bb          	mulw	a3,s3,a0
    800038e2:	93a6ba13          	sltiu	s4,a3,-1734
    800038e6:	02415b3b          	divuw	s6,sp,tp
    800038ea:	02b2dc33          	divu	s8,t0,a1
    800038ee:	0a6c4417          	auipc	s0,0xa6c4
    800038f2:	003a9463          	bne	s5,gp,800038fa <main_18+0x290>
    800038f6:	03d44f3b          	divw	t5,s0,t4
    800038fa:	0aa6                	slli	s5,s5,0x9
    800038fc:	023a9563          	bne	s5,gp,80003926 <main_18+0x2bc>
    80003900:	82f9                	srli	a3,a3,0x1e
    80003902:	01b55bbb          	srlw	s7,a0,s11
    80003906:	01e203b3          	add	t2,tp,t5
    8000390a:	002495b3          	sll	a1,s1,sp
    8000390e:	02b2dc33          	divu	s8,t0,a1
    80003912:	0588                	addi	a0,sp,704
    80003914:	09730a93          	addi	s5,t1,151
    80003918:	02b2dc33          	divu	s8,t0,a1
    8000391c:	5be3e993          	ori	s3,t2,1470
    80003920:	89d9                	andi	a1,a1,22
    80003922:	03b60063          	beq	a2,s11,80003942 <main_18+0x2d8>
    80003926:	02a986bb          	mulw	a3,s3,a0
    8000392a:	4368d313          	srai	t1,a7,0x36
    8000392e:	01b55bbb          	srlw	s7,a0,s11
    80003932:	002495b3          	sll	a1,s1,sp
    80003936:	01ca4133          	xor	sp,s4,t3
    8000393a:	41bb519b          	sraiw	gp,s6,0x1b
    8000393e:	717d                	addi	sp,sp,-16
    80003940:	9d01                	subw	a0,a0,s0
    80003942:	0085e363          	bltu	a1,s0,80003948 <main_18+0x2de>
    80003946:	8a3a                	mv	s4,a4
    80003948:	8f8d                	sub	a5,a5,a1
    8000394a:	02fffcb3          	remu	s9,t6,a5
    8000394e:	0001                	nop
    80003950:	93a6ba13          	sltiu	s4,a3,-1734
    80003954:	0091ddb3          	srl	s11,gp,s1
    80003958:	000807bb          	addw	a5,a6,zero
    8000395c:	02061833          	mulh	a6,a2,zero
    80003960:	0094bb33          	sltu	s6,s1,s1
    80003964:	03272133          	mulhsu	sp,a4,s2
    80003968:	03f76733          	rem	a4,a4,t6
    8000396c:	09730a93          	addi	s5,t1,151
    80003970:	5be3e993          	ori	s3,t2,1470
    80003974:	717d                	addi	sp,sp,-16
    80003976:	01ca4133          	xor	sp,s4,t3
    8000397a:	01b95a63          	bge	s2,s11,8000398e <main_18+0x324>
    8000397e:	41660233          	sub	tp,a2,s6
    80003982:	84627b37          	lui	s6,0x84627
    80003986:	03498fb3          	mul	t6,s3,s4
    8000398a:	02a986bb          	mulw	a3,s3,a0
    8000398e:	0a6c4417          	auipc	s0,0xa6c4
    80003992:	01e203b3          	add	t2,tp,t5
    80003996:	000807bb          	addw	a5,a6,zero
    8000399a:	0001                	nop
    8000399c:	03eec933          	div	s2,t4,t5
    800039a0:	03f76733          	rem	a4,a4,t6
    800039a4:	e3314393          	xori	t2,sp,-461
    800039a8:	000725b3          	sltz	a1,a4
    800039ac:	40dc89bb          	subw	s3,s9,a3
    800039b0:	41660233          	sub	tp,a2,s6
    800039b4:	01e203b3          	add	t2,tp,t5
    800039b8:	86d9                	srai	a3,a3,0x16
    800039ba:	e71d                	bnez	a4,800039e8 <main_18+0x37e>
    800039bc:	02eb76bb          	remuw	a3,s6,a4
    800039c0:	ce85                	beqz	a3,800039f8 <main_18+0x38e>
    800039c2:	01e203b3          	add	t2,tp,t5
    800039c6:	82f9                	srli	a3,a3,0x1e
    800039c8:	02eb76bb          	remuw	a3,s6,a4
    800039cc:	0aa6                	slli	s5,s5,0x9
    800039ce:	86d9                	srai	a3,a3,0x16
    800039d0:	8f8d                	sub	a5,a5,a1
    800039d2:	03eec933          	div	s2,t4,t5
    800039d6:	0091ddb3          	srl	s11,gp,s1
    800039da:	02fffcb3          	remu	s9,t6,a5
    800039de:	82f9                	srli	a3,a3,0x1e
    800039e0:	8e49                	or	a2,a2,a0
    800039e2:	56fd                	li	a3,-1
    800039e4:	40dc89bb          	subw	s3,s9,a3
    800039e8:	0a6c4417          	auipc	s0,0xa6c4
    800039ec:	000b561b          	srliw	a2,s6,0x0
    800039f0:	03eec933          	div	s2,t4,t5
    800039f4:	8f8d                	sub	a5,a5,a1
    800039f6:	0aa6                	slli	s5,s5,0x9
    800039f8:	8c21                	xor	s0,s0,s0
    800039fa:	03eec933          	div	s2,t4,t5
    800039fe:	003de5b3          	or	a1,s11,gp
    80003a02:	000725b3          	sltz	a1,a4
    80003a06:	02d04d63          	bgtz	a3,80003a40 <main_18+0x3d6>
    80003a0a:	0a6c4417          	auipc	s0,0xa6c4
    80003a0e:	03d44f3b          	divw	t5,s0,t4
    80003a12:	02a986bb          	mulw	a3,s3,a0
    80003a16:	000807bb          	addw	a5,a6,zero
    80003a1a:	41205ebb          	sraw	t4,zero,s2
    80003a1e:	02eb76bb          	remuw	a3,s6,a4
    80003a22:	00d04663          	bgtz	a3,80003a2e <main_18+0x3c4>
    80003a26:	02a986bb          	mulw	a3,s3,a0
    80003a2a:	03d44f3b          	divw	t5,s0,t4
    80003a2e:	018a5213          	srli	tp,s4,0x18
    80003a32:	41205ebb          	sraw	t4,zero,s2
    80003a36:	023830b3          	mulhu	ra,a6,gp
    80003a3a:	01b60963          	beq	a2,s11,80003a4c <main_18+0x3e2>
    80003a3e:	89d9                	andi	a1,a1,22
    80003a40:	02061833          	mulh	a6,a2,zero
    80003a44:	01e203b3          	add	t2,tp,t5
    80003a48:	02d04a63          	bgtz	a3,80003a7c <main_18+0x412>
    80003a4c:	04d04263          	bgtz	a3,80003a90 <main_18+0x426>
    80003a50:	03f76733          	rem	a4,a4,t6
    80003a54:	018a5213          	srli	tp,s4,0x18
    80003a58:	03498fb3          	mul	t6,s3,s4
    80003a5c:	41205ebb          	sraw	t4,zero,s2
    80003a60:	02a986bb          	mulw	a3,s3,a0
    80003a64:	9db9                	addw	a1,a1,a4
    80003a66:	86d9                	srai	a3,a3,0x16
    80003a68:	28d0f213          	andi	tp,ra,653
    80003a6c:	01b55bbb          	srlw	s7,a0,s11
    80003a70:	03498fb3          	mul	t6,s3,s4
    80003a74:	0001                	nop
    80003a76:	03eec933          	div	s2,t4,t5
    80003a7a:	9d01                	subw	a0,a0,s0
    80003a7c:	e309                	bnez	a4,80003a7e <main_18+0x414>
    80003a7e:	000725b3          	sltz	a1,a4
    80003a82:	41bb519b          	sraiw	gp,s6,0x1b
    80003a86:	000725b3          	sltz	a1,a4
    80003a8a:	89d9                	andi	a1,a1,22
    80003a8c:	00ce1c1b          	slliw	s8,t3,0xc
    80003a90:	023830b3          	mulhu	ra,a6,gp
    80003a94:	01b95f63          	bge	s2,s11,80003ab2 <main_18+0x448>
    80003a98:	0588                	addi	a0,sp,704
    80003a9a:	01ca4133          	xor	sp,s4,t3
    80003a9e:	8e49                	or	a2,a2,a0
    80003aa0:	0aa6                	slli	s5,s5,0x9
    80003aa2:	4368d313          	srai	t1,a7,0x36
    80003aa6:	8c79                	and	s0,s0,a4
    80003aa8:	9d01                	subw	a0,a0,s0
    80003aaa:	84627b37          	lui	s6,0x84627
    80003aae:	40dc89bb          	subw	s3,s9,a3
    80003ab2:	023830b3          	mulhu	ra,a6,gp
    80003ab6:	03272133          	mulhsu	sp,a4,s2
    80003aba:	00d316bb          	sllw	a3,t1,a3
    80003abe:	5be3e993          	ori	s3,t2,1470
    80003ac2:	09730a93          	addi	s5,t1,151
    80003ac6:	02deedbb          	remw	s11,t4,a3
    80003aca:	8f8d                	sub	a5,a5,a1
    80003acc:	417dd533          	sra	a0,s11,s7
    80003ad0:	40dc89bb          	subw	s3,s9,a3
    80003ad4:	023a9e63          	bne	s5,gp,80003b10 <main_18+0x4a6>
    80003ad8:	09730a93          	addi	s5,t1,151
    80003adc:	edf82113          	slti	sp,a6,-289
    80003ae0:	05b95363          	bge	s2,s11,80003b26 <main_18+0x4bc>
    80003ae4:	02eb76bb          	remuw	a3,s6,a4
    80003ae8:	0a6c4417          	auipc	s0,0xa6c4
    80003aec:	0085ee63          	bltu	a1,s0,80003b08 <main_18+0x49e>
    80003af0:	0588                	addi	a0,sp,704
    80003af2:	03eec933          	div	s2,t4,t5
    80003af6:	03f76733          	rem	a4,a4,t6
    80003afa:	00d316bb          	sllw	a3,t1,a3
    80003afe:	01ca4133          	xor	sp,s4,t3
    80003b02:	edf82113          	slti	sp,a6,-289
    80003b06:	9db9                	addw	a1,a1,a4
    80003b08:	03d44f3b          	divw	t5,s0,t4
    80003b0c:	01b55bbb          	srlw	s7,a0,s11
    80003b10:	e321                	bnez	a4,80003b50 <main_18+0x4e6>
    80003b12:	0285e763          	bltu	a1,s0,80003b40 <main_18+0x4d6>
    80003b16:	84627b37          	lui	s6,0x84627
    80003b1a:	018a5213          	srli	tp,s4,0x18
    80003b1e:	009bf463          	bgeu	s7,s1,80003b26 <main_18+0x4bc>
    80003b22:	000b561b          	srliw	a2,s6,0x0
    80003b26:	0cc1881b          	addiw	a6,gp,204
    80003b2a:	03d44f3b          	divw	t5,s0,t4
    80003b2e:	00d316bb          	sllw	a3,t1,a3
    80003b32:	0166feb3          	and	t4,a3,s6
    80003b36:	8c79                	and	s0,s0,a4
    80003b38:	003a9563          	bne	s5,gp,80003b42 <main_18+0x4d8>
    80003b3c:	0094bb33          	sltu	s6,s1,s1
    80003b40:	69ad                	lui	s3,0xb
    80003b42:	03272133          	mulhsu	sp,a4,s2
    80003b46:	69ad                	lui	s3,0xb
    80003b48:	03272133          	mulhsu	sp,a4,s2
    80003b4c:	01e203b3          	add	t2,tp,t5
    80003b50:	03498fb3          	mul	t6,s3,s4
    80003b54:	000725b3          	sltz	a1,a4
    80003b58:	0094bb33          	sltu	s6,s1,s1
    80003b5c:	0001                	nop
    80003b5e:	eb11                	bnez	a4,80003b72 <main_18+0x508>
    80003b60:	03eec933          	div	s2,t4,t5
    80003b64:	04a9                	addi	s1,s1,10
    80003b66:	93a6ba13          	sltiu	s4,a3,-1734
    80003b6a:	0094bb33          	sltu	s6,s1,s1
    80003b6e:	03f76733          	rem	a4,a4,t6
    80003b72:	edf82113          	slti	sp,a6,-289
    80003b76:	02deedbb          	remw	s11,t4,a3
    80003b7a:	00d04463          	bgtz	a3,80003b82 <main_18+0x518>
    80003b7e:	41205ebb          	sraw	t4,zero,s2
    80003b82:	0aa6                	slli	s5,s5,0x9
    80003b84:	03272133          	mulhsu	sp,a4,s2
    80003b88:	5be3e993          	ori	s3,t2,1470
    80003b8c:	41bb519b          	sraiw	gp,s6,0x1b
    80003b90:	03b95663          	bge	s2,s11,80003bbc <main_18+0x552>
    80003b94:	86d9                	srai	a3,a3,0x16
    80003b96:	02deedbb          	remw	s11,t4,a3
    80003b9a:	02d04b63          	bgtz	a3,80003bd0 <main_18+0x566>
    80003b9e:	023830b3          	mulhu	ra,a6,gp
    80003ba2:	03498fb3          	mul	t6,s3,s4
    80003ba6:	09730a93          	addi	s5,t1,151
    80003baa:	0588                	addi	a0,sp,704
    80003bac:	c289                	beqz	a3,80003bae <main_18+0x544>
    80003bae:	09730a93          	addi	s5,t1,151
    80003bb2:	9db9                	addw	a1,a1,a4
    80003bb4:	000b561b          	srliw	a2,s6,0x0
    80003bb8:	03b60663          	beq	a2,s11,80003be4 <main_18+0x57a>
    80003bbc:	03498fb3          	mul	t6,s3,s4
    80003bc0:	8a3a                	mv	s4,a4
    80003bc2:	0285e163          	bltu	a1,s0,80003be4 <main_18+0x57a>
    80003bc6:	03eec933          	div	s2,t4,t5
    80003bca:	023830b3          	mulhu	ra,a6,gp
    80003bce:	8c21                	xor	s0,s0,s0
    80003bd0:	03272133          	mulhsu	sp,a4,s2
    80003bd4:	003de5b3          	or	a1,s11,gp
    80003bd8:	0a85e563          	bltu	a1,s0,80003c82 <main_32+0x78>
    80003bdc:	02eb76bb          	remuw	a3,s6,a4
    80003be0:	0a6c4417          	auipc	s0,0xa6c4
    80003be4:	04a9                	addi	s1,s1,10
    80003be6:	00d04a63          	bgtz	a3,80003bfa <main_18+0x590>
    80003bea:	0a6c4417          	auipc	s0,0xa6c4
    80003bee:	4368d313          	srai	t1,a7,0x36
    80003bf2:	0a6c4417          	auipc	s0,0xa6c4
    80003bf6:	08d04e63          	bgtz	a3,80003c92 <main_32+0x88>
    80003bfa:	8a3a                	mv	s4,a4
    80003bfc:	5be3e993          	ori	s3,t2,1470
    80003c00:	e3314393          	xori	t2,sp,-461
    80003c04:	9db9                	addw	a1,a1,a4
    80003c06:	07b95463          	bge	s2,s11,80003c6e <main_32+0x64>

0000000080003c0a <main_32>:
    80003c0a:	05a00eef          	jal	t4,80003c64 <main_32+0x5a>
    80003c0e:	a031                	j	80003c1a <main_32+0x10>
    80003c10:	a021                	j	80003c18 <main_32+0xe>
    80003c12:	a80d                	j	80003c44 <main_32+0x3a>
    80003c14:	03a000ef          	jal	80003c4e <main_32+0x44>
    80003c18:	bfed                	j	80003c12 <main_32+0x8>
    80003c1a:	ffbff0ef          	jal	80003c14 <main_32+0xa>
    80003c1e:	022000ef          	jal	80003c40 <main_32+0x36>
    80003c22:	a015                	j	80003c46 <main_32+0x3c>
    80003c24:	030000ef          	jal	80003c54 <main_32+0x4a>
    80003c28:	040000ef          	jal	80003c68 <main_32+0x5e>
    80003c2c:	a801                	j	80003c3c <main_32+0x32>
    80003c2e:	fe1ff0ef          	jal	80003c0e <main_32+0x4>
    80003c32:	a031                	j	80003c3e <main_32+0x34>
    80003c34:	01e000ef          	jal	80003c52 <main_32+0x48>
    80003c38:	010000ef          	jal	80003c48 <main_32+0x3e>
    80003c3c:	a801                	j	80003c4c <main_32+0x42>
    80003c3e:	bfc9                	j	80003c10 <main_32+0x6>
    80003c40:	020000ef          	jal	80003c60 <main_32+0x56>
    80003c44:	b7e5                	j	80003c2c <main_32+0x22>
    80003c46:	bfe1                	j	80003c1e <main_32+0x14>
    80003c48:	fddff0ef          	jal	80003c24 <main_32+0x1a>
    80003c4c:	a801                	j	80003c5c <main_32+0x52>
    80003c4e:	00a000ef          	jal	80003c58 <main_32+0x4e>
    80003c52:	b7dd                	j	80003c38 <main_32+0x2e>
    80003c54:	fdfff0ef          	jal	80003c32 <main_32+0x28>
    80003c58:	fcbff0ef          	jal	80003c22 <main_32+0x18>
    80003c5c:	fcdff0ef          	jal	80003c28 <main_32+0x1e>
    80003c60:	fd5ff0ef          	jal	80003c34 <main_32+0x2a>
    80003c64:	fcbff0ef          	jal	80003c2e <main_32+0x24>
    80003c68:	0001                	nop
    80003c6a:	000807bb          	addw	a5,a6,zero
    80003c6e:	93a6ba13          	sltiu	s4,a3,-1734
    80003c72:	02061833          	mulh	a6,a2,zero
    80003c76:	0091ddb3          	srl	s11,gp,s1
    80003c7a:	03f76733          	rem	a4,a4,t6
    80003c7e:	02eb76bb          	remuw	a3,s6,a4
    80003c82:	02eb76bb          	remuw	a3,s6,a4
    80003c86:	0a6c4417          	auipc	s0,0xa6c4
    80003c8a:	000725b3          	sltz	a1,a4
    80003c8e:	00d316bb          	sllw	a3,t1,a3
    80003c92:	03eec933          	div	s2,t4,t5
    80003c96:	0166feb3          	and	t4,a3,s6
    80003c9a:	41660233          	sub	tp,a2,s6
    80003c9e:	0001                	nop

0000000080003ca0 <main_15>:
    80003ca0:	04200eef          	jal	t4,80003ce2 <main_15+0x42>
    80003ca4:	a025                	j	80003ccc <main_15+0x2c>
    80003ca6:	a805                	j	80003cd6 <main_15+0x36>
    80003ca8:	01a000ef          	jal	80003cc2 <main_15+0x22>
    80003cac:	a029                	j	80003cb6 <main_15+0x16>
    80003cae:	ffbff0ef          	jal	80003ca8 <main_15+0x8>
    80003cb2:	008000ef          	jal	80003cba <main_15+0x1a>
    80003cb6:	ff9ff0ef          	jal	80003cae <main_15+0xe>
    80003cba:	004000ef          	jal	80003cbe <main_15+0x1e>
    80003cbe:	028000ef          	jal	80003ce6 <main_15+0x46>
    80003cc2:	bfc5                	j	80003cb2 <main_15+0x12>
    80003cc4:	fe3ff0ef          	jal	80003ca6 <main_15+0x6>
    80003cc8:	ffdff0ef          	jal	80003cc4 <main_15+0x24>
    80003ccc:	bff5                	j	80003cc8 <main_15+0x28>
    80003cce:	004000ef          	jal	80003cd2 <main_15+0x32>
    80003cd2:	fdbff0ef          	jal	80003cac <main_15+0xc>
    80003cd6:	008000ef          	jal	80003cde <main_15+0x3e>
    80003cda:	fcbff0ef          	jal	80003ca4 <main_15+0x4>
    80003cde:	ff1ff0ef          	jal	80003cce <main_15+0x2e>
    80003ce2:	ff9ff0ef          	jal	80003cda <main_15+0x3a>
    80003ce6:	41660233          	sub	tp,a2,s6
    80003cea:	02eb76bb          	remuw	a3,s6,a4
    80003cee:	56fd                	li	a3,-1
    80003cf0:	41205ebb          	sraw	t4,zero,s2
    80003cf4:	0cc1881b          	addiw	a6,gp,204
    80003cf8:	02deedbb          	remw	s11,t4,a3
    80003cfc:	000725b3          	sltz	a1,a4
    80003d00:	86d9                	srai	a3,a3,0x16
    80003d02:	03eec933          	div	s2,t4,t5
    80003d06:	03eec933          	div	s2,t4,t5
    80003d0a:	02fffcb3          	remu	s9,t6,a5
    80003d0e:	3f7d                	addiw	t5,t5,-1
    80003d10:	002495b3          	sll	a1,s1,sp
    80003d14:	8e49                	or	a2,a2,a0
    80003d16:	04d04063          	bgtz	a3,80003d56 <main_15+0xb6>
    80003d1a:	84627b37          	lui	s6,0x84627
    80003d1e:	01b95363          	bge	s2,s11,80003d24 <main_15+0x84>
    80003d22:	ca8d                	beqz	a3,80003d54 <main_15+0xb4>
    80003d24:	8e49                	or	a2,a2,a0
    80003d26:	9d01                	subw	a0,a0,s0
    80003d28:	8f8d                	sub	a5,a5,a1
    80003d2a:	03d44f3b          	divw	t5,s0,t4
    80003d2e:	0001                	nop
    80003d30:	03f76733          	rem	a4,a4,t6
    80003d34:	000b561b          	srliw	a2,s6,0x0
    80003d38:	5be3e993          	ori	s3,t2,1470
    80003d3c:	00d316bb          	sllw	a3,t1,a3
    80003d40:	02deedbb          	remw	s11,t4,a3
    80003d44:	9d01                	subw	a0,a0,s0
    80003d46:	000807bb          	addw	a5,a6,zero
    80003d4a:	01e203b3          	add	t2,tp,t5
    80003d4e:	86d9                	srai	a3,a3,0x16
    80003d50:	09730a93          	addi	s5,t1,151
    80003d54:	04a9                	addi	s1,s1,10
    80003d56:	86d9                	srai	a3,a3,0x16
    80003d58:	56fd                	li	a3,-1
    80003d5a:	02deedbb          	remw	s11,t4,a3
    80003d5e:	56fd                	li	a3,-1
    80003d60:	023830b3          	mulhu	ra,a6,gp
    80003d64:	02b2dc33          	divu	s8,t0,a1
    80003d68:	0001                	nop
    80003d6a:	03b95763          	bge	s2,s11,80003d98 <main_15+0xf8>
    80003d6e:	000725b3          	sltz	a1,a4
    80003d72:	0085e363          	bltu	a1,s0,80003d78 <main_15+0xd8>
    80003d76:	8c21                	xor	s0,s0,s0
    80003d78:	09730a93          	addi	s5,t1,151
    80003d7c:	02b2dc33          	divu	s8,t0,a1
    80003d80:	02fffcb3          	remu	s9,t6,a5
    80003d84:	ce99                	beqz	a3,80003da2 <main_15+0x102>
    80003d86:	5be3e993          	ori	s3,t2,1470
    80003d8a:	0aa6                	slli	s5,s5,0x9
    80003d8c:	000807bb          	addw	a5,a6,zero
    80003d90:	edf82113          	slti	sp,a6,-289
    80003d94:	0094bb33          	sltu	s6,s1,s1
    80003d98:	8f8d                	sub	a5,a5,a1
    80003d9a:	41660233          	sub	tp,a2,s6
    80003d9e:	03498fb3          	mul	t6,s3,s4
    80003da2:	84627b37          	lui	s6,0x84627
    80003da6:	029bff63          	bgeu	s7,s1,80003de4 <main_15+0x144>
    80003daa:	03f76733          	rem	a4,a4,t6
    80003dae:	0094bb33          	sltu	s6,s1,s1
    80003db2:	03272133          	mulhsu	sp,a4,s2
    80003db6:	00d316bb          	sllw	a3,t1,a3
    80003dba:	c68d                	beqz	a3,80003de4 <main_15+0x144>
    80003dbc:	82f9                	srli	a3,a3,0x1e
    80003dbe:	9d01                	subw	a0,a0,s0
    80003dc0:	9d01                	subw	a0,a0,s0
    80003dc2:	89d9                	andi	a1,a1,22
    80003dc4:	56fd                	li	a3,-1
    80003dc6:	9a7e                	add	s4,s4,t6
    80003dc8:	03f76733          	rem	a4,a4,t6
    80003dcc:	9d01                	subw	a0,a0,s0
    80003dce:	8c79                	and	s0,s0,a4
    80003dd0:	5be3e993          	ori	s3,t2,1470
    80003dd4:	02deedbb          	remw	s11,t4,a3
    80003dd8:	01a31093          	slli	ra,t1,0x1a
    80003ddc:	00ce1c1b          	slliw	s8,t3,0xc
    80003de0:	28d0f213          	andi	tp,ra,653
    80003de4:	03498fb3          	mul	t6,s3,s4
    80003de8:	0cc1881b          	addiw	a6,gp,204
    80003dec:	eb0d                	bnez	a4,80003e1e <main_15+0x17e>
    80003dee:	02061833          	mulh	a6,a2,zero
    80003df2:	9db9                	addw	a1,a1,a4
    80003df4:	03272133          	mulhsu	sp,a4,s2
    80003df8:	00ce1c1b          	slliw	s8,t3,0xc
    80003dfc:	000b561b          	srliw	a2,s6,0x0
    80003e00:	02deedbb          	remw	s11,t4,a3
    80003e04:	9a7e                	add	s4,s4,t6
    80003e06:	69ad                	lui	s3,0xb
    80003e08:	0cc1881b          	addiw	a6,gp,204
    80003e0c:	03f76733          	rem	a4,a4,t6
    80003e10:	01e203b3          	add	t2,tp,t5
    80003e14:	009bff63          	bgeu	s7,s1,80003e32 <main_15+0x192>
    80003e18:	002495b3          	sll	a1,s1,sp
    80003e1c:	69ad                	lui	s3,0xb
    80003e1e:	9db9                	addw	a1,a1,a4
    80003e20:	00ce1c1b          	slliw	s8,t3,0xc
    80003e24:	0a6c4417          	auipc	s0,0xa6c4
    80003e28:	0a6c4417          	auipc	s0,0xa6c4
    80003e2c:	8e49                	or	a2,a2,a0
    80003e2e:	41660233          	sub	tp,a2,s6
    80003e32:	023830b3          	mulhu	ra,a6,gp
    80003e36:	84627b37          	lui	s6,0x84627
    80003e3a:	04a9                	addi	s1,s1,10
    80003e3c:	28d0f213          	andi	tp,ra,653
    80003e40:	0166feb3          	and	t4,a3,s6
    80003e44:	02a986bb          	mulw	a3,s3,a0
    80003e48:	02eb76bb          	remuw	a3,s6,a4
    80003e4c:	4368d313          	srai	t1,a7,0x36
    80003e50:	03f76733          	rem	a4,a4,t6
    80003e54:	03f76733          	rem	a4,a4,t6
    80003e58:	9d01                	subw	a0,a0,s0
    80003e5a:	0166feb3          	and	t4,a3,s6
    80003e5e:	003a9c63          	bne	s5,gp,80003e76 <main_15+0x1d6>
    80003e62:	03272133          	mulhsu	sp,a4,s2
    80003e66:	01a31093          	slli	ra,t1,0x1a
    80003e6a:	0166feb3          	and	t4,a3,s6
    80003e6e:	01e203b3          	add	t2,tp,t5
    80003e72:	0085e263          	bltu	a1,s0,80003e76 <main_15+0x1d6>
    80003e76:	40dc89bb          	subw	s3,s9,a3
    80003e7a:	8f8d                	sub	a5,a5,a1
    80003e7c:	417dd533          	sra	a0,s11,s7
    80003e80:	e3314393          	xori	t2,sp,-461
    80003e84:	02415b3b          	divuw	s6,sp,tp
    80003e88:	40dc89bb          	subw	s3,s9,a3
    80003e8c:	0166feb3          	and	t4,a3,s6
    80003e90:	0091ddb3          	srl	s11,gp,s1
    80003e94:	03d44f3b          	divw	t5,s0,t4
    80003e98:	000725b3          	sltz	a1,a4
    80003e9c:	09730a93          	addi	s5,t1,151
    80003ea0:	3f7d                	addiw	t5,t5,-1
    80003ea2:	40dc89bb          	subw	s3,s9,a3
    80003ea6:	01a31093          	slli	ra,t1,0x1a
    80003eaa:	03b60463          	beq	a2,s11,80003ed2 <main_15+0x232>
    80003eae:	0094bb33          	sltu	s6,s1,s1
    80003eb2:	0001                	nop
    80003eb4:	018a5213          	srli	tp,s4,0x18
    80003eb8:	84627b37          	lui	s6,0x84627
    80003ebc:	02eb76bb          	remuw	a3,s6,a4
    80003ec0:	69ad                	lui	s3,0xb
    80003ec2:	0588                	addi	a0,sp,704
    80003ec4:	02415b3b          	divuw	s6,sp,tp
    80003ec8:	03498fb3          	mul	t6,s3,s4
    80003ecc:	89d9                	andi	a1,a1,22
    80003ece:	0166feb3          	and	t4,a3,s6
    80003ed2:	000b561b          	srliw	a2,s6,0x0
    80003ed6:	84627b37          	lui	s6,0x84627
    80003eda:	03498fb3          	mul	t6,s3,s4
    80003ede:	04a9                	addi	s1,s1,10
    80003ee0:	03272133          	mulhsu	sp,a4,s2
    80003ee4:	8a3a                	mv	s4,a4
    80003ee6:	03d44f3b          	divw	t5,s0,t4
    80003eea:	0a6c4417          	auipc	s0,0xa6c4
    80003eee:	93a6ba13          	sltiu	s4,a3,-1734
    80003ef2:	e319                	bnez	a4,80003ef8 <main_15+0x258>
    80003ef4:	03272133          	mulhsu	sp,a4,s2
    80003ef8:	e3314393          	xori	t2,sp,-461
    80003efc:	02061833          	mulh	a6,a2,zero
    80003f00:	003de5b3          	or	a1,s11,gp
    80003f04:	02415b3b          	divuw	s6,sp,tp
    80003f08:	0aa6                	slli	s5,s5,0x9
    80003f0a:	0a6c4417          	auipc	s0,0xa6c4
    80003f0e:	01ca4133          	xor	sp,s4,t3
    80003f12:	c2a9                	beqz	a3,80003f54 <main_15+0x2b4>
    80003f14:	02415b3b          	divuw	s6,sp,tp
    80003f18:	0091ddb3          	srl	s11,gp,s1
    80003f1c:	28d0f213          	andi	tp,ra,653
    80003f20:	9db9                	addw	a1,a1,a4
    80003f22:	0588                	addi	a0,sp,704
    80003f24:	01ca4133          	xor	sp,s4,t3
    80003f28:	00d04463          	bgtz	a3,80003f30 <main_15+0x290>
    80003f2c:	02fffcb3          	remu	s9,t6,a5
    80003f30:	01b55bbb          	srlw	s7,a0,s11
    80003f34:	417dd533          	sra	a0,s11,s7
    80003f38:	0588                	addi	a0,sp,704
    80003f3a:	02deedbb          	remw	s11,t4,a3
    80003f3e:	0cc1881b          	addiw	a6,gp,204
    80003f42:	9a7e                	add	s4,s4,t6
    80003f44:	023830b3          	mulhu	ra,a6,gp
    80003f48:	84627b37          	lui	s6,0x84627
    80003f4c:	009bf263          	bgeu	s7,s1,80003f50 <main_15+0x2b0>
    80003f50:	03d44f3b          	divw	t5,s0,t4
    80003f54:	000b561b          	srliw	a2,s6,0x0
    80003f58:	01e203b3          	add	t2,tp,t5
    80003f5c:	003a9863          	bne	s5,gp,80003f6c <main_15+0x2cc>
    80003f60:	82f9                	srli	a3,a3,0x1e
    80003f62:	00ce1c1b          	slliw	s8,t3,0xc
    80003f66:	03d44f3b          	divw	t5,s0,t4
    80003f6a:	3f7d                	addiw	t5,t5,-1
    80003f6c:	09730a93          	addi	s5,t1,151
    80003f70:	9a7e                	add	s4,s4,t6
    80003f72:	4368d313          	srai	t1,a7,0x36
    80003f76:	03f76733          	rem	a4,a4,t6
    80003f7a:	02b2dc33          	divu	s8,t0,a1
    80003f7e:	01e203b3          	add	t2,tp,t5
    80003f82:	9db9                	addw	a1,a1,a4
    80003f84:	03f76733          	rem	a4,a4,t6
    80003f88:	edf82113          	slti	sp,a6,-289
    80003f8c:	9d01                	subw	a0,a0,s0
    80003f8e:	03b60a63          	beq	a2,s11,80003fc2 <main_15+0x322>
    80003f92:	0a6c4417          	auipc	s0,0xa6c4
    80003f96:	02a986bb          	mulw	a3,s3,a0
    80003f9a:	ce8d                	beqz	a3,80003fd4 <main_15+0x334>
    80003f9c:	93a6ba13          	sltiu	s4,a3,-1734
    80003fa0:	69ad                	lui	s3,0xb
    80003fa2:	02eb76bb          	remuw	a3,s6,a4
    80003fa6:	edf82113          	slti	sp,a6,-289
    80003faa:	9a7e                	add	s4,s4,t6
    80003fac:	86d9                	srai	a3,a3,0x16
    80003fae:	02061833          	mulh	a6,a2,zero
    80003fb2:	00ce1c1b          	slliw	s8,t3,0xc
    80003fb6:	02415b3b          	divuw	s6,sp,tp
    80003fba:	0001                	nop
    80003fbc:	09730a93          	addi	s5,t1,151
    80003fc0:	ca95                	beqz	a3,80003ff4 <main_15+0x354>
    80003fc2:	002495b3          	sll	a1,s1,sp
    80003fc6:	018a5213          	srli	tp,s4,0x18
    80003fca:	0001                	nop
    80003fcc:	9db9                	addw	a1,a1,a4
    80003fce:	ca89                	beqz	a3,80003fe0 <main_15+0x340>
    80003fd0:	0094bb33          	sltu	s6,s1,s1
    80003fd4:	84627b37          	lui	s6,0x84627
    80003fd8:	01a31093          	slli	ra,t1,0x1a
    80003fdc:	023830b3          	mulhu	ra,a6,gp
    80003fe0:	000b561b          	srliw	a2,s6,0x0
    80003fe4:	3f7d                	addiw	t5,t5,-1
    80003fe6:	0094bb33          	sltu	s6,s1,s1
    80003fea:	0588                	addi	a0,sp,704
    80003fec:	02415b3b          	divuw	s6,sp,tp
    80003ff0:	93a6ba13          	sltiu	s4,a3,-1734
    80003ff4:	edf82113          	slti	sp,a6,-289
    80003ff8:	02061833          	mulh	a6,a2,zero
    80003ffc:	000b561b          	srliw	a2,s6,0x0
    80004000:	01e203b3          	add	t2,tp,t5
    80004004:	41bb519b          	sraiw	gp,s6,0x1b
    80004008:	023830b3          	mulhu	ra,a6,gp
    8000400c:	000807bb          	addw	a5,a6,zero
    80004010:	41205ebb          	sraw	t4,zero,s2
    80004014:	009bf663          	bgeu	s7,s1,80004020 <main_15+0x380>
    80004018:	28d0f213          	andi	tp,ra,653
    8000401c:	03498fb3          	mul	t6,s3,s4
    80004020:	0166feb3          	and	t4,a3,s6
    80004024:	01a31093          	slli	ra,t1,0x1a
    80004028:	41bb519b          	sraiw	gp,s6,0x1b
    8000402c:	09730a93          	addi	s5,t1,151
    80004030:	8c79                	and	s0,s0,a4
    80004032:	02b2dc33          	divu	s8,t0,a1
    80004036:	01b55bbb          	srlw	s7,a0,s11
    8000403a:	86d9                	srai	a3,a3,0x16
    8000403c:	0085e963          	bltu	a1,s0,8000404e <main_15+0x3ae>
    80004040:	03d44f3b          	divw	t5,s0,t4
    80004044:	02061833          	mulh	a6,a2,zero
    80004048:	3f7d                	addiw	t5,t5,-1
    8000404a:	01e203b3          	add	t2,tp,t5
    8000404e:	93a6ba13          	sltiu	s4,a3,-1734
    80004052:	edf82113          	slti	sp,a6,-289
    80004056:	023830b3          	mulhu	ra,a6,gp
    8000405a:	000807bb          	addw	a5,a6,zero
    8000405e:	03498fb3          	mul	t6,s3,s4
    80004062:	9d01                	subw	a0,a0,s0
    80004064:	003de5b3          	or	a1,s11,gp
    80004068:	002495b3          	sll	a1,s1,sp
    8000406c:	0485e163          	bltu	a1,s0,800040ae <main_15+0x40e>
    80004070:	02415b3b          	divuw	s6,sp,tp
    80004074:	03d44f3b          	divw	t5,s0,t4
    80004078:	000b561b          	srliw	a2,s6,0x0
    8000407c:	e3314393          	xori	t2,sp,-461
    80004080:	02061833          	mulh	a6,a2,zero
    80004084:	02eb76bb          	remuw	a3,s6,a4
    80004088:	e3314393          	xori	t2,sp,-461
    8000408c:	023830b3          	mulhu	ra,a6,gp
    80004090:	93a6ba13          	sltiu	s4,a3,-1734
    80004094:	02a986bb          	mulw	a3,s3,a0
    80004098:	84627b37          	lui	s6,0x84627
    8000409c:	8e49                	or	a2,a2,a0
    8000409e:	69ad                	lui	s3,0xb
    800040a0:	03272133          	mulhsu	sp,a4,s2
    800040a4:	8e49                	or	a2,a2,a0
    800040a6:	02deedbb          	remw	s11,t4,a3
    800040aa:	84627b37          	lui	s6,0x84627
    800040ae:	41205ebb          	sraw	t4,zero,s2
    800040b2:	4368d313          	srai	t1,a7,0x36
    800040b6:	04a9                	addi	s1,s1,10
    800040b8:	ce99                	beqz	a3,800040d6 <main_15+0x436>
    800040ba:	000807bb          	addw	a5,a6,zero
    800040be:	000b561b          	srliw	a2,s6,0x0
    800040c2:	02eb76bb          	remuw	a3,s6,a4
    800040c6:	01b60663          	beq	a2,s11,800040d2 <main_15+0x432>
    800040ca:	417dd533          	sra	a0,s11,s7
    800040ce:	01e203b3          	add	t2,tp,t5
    800040d2:	0091ddb3          	srl	s11,gp,s1
    800040d6:	82f9                	srli	a3,a3,0x1e
    800040d8:	edf82113          	slti	sp,a6,-289
    800040dc:	9db9                	addw	a1,a1,a4
    800040de:	69ad                	lui	s3,0xb
    800040e0:	0094bb33          	sltu	s6,s1,s1
    800040e4:	9db9                	addw	a1,a1,a4
    800040e6:	000807bb          	addw	a5,a6,zero
    800040ea:	01b55bbb          	srlw	s7,a0,s11
    800040ee:	029bf663          	bgeu	s7,s1,8000411a <main_15+0x47a>
    800040f2:	0001                	nop
    800040f4:	02d04f63          	bgtz	a3,80004132 <main_15+0x492>
    800040f8:	00ce1c1b          	slliw	s8,t3,0xc
    800040fc:	0094bb33          	sltu	s6,s1,s1
    80004100:	000725b3          	sltz	a1,a4
    80004104:	41bb519b          	sraiw	gp,s6,0x1b
    80004108:	03d44f3b          	divw	t5,s0,t4
    8000410c:	09730a93          	addi	s5,t1,151
    80004110:	03d44f3b          	divw	t5,s0,t4
    80004114:	8c21                	xor	s0,s0,s0
    80004116:	01e203b3          	add	t2,tp,t5
    8000411a:	e3314393          	xori	t2,sp,-461
    8000411e:	01e203b3          	add	t2,tp,t5
    80004122:	00d316bb          	sllw	a3,t1,a3
    80004126:	03498fb3          	mul	t6,s3,s4
    8000412a:	002495b3          	sll	a1,s1,sp
    8000412e:	0091ddb3          	srl	s11,gp,s1
    80004132:	0091ddb3          	srl	s11,gp,s1
    80004136:	03b60263          	beq	a2,s11,8000415a <main_15+0x4ba>
    8000413a:	28d0f213          	andi	tp,ra,653
    8000413e:	edf82113          	slti	sp,a6,-289
    80004142:	0091ddb3          	srl	s11,gp,s1
    80004146:	0a6c4417          	auipc	s0,0xa6c4
    8000414a:	41660233          	sub	tp,a2,s6
    8000414e:	0085e763          	bltu	a1,s0,8000415c <main_15+0x4bc>
    80004152:	02fffcb3          	remu	s9,t6,a5
    80004156:	0588                	addi	a0,sp,704
    80004158:	0001                	nop
    8000415a:	717d                	addi	sp,sp,-16
    8000415c:	000725b3          	sltz	a1,a4
    80004160:	9a7e                	add	s4,s4,t6
    80004162:	0091ddb3          	srl	s11,gp,s1
    80004166:	02061833          	mulh	a6,a2,zero
    8000416a:	86d9                	srai	a3,a3,0x16
    8000416c:	03272133          	mulhsu	sp,a4,s2
    80004170:	01a31093          	slli	ra,t1,0x1a
    80004174:	023830b3          	mulhu	ra,a6,gp
    80004178:	02061833          	mulh	a6,a2,zero
    8000417c:	01ca4133          	xor	sp,s4,t3
    80004180:	01b55bbb          	srlw	s7,a0,s11
    80004184:	41bb519b          	sraiw	gp,s6,0x1b
    80004188:	003de5b3          	or	a1,s11,gp
    8000418c:	01ca4133          	xor	sp,s4,t3
    80004190:	5be3e993          	ori	s3,t2,1470
    80004194:	002495b3          	sll	a1,s1,sp
    80004198:	93a6ba13          	sltiu	s4,a3,-1734
    8000419c:	0285ed63          	bltu	a1,s0,800041d6 <main_15+0x536>
    800041a0:	0588                	addi	a0,sp,704
    800041a2:	0166feb3          	and	t4,a3,s6
    800041a6:	82f9                	srli	a3,a3,0x1e
    800041a8:	02061833          	mulh	a6,a2,zero
    800041ac:	018a5213          	srli	tp,s4,0x18
    800041b0:	69ad                	lui	s3,0xb
    800041b2:	56fd                	li	a3,-1
    800041b4:	c69d                	beqz	a3,800041e2 <main_15+0x542>
    800041b6:	3f7d                	addiw	t5,t5,-1
    800041b8:	8c21                	xor	s0,s0,s0
    800041ba:	5be3e993          	ori	s3,t2,1470
    800041be:	01ca4133          	xor	sp,s4,t3
    800041c2:	023830b3          	mulhu	ra,a6,gp
    800041c6:	02fffcb3          	remu	s9,t6,a5
    800041ca:	89d9                	andi	a1,a1,22
    800041cc:	01e203b3          	add	t2,tp,t5
    800041d0:	03b95c63          	bge	s2,s11,80004208 <main_15+0x568>
    800041d4:	0588                	addi	a0,sp,704
    800041d6:	8c79                	and	s0,s0,a4
    800041d8:	56fd                	li	a3,-1
    800041da:	01ca4133          	xor	sp,s4,t3
    800041de:	03498fb3          	mul	t6,s3,s4
    800041e2:	02a986bb          	mulw	a3,s3,a0
    800041e6:	02fffcb3          	remu	s9,t6,a5
    800041ea:	28d0f213          	andi	tp,ra,653
    800041ee:	02deedbb          	remw	s11,t4,a3
    800041f2:	0094bb33          	sltu	s6,s1,s1
    800041f6:	02eb76bb          	remuw	a3,s6,a4
    800041fa:	0aa6                	slli	s5,s5,0x9
    800041fc:	02fffcb3          	remu	s9,t6,a5
    80004200:	4368d313          	srai	t1,a7,0x36
    80004204:	03498fb3          	mul	t6,s3,s4
    80004208:	02d04f63          	bgtz	a3,80004246 <main_15+0x5a6>
    8000420c:	8c21                	xor	s0,s0,s0
    8000420e:	0001                	nop
    80004210:	00ce1c1b          	slliw	s8,t3,0xc
    80004214:	00d04263          	bgtz	a3,80004218 <main_15+0x578>
    80004218:	8a3a                	mv	s4,a4
    8000421a:	002495b3          	sll	a1,s1,sp
    8000421e:	0a6c4417          	auipc	s0,0xa6c4
    80004222:	9d01                	subw	a0,a0,s0
    80004224:	02061833          	mulh	a6,a2,zero
    80004228:	000807bb          	addw	a5,a6,zero
    8000422c:	002495b3          	sll	a1,s1,sp
    80004230:	02a986bb          	mulw	a3,s3,a0
    80004234:	01a31093          	slli	ra,t1,0x1a
    80004238:	0166feb3          	and	t4,a3,s6
    8000423c:	0588                	addi	a0,sp,704
    8000423e:	01e203b3          	add	t2,tp,t5
    80004242:	003de5b3          	or	a1,s11,gp
    80004246:	01ca4133          	xor	sp,s4,t3
    8000424a:	01ca4133          	xor	sp,s4,t3
    8000424e:	8f8d                	sub	a5,a5,a1
    80004250:	717d                	addi	sp,sp,-16
    80004252:	8c79                	and	s0,s0,a4
    80004254:	02415b3b          	divuw	s6,sp,tp
    80004258:	0166feb3          	and	t4,a3,s6
    8000425c:	000725b3          	sltz	a1,a4
    80004260:	e709                	bnez	a4,8000426a <main_15+0x5ca>
    80004262:	03272133          	mulhsu	sp,a4,s2
    80004266:	40dc89bb          	subw	s3,s9,a3
    8000426a:	0a6c4417          	auipc	s0,0xa6c4
    8000426e:	0a6c4417          	auipc	s0,0xa6c4
    80004272:	0166feb3          	and	t4,a3,s6
    80004276:	009bfb63          	bgeu	s7,s1,8000428c <main_15+0x5ec>
    8000427a:	0cc1881b          	addiw	a6,gp,204
    8000427e:	0166feb3          	and	t4,a3,s6
    80004282:	02d04063          	bgtz	a3,800042a2 <main_15+0x602>
    80004286:	0001                	nop
    80004288:	e3314393          	xori	t2,sp,-461
    8000428c:	00ce1c1b          	slliw	s8,t3,0xc
    80004290:	02415b3b          	divuw	s6,sp,tp
    80004294:	56fd                	li	a3,-1
    80004296:	4368d313          	srai	t1,a7,0x36
    8000429a:	9d01                	subw	a0,a0,s0
    8000429c:	ef19                	bnez	a4,800042ba <main_15+0x61a>
    8000429e:	4368d313          	srai	t1,a7,0x36
    800042a2:	01a31093          	slli	ra,t1,0x1a
    800042a6:	01b60463          	beq	a2,s11,800042ae <main_15+0x60e>
    800042aa:	02deedbb          	remw	s11,t4,a3
    800042ae:	02b2dc33          	divu	s8,t0,a1
    800042b2:	00d316bb          	sllw	a3,t1,a3
    800042b6:	00d316bb          	sllw	a3,t1,a3
    800042ba:	717d                	addi	sp,sp,-16
    800042bc:	8c79                	and	s0,s0,a4
    800042be:	002495b3          	sll	a1,s1,sp
    800042c2:	002495b3          	sll	a1,s1,sp
    800042c6:	69ad                	lui	s3,0xb
    800042c8:	28d0f213          	andi	tp,ra,653
    800042cc:	89d9                	andi	a1,a1,22
    800042ce:	ce99                	beqz	a3,800042ec <main_15+0x64c>
    800042d0:	0588                	addi	a0,sp,704
    800042d2:	023830b3          	mulhu	ra,a6,gp
    800042d6:	02415b3b          	divuw	s6,sp,tp
    800042da:	89d9                	andi	a1,a1,22
    800042dc:	09730a93          	addi	s5,t1,151
    800042e0:	0091ddb3          	srl	s11,gp,s1
    800042e4:	018a5213          	srli	tp,s4,0x18
    800042e8:	03498fb3          	mul	t6,s3,s4
    800042ec:	84627b37          	lui	s6,0x84627
    800042f0:	28d0f213          	andi	tp,ra,653
    800042f4:	02fffcb3          	remu	s9,t6,a5
    800042f8:	000807bb          	addw	a5,a6,zero
    800042fc:	09730a93          	addi	s5,t1,151
    80004300:	03498fb3          	mul	t6,s3,s4
    80004304:	01e203b3          	add	t2,tp,t5
    80004308:	00ce1c1b          	slliw	s8,t3,0xc
    8000430c:	9db9                	addw	a1,a1,a4
    8000430e:	023a9863          	bne	s5,gp,8000433e <main_15+0x69e>
    80004312:	edf82113          	slti	sp,a6,-289
    80004316:	03272133          	mulhsu	sp,a4,s2
    8000431a:	3f7d                	addiw	t5,t5,-1
    8000431c:	04a9                	addi	s1,s1,10
    8000431e:	82f9                	srli	a3,a3,0x1e
    80004320:	717d                	addi	sp,sp,-16
    80004322:	3f7d                	addiw	t5,t5,-1
    80004324:	84627b37          	lui	s6,0x84627
    80004328:	0285eb63          	bltu	a1,s0,8000435e <main_15+0x6be>
    8000432c:	01ca4133          	xor	sp,s4,t3
    80004330:	8a3a                	mv	s4,a4
    80004332:	02deedbb          	remw	s11,t4,a3
    80004336:	04a9                	addi	s1,s1,10
    80004338:	8c21                	xor	s0,s0,s0
    8000433a:	40dc89bb          	subw	s3,s9,a3
    8000433e:	023830b3          	mulhu	ra,a6,gp
    80004342:	edf82113          	slti	sp,a6,-289
    80004346:	93a6ba13          	sltiu	s4,a3,-1734
    8000434a:	69ad                	lui	s3,0xb
    8000434c:	8c79                	and	s0,s0,a4
    8000434e:	03272133          	mulhsu	sp,a4,s2
    80004352:	02fffcb3          	remu	s9,t6,a5
    80004356:	01ca4133          	xor	sp,s4,t3
    8000435a:	000b561b          	srliw	a2,s6,0x0
    8000435e:	02061833          	mulh	a6,a2,zero
    80004362:	89d9                	andi	a1,a1,22
    80004364:	03d44f3b          	divw	t5,s0,t4
    80004368:	93a6ba13          	sltiu	s4,a3,-1734
    8000436c:	000b561b          	srliw	a2,s6,0x0
    80004370:	02415b3b          	divuw	s6,sp,tp
    80004374:	28d0f213          	andi	tp,ra,653
    80004378:	8c21                	xor	s0,s0,s0
    8000437a:	86d9                	srai	a3,a3,0x16
    8000437c:	0091ddb3          	srl	s11,gp,s1
    80004380:	04a9                	addi	s1,s1,10
    80004382:	40dc89bb          	subw	s3,s9,a3
    80004386:	03272133          	mulhsu	sp,a4,s2
    8000438a:	000b561b          	srliw	a2,s6,0x0
    8000438e:	82f9                	srli	a3,a3,0x1e
    80004390:	0588                	addi	a0,sp,704
    80004392:	417dd533          	sra	a0,s11,s7
    80004396:	0a6c4417          	auipc	s0,0xa6c4
    8000439a:	01e203b3          	add	t2,tp,t5
    8000439e:	01b55bbb          	srlw	s7,a0,s11
    800043a2:	00ce1c1b          	slliw	s8,t3,0xc
    800043a6:	56fd                	li	a3,-1
    800043a8:	03d44f3b          	divw	t5,s0,t4
    800043ac:	04a9                	addi	s1,s1,10
    800043ae:	0001                	nop
    800043b0:	02d04563          	bgtz	a3,800043da <main_15+0x73a>
    800043b4:	56fd                	li	a3,-1
    800043b6:	002495b3          	sll	a1,s1,sp
    800043ba:	03f76733          	rem	a4,a4,t6
    800043be:	8e49                	or	a2,a2,a0
    800043c0:	03b95b63          	bge	s2,s11,800043f6 <main_15+0x756>
    800043c4:	0166feb3          	and	t4,a3,s6
    800043c8:	0094bb33          	sltu	s6,s1,s1
    800043cc:	89d9                	andi	a1,a1,22
    800043ce:	002495b3          	sll	a1,s1,sp
    800043d2:	56fd                	li	a3,-1
    800043d4:	0aa6                	slli	s5,s5,0x9
    800043d6:	e3314393          	xori	t2,sp,-461
    800043da:	9db9                	addw	a1,a1,a4
    800043dc:	03f76733          	rem	a4,a4,t6
    800043e0:	41660233          	sub	tp,a2,s6
    800043e4:	04a9                	addi	s1,s1,10
    800043e6:	0166feb3          	and	t4,a3,s6
    800043ea:	02b2dc33          	divu	s8,t0,a1
    800043ee:	000b561b          	srliw	a2,s6,0x0
    800043f2:	01e203b3          	add	t2,tp,t5
    800043f6:	417dd533          	sra	a0,s11,s7
    800043fa:	02061833          	mulh	a6,a2,zero
    800043fe:	40dc89bb          	subw	s3,s9,a3
    80004402:	40dc89bb          	subw	s3,s9,a3
    80004406:	0cc1881b          	addiw	a6,gp,204
    8000440a:	0094bb33          	sltu	s6,s1,s1
    8000440e:	41bb519b          	sraiw	gp,s6,0x1b
    80004412:	9a7e                	add	s4,s4,t6
    80004414:	02061833          	mulh	a6,a2,zero
    80004418:	09b95f63          	bge	s2,s11,800044b6 <main_17+0x72>
    8000441c:	03d44f3b          	divw	t5,s0,t4
    80004420:	01b60463          	beq	a2,s11,80004428 <main_15+0x788>
    80004424:	417dd533          	sra	a0,s11,s7
    80004428:	9a7e                	add	s4,s4,t6
    8000442a:	8c79                	and	s0,s0,a4
    8000442c:	02deedbb          	remw	s11,t4,a3
    80004430:	02deedbb          	remw	s11,t4,a3
    80004434:	000725b3          	sltz	a1,a4
    80004438:	cea5                	beqz	a3,800044b0 <main_17+0x6c>
    8000443a:	8f8d                	sub	a5,a5,a1
    8000443c:	000b561b          	srliw	a2,s6,0x0
    80004440:	002495b3          	sll	a1,s1,sp

0000000080004444 <main_17>:
    80004444:	00c00eef          	jal	t4,80004450 <main_17+0xc>
    80004448:	a00d                	j	8000446a <main_17+0x26>
    8000444a:	014000ef          	jal	8000445e <main_17+0x1a>
    8000444e:	a82d                	j	80004488 <main_17+0x44>
    80004450:	024000ef          	jal	80004474 <main_17+0x30>
    80004454:	a821                	j	8000446c <main_17+0x28>
    80004456:	a00d                	j	80004478 <main_17+0x34>
    80004458:	03e000ef          	jal	80004496 <main_17+0x52>
    8000445c:	a02d                	j	80004486 <main_17+0x42>
    8000445e:	fffff0ef          	jal	8000445c <main_17+0x18>
    80004462:	a035                	j	8000448e <main_17+0x4a>
    80004464:	004000ef          	jal	80004468 <main_17+0x24>
    80004468:	bfed                	j	80004462 <main_17+0x1e>
    8000446a:	bfed                	j	80004464 <main_17+0x20>
    8000446c:	b7ed                	j	80004456 <main_17+0x12>
    8000446e:	a839                	j	8000448c <main_17+0x48>
    80004470:	fffff0ef          	jal	8000446e <main_17+0x2a>
    80004474:	fe1ff0ef          	jal	80004454 <main_17+0x10>
    80004478:	a019                	j	8000447e <main_17+0x3a>
    8000447a:	bfdd                	j	80004470 <main_17+0x2c>
    8000447c:	bffd                	j	8000447a <main_17+0x36>
    8000447e:	014000ef          	jal	80004492 <main_17+0x4e>
    80004482:	fc9ff0ef          	jal	8000444a <main_17+0x6>
    80004486:	b7c9                	j	80004448 <main_17+0x4>
    80004488:	fd1ff0ef          	jal	80004458 <main_17+0x14>
    8000448c:	a039                	j	8000449a <main_17+0x56>
    8000448e:	00a000ef          	jal	80004498 <main_17+0x54>
    80004492:	ff1ff0ef          	jal	80004482 <main_17+0x3e>
    80004496:	b7dd                	j	8000447c <main_17+0x38>
    80004498:	bf5d                	j	8000444e <main_17+0xa>
    8000449a:	03d44f3b          	divw	t5,s0,t4
    8000449e:	00d04963          	bgtz	a3,800044b0 <main_17+0x6c>
    800044a2:	000807bb          	addw	a5,a6,zero
    800044a6:	9d01                	subw	a0,a0,s0
    800044a8:	00ce1c1b          	slliw	s8,t3,0xc
    800044ac:	00ce1c1b          	slliw	s8,t3,0xc
    800044b0:	03eec933          	div	s2,t4,t5
    800044b4:	9d01                	subw	a0,a0,s0
    800044b6:	e3314393          	xori	t2,sp,-461
    800044ba:	56fd                	li	a3,-1
    800044bc:	02d04f63          	bgtz	a3,800044fa <main_17+0xb6>
    800044c0:	c685                	beqz	a3,800044e8 <main_17+0xa4>
    800044c2:	8e49                	or	a2,a2,a0
    800044c4:	00ce1c1b          	slliw	s8,t3,0xc
    800044c8:	8a3a                	mv	s4,a4
    800044ca:	000807bb          	addw	a5,a6,zero
    800044ce:	0085e263          	bltu	a1,s0,800044d2 <main_17+0x8e>
    800044d2:	8c21                	xor	s0,s0,s0
    800044d4:	018a5213          	srli	tp,s4,0x18
    800044d8:	0091ddb3          	srl	s11,gp,s1
    800044dc:	0cc1881b          	addiw	a6,gp,204
    800044e0:	41660233          	sub	tp,a2,s6
    800044e4:	e3314393          	xori	t2,sp,-461
    800044e8:	8c21                	xor	s0,s0,s0
    800044ea:	01ca4133          	xor	sp,s4,t3
    800044ee:	8f8d                	sub	a5,a5,a1
    800044f0:	023830b3          	mulhu	ra,a6,gp
    800044f4:	0588                	addi	a0,sp,704
    800044f6:	03eec933          	div	s2,t4,t5
    800044fa:	02a986bb          	mulw	a3,s3,a0
    800044fe:	717d                	addi	sp,sp,-16
    80004500:	41bb519b          	sraiw	gp,s6,0x1b
    80004504:	03f76733          	rem	a4,a4,t6
    80004508:	03498fb3          	mul	t6,s3,s4
    8000450c:	9d01                	subw	a0,a0,s0
    8000450e:	018a5213          	srli	tp,s4,0x18
    80004512:	000725b3          	sltz	a1,a4
    80004516:	89d9                	andi	a1,a1,22
    80004518:	03498fb3          	mul	t6,s3,s4
    8000451c:	01b55bbb          	srlw	s7,a0,s11
    80004520:	40dc89bb          	subw	s3,s9,a3
    80004524:	69ad                	lui	s3,0xb
    80004526:	0cc1881b          	addiw	a6,gp,204
    8000452a:	28d0f213          	andi	tp,ra,653
    8000452e:	3f7d                	addiw	t5,t5,-1
    80004530:	03498fb3          	mul	t6,s3,s4
    80004534:	3f7d                	addiw	t5,t5,-1
    80004536:	41205ebb          	sraw	t4,zero,s2
    8000453a:	09730a93          	addi	s5,t1,151
    8000453e:	0091ddb3          	srl	s11,gp,s1
    80004542:	018a5213          	srli	tp,s4,0x18
    80004546:	4368d313          	srai	t1,a7,0x36
    8000454a:	0091ddb3          	srl	s11,gp,s1
    8000454e:	edf82113          	slti	sp,a6,-289
    80004552:	01a31093          	slli	ra,t1,0x1a
    80004556:	84627b37          	lui	s6,0x84627
    8000455a:	8c21                	xor	s0,s0,s0
    8000455c:	0001                	nop
    8000455e:	000725b3          	sltz	a1,a4
    80004562:	9a7e                	add	s4,s4,t6
    80004564:	8a3a                	mv	s4,a4
    80004566:	8c79                	and	s0,s0,a4
    80004568:	000725b3          	sltz	a1,a4
    8000456c:	002495b3          	sll	a1,s1,sp
    80004570:	02061833          	mulh	a6,a2,zero
    80004574:	0cc1881b          	addiw	a6,gp,204
    80004578:	0091ddb3          	srl	s11,gp,s1
    8000457c:	02061833          	mulh	a6,a2,zero
    80004580:	40dc89bb          	subw	s3,s9,a3
    80004584:	41660233          	sub	tp,a2,s6
    80004588:	02061833          	mulh	a6,a2,zero
    8000458c:	8f8d                	sub	a5,a5,a1
    8000458e:	003de5b3          	or	a1,s11,gp
    80004592:	40dc89bb          	subw	s3,s9,a3
    80004596:	40dc89bb          	subw	s3,s9,a3
    8000459a:	029bf763          	bgeu	s7,s1,800045c8 <main_17+0x184>
    8000459e:	029bf363          	bgeu	s7,s1,800045c4 <main_17+0x180>
    800045a2:	8f8d                	sub	a5,a5,a1
    800045a4:	e701                	bnez	a4,800045ac <main_17+0x168>
    800045a6:	9d01                	subw	a0,a0,s0
    800045a8:	01e203b3          	add	t2,tp,t5
    800045ac:	717d                	addi	sp,sp,-16
    800045ae:	02061833          	mulh	a6,a2,zero
    800045b2:	8a3a                	mv	s4,a4
    800045b4:	00d316bb          	sllw	a3,t1,a3
    800045b8:	03eec933          	div	s2,t4,t5
    800045bc:	41205ebb          	sraw	t4,zero,s2
    800045c0:	03272133          	mulhsu	sp,a4,s2
    800045c4:	69ad                	lui	s3,0xb
    800045c6:	0aa6                	slli	s5,s5,0x9
    800045c8:	8a3a                	mv	s4,a4
    800045ca:	018a5213          	srli	tp,s4,0x18
    800045ce:	04d04263          	bgtz	a3,80004612 <main_17+0x1ce>
    800045d2:	01b95463          	bge	s2,s11,800045da <main_17+0x196>
    800045d6:	03f76733          	rem	a4,a4,t6
    800045da:	9d01                	subw	a0,a0,s0
    800045dc:	00ce1c1b          	slliw	s8,t3,0xc
    800045e0:	41205ebb          	sraw	t4,zero,s2
    800045e4:	8f8d                	sub	a5,a5,a1
    800045e6:	02fffcb3          	remu	s9,t6,a5
    800045ea:	9d01                	subw	a0,a0,s0
    800045ec:	09730a93          	addi	s5,t1,151
    800045f0:	03272133          	mulhsu	sp,a4,s2
    800045f4:	01b55bbb          	srlw	s7,a0,s11
    800045f8:	0a6c4417          	auipc	s0,0xa6c4
    800045fc:	009bf863          	bgeu	s7,s1,8000460c <main_17+0x1c8>
    80004600:	02b2dc33          	divu	s8,t0,a1
    80004604:	3f7d                	addiw	t5,t5,-1
    80004606:	8a3a                	mv	s4,a4
    80004608:	03eec933          	div	s2,t4,t5
    8000460c:	02deedbb          	remw	s11,t4,a3
    80004610:	9d01                	subw	a0,a0,s0
    80004612:	04a9                	addi	s1,s1,10
    80004614:	01e203b3          	add	t2,tp,t5
    80004618:	000807bb          	addw	a5,a6,zero
    8000461c:	9db9                	addw	a1,a1,a4
    8000461e:	01ca4133          	xor	sp,s4,t3
    80004622:	e319                	bnez	a4,80004628 <main_17+0x1e4>
    80004624:	02d04463          	bgtz	a3,8000464c <main_17+0x208>
    80004628:	018a5213          	srli	tp,s4,0x18
    8000462c:	03eec933          	div	s2,t4,t5
    80004630:	04a9                	addi	s1,s1,10
    80004632:	0285e763          	bltu	a1,s0,80004660 <main_17+0x21c>
    80004636:	e3314393          	xori	t2,sp,-461
    8000463a:	0588                	addi	a0,sp,704
    8000463c:	9a7e                	add	s4,s4,t6
    8000463e:	edf82113          	slti	sp,a6,-289
    80004642:	717d                	addi	sp,sp,-16
    80004644:	86d9                	srai	a3,a3,0x16
    80004646:	0285ed63          	bltu	a1,s0,80004680 <main_17+0x23c>
    8000464a:	0001                	nop
    8000464c:	01ca4133          	xor	sp,s4,t3
    80004650:	417dd533          	sra	a0,s11,s7
    80004654:	0cc1881b          	addiw	a6,gp,204
    80004658:	e309                	bnez	a4,8000465a <main_17+0x216>
    8000465a:	0cc1881b          	addiw	a6,gp,204
    8000465e:	0001                	nop
    80004660:	04a9                	addi	s1,s1,10
    80004662:	0001                	nop
    80004664:	03eec933          	div	s2,t4,t5
    80004668:	000b561b          	srliw	a2,s6,0x0
    8000466c:	01b55bbb          	srlw	s7,a0,s11
    80004670:	4368d313          	srai	t1,a7,0x36
    80004674:	c69d                	beqz	a3,800046a2 <main_17+0x25e>
    80004676:	0cc1881b          	addiw	a6,gp,204
    8000467a:	04a9                	addi	s1,s1,10
    8000467c:	717d                	addi	sp,sp,-16
    8000467e:	04a9                	addi	s1,s1,10
    80004680:	02d04363          	bgtz	a3,800046a6 <main_17+0x262>
    80004684:	02fffcb3          	remu	s9,t6,a5
    80004688:	9db9                	addw	a1,a1,a4
    8000468a:	3f7d                	addiw	t5,t5,-1
    8000468c:	03eec933          	div	s2,t4,t5
    80004690:	4368d313          	srai	t1,a7,0x36
    80004694:	02061833          	mulh	a6,a2,zero
    80004698:	03498fb3          	mul	t6,s3,s4
    8000469c:	8c21                	xor	s0,s0,s0
    8000469e:	84627b37          	lui	s6,0x84627
    800046a2:	e311                	bnez	a4,800046a6 <main_17+0x262>
    800046a4:	0001                	nop
    800046a6:	9a7e                	add	s4,s4,t6
    800046a8:	28d0f213          	andi	tp,ra,653
    800046ac:	41bb519b          	sraiw	gp,s6,0x1b
    800046b0:	03eec933          	div	s2,t4,t5
    800046b4:	003a9963          	bne	s5,gp,800046c6 <main_17+0x282>
    800046b8:	0001                	nop
    800046ba:	03f76733          	rem	a4,a4,t6
    800046be:	01a31093          	slli	ra,t1,0x1a
    800046c2:	41bb519b          	sraiw	gp,s6,0x1b
    800046c6:	c681                	beqz	a3,800046ce <main_17+0x28a>
    800046c8:	86d9                	srai	a3,a3,0x16
    800046ca:	03eec933          	div	s2,t4,t5
    800046ce:	9a7e                	add	s4,s4,t6
    800046d0:	02deedbb          	remw	s11,t4,a3
    800046d4:	41bb519b          	sraiw	gp,s6,0x1b
    800046d8:	56fd                	li	a3,-1
    800046da:	8c79                	and	s0,s0,a4
    800046dc:	02415b3b          	divuw	s6,sp,tp
    800046e0:	003a9363          	bne	s5,gp,800046e6 <main_17+0x2a2>
    800046e4:	8f8d                	sub	a5,a5,a1
    800046e6:	4368d313          	srai	t1,a7,0x36
    800046ea:	01a31093          	slli	ra,t1,0x1a
    800046ee:	000807bb          	addw	a5,a6,zero
    800046f2:	0166feb3          	and	t4,a3,s6
    800046f6:	04a9                	addi	s1,s1,10
    800046f8:	03272133          	mulhsu	sp,a4,s2
    800046fc:	5be3e993          	ori	s3,t2,1470
    80004700:	02b2dc33          	divu	s8,t0,a1
    80004704:	82f9                	srli	a3,a3,0x1e
    80004706:	0001                	nop
    80004708:	003a9e63          	bne	s5,gp,80004724 <main_17+0x2e0>
    8000470c:	69ad                	lui	s3,0xb
    8000470e:	00ce1c1b          	slliw	s8,t3,0xc
    80004712:	5be3e993          	ori	s3,t2,1470
    80004716:	01a31093          	slli	ra,t1,0x1a
    8000471a:	00ce1c1b          	slliw	s8,t3,0xc
    8000471e:	9d01                	subw	a0,a0,s0
    80004720:	03eec933          	div	s2,t4,t5
    80004724:	89d9                	andi	a1,a1,22
    80004726:	717d                	addi	sp,sp,-16
    80004728:	717d                	addi	sp,sp,-16
    8000472a:	01b60963          	beq	a2,s11,8000473c <main_17+0x2f8>
    8000472e:	01a31093          	slli	ra,t1,0x1a
    80004732:	03d44f3b          	divw	t5,s0,t4
    80004736:	41bb519b          	sraiw	gp,s6,0x1b
    8000473a:	0001                	nop
    8000473c:	86d9                	srai	a3,a3,0x16
    8000473e:	02b2dc33          	divu	s8,t0,a1
    80004742:	0cc1881b          	addiw	a6,gp,204
    80004746:	018a5213          	srli	tp,s4,0x18
    8000474a:	9a7e                	add	s4,s4,t6
    8000474c:	01b55bbb          	srlw	s7,a0,s11
    80004750:	002495b3          	sll	a1,s1,sp
    80004754:	9db9                	addw	a1,a1,a4
    80004756:	40dc89bb          	subw	s3,s9,a3
    8000475a:	9db9                	addw	a1,a1,a4
    8000475c:	eb1d                	bnez	a4,80004792 <main_17+0x34e>
    8000475e:	000b561b          	srliw	a2,s6,0x0
    80004762:	9a7e                	add	s4,s4,t6
    80004764:	edf82113          	slti	sp,a6,-289
    80004768:	40dc89bb          	subw	s3,s9,a3
    8000476c:	e3314393          	xori	t2,sp,-461
    80004770:	018a5213          	srli	tp,s4,0x18
    80004774:	0094bb33          	sltu	s6,s1,s1
    80004778:	03b60463          	beq	a2,s11,800047a0 <main_17+0x35c>
    8000477c:	41660233          	sub	tp,a2,s6
    80004780:	018a5213          	srli	tp,s4,0x18
    80004784:	0cc1881b          	addiw	a6,gp,204
    80004788:	000807bb          	addw	a5,a6,zero
    8000478c:	ef19                	bnez	a4,800047aa <main_17+0x366>
    8000478e:	0001                	nop
    80004790:	9a7e                	add	s4,s4,t6
    80004792:	717d                	addi	sp,sp,-16
    80004794:	84627b37          	lui	s6,0x84627
    80004798:	002495b3          	sll	a1,s1,sp
    8000479c:	000807bb          	addw	a5,a6,zero
    800047a0:	3f7d                	addiw	t5,t5,-1
    800047a2:	01b55bbb          	srlw	s7,a0,s11
    800047a6:	05b95463          	bge	s2,s11,800047ee <main_17+0x3aa>
    800047aa:	eb01                	bnez	a4,800047ba <main_17+0x376>
    800047ac:	0001                	nop
    800047ae:	09730a93          	addi	s5,t1,151
    800047b2:	03b60e63          	beq	a2,s11,800047ee <main_17+0x3aa>
    800047b6:	0094bb33          	sltu	s6,s1,s1
    800047ba:	02061833          	mulh	a6,a2,zero
    800047be:	41205ebb          	sraw	t4,zero,s2
    800047c2:	05b95063          	bge	s2,s11,80004802 <main_17+0x3be>
    800047c6:	69ad                	lui	s3,0xb
    800047c8:	04a9                	addi	s1,s1,10
    800047ca:	02eb76bb          	remuw	a3,s6,a4
    800047ce:	02fffcb3          	remu	s9,t6,a5
    800047d2:	000807bb          	addw	a5,a6,zero
    800047d6:	02b2dc33          	divu	s8,t0,a1
    800047da:	40dc89bb          	subw	s3,s9,a3
    800047de:	01e203b3          	add	t2,tp,t5
    800047e2:	84627b37          	lui	s6,0x84627
    800047e6:	0166feb3          	and	t4,a3,s6
    800047ea:	84627b37          	lui	s6,0x84627
    800047ee:	00ce1c1b          	slliw	s8,t3,0xc
    800047f2:	003de5b3          	or	a1,s11,gp
    800047f6:	04a9                	addi	s1,s1,10
    800047f8:	82f9                	srli	a3,a3,0x1e
    800047fa:	02061833          	mulh	a6,a2,zero
    800047fe:	0166feb3          	and	t4,a3,s6
    80004802:	023830b3          	mulhu	ra,a6,gp
    80004806:	0091ddb3          	srl	s11,gp,s1
    8000480a:	69ad                	lui	s3,0xb
    8000480c:	0001                	nop
    8000480e:	89d9                	andi	a1,a1,22
    80004810:	01b60f63          	beq	a2,s11,8000482e <main_17+0x3ea>
    80004814:	56fd                	li	a3,-1
    80004816:	000725b3          	sltz	a1,a4
    8000481a:	00d316bb          	sllw	a3,t1,a3
    8000481e:	0588                	addi	a0,sp,704
    80004820:	03272133          	mulhsu	sp,a4,s2
    80004824:	01a31093          	slli	ra,t1,0x1a
    80004828:	01b95a63          	bge	s2,s11,8000483c <main_17+0x3f8>
    8000482c:	89d9                	andi	a1,a1,22
    8000482e:	00ce1c1b          	slliw	s8,t3,0xc
    80004832:	9d01                	subw	a0,a0,s0
    80004834:	02a986bb          	mulw	a3,s3,a0
    80004838:	002495b3          	sll	a1,s1,sp
    8000483c:	01e203b3          	add	t2,tp,t5
    80004840:	00d316bb          	sllw	a3,t1,a3
    80004844:	0a6c4417          	auipc	s0,0xa6c4
    80004848:	03498fb3          	mul	t6,s3,s4
    8000484c:	00d316bb          	sllw	a3,t1,a3
    80004850:	86d9                	srai	a3,a3,0x16
    80004852:	4368d313          	srai	t1,a7,0x36
    80004856:	28d0f213          	andi	tp,ra,653
    8000485a:	3f7d                	addiw	t5,t5,-1
    8000485c:	9db9                	addw	a1,a1,a4
    8000485e:	023a9163          	bne	s5,gp,80004880 <main_17+0x43c>
    80004862:	000b561b          	srliw	a2,s6,0x0
    80004866:	0001                	nop
    80004868:	09730a93          	addi	s5,t1,151
    8000486c:	0a6c4417          	auipc	s0,0xa6c4
    80004870:	02b2dc33          	divu	s8,t0,a1
    80004874:	03f76733          	rem	a4,a4,t6
    80004878:	02eb76bb          	remuw	a3,s6,a4
    8000487c:	043a9163          	bne	s5,gp,800048be <main_17+0x47a>
    80004880:	9db9                	addw	a1,a1,a4
    80004882:	9d01                	subw	a0,a0,s0
    80004884:	86d9                	srai	a3,a3,0x16
    80004886:	c299                	beqz	a3,8000488c <main_17+0x448>
    80004888:	03498fb3          	mul	t6,s3,s4
    8000488c:	417dd533          	sra	a0,s11,s7
    80004890:	89d9                	andi	a1,a1,22
    80004892:	edf82113          	slti	sp,a6,-289
    80004896:	03f76733          	rem	a4,a4,t6
    8000489a:	05b60063          	beq	a2,s11,800048da <main_17+0x496>
    8000489e:	5be3e993          	ori	s3,t2,1470
    800048a2:	e319                	bnez	a4,800048a8 <main_17+0x464>
    800048a4:	0166feb3          	and	t4,a3,s6
    800048a8:	5be3e993          	ori	s3,t2,1470
    800048ac:	41660233          	sub	tp,a2,s6
    800048b0:	417dd533          	sra	a0,s11,s7
    800048b4:	00ce1c1b          	slliw	s8,t3,0xc
    800048b8:	000b561b          	srliw	a2,s6,0x0
    800048bc:	8c21                	xor	s0,s0,s0
    800048be:	40dc89bb          	subw	s3,s9,a3
    800048c2:	82f9                	srli	a3,a3,0x1e
    800048c4:	003a9263          	bne	s5,gp,800048c8 <main_17+0x484>
    800048c8:	8c21                	xor	s0,s0,s0
    800048ca:	ca9d                	beqz	a3,80004900 <main_17+0x4bc>
    800048cc:	28d0f213          	andi	tp,ra,653
    800048d0:	02b2dc33          	divu	s8,t0,a1
    800048d4:	018a5213          	srli	tp,s4,0x18
    800048d8:	ca9d                	beqz	a3,8000490e <main_17+0x4ca>
    800048da:	03d44f3b          	divw	t5,s0,t4
    800048de:	01b60563          	beq	a2,s11,800048e8 <main_17+0x4a4>
    800048e2:	8f8d                	sub	a5,a5,a1
    800048e4:	00ce1c1b          	slliw	s8,t3,0xc
    800048e8:	018a5213          	srli	tp,s4,0x18
    800048ec:	e3314393          	xori	t2,sp,-461
    800048f0:	00d316bb          	sllw	a3,t1,a3
    800048f4:	00d316bb          	sllw	a3,t1,a3
    800048f8:	9db9                	addw	a1,a1,a4
    800048fa:	0001                	nop
    800048fc:	0166feb3          	and	t4,a3,s6
    80004900:	02061833          	mulh	a6,a2,zero
    80004904:	03498fb3          	mul	t6,s3,s4
    80004908:	04a9                	addi	s1,s1,10
    8000490a:	417dd533          	sra	a0,s11,s7
    8000490e:	3f7d                	addiw	t5,t5,-1
    80004910:	40dc89bb          	subw	s3,s9,a3
    80004914:	01b55bbb          	srlw	s7,a0,s11
    80004918:	8c79                	and	s0,s0,a4
    8000491a:	03eec933          	div	s2,t4,t5
    8000491e:	002495b3          	sll	a1,s1,sp
    80004922:	41bb519b          	sraiw	gp,s6,0x1b
    80004926:	717d                	addi	sp,sp,-16
    80004928:	8f8d                	sub	a5,a5,a1
    8000492a:	0001                	nop
    8000492c:	03d44f3b          	divw	t5,s0,t4
    80004930:	41660233          	sub	tp,a2,s6
    80004934:	0001                	nop
    80004936:	02061833          	mulh	a6,a2,zero
    8000493a:	41205ebb          	sraw	t4,zero,s2
    8000493e:	40dc89bb          	subw	s3,s9,a3
    80004942:	5be3e993          	ori	s3,t2,1470
    80004946:	0085ef63          	bltu	a1,s0,80004964 <main_17+0x520>
    8000494a:	8e49                	or	a2,a2,a0
    8000494c:	93a6ba13          	sltiu	s4,a3,-1734
    80004950:	8a3a                	mv	s4,a4
    80004952:	01ca4133          	xor	sp,s4,t3
    80004956:	28d0f213          	andi	tp,ra,653
    8000495a:	0001                	nop
    8000495c:	0085e463          	bltu	a1,s0,80004964 <main_17+0x520>
    80004960:	02061833          	mulh	a6,a2,zero
    80004964:	000725b3          	sltz	a1,a4
    80004968:	02fffcb3          	remu	s9,t6,a5
    8000496c:	8f8d                	sub	a5,a5,a1
    8000496e:	01ca4133          	xor	sp,s4,t3
    80004972:	86d9                	srai	a3,a3,0x16
    80004974:	0588                	addi	a0,sp,704
    80004976:	69ad                	lui	s3,0xb
    80004978:	0085e363          	bltu	a1,s0,8000497e <main_17+0x53a>
    8000497c:	86d9                	srai	a3,a3,0x16
    8000497e:	0a6c4417          	auipc	s0,0xa6c4
    80004982:	56fd                	li	a3,-1
    80004984:	69ad                	lui	s3,0xb
    80004986:	01e203b3          	add	t2,tp,t5
    8000498a:	9a7e                	add	s4,s4,t6
    8000498c:	0285e663          	bltu	a1,s0,800049b8 <main_17+0x574>
    80004990:	56fd                	li	a3,-1
    80004992:	00ce1c1b          	slliw	s8,t3,0xc
    80004996:	8f8d                	sub	a5,a5,a1
    80004998:	56fd                	li	a3,-1
    8000499a:	01b95563          	bge	s2,s11,800049a4 <main_17+0x560>
    8000499e:	9a7e                	add	s4,s4,t6
    800049a0:	002495b3          	sll	a1,s1,sp
    800049a4:	0094bb33          	sltu	s6,s1,s1
    800049a8:	40dc89bb          	subw	s3,s9,a3
    800049ac:	8c79                	and	s0,s0,a4
    800049ae:	04a9                	addi	s1,s1,10
    800049b0:	02fffcb3          	remu	s9,t6,a5
    800049b4:	0588                	addi	a0,sp,704
    800049b6:	0001                	nop
    800049b8:	417dd533          	sra	a0,s11,s7
    800049bc:	41bb519b          	sraiw	gp,s6,0x1b
    800049c0:	000807bb          	addw	a5,a6,zero
    800049c4:	0001                	nop
    800049c6:	029bf863          	bgeu	s7,s1,800049f6 <main_17+0x5b2>
    800049ca:	02eb76bb          	remuw	a3,s6,a4
    800049ce:	40dc89bb          	subw	s3,s9,a3
    800049d2:	e3314393          	xori	t2,sp,-461
    800049d6:	0001                	nop
    800049d8:	0166feb3          	and	t4,a3,s6
    800049dc:	41bb519b          	sraiw	gp,s6,0x1b
    800049e0:	41205ebb          	sraw	t4,zero,s2
    800049e4:	ca8d                	beqz	a3,80004a16 <main_17+0x5d2>
    800049e6:	00ce1c1b          	slliw	s8,t3,0xc
    800049ea:	4368d313          	srai	t1,a7,0x36
    800049ee:	09730a93          	addi	s5,t1,151
    800049f2:	01b60a63          	beq	a2,s11,80004a06 <main_17+0x5c2>
    800049f6:	03eec933          	div	s2,t4,t5
    800049fa:	02415b3b          	divuw	s6,sp,tp
    800049fe:	02a986bb          	mulw	a3,s3,a0
    80004a02:	03272133          	mulhsu	sp,a4,s2
    80004a06:	03272133          	mulhsu	sp,a4,s2
    80004a0a:	c295                	beqz	a3,80004a2e <main_17+0x5ea>
    80004a0c:	8a3a                	mv	s4,a4
    80004a0e:	00ce1c1b          	slliw	s8,t3,0xc
    80004a12:	717d                	addi	sp,sp,-16
    80004a14:	8e49                	or	a2,a2,a0
    80004a16:	02b2dc33          	divu	s8,t0,a1
    80004a1a:	e309                	bnez	a4,80004a1c <main_17+0x5d8>
    80004a1c:	03498fb3          	mul	t6,s3,s4
    80004a20:	04a9                	addi	s1,s1,10
    80004a22:	00d316bb          	sllw	a3,t1,a3
    80004a26:	018a5213          	srli	tp,s4,0x18
    80004a2a:	03272133          	mulhsu	sp,a4,s2
    80004a2e:	02deedbb          	remw	s11,t4,a3
    80004a32:	03f76733          	rem	a4,a4,t6
    80004a36:	09730a93          	addi	s5,t1,151
    80004a3a:	69ad                	lui	s3,0xb
    80004a3c:	02415b3b          	divuw	s6,sp,tp
    80004a40:	e309                	bnez	a4,80004a42 <main_17+0x5fe>
    80004a42:	8f8d                	sub	a5,a5,a1
    80004a44:	0001                	nop
    80004a46:	023830b3          	mulhu	ra,a6,gp
    80004a4a:	01ca4133          	xor	sp,s4,t3
    80004a4e:	717d                	addi	sp,sp,-16
    80004a50:	c68d                	beqz	a3,80004a7a <main_17+0x636>
    80004a52:	03498fb3          	mul	t6,s3,s4
    80004a56:	03eec933          	div	s2,t4,t5
    80004a5a:	0001                	nop
    80004a5c:	00ce1c1b          	slliw	s8,t3,0xc
    80004a60:	03eec933          	div	s2,t4,t5
    80004a64:	02b2dc33          	divu	s8,t0,a1
    80004a68:	0001                	nop
    80004a6a:	0bb95063          	bge	s2,s11,80004b0a <main_2+0x88>
    80004a6e:	000807bb          	addw	a5,a6,zero
    80004a72:	84627b37          	lui	s6,0x84627
    80004a76:	01e203b3          	add	t2,tp,t5
    80004a7a:	4368d313          	srai	t1,a7,0x36
    80004a7e:	0094bb33          	sltu	s6,s1,s1

0000000080004a82 <main_2>:
    80004a82:	00a00eef          	jal	t4,80004a8c <main_2+0xa>
    80004a86:	a01d                	j	80004aac <main_2+0x2a>
    80004a88:	014000ef          	jal	80004a9c <main_2+0x1a>
    80004a8c:	006000ef          	jal	80004a92 <main_2+0x10>
    80004a90:	a829                	j	80004aaa <main_2+0x28>
    80004a92:	044000ef          	jal	80004ad6 <main_2+0x54>
    80004a96:	a005                	j	80004ab6 <main_2+0x34>
    80004a98:	00c000ef          	jal	80004aa4 <main_2+0x22>
    80004a9c:	040000ef          	jal	80004adc <main_2+0x5a>
    80004aa0:	a82d                	j	80004ada <main_2+0x58>
    80004aa2:	a015                	j	80004ac6 <main_2+0x44>
    80004aa4:	bff5                	j	80004aa0 <main_2+0x1e>
    80004aa6:	01a000ef          	jal	80004ac0 <main_2+0x3e>
    80004aaa:	b7fd                	j	80004a98 <main_2+0x16>
    80004aac:	a819                	j	80004ac2 <main_2+0x40>
    80004aae:	a039                	j	80004abc <main_2+0x3a>
    80004ab0:	fffff0ef          	jal	80004aae <main_2+0x2c>
    80004ab4:	b7fd                	j	80004aa2 <main_2+0x20>
    80004ab6:	004000ef          	jal	80004aba <main_2+0x38>
    80004aba:	b7f5                	j	80004aa6 <main_2+0x24>
    80004abc:	022000ef          	jal	80004ade <main_2+0x5c>
    80004ac0:	b7d9                	j	80004a86 <main_2+0x4>
    80004ac2:	00c000ef          	jal	80004ace <main_2+0x4c>
    80004ac6:	b7ed                	j	80004ab0 <main_2+0x2e>
    80004ac8:	00a000ef          	jal	80004ad2 <main_2+0x50>
    80004acc:	bff5                	j	80004ac8 <main_2+0x46>
    80004ace:	fe7ff0ef          	jal	80004ab4 <main_2+0x32>
    80004ad2:	fbfff0ef          	jal	80004a90 <main_2+0xe>
    80004ad6:	fb3ff0ef          	jal	80004a88 <main_2+0x6>
    80004ada:	bf75                	j	80004a96 <main_2+0x14>
    80004adc:	bfc5                	j	80004acc <main_2+0x4a>
    80004ade:	56fd                	li	a3,-1
    80004ae0:	0aa6                	slli	s5,s5,0x9
    80004ae2:	4368d313          	srai	t1,a7,0x36
    80004ae6:	049bf163          	bgeu	s7,s1,80004b28 <main_2+0xa6>
    80004aea:	9db9                	addw	a1,a1,a4
    80004aec:	02fffcb3          	remu	s9,t6,a5
    80004af0:	0285ea63          	bltu	a1,s0,80004b24 <main_2+0xa2>
    80004af4:	01b60763          	beq	a2,s11,80004b02 <main_2+0x80>
    80004af8:	002495b3          	sll	a1,s1,sp
    80004afc:	9d01                	subw	a0,a0,s0
    80004afe:	04a9                	addi	s1,s1,10
    80004b00:	8c21                	xor	s0,s0,s0
    80004b02:	0a6c4417          	auipc	s0,0xa6c4
    80004b06:	0091ddb3          	srl	s11,gp,s1
    80004b0a:	8c79                	and	s0,s0,a4
    80004b0c:	09730a93          	addi	s5,t1,151
    80004b10:	03b95163          	bge	s2,s11,80004b32 <main_2+0xb0>
    80004b14:	8a3a                	mv	s4,a4
    80004b16:	02415b3b          	divuw	s6,sp,tp
    80004b1a:	0cc1881b          	addiw	a6,gp,204
    80004b1e:	8a3a                	mv	s4,a4
    80004b20:	41660233          	sub	tp,a2,s6
    80004b24:	03eec933          	div	s2,t4,t5
    80004b28:	000725b3          	sltz	a1,a4
    80004b2c:	003de5b3          	or	a1,s11,gp
    80004b30:	82f9                	srli	a3,a3,0x1e
    80004b32:	82f9                	srli	a3,a3,0x1e
    80004b34:	01b55bbb          	srlw	s7,a0,s11
    80004b38:	01a31093          	slli	ra,t1,0x1a
    80004b3c:	00d316bb          	sllw	a3,t1,a3
    80004b40:	56fd                	li	a3,-1
    80004b42:	0588                	addi	a0,sp,704
    80004b44:	049bf163          	bgeu	s7,s1,80004b86 <main_2+0x104>
    80004b48:	09730a93          	addi	s5,t1,151
    80004b4c:	01e203b3          	add	t2,tp,t5
    80004b50:	02eb76bb          	remuw	a3,s6,a4
    80004b54:	01b55bbb          	srlw	s7,a0,s11
    80004b58:	01a31093          	slli	ra,t1,0x1a
    80004b5c:	3f7d                	addiw	t5,t5,-1
    80004b5e:	01ca4133          	xor	sp,s4,t3
    80004b62:	09730a93          	addi	s5,t1,151
    80004b66:	0091ddb3          	srl	s11,gp,s1
    80004b6a:	4368d313          	srai	t1,a7,0x36
    80004b6e:	0aa6                	slli	s5,s5,0x9
    80004b70:	8e49                	or	a2,a2,a0
    80004b72:	023830b3          	mulhu	ra,a6,gp
    80004b76:	41660233          	sub	tp,a2,s6
    80004b7a:	0588                	addi	a0,sp,704
    80004b7c:	8a3a                	mv	s4,a4
    80004b7e:	4368d313          	srai	t1,a7,0x36
    80004b82:	03498fb3          	mul	t6,s3,s4
    80004b86:	0091ddb3          	srl	s11,gp,s1
    80004b8a:	8e49                	or	a2,a2,a0
    80004b8c:	05b60363          	beq	a2,s11,80004bd2 <main_2+0x150>
    80004b90:	018a5213          	srli	tp,s4,0x18
    80004b94:	0166feb3          	and	t4,a3,s6
    80004b98:	0001                	nop
    80004b9a:	41205ebb          	sraw	t4,zero,s2
    80004b9e:	0001                	nop
    80004ba0:	41bb519b          	sraiw	gp,s6,0x1b
    80004ba4:	03498fb3          	mul	t6,s3,s4
    80004ba8:	01e203b3          	add	t2,tp,t5
    80004bac:	000725b3          	sltz	a1,a4
    80004bb0:	717d                	addi	sp,sp,-16
    80004bb2:	03eec933          	div	s2,t4,t5
    80004bb6:	0001                	nop
    80004bb8:	02415b3b          	divuw	s6,sp,tp
    80004bbc:	0094bb33          	sltu	s6,s1,s1
    80004bc0:	56fd                	li	a3,-1
    80004bc2:	41660233          	sub	tp,a2,s6
    80004bc6:	28d0f213          	andi	tp,ra,653
    80004bca:	009bfd63          	bgeu	s7,s1,80004be4 <main_2+0x162>
    80004bce:	41205ebb          	sraw	t4,zero,s2
    80004bd2:	0001                	nop
    80004bd4:	41bb519b          	sraiw	gp,s6,0x1b
    80004bd8:	8a3a                	mv	s4,a4
    80004bda:	56fd                	li	a3,-1
    80004bdc:	28d0f213          	andi	tp,ra,653
    80004be0:	0001                	nop
    80004be2:	8e49                	or	a2,a2,a0
    80004be4:	0001                	nop
    80004be6:	41205ebb          	sraw	t4,zero,s2
    80004bea:	e311                	bnez	a4,80004bee <main_2+0x16c>
    80004bec:	04a9                	addi	s1,s1,10
    80004bee:	01a31093          	slli	ra,t1,0x1a
    80004bf2:	01b55bbb          	srlw	s7,a0,s11
    80004bf6:	000b561b          	srliw	a2,s6,0x0
    80004bfa:	8e49                	or	a2,a2,a0
    80004bfc:	02eb76bb          	remuw	a3,s6,a4
    80004c00:	0001                	nop
    80004c02:	40dc89bb          	subw	s3,s9,a3
    80004c06:	89d9                	andi	a1,a1,22
    80004c08:	09730a93          	addi	s5,t1,151
    80004c0c:	02deedbb          	remw	s11,t4,a3
    80004c10:	002495b3          	sll	a1,s1,sp
    80004c14:	8a3a                	mv	s4,a4
    80004c16:	0aa6                	slli	s5,s5,0x9
    80004c18:	8c79                	and	s0,s0,a4
    80004c1a:	023830b3          	mulhu	ra,a6,gp
    80004c1e:	000807bb          	addw	a5,a6,zero
    80004c22:	69ad                	lui	s3,0xb
    80004c24:	02d04a63          	bgtz	a3,80004c58 <main_2+0x1d6>
    80004c28:	000807bb          	addw	a5,a6,zero
    80004c2c:	5be3e993          	ori	s3,t2,1470
    80004c30:	03272133          	mulhsu	sp,a4,s2
    80004c34:	89d9                	andi	a1,a1,22
    80004c36:	69ad                	lui	s3,0xb
    80004c38:	8c79                	and	s0,s0,a4
    80004c3a:	03272133          	mulhsu	sp,a4,s2
    80004c3e:	93a6ba13          	sltiu	s4,a3,-1734
    80004c42:	02b2dc33          	divu	s8,t0,a1
    80004c46:	000807bb          	addw	a5,a6,zero
    80004c4a:	3f7d                	addiw	t5,t5,-1
    80004c4c:	41205ebb          	sraw	t4,zero,s2
    80004c50:	0a6c4417          	auipc	s0,0xa6c4
    80004c54:	8a3a                	mv	s4,a4
    80004c56:	3f7d                	addiw	t5,t5,-1
    80004c58:	8c21                	xor	s0,s0,s0
    80004c5a:	9d01                	subw	a0,a0,s0
    80004c5c:	09730a93          	addi	s5,t1,151
    80004c60:	9d01                	subw	a0,a0,s0
    80004c62:	01e203b3          	add	t2,tp,t5
    80004c66:	00d316bb          	sllw	a3,t1,a3
    80004c6a:	00d04763          	bgtz	a3,80004c78 <main_2+0x1f6>
    80004c6e:	41205ebb          	sraw	t4,zero,s2
    80004c72:	8e49                	or	a2,a2,a0
    80004c74:	9d01                	subw	a0,a0,s0
    80004c76:	9d01                	subw	a0,a0,s0
    80004c78:	c695                	beqz	a3,80004ca4 <main_2+0x222>
    80004c7a:	417dd533          	sra	a0,s11,s7
    80004c7e:	04a9                	addi	s1,s1,10
    80004c80:	3f7d                	addiw	t5,t5,-1
    80004c82:	8f8d                	sub	a5,a5,a1
    80004c84:	02eb76bb          	remuw	a3,s6,a4
    80004c88:	8c21                	xor	s0,s0,s0
    80004c8a:	69ad                	lui	s3,0xb
    80004c8c:	03272133          	mulhsu	sp,a4,s2
    80004c90:	40dc89bb          	subw	s3,s9,a3
    80004c94:	3f7d                	addiw	t5,t5,-1
    80004c96:	03272133          	mulhsu	sp,a4,s2
    80004c9a:	8e49                	or	a2,a2,a0
    80004c9c:	56fd                	li	a3,-1
    80004c9e:	02b2dc33          	divu	s8,t0,a1
    80004ca2:	717d                	addi	sp,sp,-16
    80004ca4:	41bb519b          	sraiw	gp,s6,0x1b
    80004ca8:	0166feb3          	and	t4,a3,s6
    80004cac:	82f9                	srli	a3,a3,0x1e
    80004cae:	0001                	nop
    80004cb0:	0091ddb3          	srl	s11,gp,s1
    80004cb4:	02a986bb          	mulw	a3,s3,a0
    80004cb8:	02b2dc33          	divu	s8,t0,a1
    80004cbc:	ce85                	beqz	a3,80004cf4 <main_2+0x272>
    80004cbe:	93a6ba13          	sltiu	s4,a3,-1734
    80004cc2:	417dd533          	sra	a0,s11,s7
    80004cc6:	56fd                	li	a3,-1
    80004cc8:	01b60663          	beq	a2,s11,80004cd4 <main_2+0x252>
    80004ccc:	02eb76bb          	remuw	a3,s6,a4
    80004cd0:	417dd533          	sra	a0,s11,s7
    80004cd4:	28d0f213          	andi	tp,ra,653
    80004cd8:	41205ebb          	sraw	t4,zero,s2
    80004cdc:	0094bb33          	sltu	s6,s1,s1
    80004ce0:	8a3a                	mv	s4,a4
    80004ce2:	02fffcb3          	remu	s9,t6,a5
    80004ce6:	03f76733          	rem	a4,a4,t6
    80004cea:	018a5213          	srli	tp,s4,0x18
    80004cee:	01b55bbb          	srlw	s7,a0,s11
    80004cf2:	9a7e                	add	s4,s4,t6
    80004cf4:	86d9                	srai	a3,a3,0x16
    80004cf6:	04a9                	addi	s1,s1,10
    80004cf8:	03eec933          	div	s2,t4,t5
    80004cfc:	84627b37          	lui	s6,0x84627
    80004d00:	00ce1c1b          	slliw	s8,t3,0xc
    80004d04:	8e49                	or	a2,a2,a0
    80004d06:	002495b3          	sll	a1,s1,sp
    80004d0a:	000b561b          	srliw	a2,s6,0x0
    80004d0e:	03d44f3b          	divw	t5,s0,t4
    80004d12:	02a986bb          	mulw	a3,s3,a0
    80004d16:	8e49                	or	a2,a2,a0
    80004d18:	41205ebb          	sraw	t4,zero,s2
    80004d1c:	03d44f3b          	divw	t5,s0,t4
    80004d20:	000807bb          	addw	a5,a6,zero
    80004d24:	9d01                	subw	a0,a0,s0
    80004d26:	02deedbb          	remw	s11,t4,a3
    80004d2a:	9db9                	addw	a1,a1,a4
    80004d2c:	41205ebb          	sraw	t4,zero,s2
    80004d30:	03272133          	mulhsu	sp,a4,s2
    80004d34:	02eb76bb          	remuw	a3,s6,a4
    80004d38:	4368d313          	srai	t1,a7,0x36
    80004d3c:	417dd533          	sra	a0,s11,s7
    80004d40:	28d0f213          	andi	tp,ra,653
    80004d44:	02d04e63          	bgtz	a3,80004d80 <main_2+0x2fe>
    80004d48:	8e49                	or	a2,a2,a0
    80004d4a:	89d9                	andi	a1,a1,22
    80004d4c:	0166feb3          	and	t4,a3,s6
    80004d50:	000807bb          	addw	a5,a6,zero
    80004d54:	28d0f213          	andi	tp,ra,653
    80004d58:	02061833          	mulh	a6,a2,zero
    80004d5c:	0aa6                	slli	s5,s5,0x9
    80004d5e:	8e49                	or	a2,a2,a0
    80004d60:	edf82113          	slti	sp,a6,-289
    80004d64:	03eec933          	div	s2,t4,t5
    80004d68:	003de5b3          	or	a1,s11,gp
    80004d6c:	82f9                	srli	a3,a3,0x1e
    80004d6e:	03f76733          	rem	a4,a4,t6
    80004d72:	02a986bb          	mulw	a3,s3,a0
    80004d76:	01b95b63          	bge	s2,s11,80004d8c <main_2+0x30a>
    80004d7a:	0a6c4417          	auipc	s0,0xa6c4
    80004d7e:	9a7e                	add	s4,s4,t6
    80004d80:	02eb76bb          	remuw	a3,s6,a4
    80004d84:	28d0f213          	andi	tp,ra,653
    80004d88:	002495b3          	sll	a1,s1,sp
    80004d8c:	89d9                	andi	a1,a1,22
    80004d8e:	0cc1881b          	addiw	a6,gp,204
    80004d92:	e319                	bnez	a4,80004d98 <main_2+0x316>
    80004d94:	009bfd63          	bgeu	s7,s1,80004dae <main_2+0x32c>
    80004d98:	41205ebb          	sraw	t4,zero,s2
    80004d9c:	0588                	addi	a0,sp,704
    80004d9e:	02415b3b          	divuw	s6,sp,tp
    80004da2:	023a9b63          	bne	s5,gp,80004dd8 <main_2+0x356>
    80004da6:	4368d313          	srai	t1,a7,0x36
    80004daa:	0001                	nop
    80004dac:	e309                	bnez	a4,80004dae <main_2+0x32c>
    80004dae:	000725b3          	sltz	a1,a4
    80004db2:	04a9                	addi	s1,s1,10
    80004db4:	02a986bb          	mulw	a3,s3,a0
    80004db8:	00ce1c1b          	slliw	s8,t3,0xc
    80004dbc:	023830b3          	mulhu	ra,a6,gp
    80004dc0:	03498fb3          	mul	t6,s3,s4
    80004dc4:	002495b3          	sll	a1,s1,sp
    80004dc8:	3f7d                	addiw	t5,t5,-1
    80004dca:	84627b37          	lui	s6,0x84627
    80004dce:	e305                	bnez	a4,80004dee <main_2+0x36c>
    80004dd0:	5be3e993          	ori	s3,t2,1470
    80004dd4:	5be3e993          	ori	s3,t2,1470
    80004dd8:	003de5b3          	or	a1,s11,gp
    80004ddc:	01a31093          	slli	ra,t1,0x1a
    80004de0:	3f7d                	addiw	t5,t5,-1
    80004de2:	03d44f3b          	divw	t5,s0,t4
    80004de6:	000b561b          	srliw	a2,s6,0x0
    80004dea:	01a31093          	slli	ra,t1,0x1a
    80004dee:	4368d313          	srai	t1,a7,0x36
    80004df2:	40dc89bb          	subw	s3,s9,a3
    80004df6:	00ce1c1b          	slliw	s8,t3,0xc
    80004dfa:	03498fb3          	mul	t6,s3,s4
    80004dfe:	9db9                	addw	a1,a1,a4
    80004e00:	000b561b          	srliw	a2,s6,0x0
    80004e04:	0001                	nop
    80004e06:	000807bb          	addw	a5,a6,zero
    80004e0a:	02eb76bb          	remuw	a3,s6,a4
    80004e0e:	9db9                	addw	a1,a1,a4
    80004e10:	023830b3          	mulhu	ra,a6,gp
    80004e14:	01b95263          	bge	s2,s11,80004e18 <main_2+0x396>
    80004e18:	8c79                	and	s0,s0,a4
    80004e1a:	01b55bbb          	srlw	s7,a0,s11
    80004e1e:	0588                	addi	a0,sp,704
    80004e20:	0094bb33          	sltu	s6,s1,s1
    80004e24:	02061833          	mulh	a6,a2,zero
    80004e28:	002495b3          	sll	a1,s1,sp
    80004e2c:	5be3e993          	ori	s3,t2,1470
    80004e30:	03b60f63          	beq	a2,s11,80004e6e <main_2+0x3ec>
    80004e34:	003a9963          	bne	s5,gp,80004e46 <main_2+0x3c4>
    80004e38:	03498fb3          	mul	t6,s3,s4
    80004e3c:	018a5213          	srli	tp,s4,0x18
    80004e40:	69ad                	lui	s3,0xb
    80004e42:	03d44f3b          	divw	t5,s0,t4
    80004e46:	000807bb          	addw	a5,a6,zero
    80004e4a:	01b60e63          	beq	a2,s11,80004e66 <main_2+0x3e4>
    80004e4e:	04a9                	addi	s1,s1,10
    80004e50:	0588                	addi	a0,sp,704
    80004e52:	3f7d                	addiw	t5,t5,-1
    80004e54:	8f8d                	sub	a5,a5,a1
    80004e56:	40dc89bb          	subw	s3,s9,a3
    80004e5a:	01e203b3          	add	t2,tp,t5
    80004e5e:	049bf163          	bgeu	s7,s1,80004ea0 <main_2+0x41e>
    80004e62:	41660233          	sub	tp,a2,s6
    80004e66:	000b561b          	srliw	a2,s6,0x0
    80004e6a:	8c21                	xor	s0,s0,s0
    80004e6c:	0001                	nop
    80004e6e:	02deedbb          	remw	s11,t4,a3
    80004e72:	89d9                	andi	a1,a1,22
    80004e74:	93a6ba13          	sltiu	s4,a3,-1734
    80004e78:	84627b37          	lui	s6,0x84627
    80004e7c:	41bb519b          	sraiw	gp,s6,0x1b
    80004e80:	8f8d                	sub	a5,a5,a1
    80004e82:	0aa6                	slli	s5,s5,0x9
    80004e84:	002495b3          	sll	a1,s1,sp
    80004e88:	00ce1c1b          	slliw	s8,t3,0xc
    80004e8c:	8c79                	and	s0,s0,a4
    80004e8e:	03f76733          	rem	a4,a4,t6
    80004e92:	82f9                	srli	a3,a3,0x1e
    80004e94:	5be3e993          	ori	s3,t2,1470
    80004e98:	0485e463          	bltu	a1,s0,80004ee0 <main_2+0x45e>
    80004e9c:	41660233          	sub	tp,a2,s6
    80004ea0:	41bb519b          	sraiw	gp,s6,0x1b
    80004ea4:	01a31093          	slli	ra,t1,0x1a
    80004ea8:	02a986bb          	mulw	a3,s3,a0
    80004eac:	0001                	nop
    80004eae:	009bfb63          	bgeu	s7,s1,80004ec4 <main_2+0x442>
    80004eb2:	03272133          	mulhsu	sp,a4,s2
    80004eb6:	023830b3          	mulhu	ra,a6,gp
    80004eba:	93a6ba13          	sltiu	s4,a3,-1734
    80004ebe:	417dd533          	sra	a0,s11,s7
    80004ec2:	9db9                	addw	a1,a1,a4
    80004ec4:	000725b3          	sltz	a1,a4
    80004ec8:	0091ddb3          	srl	s11,gp,s1
    80004ecc:	56fd                	li	a3,-1
    80004ece:	02eb76bb          	remuw	a3,s6,a4
    80004ed2:	002495b3          	sll	a1,s1,sp
    80004ed6:	00d04463          	bgtz	a3,80004ede <main_2+0x45c>
    80004eda:	01e203b3          	add	t2,tp,t5
    80004ede:	0001                	nop
    80004ee0:	03f76733          	rem	a4,a4,t6
    80004ee4:	9a7e                	add	s4,s4,t6
    80004ee6:	018a5213          	srli	tp,s4,0x18
    80004eea:	e319                	bnez	a4,80004ef0 <main_2+0x46e>
    80004eec:	01ca4133          	xor	sp,s4,t3
    80004ef0:	56fd                	li	a3,-1
    80004ef2:	56fd                	li	a3,-1
    80004ef4:	03f76733          	rem	a4,a4,t6
    80004ef8:	000b561b          	srliw	a2,s6,0x0
    80004efc:	8e49                	or	a2,a2,a0
    80004efe:	4368d313          	srai	t1,a7,0x36
    80004f02:	00ce1c1b          	slliw	s8,t3,0xc
    80004f06:	0a6c4417          	auipc	s0,0xa6c4
    80004f0a:	84627b37          	lui	s6,0x84627
    80004f0e:	02415b3b          	divuw	s6,sp,tp
    80004f12:	0001                	nop
    80004f14:	0aa6                	slli	s5,s5,0x9
    80004f16:	00d316bb          	sllw	a3,t1,a3
    80004f1a:	00ce1c1b          	slliw	s8,t3,0xc
    80004f1e:	03eec933          	div	s2,t4,t5
    80004f22:	41205ebb          	sraw	t4,zero,s2
    80004f26:	002495b3          	sll	a1,s1,sp
    80004f2a:	03498fb3          	mul	t6,s3,s4
    80004f2e:	eb15                	bnez	a4,80004f62 <main_55_0_t+0x1e>
    80004f30:	4595                	li	a1,5
    80004f32:	03d44c3b          	divw	s8,s0,t4
    80004f36:	4a09                	li	s4,2
    80004f38:	0cc1891b          	addiw	s2,gp,204
    80004f3c:	86d9                	srai	a3,a3,0x16
    80004f3e:	717d                	addi	sp,sp,-16
    80004f40:	41205fbb          	sraw	t6,zero,s2

0000000080004f44 <main_55_0_t>:
    80004f44:	9b7e                	add	s6,s6,t6
    80004f46:	edf82113          	slti	sp,a6,-289
    80004f4a:	0001                	nop
    80004f4c:	15fd                	addi	a1,a1,-1 # 8a6c4a33 <_end+0xa6980ab>
    80004f4e:	02fffe33          	remu	t3,t6,a5
    80004f52:	0f26                	slli	t5,t5,0x9
    80004f54:	02eb773b          	remuw	a4,s6,a4
    80004f58:	ff45f6e3          	bgeu	a1,s4,80004f44 <main_55_0_t>
    80004f5c:	edf82113          	slti	sp,a6,-289
    80004f60:	8f8d                	sub	a5,a5,a1
    80004f62:	8f8d                	sub	a5,a5,a1
    80004f64:	8f8d                	sub	a5,a5,a1
    80004f66:	04a9                	addi	s1,s1,10
    80004f68:	28d0f213          	andi	tp,ra,653
    80004f6c:	03b95763          	bge	s2,s11,80004f9a <main_65_0_t+0x10>
    80004f70:	28d0f213          	andi	tp,ra,653
    80004f74:	8c79                	and	s0,s0,a4
    80004f76:	02fffcb3          	remu	s9,t6,a5
    80004f7a:	4d8d                	li	s11,3
    80004f7c:	e3314393          	xori	t2,sp,-461
    80004f80:	0a6c4417          	auipc	s0,0xa6c4
    80004f84:	57d5                	li	a5,-11
    80004f86:	01b55c3b          	srlw	s8,a0,s11

0000000080004f8a <main_65_0_t>:
    80004f8a:	41660233          	sub	tp,a2,s6
    80004f8e:	1dfd                	addi	s11,s11,-1
    80004f90:	9c01                	subw	s0,s0,s0
    80004f92:	fefddce3          	bge	s11,a5,80004f8a <main_65_0_t>
    80004f96:	397d                	addiw	s2,s2,-1
    80004f98:	8e49                	or	a2,a2,a0
    80004f9a:	e3314393          	xori	t2,sp,-461
    80004f9e:	000807bb          	addw	a5,a6,zero
    80004fa2:	8c79                	and	s0,s0,a4
    80004fa4:	002495b3          	sll	a1,s1,sp
    80004fa8:	56fd                	li	a3,-1
    80004faa:	01b95463          	bge	s2,s11,80004fb2 <main_65_0_t+0x28>
    80004fae:	03272133          	mulhsu	sp,a4,s2
    80004fb2:	03f76733          	rem	a4,a4,t6
    80004fb6:	e319                	bnez	a4,80004fbc <main_65_0_t+0x32>
    80004fb8:	8e49                	or	a2,a2,a0
    80004fba:	0aa6                	slli	s5,s5,0x9
    80004fbc:	018a5213          	srli	tp,s4,0x18
    80004fc0:	002495b3          	sll	a1,s1,sp
    80004fc4:	9a7e                	add	s4,s4,t6
    80004fc6:	000b561b          	srliw	a2,s6,0x0
    80004fca:	0001                	nop
    80004fcc:	5be3e993          	ori	s3,t2,1470
    80004fd0:	3f7d                	addiw	t5,t5,-1
    80004fd2:	9db9                	addw	a1,a1,a4
    80004fd4:	89d9                	andi	a1,a1,22
    80004fd6:	03eec933          	div	s2,t4,t5
    80004fda:	0091ddb3          	srl	s11,gp,s1
    80004fde:	03d44f3b          	divw	t5,s0,t4
    80004fe2:	0085e763          	bltu	a1,s0,80004ff0 <main_65_0_t+0x66>
    80004fe6:	8f8d                	sub	a5,a5,a1
    80004fe8:	c69d                	beqz	a3,80005016 <main_65_0_t+0x8c>
    80004fea:	86d9                	srai	a3,a3,0x16
    80004fec:	41205ebb          	sraw	t4,zero,s2
    80004ff0:	28d0f213          	andi	tp,ra,653
    80004ff4:	8c79                	and	s0,s0,a4
    80004ff6:	8a3a                	mv	s4,a4
    80004ff8:	02061833          	mulh	a6,a2,zero
    80004ffc:	0091ddb3          	srl	s11,gp,s1
    80005000:	029bf163          	bgeu	s7,s1,80005022 <main_65_0_t+0x98>
    80005004:	02061833          	mulh	a6,a2,zero
    80005008:	ca9d                	beqz	a3,8000503e <main_65_0_t+0xb4>
    8000500a:	28d0f213          	andi	tp,ra,653
    8000500e:	0aa6                	slli	s5,s5,0x9
    80005010:	03272133          	mulhsu	sp,a4,s2
    80005014:	e70d                	bnez	a4,8000503e <main_65_0_t+0xb4>
    80005016:	5be3e993          	ori	s3,t2,1470
    8000501a:	01e203b3          	add	t2,tp,t5
    8000501e:	28d0f213          	andi	tp,ra,653
    80005022:	03f76733          	rem	a4,a4,t6
    80005026:	02415b3b          	divuw	s6,sp,tp
    8000502a:	03eec933          	div	s2,t4,t5
    8000502e:	02a986bb          	mulw	a3,s3,a0
    80005032:	00ce1c1b          	slliw	s8,t3,0xc
    80005036:	69ad                	lui	s3,0xb
    80005038:	c685                	beqz	a3,80005060 <main_65_0_t+0xd6>
    8000503a:	03498fb3          	mul	t6,s3,s4
    8000503e:	0aa6                	slli	s5,s5,0x9
    80005040:	03d44f3b          	divw	t5,s0,t4
    80005044:	01ca4133          	xor	sp,s4,t3
    80005048:	03272133          	mulhsu	sp,a4,s2
    8000504c:	03272133          	mulhsu	sp,a4,s2
    80005050:	8c21                	xor	s0,s0,s0
    80005052:	69ad                	lui	s3,0xb
    80005054:	02b2dc33          	divu	s8,t0,a1
    80005058:	018a5213          	srli	tp,s4,0x18
    8000505c:	00ce1c1b          	slliw	s8,t3,0xc
    80005060:	9db9                	addw	a1,a1,a4
    80005062:	8c21                	xor	s0,s0,s0
    80005064:	0001                	nop
    80005066:	002495b3          	sll	a1,s1,sp
    8000506a:	0091ddb3          	srl	s11,gp,s1
    8000506e:	9db9                	addw	a1,a1,a4
    80005070:	02061833          	mulh	a6,a2,zero
    80005074:	8a3a                	mv	s4,a4
    80005076:	9d01                	subw	a0,a0,s0
    80005078:	40dc89bb          	subw	s3,s9,a3
    8000507c:	9d01                	subw	a0,a0,s0
    8000507e:	9db9                	addw	a1,a1,a4
    80005080:	02fffcb3          	remu	s9,t6,a5
    80005084:	000b561b          	srliw	a2,s6,0x0
    80005088:	02deedbb          	remw	s11,t4,a3
    8000508c:	4368d313          	srai	t1,a7,0x36
    80005090:	03eec933          	div	s2,t4,t5
    80005094:	0094bb33          	sltu	s6,s1,s1
    80005098:	02fffcb3          	remu	s9,t6,a5
    8000509c:	0aa6                	slli	s5,s5,0x9
    8000509e:	4368d313          	srai	t1,a7,0x36
    800050a2:	01a31093          	slli	ra,t1,0x1a
    800050a6:	e3314393          	xori	t2,sp,-461
    800050aa:	01a31093          	slli	ra,t1,0x1a
    800050ae:	02eb76bb          	remuw	a3,s6,a4
    800050b2:	8e49                	or	a2,a2,a0
    800050b4:	04a9                	addi	s1,s1,10
    800050b6:	5be3e993          	ori	s3,t2,1470
    800050ba:	0588                	addi	a0,sp,704
    800050bc:	9db9                	addw	a1,a1,a4
    800050be:	03b60b63          	beq	a2,s11,800050f4 <main_65_0_t+0x16a>
    800050c2:	02a986bb          	mulw	a3,s3,a0
    800050c6:	9db9                	addw	a1,a1,a4
    800050c8:	8c21                	xor	s0,s0,s0
    800050ca:	e3314393          	xori	t2,sp,-461
    800050ce:	0aa6                	slli	s5,s5,0x9
    800050d0:	0094bb33          	sltu	s6,s1,s1
    800050d4:	0166feb3          	and	t4,a3,s6
    800050d8:	018a5213          	srli	tp,s4,0x18
    800050dc:	4368d313          	srai	t1,a7,0x36
    800050e0:	029bfe63          	bgeu	s7,s1,8000511c <main_65_0_t+0x192>
    800050e4:	717d                	addi	sp,sp,-16
    800050e6:	02a986bb          	mulw	a3,s3,a0
    800050ea:	89d9                	andi	a1,a1,22
    800050ec:	e3314393          	xori	t2,sp,-461
    800050f0:	41bb519b          	sraiw	gp,s6,0x1b
    800050f4:	69ad                	lui	s3,0xb
    800050f6:	41205ebb          	sraw	t4,zero,s2
    800050fa:	02415b3b          	divuw	s6,sp,tp
    800050fe:	0001                	nop
    80005100:	0001                	nop
    80005102:	02deedbb          	remw	s11,t4,a3
    80005106:	ce85                	beqz	a3,8000513e <main_65_0_t+0x1b4>
    80005108:	84627b37          	lui	s6,0x84627
    8000510c:	41660233          	sub	tp,a2,s6
    80005110:	000725b3          	sltz	a1,a4
    80005114:	03eec933          	div	s2,t4,t5
    80005118:	0166feb3          	and	t4,a3,s6
    8000511c:	01a31093          	slli	ra,t1,0x1a
    80005120:	8e49                	or	a2,a2,a0
    80005122:	03eec933          	div	s2,t4,t5
    80005126:	000807bb          	addw	a5,a6,zero
    8000512a:	01b55bbb          	srlw	s7,a0,s11
    8000512e:	01ca4133          	xor	sp,s4,t3
    80005132:	03f76733          	rem	a4,a4,t6
    80005136:	e3314393          	xori	t2,sp,-461
    8000513a:	0166feb3          	and	t4,a3,s6
    8000513e:	003de5b3          	or	a1,s11,gp
    80005142:	82f9                	srli	a3,a3,0x1e
    80005144:	01ca4133          	xor	sp,s4,t3
    80005148:	9a7e                	add	s4,s4,t6
    8000514a:	28d0f213          	andi	tp,ra,653
    8000514e:	01b95663          	bge	s2,s11,8000515a <main_65_0_t+0x1d0>
    80005152:	03eec933          	div	s2,t4,t5
    80005156:	00d316bb          	sllw	a3,t1,a3
    8000515a:	003de5b3          	or	a1,s11,gp
    8000515e:	02fffcb3          	remu	s9,t6,a5
    80005162:	84627b37          	lui	s6,0x84627
    80005166:	000725b3          	sltz	a1,a4
    8000516a:	02415b3b          	divuw	s6,sp,tp
    8000516e:	02d04763          	bgtz	a3,8000519c <main_65_0_t+0x212>
    80005172:	000b561b          	srliw	a2,s6,0x0
    80005176:	01b55bbb          	srlw	s7,a0,s11
    8000517a:	8e49                	or	a2,a2,a0
    8000517c:	8f8d                	sub	a5,a5,a1
    8000517e:	02415b3b          	divuw	s6,sp,tp
    80005182:	000807bb          	addw	a5,a6,zero
    80005186:	029bfb63          	bgeu	s7,s1,800051bc <main_65_0_t+0x232>
    8000518a:	0cc1881b          	addiw	a6,gp,204
    8000518e:	9d01                	subw	a0,a0,s0
    80005190:	02eb76bb          	remuw	a3,s6,a4
    80005194:	0a6c4417          	auipc	s0,0xa6c4
    80005198:	0cc1881b          	addiw	a6,gp,204
    8000519c:	00ce1c1b          	slliw	s8,t3,0xc
    800051a0:	03d44f3b          	divw	t5,s0,t4
    800051a4:	89d9                	andi	a1,a1,22
    800051a6:	003de5b3          	or	a1,s11,gp
    800051aa:	8c21                	xor	s0,s0,s0
    800051ac:	003de5b3          	or	a1,s11,gp
    800051b0:	8c21                	xor	s0,s0,s0
    800051b2:	3f7d                	addiw	t5,t5,-1
    800051b4:	02deedbb          	remw	s11,t4,a3
    800051b8:	02415b3b          	divuw	s6,sp,tp
    800051bc:	03b60e63          	beq	a2,s11,800051f8 <main_65_0_t+0x26e>
    800051c0:	89d9                	andi	a1,a1,22
    800051c2:	0094bb33          	sltu	s6,s1,s1
    800051c6:	01b95b63          	bge	s2,s11,800051dc <main_65_0_t+0x252>
    800051ca:	56fd                	li	a3,-1
    800051cc:	0001                	nop
    800051ce:	56fd                	li	a3,-1
    800051d0:	41bb519b          	sraiw	gp,s6,0x1b
    800051d4:	8e49                	or	a2,a2,a0
    800051d6:	8e49                	or	a2,a2,a0
    800051d8:	0166feb3          	and	t4,a3,s6
    800051dc:	4368d313          	srai	t1,a7,0x36
    800051e0:	02415b3b          	divuw	s6,sp,tp
    800051e4:	8c21                	xor	s0,s0,s0
    800051e6:	03d44f3b          	divw	t5,s0,t4
    800051ea:	e709                	bnez	a4,800051f4 <main_65_0_t+0x26a>
    800051ec:	84627b37          	lui	s6,0x84627
    800051f0:	4368d313          	srai	t1,a7,0x36
    800051f4:	40dc89bb          	subw	s3,s9,a3
    800051f8:	0094bb33          	sltu	s6,s1,s1
    800051fc:	0588                	addi	a0,sp,704
    800051fe:	0a6c4417          	auipc	s0,0xa6c4
    80005202:	000b561b          	srliw	a2,s6,0x0
    80005206:	0094bb33          	sltu	s6,s1,s1
    8000520a:	8f8d                	sub	a5,a5,a1
    8000520c:	93a6ba13          	sltiu	s4,a3,-1734
    80005210:	9d01                	subw	a0,a0,s0
    80005212:	02061833          	mulh	a6,a2,zero
    80005216:	3f7d                	addiw	t5,t5,-1
    80005218:	9d01                	subw	a0,a0,s0
    8000521a:	000b561b          	srliw	a2,s6,0x0
    8000521e:	0094bb33          	sltu	s6,s1,s1
    80005222:	89d9                	andi	a1,a1,22
    80005224:	0001                	nop
    80005226:	03498fb3          	mul	t6,s3,s4
    8000522a:	c291                	beqz	a3,8000522e <main_65_0_t+0x2a4>
    8000522c:	8e49                	or	a2,a2,a0
    8000522e:	02061833          	mulh	a6,a2,zero
    80005232:	01b55bbb          	srlw	s7,a0,s11
    80005236:	02061833          	mulh	a6,a2,zero
    8000523a:	00ce1c1b          	slliw	s8,t3,0xc
    8000523e:	02d04a63          	bgtz	a3,80005272 <main_65_0_t+0x2e8>
    80005242:	8a3a                	mv	s4,a4
    80005244:	02a986bb          	mulw	a3,s3,a0
    80005248:	02b2dc33          	divu	s8,t0,a1
    8000524c:	e71d                	bnez	a4,8000527a <main_65_0_t+0x2f0>
    8000524e:	0001                	nop
    80005250:	89d9                	andi	a1,a1,22
    80005252:	0588                	addi	a0,sp,704
    80005254:	8e49                	or	a2,a2,a0
    80005256:	417dd533          	sra	a0,s11,s7
    8000525a:	41bb519b          	sraiw	gp,s6,0x1b
    8000525e:	03d44f3b          	divw	t5,s0,t4
    80005262:	02deedbb          	remw	s11,t4,a3
    80005266:	edf82113          	slti	sp,a6,-289
    8000526a:	03498fb3          	mul	t6,s3,s4
    8000526e:	41660233          	sub	tp,a2,s6
    80005272:	9d01                	subw	a0,a0,s0
    80005274:	86d9                	srai	a3,a3,0x16
    80005276:	00d316bb          	sllw	a3,t1,a3
    8000527a:	717d                	addi	sp,sp,-16
    8000527c:	9a7e                	add	s4,s4,t6
    8000527e:	009bf463          	bgeu	s7,s1,80005286 <main_65_0_t+0x2fc>
    80005282:	82f9                	srli	a3,a3,0x1e
    80005284:	9a7e                	add	s4,s4,t6
    80005286:	41205ebb          	sraw	t4,zero,s2
    8000528a:	717d                	addi	sp,sp,-16
    8000528c:	023830b3          	mulhu	ra,a6,gp
    80005290:	edf82113          	slti	sp,a6,-289
    80005294:	93a6ba13          	sltiu	s4,a3,-1734
    80005298:	03eec933          	div	s2,t4,t5
    8000529c:	023a9063          	bne	s5,gp,800052bc <main_65_0_t+0x332>
    800052a0:	002495b3          	sll	a1,s1,sp
    800052a4:	03eec933          	div	s2,t4,t5
    800052a8:	0094bb33          	sltu	s6,s1,s1
    800052ac:	56fd                	li	a3,-1
    800052ae:	03d44f3b          	divw	t5,s0,t4
    800052b2:	0a6c4417          	auipc	s0,0xa6c4
    800052b6:	02061833          	mulh	a6,a2,zero
    800052ba:	0001                	nop
    800052bc:	717d                	addi	sp,sp,-16
    800052be:	003a9863          	bne	s5,gp,800052ce <main_65_0_t+0x344>
    800052c2:	01ca4133          	xor	sp,s4,t3
    800052c6:	edf82113          	slti	sp,a6,-289
    800052ca:	3f7d                	addiw	t5,t5,-1
    800052cc:	c299                	beqz	a3,800052d2 <main_65_0_t+0x348>
    800052ce:	01ca4133          	xor	sp,s4,t3
    800052d2:	0091ddb3          	srl	s11,gp,s1
    800052d6:	84627b37          	lui	s6,0x84627
    800052da:	41660233          	sub	tp,a2,s6
    800052de:	8c79                	and	s0,s0,a4
    800052e0:	000b561b          	srliw	a2,s6,0x0
    800052e4:	09730a93          	addi	s5,t1,151
    800052e8:	8e49                	or	a2,a2,a0
    800052ea:	04d04163          	bgtz	a3,8000532c <main_65_0_t+0x3a2>
    800052ee:	0001                	nop
    800052f0:	8e49                	or	a2,a2,a0
    800052f2:	86d9                	srai	a3,a3,0x16
    800052f4:	40dc89bb          	subw	s3,s9,a3
    800052f8:	9a7e                	add	s4,s4,t6
    800052fa:	023830b3          	mulhu	ra,a6,gp
    800052fe:	003a9a63          	bne	s5,gp,80005312 <main_65_0_t+0x388>
    80005302:	000b561b          	srliw	a2,s6,0x0
    80005306:	56fd                	li	a3,-1
    80005308:	023a9d63          	bne	s5,gp,80005342 <main_65_0_t+0x3b8>
    8000530c:	02eb76bb          	remuw	a3,s6,a4
    80005310:	8f8d                	sub	a5,a5,a1
    80005312:	edf82113          	slti	sp,a6,-289
    80005316:	03272133          	mulhsu	sp,a4,s2
    8000531a:	01ca4133          	xor	sp,s4,t3
    8000531e:	000b561b          	srliw	a2,s6,0x0
    80005322:	e339                	bnez	a4,80005368 <main_65_0_t+0x3de>
    80005324:	02415b3b          	divuw	s6,sp,tp
    80005328:	01e203b3          	add	t2,tp,t5
    8000532c:	000807bb          	addw	a5,a6,zero
    80005330:	02061833          	mulh	a6,a2,zero
    80005334:	01ca4133          	xor	sp,s4,t3
    80005338:	000807bb          	addw	a5,a6,zero
    8000533c:	03f76733          	rem	a4,a4,t6
    80005340:	56fd                	li	a3,-1
    80005342:	4368d313          	srai	t1,a7,0x36
    80005346:	0094bb33          	sltu	s6,s1,s1
    8000534a:	03eec933          	div	s2,t4,t5
    8000534e:	000725b3          	sltz	a1,a4
    80005352:	8c79                	and	s0,s0,a4
    80005354:	03b60363          	beq	a2,s11,8000537a <main_65_0_t+0x3f0>
    80005358:	018a5213          	srli	tp,s4,0x18
    8000535c:	01a31093          	slli	ra,t1,0x1a
    80005360:	03f76733          	rem	a4,a4,t6
    80005364:	edf82113          	slti	sp,a6,-289
    80005368:	023830b3          	mulhu	ra,a6,gp
    8000536c:	717d                	addi	sp,sp,-16
    8000536e:	00d04263          	bgtz	a3,80005372 <main_65_0_t+0x3e8>
    80005372:	e3314393          	xori	t2,sp,-461
    80005376:	000807bb          	addw	a5,a6,zero
    8000537a:	edf82113          	slti	sp,a6,-289
    8000537e:	69ad                	lui	s3,0xb
    80005380:	03f76733          	rem	a4,a4,t6
    80005384:	8a3a                	mv	s4,a4
    80005386:	0588                	addi	a0,sp,704
    80005388:	9d01                	subw	a0,a0,s0
    8000538a:	417dd533          	sra	a0,s11,s7
    8000538e:	02eb76bb          	remuw	a3,s6,a4
    80005392:	03272133          	mulhsu	sp,a4,s2
    80005396:	02a986bb          	mulw	a3,s3,a0
    8000539a:	8a3a                	mv	s4,a4
    8000539c:	003de5b3          	or	a1,s11,gp
    800053a0:	029bfc63          	bgeu	s7,s1,800053d8 <main_65_0_t+0x44e>
    800053a4:	02eb76bb          	remuw	a3,s6,a4
    800053a8:	0a6c4417          	auipc	s0,0xa6c4
    800053ac:	5be3e993          	ori	s3,t2,1470
    800053b0:	02fffcb3          	remu	s9,t6,a5
    800053b4:	0588                	addi	a0,sp,704
    800053b6:	41bb519b          	sraiw	gp,s6,0x1b
    800053ba:	03b95a63          	bge	s2,s11,800053ee <main_65_0_t+0x464>
    800053be:	0cc1881b          	addiw	a6,gp,204
    800053c2:	41205ebb          	sraw	t4,zero,s2
    800053c6:	02415b3b          	divuw	s6,sp,tp
    800053ca:	56fd                	li	a3,-1
    800053cc:	000807bb          	addw	a5,a6,zero
    800053d0:	86d9                	srai	a3,a3,0x16
    800053d2:	e3314393          	xori	t2,sp,-461
    800053d6:	69ad                	lui	s3,0xb
    800053d8:	8c21                	xor	s0,s0,s0
    800053da:	5be3e993          	ori	s3,t2,1470
    800053de:	93a6ba13          	sltiu	s4,a3,-1734
    800053e2:	000b561b          	srliw	a2,s6,0x0
    800053e6:	01b55bbb          	srlw	s7,a0,s11
    800053ea:	03eec933          	div	s2,t4,t5
    800053ee:	000b561b          	srliw	a2,s6,0x0
    800053f2:	3f7d                	addiw	t5,t5,-1
    800053f4:	00ce1c1b          	slliw	s8,t3,0xc
    800053f8:	02a986bb          	mulw	a3,s3,a0
    800053fc:	0166feb3          	and	t4,a3,s6
    80005400:	0a6c4417          	auipc	s0,0xa6c4
    80005404:	8f8d                	sub	a5,a5,a1
    80005406:	9d01                	subw	a0,a0,s0
    80005408:	3f7d                	addiw	t5,t5,-1
    8000540a:	002495b3          	sll	a1,s1,sp
    8000540e:	02a986bb          	mulw	a3,s3,a0
    80005412:	02a986bb          	mulw	a3,s3,a0
    80005416:	e3314393          	xori	t2,sp,-461
    8000541a:	01e203b3          	add	t2,tp,t5
    8000541e:	01b55bbb          	srlw	s7,a0,s11
    80005422:	03272133          	mulhsu	sp,a4,s2
    80005426:	9a7e                	add	s4,s4,t6
    80005428:	0a6c4417          	auipc	s0,0xa6c4
    8000542c:	417dd533          	sra	a0,s11,s7
    80005430:	029bf863          	bgeu	s7,s1,80005460 <main_65_0_t+0x4d6>
    80005434:	8c79                	and	s0,s0,a4
    80005436:	000725b3          	sltz	a1,a4
    8000543a:	03b95163          	bge	s2,s11,8000545c <main_65_0_t+0x4d2>
    8000543e:	c695                	beqz	a3,8000546a <main_65_0_t+0x4e0>
    80005440:	4368d313          	srai	t1,a7,0x36
    80005444:	03d44f3b          	divw	t5,s0,t4
    80005448:	02a986bb          	mulw	a3,s3,a0
    8000544c:	4368d313          	srai	t1,a7,0x36
    80005450:	002495b3          	sll	a1,s1,sp
    80005454:	009bf463          	bgeu	s7,s1,8000545c <main_65_0_t+0x4d2>
    80005458:	edf82113          	slti	sp,a6,-289
    8000545c:	03272133          	mulhsu	sp,a4,s2
    80005460:	86d9                	srai	a3,a3,0x16
    80005462:	01ca4133          	xor	sp,s4,t3
    80005466:	01e203b3          	add	t2,tp,t5
    8000546a:	043a9263          	bne	s5,gp,800054ae <main_65_0_t+0x524>
    8000546e:	02fffcb3          	remu	s9,t6,a5
    80005472:	003a9d63          	bne	s5,gp,8000548c <main_65_0_t+0x502>
    80005476:	04d04063          	bgtz	a3,800054b6 <main_65_0_t+0x52c>
    8000547a:	0a6c4417          	auipc	s0,0xa6c4
    8000547e:	023a9e63          	bne	s5,gp,800054ba <main_65_0_t+0x530>
    80005482:	8a3a                	mv	s4,a4
    80005484:	5be3e993          	ori	s3,t2,1470
    80005488:	8c21                	xor	s0,s0,s0
    8000548a:	9a7e                	add	s4,s4,t6
    8000548c:	029bf563          	bgeu	s7,s1,800054b6 <main_65_0_t+0x52c>
    80005490:	01ca4133          	xor	sp,s4,t3
    80005494:	0166feb3          	and	t4,a3,s6
    80005498:	c699                	beqz	a3,800054a6 <main_65_0_t+0x51c>
    8000549a:	0001                	nop
    8000549c:	4368d313          	srai	t1,a7,0x36
    800054a0:	023830b3          	mulhu	ra,a6,gp
    800054a4:	717d                	addi	sp,sp,-16
    800054a6:	000725b3          	sltz	a1,a4
    800054aa:	002495b3          	sll	a1,s1,sp
    800054ae:	023830b3          	mulhu	ra,a6,gp
    800054b2:	003de5b3          	or	a1,s11,gp
    800054b6:	e3314393          	xori	t2,sp,-461
    800054ba:	002495b3          	sll	a1,s1,sp
    800054be:	03272133          	mulhsu	sp,a4,s2
    800054c2:	02eb76bb          	remuw	a3,s6,a4
    800054c6:	93a6ba13          	sltiu	s4,a3,-1734
    800054ca:	8f8d                	sub	a5,a5,a1
    800054cc:	002495b3          	sll	a1,s1,sp
    800054d0:	03f76733          	rem	a4,a4,t6
    800054d4:	0001                	nop
    800054d6:	0aa6                	slli	s5,s5,0x9
    800054d8:	01a31093          	slli	ra,t1,0x1a
    800054dc:	00d04463          	bgtz	a3,800054e4 <main_65_0_t+0x55a>
    800054e0:	4368d313          	srai	t1,a7,0x36
    800054e4:	02fffcb3          	remu	s9,t6,a5
    800054e8:	023830b3          	mulhu	ra,a6,gp
    800054ec:	02eb76bb          	remuw	a3,s6,a4
    800054f0:	5be3e993          	ori	s3,t2,1470
    800054f4:	01e203b3          	add	t2,tp,t5
    800054f8:	717d                	addi	sp,sp,-16
    800054fa:	03f76733          	rem	a4,a4,t6
    800054fe:	03498fb3          	mul	t6,s3,s4
    80005502:	009bf263          	bgeu	s7,s1,80005506 <main_65_0_t+0x57c>
    80005506:	01a31093          	slli	ra,t1,0x1a
    8000550a:	00d316bb          	sllw	a3,t1,a3
    8000550e:	0aa6                	slli	s5,s5,0x9
    80005510:	0001                	nop
    80005512:	029bfa63          	bgeu	s7,s1,80005546 <main_65_0_t+0x5bc>
    80005516:	03498fb3          	mul	t6,s3,s4
    8000551a:	02fffcb3          	remu	s9,t6,a5
    8000551e:	86d9                	srai	a3,a3,0x16
    80005520:	9d01                	subw	a0,a0,s0
    80005522:	0001                	nop
    80005524:	417dd533          	sra	a0,s11,s7
    80005528:	000b561b          	srliw	a2,s6,0x0
    8000552c:	e719                	bnez	a4,8000553a <main_65_0_t+0x5b0>
    8000552e:	e309                	bnez	a4,80005530 <main_65_0_t+0x5a6>
    80005530:	0166feb3          	and	t4,a3,s6
    80005534:	86d9                	srai	a3,a3,0x16
    80005536:	03b95263          	bge	s2,s11,8000555a <main_65_0_t+0x5d0>
    8000553a:	003de5b3          	or	a1,s11,gp
    8000553e:	05b95463          	bge	s2,s11,80005586 <main_65_0_t+0x5fc>
    80005542:	01a31093          	slli	ra,t1,0x1a
    80005546:	01a31093          	slli	ra,t1,0x1a
    8000554a:	02415b3b          	divuw	s6,sp,tp
    8000554e:	0cc1881b          	addiw	a6,gp,204
    80005552:	02eb76bb          	remuw	a3,s6,a4
    80005556:	02b2dc33          	divu	s8,t0,a1
    8000555a:	0588                	addi	a0,sp,704
    8000555c:	00d316bb          	sllw	a3,t1,a3
    80005560:	0cc1881b          	addiw	a6,gp,204
    80005564:	e319                	bnez	a4,8000556a <main_65_0_t+0x5e0>
    80005566:	02415b3b          	divuw	s6,sp,tp
    8000556a:	01e203b3          	add	t2,tp,t5
    8000556e:	41bb519b          	sraiw	gp,s6,0x1b
    80005572:	0a6c4417          	auipc	s0,0xa6c4
    80005576:	02415b3b          	divuw	s6,sp,tp
    8000557a:	02a986bb          	mulw	a3,s3,a0
    8000557e:	02eb76bb          	remuw	a3,s6,a4
    80005582:	01ca4133          	xor	sp,s4,t3
    80005586:	0cc1881b          	addiw	a6,gp,204
    8000558a:	04a9                	addi	s1,s1,10
    8000558c:	41205ebb          	sraw	t4,zero,s2
    80005590:	0aa6                	slli	s5,s5,0x9
    80005592:	28d0f213          	andi	tp,ra,653
    80005596:	69ad                	lui	s3,0xb
    80005598:	0085e463          	bltu	a1,s0,800055a0 <main_65_0_t+0x616>
    8000559c:	00d04463          	bgtz	a3,800055a4 <main_65_0_t+0x61a>
    800055a0:	0a6c4417          	auipc	s0,0xa6c4
    800055a4:	02eb76bb          	remuw	a3,s6,a4
    800055a8:	0a6c4417          	auipc	s0,0xa6c4
    800055ac:	023830b3          	mulhu	ra,a6,gp
    800055b0:	8c21                	xor	s0,s0,s0
    800055b2:	01b55bbb          	srlw	s7,a0,s11
    800055b6:	0aa6                	slli	s5,s5,0x9
    800055b8:	0094bb33          	sltu	s6,s1,s1
    800055bc:	9d01                	subw	a0,a0,s0
    800055be:	02b2dc33          	divu	s8,t0,a1
    800055c2:	02a986bb          	mulw	a3,s3,a0
    800055c6:	0001                	nop
    800055c8:	417dd533          	sra	a0,s11,s7
    800055cc:	01b55bbb          	srlw	s7,a0,s11
    800055d0:	8a3a                	mv	s4,a4
    800055d2:	0091ddb3          	srl	s11,gp,s1
    800055d6:	93a6ba13          	sltiu	s4,a3,-1734
    800055da:	03498fb3          	mul	t6,s3,s4
    800055de:	4368d313          	srai	t1,a7,0x36
    800055e2:	9d01                	subw	a0,a0,s0
    800055e4:	84627b37          	lui	s6,0x84627
    800055e8:	029bfa63          	bgeu	s7,s1,8000561c <main_65_0_t+0x692>
    800055ec:	02b2dc33          	divu	s8,t0,a1
    800055f0:	0166feb3          	and	t4,a3,s6
    800055f4:	8e49                	or	a2,a2,a0
    800055f6:	e31d                	bnez	a4,8000561c <main_65_0_t+0x692>
    800055f8:	93a6ba13          	sltiu	s4,a3,-1734
    800055fc:	41bb519b          	sraiw	gp,s6,0x1b
    80005600:	82f9                	srli	a3,a3,0x1e
    80005602:	0091ddb3          	srl	s11,gp,s1
    80005606:	89d9                	andi	a1,a1,22
    80005608:	40dc89bb          	subw	s3,s9,a3
    8000560c:	000b561b          	srliw	a2,s6,0x0
    80005610:	09730a93          	addi	s5,t1,151
    80005614:	4368d313          	srai	t1,a7,0x36
    80005618:	717d                	addi	sp,sp,-16
    8000561a:	0588                	addi	a0,sp,704
    8000561c:	8c79                	and	s0,s0,a4
    8000561e:	84627b37          	lui	s6,0x84627
    80005622:	5be3e993          	ori	s3,t2,1470
    80005626:	93a6ba13          	sltiu	s4,a3,-1734
    8000562a:	28d0f213          	andi	tp,ra,653
    8000562e:	caa1                	beqz	a3,8000567e <main_36+0x32>
    80005630:	5be3e993          	ori	s3,t2,1470
    80005634:	03272133          	mulhsu	sp,a4,s2
    80005638:	002495b3          	sll	a1,s1,sp
    8000563c:	82f9                	srli	a3,a3,0x1e
    8000563e:	9db9                	addw	a1,a1,a4
    80005640:	8e49                	or	a2,a2,a0
    80005642:	0091ddb3          	srl	s11,gp,s1
    80005646:	c2a9                	beqz	a3,80005688 <main_36+0x3c>
    80005648:	018a5213          	srli	tp,s4,0x18

000000008000564c <main_36>:
    8000564c:	00600eef          	jal	t4,80005652 <main_36+0x6>
    80005650:	a811                	j	80005664 <main_36+0x18>
    80005652:	bffd                	j	80005650 <main_36+0x4>
    80005654:	024000ef          	jal	80005678 <main_36+0x2c>
    80005658:	010000ef          	jal	80005668 <main_36+0x1c>
    8000565c:	010000ef          	jal	8000566c <main_36+0x20>
    80005660:	ff5ff0ef          	jal	80005654 <main_36+0x8>
    80005664:	ff9ff0ef          	jal	8000565c <main_36+0x10>
    80005668:	008000ef          	jal	80005670 <main_36+0x24>
    8000566c:	ff5ff0ef          	jal	80005660 <main_36+0x14>
    80005670:	a019                	j	80005676 <main_36+0x2a>
    80005672:	a021                	j	8000567a <main_36+0x2e>
    80005674:	bffd                	j	80005672 <main_36+0x26>
    80005676:	bffd                	j	80005674 <main_36+0x28>
    80005678:	b7c5                	j	80005658 <main_36+0xc>
    8000567a:	41660233          	sub	tp,a2,s6
    8000567e:	417dd533          	sra	a0,s11,s7
    80005682:	002495b3          	sll	a1,s1,sp
    80005686:	e305                	bnez	a4,800056a6 <main_36+0x5a>
    80005688:	02a986bb          	mulw	a3,s3,a0
    8000568c:	03eec933          	div	s2,t4,t5
    80005690:	41205ebb          	sraw	t4,zero,s2
    80005694:	02deedbb          	remw	s11,t4,a3
    80005698:	41205ebb          	sraw	t4,zero,s2
    8000569c:	0091ddb3          	srl	s11,gp,s1
    800056a0:	8e49                	or	a2,a2,a0
    800056a2:	93a6ba13          	sltiu	s4,a3,-1734
    800056a6:	03eec933          	div	s2,t4,t5
    800056aa:	02d04463          	bgtz	a3,800056d2 <main_36+0x86>
    800056ae:	9db9                	addw	a1,a1,a4
    800056b0:	023a9d63          	bne	s5,gp,800056ea <main_36+0x9e>
    800056b4:	0cc1881b          	addiw	a6,gp,204
    800056b8:	03d44f3b          	divw	t5,s0,t4
    800056bc:	000b561b          	srliw	a2,s6,0x0
    800056c0:	02a986bb          	mulw	a3,s3,a0
    800056c4:	8a3a                	mv	s4,a4
    800056c6:	02deedbb          	remw	s11,t4,a3
    800056ca:	02eb76bb          	remuw	a3,s6,a4
    800056ce:	9db9                	addw	a1,a1,a4
    800056d0:	9d01                	subw	a0,a0,s0
    800056d2:	00d04c63          	bgtz	a3,800056ea <main_36+0x9e>
    800056d6:	03b95963          	bge	s2,s11,80005708 <main_36+0xbc>
    800056da:	03498fb3          	mul	t6,s3,s4
    800056de:	01b55bbb          	srlw	s7,a0,s11
    800056e2:	00ce1c1b          	slliw	s8,t3,0xc
    800056e6:	01ca4133          	xor	sp,s4,t3
    800056ea:	69ad                	lui	s3,0xb
    800056ec:	04a9                	addi	s1,s1,10
    800056ee:	8f8d                	sub	a5,a5,a1
    800056f0:	01a31093          	slli	ra,t1,0x1a
    800056f4:	0aa6                	slli	s5,s5,0x9
    800056f6:	3f7d                	addiw	t5,t5,-1
    800056f8:	41660233          	sub	tp,a2,s6
    800056fc:	0094bb33          	sltu	s6,s1,s1
    80005700:	02b2dc33          	divu	s8,t0,a1
    80005704:	01ca4133          	xor	sp,s4,t3
    80005708:	86d9                	srai	a3,a3,0x16
    8000570a:	002495b3          	sll	a1,s1,sp
    8000570e:	edf82113          	slti	sp,a6,-289
    80005712:	02eb76bb          	remuw	a3,s6,a4
    80005716:	0001                	nop
    80005718:	01ca4133          	xor	sp,s4,t3
    8000571c:	04a9                	addi	s1,s1,10
    8000571e:	023830b3          	mulhu	ra,a6,gp
    80005722:	9db9                	addw	a1,a1,a4
    80005724:	01ca4133          	xor	sp,s4,t3
    80005728:	02415b3b          	divuw	s6,sp,tp
    8000572c:	8f8d                	sub	a5,a5,a1
    8000572e:	0091ddb3          	srl	s11,gp,s1
    80005732:	000725b3          	sltz	a1,a4
    80005736:	01b55bbb          	srlw	s7,a0,s11
    8000573a:	0001                	nop
    8000573c:	4368d313          	srai	t1,a7,0x36
    80005740:	01b95d63          	bge	s2,s11,8000575a <main_36+0x10e>
    80005744:	01a31093          	slli	ra,t1,0x1a
    80005748:	03498fb3          	mul	t6,s3,s4
    8000574c:	82f9                	srli	a3,a3,0x1e
    8000574e:	023830b3          	mulhu	ra,a6,gp
    80005752:	09730a93          	addi	s5,t1,151
    80005756:	04a9                	addi	s1,s1,10
    80005758:	9a7e                	add	s4,s4,t6
    8000575a:	0166feb3          	and	t4,a3,s6
    8000575e:	02eb76bb          	remuw	a3,s6,a4
    80005762:	0a6c4417          	auipc	s0,0xa6c4
    80005766:	8e49                	or	a2,a2,a0
    80005768:	01e203b3          	add	t2,tp,t5
    8000576c:	01a31093          	slli	ra,t1,0x1a
    80005770:	84627b37          	lui	s6,0x84627
    80005774:	9d01                	subw	a0,a0,s0
    80005776:	8c79                	and	s0,s0,a4
    80005778:	28d0f213          	andi	tp,ra,653
    8000577c:	000725b3          	sltz	a1,a4
    80005780:	018a5213          	srli	tp,s4,0x18
    80005784:	0588                	addi	a0,sp,704
    80005786:	0166feb3          	and	t4,a3,s6
    8000578a:	03272133          	mulhsu	sp,a4,s2
    8000578e:	eb1d                	bnez	a4,800057c4 <main_36+0x178>
    80005790:	00d316bb          	sllw	a3,t1,a3
    80005794:	02deedbb          	remw	s11,t4,a3
    80005798:	05b60063          	beq	a2,s11,800057d8 <main_36+0x18c>
    8000579c:	41bb519b          	sraiw	gp,s6,0x1b
    800057a0:	717d                	addi	sp,sp,-16
    800057a2:	000725b3          	sltz	a1,a4
    800057a6:	0285e963          	bltu	a1,s0,800057d8 <main_36+0x18c>
    800057aa:	0001                	nop
    800057ac:	02fffcb3          	remu	s9,t6,a5
    800057b0:	02d04e63          	bgtz	a3,800057ec <main_36+0x1a0>
    800057b4:	69ad                	lui	s3,0xb
    800057b6:	00d04663          	bgtz	a3,800057c2 <main_36+0x176>
    800057ba:	00d04263          	bgtz	a3,800057be <main_36+0x172>
    800057be:	009bf563          	bgeu	s7,s1,800057c8 <main_36+0x17c>
    800057c2:	89d9                	andi	a1,a1,22
    800057c4:	0085e763          	bltu	a1,s0,800057d2 <main_36+0x186>
    800057c8:	56fd                	li	a3,-1
    800057ca:	8f8d                	sub	a5,a5,a1
    800057cc:	0001                	nop
    800057ce:	049bf063          	bgeu	s7,s1,8000580e <main_36+0x1c2>
    800057d2:	41bb519b          	sraiw	gp,s6,0x1b
    800057d6:	3f7d                	addiw	t5,t5,-1
    800057d8:	01e203b3          	add	t2,tp,t5
    800057dc:	84627b37          	lui	s6,0x84627
    800057e0:	4368d313          	srai	t1,a7,0x36
    800057e4:	023830b3          	mulhu	ra,a6,gp
    800057e8:	02b2dc33          	divu	s8,t0,a1
    800057ec:	03498fb3          	mul	t6,s3,s4
    800057f0:	8c79                	and	s0,s0,a4
    800057f2:	9d01                	subw	a0,a0,s0
    800057f4:	02deedbb          	remw	s11,t4,a3
    800057f8:	69ad                	lui	s3,0xb
    800057fa:	9db9                	addw	a1,a1,a4
    800057fc:	02d04a63          	bgtz	a3,80005830 <main_36+0x1e4>
    80005800:	002495b3          	sll	a1,s1,sp
    80005804:	02fffcb3          	remu	s9,t6,a5
    80005808:	86d9                	srai	a3,a3,0x16
    8000580a:	01a31093          	slli	ra,t1,0x1a
    8000580e:	0094bb33          	sltu	s6,s1,s1
    80005812:	8c21                	xor	s0,s0,s0
    80005814:	02fffcb3          	remu	s9,t6,a5
    80005818:	04d04063          	bgtz	a3,80005858 <main_36+0x20c>
    8000581c:	00d316bb          	sllw	a3,t1,a3
    80005820:	02b2dc33          	divu	s8,t0,a1
    80005824:	03498fb3          	mul	t6,s3,s4
    80005828:	82f9                	srli	a3,a3,0x1e
    8000582a:	82f9                	srli	a3,a3,0x1e
    8000582c:	02415b3b          	divuw	s6,sp,tp
    80005830:	9a7e                	add	s4,s4,t6
    80005832:	09730a93          	addi	s5,t1,151
    80005836:	9db9                	addw	a1,a1,a4
    80005838:	02a986bb          	mulw	a3,s3,a0
    8000583c:	717d                	addi	sp,sp,-16
    8000583e:	00ce1c1b          	slliw	s8,t3,0xc
    80005842:	4368d313          	srai	t1,a7,0x36
    80005846:	3f7d                	addiw	t5,t5,-1
    80005848:	8c79                	and	s0,s0,a4
    8000584a:	04a9                	addi	s1,s1,10
    8000584c:	02fffcb3          	remu	s9,t6,a5
    80005850:	02d04763          	bgtz	a3,8000587e <main_36+0x232>
    80005854:	01b95463          	bge	s2,s11,8000585c <main_36+0x210>
    80005858:	01b55bbb          	srlw	s7,a0,s11
    8000585c:	ca81                	beqz	a3,8000586c <main_36+0x220>
    8000585e:	0cc1881b          	addiw	a6,gp,204
    80005862:	3f7d                	addiw	t5,t5,-1
    80005864:	01b55bbb          	srlw	s7,a0,s11
    80005868:	01b60463          	beq	a2,s11,80005870 <main_36+0x224>
    8000586c:	00ce1c1b          	slliw	s8,t3,0xc
    80005870:	41bb519b          	sraiw	gp,s6,0x1b
    80005874:	002495b3          	sll	a1,s1,sp
    80005878:	717d                	addi	sp,sp,-16
    8000587a:	02deedbb          	remw	s11,t4,a3
    8000587e:	82f9                	srli	a3,a3,0x1e
    80005880:	023830b3          	mulhu	ra,a6,gp
    80005884:	02a986bb          	mulw	a3,s3,a0
    80005888:	8a3a                	mv	s4,a4
    8000588a:	02061833          	mulh	a6,a2,zero
    8000588e:	89d9                	andi	a1,a1,22
    80005890:	e3314393          	xori	t2,sp,-461
    80005894:	89d9                	andi	a1,a1,22
    80005896:	003a9a63          	bne	s5,gp,800058aa <main_36+0x25e>
    8000589a:	02061833          	mulh	a6,a2,zero
    8000589e:	0094bb33          	sltu	s6,s1,s1
    800058a2:	0091ddb3          	srl	s11,gp,s1
    800058a6:	00d04763          	bgtz	a3,800058b4 <main_36+0x268>
    800058aa:	89d9                	andi	a1,a1,22
    800058ac:	023830b3          	mulhu	ra,a6,gp
    800058b0:	9a7e                	add	s4,s4,t6
    800058b2:	9d01                	subw	a0,a0,s0
    800058b4:	02b2dc33          	divu	s8,t0,a1
    800058b8:	4368d313          	srai	t1,a7,0x36
    800058bc:	417dd533          	sra	a0,s11,s7
    800058c0:	56fd                	li	a3,-1
    800058c2:	00ce1c1b          	slliw	s8,t3,0xc
    800058c6:	02fffcb3          	remu	s9,t6,a5
    800058ca:	e305                	bnez	a4,800058ea <main_36+0x29e>
    800058cc:	8c79                	and	s0,s0,a4
    800058ce:	41660233          	sub	tp,a2,s6
    800058d2:	0cc1881b          	addiw	a6,gp,204
    800058d6:	02b2dc33          	divu	s8,t0,a1
    800058da:	5be3e993          	ori	s3,t2,1470
    800058de:	01b60b63          	beq	a2,s11,800058f4 <main_36+0x2a8>
    800058e2:	4368d313          	srai	t1,a7,0x36
    800058e6:	41bb519b          	sraiw	gp,s6,0x1b
    800058ea:	000725b3          	sltz	a1,a4
    800058ee:	edf82113          	slti	sp,a6,-289
    800058f2:	e339                	bnez	a4,80005938 <main_36+0x2ec>
    800058f4:	03272133          	mulhsu	sp,a4,s2
    800058f8:	9d01                	subw	a0,a0,s0
    800058fa:	01a31093          	slli	ra,t1,0x1a
    800058fe:	000b561b          	srliw	a2,s6,0x0
    80005902:	02eb76bb          	remuw	a3,s6,a4
    80005906:	0cc1881b          	addiw	a6,gp,204
    8000590a:	04d04563          	bgtz	a3,80005954 <main_36+0x308>
    8000590e:	02a986bb          	mulw	a3,s3,a0
    80005912:	0001                	nop
    80005914:	03f76733          	rem	a4,a4,t6
    80005918:	000725b3          	sltz	a1,a4
    8000591c:	03d44f3b          	divw	t5,s0,t4
    80005920:	03498fb3          	mul	t6,s3,s4
    80005924:	00ce1c1b          	slliw	s8,t3,0xc
    80005928:	86d9                	srai	a3,a3,0x16
    8000592a:	93a6ba13          	sltiu	s4,a3,-1734
    8000592e:	0085e263          	bltu	a1,s0,80005932 <main_36+0x2e6>
    80005932:	00ce1c1b          	slliw	s8,t3,0xc
    80005936:	89d9                	andi	a1,a1,22
    80005938:	02415b3b          	divuw	s6,sp,tp
    8000593c:	03eec933          	div	s2,t4,t5
    80005940:	4368d313          	srai	t1,a7,0x36
    80005944:	93a6ba13          	sltiu	s4,a3,-1734
    80005948:	05b60263          	beq	a2,s11,8000598c <main_36+0x340>
    8000594c:	0cc1881b          	addiw	a6,gp,204
    80005950:	02a986bb          	mulw	a3,s3,a0
    80005954:	09730a93          	addi	s5,t1,151
    80005958:	02415b3b          	divuw	s6,sp,tp
    8000595c:	02deedbb          	remw	s11,t4,a3
    80005960:	01b95363          	bge	s2,s11,80005966 <main_36+0x31a>
    80005964:	0aa6                	slli	s5,s5,0x9
    80005966:	02fffcb3          	remu	s9,t6,a5
    8000596a:	0001                	nop
    8000596c:	003de5b3          	or	a1,s11,gp
    80005970:	03f76733          	rem	a4,a4,t6
    80005974:	86d9                	srai	a3,a3,0x16
    80005976:	03f76733          	rem	a4,a4,t6
    8000597a:	93a6ba13          	sltiu	s4,a3,-1734
    8000597e:	09730a93          	addi	s5,t1,151
    80005982:	8a3a                	mv	s4,a4
    80005984:	02fffcb3          	remu	s9,t6,a5
    80005988:	03f76733          	rem	a4,a4,t6
    8000598c:	8a3a                	mv	s4,a4
    8000598e:	03b95963          	bge	s2,s11,800059c0 <main_36+0x374>
    80005992:	41660233          	sub	tp,a2,s6
    80005996:	04a9                	addi	s1,s1,10
    80005998:	01e203b3          	add	t2,tp,t5
    8000599c:	8e49                	or	a2,a2,a0
    8000599e:	0085e963          	bltu	a1,s0,800059b0 <main_36+0x364>
    800059a2:	40dc89bb          	subw	s3,s9,a3
    800059a6:	000807bb          	addw	a5,a6,zero
    800059aa:	0085ed63          	bltu	a1,s0,800059c4 <main_36+0x378>
    800059ae:	89d9                	andi	a1,a1,22
    800059b0:	9d01                	subw	a0,a0,s0
    800059b2:	02415b3b          	divuw	s6,sp,tp
    800059b6:	0094bb33          	sltu	s6,s1,s1
    800059ba:	9a7e                	add	s4,s4,t6
    800059bc:	0085e463          	bltu	a1,s0,800059c4 <main_36+0x378>
    800059c0:	003de5b3          	or	a1,s11,gp
    800059c4:	009bf563          	bgeu	s7,s1,800059ce <main_36+0x382>
    800059c8:	003de5b3          	or	a1,s11,gp
    800059cc:	0aa6                	slli	s5,s5,0x9
    800059ce:	8c21                	xor	s0,s0,s0
    800059d0:	9a7e                	add	s4,s4,t6
    800059d2:	03eec933          	div	s2,t4,t5
    800059d6:	0588                	addi	a0,sp,704
    800059d8:	56fd                	li	a3,-1
    800059da:	28d0f213          	andi	tp,ra,653
    800059de:	00d04563          	bgtz	a3,800059e8 <main_36+0x39c>
    800059e2:	02d04863          	bgtz	a3,80005a12 <main_36+0x3c6>
    800059e6:	89d9                	andi	a1,a1,22
    800059e8:	8c79                	and	s0,s0,a4
    800059ea:	8c21                	xor	s0,s0,s0
    800059ec:	000725b3          	sltz	a1,a4
    800059f0:	9db9                	addw	a1,a1,a4
    800059f2:	86d9                	srai	a3,a3,0x16
    800059f4:	8c21                	xor	s0,s0,s0
    800059f6:	00ce1c1b          	slliw	s8,t3,0xc
    800059fa:	00ce1c1b          	slliw	s8,t3,0xc
    800059fe:	0091ddb3          	srl	s11,gp,s1
    80005a02:	3f7d                	addiw	t5,t5,-1
    80005a04:	02b2dc33          	divu	s8,t0,a1
    80005a08:	40dc89bb          	subw	s3,s9,a3
    80005a0c:	01ca4133          	xor	sp,s4,t3
    80005a10:	04a9                	addi	s1,s1,10
    80005a12:	9d01                	subw	a0,a0,s0
    80005a14:	01a31093          	slli	ra,t1,0x1a
    80005a18:	8c79                	and	s0,s0,a4
    80005a1a:	717d                	addi	sp,sp,-16
    80005a1c:	02eb76bb          	remuw	a3,s6,a4
    80005a20:	3f7d                	addiw	t5,t5,-1
    80005a22:	04a9                	addi	s1,s1,10
    80005a24:	86d9                	srai	a3,a3,0x16
    80005a26:	02d04863          	bgtz	a3,80005a56 <main_36+0x40a>
    80005a2a:	000807bb          	addw	a5,a6,zero
    80005a2e:	41bb519b          	sraiw	gp,s6,0x1b
    80005a32:	8a3a                	mv	s4,a4
    80005a34:	03f76733          	rem	a4,a4,t6
    80005a38:	02a986bb          	mulw	a3,s3,a0
    80005a3c:	3f7d                	addiw	t5,t5,-1
    80005a3e:	009bf363          	bgeu	s7,s1,80005a44 <main_36+0x3f8>
    80005a42:	8f8d                	sub	a5,a5,a1
    80005a44:	000b561b          	srliw	a2,s6,0x0
    80005a48:	0588                	addi	a0,sp,704
    80005a4a:	9db9                	addw	a1,a1,a4
    80005a4c:	e3314393          	xori	t2,sp,-461
    80005a50:	023830b3          	mulhu	ra,a6,gp
    80005a54:	717d                	addi	sp,sp,-16
    80005a56:	02415b3b          	divuw	s6,sp,tp
    80005a5a:	41660233          	sub	tp,a2,s6
    80005a5e:	8c79                	and	s0,s0,a4
    80005a60:	93a6ba13          	sltiu	s4,a3,-1734
    80005a64:	000725b3          	sltz	a1,a4
    80005a68:	e3314393          	xori	t2,sp,-461
    80005a6c:	41205ebb          	sraw	t4,zero,s2
    80005a70:	8e49                	or	a2,a2,a0
    80005a72:	84627b37          	lui	s6,0x84627
    80005a76:	023830b3          	mulhu	ra,a6,gp
    80005a7a:	01a31093          	slli	ra,t1,0x1a
    80005a7e:	002495b3          	sll	a1,s1,sp
    80005a82:	0001                	nop
    80005a84:	00ce1c1b          	slliw	s8,t3,0xc
    80005a88:	56fd                	li	a3,-1
    80005a8a:	09730a93          	addi	s5,t1,151
    80005a8e:	0094bb33          	sltu	s6,s1,s1
    80005a92:	0588                	addi	a0,sp,704
    80005a94:	01ca4133          	xor	sp,s4,t3
    80005a98:	0091ddb3          	srl	s11,gp,s1
    80005a9c:	0001                	nop
    80005a9e:	8c79                	and	s0,s0,a4
    80005aa0:	9d01                	subw	a0,a0,s0
    80005aa2:	02eb76bb          	remuw	a3,s6,a4
    80005aa6:	03eec933          	div	s2,t4,t5
    80005aaa:	9a7e                	add	s4,s4,t6
    80005aac:	0588                	addi	a0,sp,704
    80005aae:	00d04e63          	bgtz	a3,80005aca <main_36+0x47e>
    80005ab2:	9d01                	subw	a0,a0,s0
    80005ab4:	41660233          	sub	tp,a2,s6
    80005ab8:	0085e263          	bltu	a1,s0,80005abc <main_36+0x470>
    80005abc:	41660233          	sub	tp,a2,s6
    80005ac0:	86d9                	srai	a3,a3,0x16
    80005ac2:	03272133          	mulhsu	sp,a4,s2
    80005ac6:	82f9                	srli	a3,a3,0x1e
    80005ac8:	0588                	addi	a0,sp,704
    80005aca:	8c79                	and	s0,s0,a4
    80005acc:	09730a93          	addi	s5,t1,151
    80005ad0:	0a6c4417          	auipc	s0,0xa6c4
    80005ad4:	02deedbb          	remw	s11,t4,a3
    80005ad8:	02061833          	mulh	a6,a2,zero
    80005adc:	03498fb3          	mul	t6,s3,s4
    80005ae0:	69ad                	lui	s3,0xb
    80005ae2:	02061833          	mulh	a6,a2,zero
    80005ae6:	e3314393          	xori	t2,sp,-461
    80005aea:	82f9                	srli	a3,a3,0x1e
    80005aec:	0285e463          	bltu	a1,s0,80005b14 <main_36+0x4c8>
    80005af0:	eb0d                	bnez	a4,80005b22 <main_36+0x4d6>
    80005af2:	e3314393          	xori	t2,sp,-461
    80005af6:	41660233          	sub	tp,a2,s6
    80005afa:	41205ebb          	sraw	t4,zero,s2
    80005afe:	03272133          	mulhsu	sp,a4,s2
    80005b02:	01ca4133          	xor	sp,s4,t3
    80005b06:	0001                	nop
    80005b08:	02061833          	mulh	a6,a2,zero
    80005b0c:	8e49                	or	a2,a2,a0
    80005b0e:	8e49                	or	a2,a2,a0
    80005b10:	02415b3b          	divuw	s6,sp,tp
    80005b14:	8a3a                	mv	s4,a4
    80005b16:	8f8d                	sub	a5,a5,a1
    80005b18:	8f8d                	sub	a5,a5,a1
    80005b1a:	02061833          	mulh	a6,a2,zero
    80005b1e:	049bf163          	bgeu	s7,s1,80005b60 <main_36+0x514>
    80005b22:	ef05                	bnez	a4,80005b5a <main_36+0x50e>
    80005b24:	03d44f3b          	divw	t5,s0,t4
    80005b28:	029bf563          	bgeu	s7,s1,80005b52 <main_36+0x506>
    80005b2c:	04a9                	addi	s1,s1,10
    80005b2e:	40dc89bb          	subw	s3,s9,a3
    80005b32:	00ce1c1b          	slliw	s8,t3,0xc
    80005b36:	82f9                	srli	a3,a3,0x1e
    80005b38:	41660233          	sub	tp,a2,s6
    80005b3c:	69ad                	lui	s3,0xb
    80005b3e:	e3314393          	xori	t2,sp,-461
    80005b42:	edf82113          	slti	sp,a6,-289
    80005b46:	023830b3          	mulhu	ra,a6,gp
    80005b4a:	00ce1c1b          	slliw	s8,t3,0xc
    80005b4e:	00d316bb          	sllw	a3,t1,a3
    80005b52:	023830b3          	mulhu	ra,a6,gp
    80005b56:	40dc89bb          	subw	s3,s9,a3
    80005b5a:	0001                	nop
    80005b5c:	03b60563          	beq	a2,s11,80005b86 <main_36+0x53a>
    80005b60:	8a3a                	mv	s4,a4
    80005b62:	03272133          	mulhsu	sp,a4,s2
    80005b66:	029bf063          	bgeu	s7,s1,80005b86 <main_36+0x53a>
    80005b6a:	00ce1c1b          	slliw	s8,t3,0xc
    80005b6e:	9d01                	subw	a0,a0,s0
    80005b70:	01a31093          	slli	ra,t1,0x1a
    80005b74:	002495b3          	sll	a1,s1,sp
    80005b78:	0588                	addi	a0,sp,704
    80005b7a:	000725b3          	sltz	a1,a4
    80005b7e:	000b561b          	srliw	a2,s6,0x0
    80005b82:	8f8d                	sub	a5,a5,a1
    80005b84:	86d9                	srai	a3,a3,0x16
    80005b86:	04a9                	addi	s1,s1,10
    80005b88:	03b60f63          	beq	a2,s11,80005bc6 <main_36+0x57a>
    80005b8c:	03b60b63          	beq	a2,s11,80005bc2 <main_36+0x576>
    80005b90:	03d44f3b          	divw	t5,s0,t4
    80005b94:	09730a93          	addi	s5,t1,151
    80005b98:	9db9                	addw	a1,a1,a4
    80005b9a:	002495b3          	sll	a1,s1,sp
    80005b9e:	00d04863          	bgtz	a3,80005bae <main_36+0x562>
    80005ba2:	9a7e                	add	s4,s4,t6
    80005ba4:	09730a93          	addi	s5,t1,151
    80005ba8:	84627b37          	lui	s6,0x84627
    80005bac:	89d9                	andi	a1,a1,22
    80005bae:	69ad                	lui	s3,0xb
    80005bb0:	03272133          	mulhsu	sp,a4,s2
    80005bb4:	03d44f3b          	divw	t5,s0,t4
    80005bb8:	0001                	nop
    80005bba:	09730a93          	addi	s5,t1,151
    80005bbe:	02061833          	mulh	a6,a2,zero
    80005bc2:	000807bb          	addw	a5,a6,zero
    80005bc6:	69ad                	lui	s3,0xb
    80005bc8:	03b95563          	bge	s2,s11,80005bf2 <main_36+0x5a6>
    80005bcc:	09730a93          	addi	s5,t1,151
    80005bd0:	0a6c4417          	auipc	s0,0xa6c4
    80005bd4:	89d9                	andi	a1,a1,22
    80005bd6:	8f8d                	sub	a5,a5,a1
    80005bd8:	01ca4133          	xor	sp,s4,t3
    80005bdc:	04a9                	addi	s1,s1,10
    80005bde:	069bf263          	bgeu	s7,s1,80005c42 <main_6+0x42>
    80005be2:	02eb76bb          	remuw	a3,s6,a4
    80005be6:	00d04463          	bgtz	a3,80005bee <main_36+0x5a2>
    80005bea:	02eb76bb          	remuw	a3,s6,a4
    80005bee:	023830b3          	mulhu	ra,a6,gp
    80005bf2:	003de5b3          	or	a1,s11,gp
    80005bf6:	023830b3          	mulhu	ra,a6,gp
    80005bfa:	8f8d                	sub	a5,a5,a1
    80005bfc:	043a9e63          	bne	s5,gp,80005c58 <main_6+0x58>

0000000080005c00 <main_6>:
    80005c00:	02200eef          	jal	t4,80005c22 <main_6+0x22>
    80005c04:	006000ef          	jal	80005c0a <main_6+0xa>
    80005c08:	a811                	j	80005c1c <main_6+0x1c>
    80005c0a:	010000ef          	jal	80005c1a <main_6+0x1a>
    80005c0e:	a801                	j	80005c1e <main_6+0x1e>
    80005c10:	a009                	j	80005c12 <main_6+0x12>
    80005c12:	a009                	j	80005c14 <main_6+0x14>
    80005c14:	004000ef          	jal	80005c18 <main_6+0x18>
    80005c18:	a039                	j	80005c26 <main_6+0x26>
    80005c1a:	b7fd                	j	80005c08 <main_6+0x8>
    80005c1c:	bfd5                	j	80005c10 <main_6+0x10>
    80005c1e:	fe7ff0ef          	jal	80005c04 <main_6+0x4>
    80005c22:	fedff0ef          	jal	80005c0e <main_6+0xe>
    80005c26:	00d316bb          	sllw	a3,t1,a3
    80005c2a:	8e49                	or	a2,a2,a0
    80005c2c:	0085e663          	bltu	a1,s0,80005c38 <main_6+0x38>
    80005c30:	000b561b          	srliw	a2,s6,0x0
    80005c34:	03d44f3b          	divw	t5,s0,t4
    80005c38:	03498fb3          	mul	t6,s3,s4
    80005c3c:	56fd                	li	a3,-1
    80005c3e:	4368d313          	srai	t1,a7,0x36
    80005c42:	8e49                	or	a2,a2,a0
    80005c44:	023830b3          	mulhu	ra,a6,gp
    80005c48:	41bb519b          	sraiw	gp,s6,0x1b
    80005c4c:	09730a93          	addi	s5,t1,151
    80005c50:	03498fb3          	mul	t6,s3,s4
    80005c54:	3f7d                	addiw	t5,t5,-1
    80005c56:	8c79                	and	s0,s0,a4
    80005c58:	003de5b3          	or	a1,s11,gp
    80005c5c:	9a7e                	add	s4,s4,t6
    80005c5e:	03498fb3          	mul	t6,s3,s4
    80005c62:	02deedbb          	remw	s11,t4,a3
    80005c66:	04a9                	addi	s1,s1,10
    80005c68:	0a6c4417          	auipc	s0,0xa6c4
    80005c6c:	41660233          	sub	tp,a2,s6
    80005c70:	02deedbb          	remw	s11,t4,a3
    80005c74:	84627b37          	lui	s6,0x84627
    80005c78:	03498fb3          	mul	t6,s3,s4
    80005c7c:	03498fb3          	mul	t6,s3,s4
    80005c80:	417dd533          	sra	a0,s11,s7
    80005c84:	84627b37          	lui	s6,0x84627
    80005c88:	02eb76bb          	remuw	a3,s6,a4
    80005c8c:	003de5b3          	or	a1,s11,gp
    80005c90:	c695                	beqz	a3,80005cbc <main_6+0xbc>
    80005c92:	02415b3b          	divuw	s6,sp,tp
    80005c96:	0001                	nop
    80005c98:	8a3a                	mv	s4,a4
    80005c9a:	0094bb33          	sltu	s6,s1,s1
    80005c9e:	0285e163          	bltu	a1,s0,80005cc0 <main_6+0xc0>
    80005ca2:	03b95b63          	bge	s2,s11,80005cd8 <main_6+0xd8>
    80005ca6:	3f7d                	addiw	t5,t5,-1
    80005ca8:	00ce1c1b          	slliw	s8,t3,0xc
    80005cac:	01b55bbb          	srlw	s7,a0,s11
    80005cb0:	03d44f3b          	divw	t5,s0,t4
    80005cb4:	0cc1881b          	addiw	a6,gp,204
    80005cb8:	03b95763          	bge	s2,s11,80005ce6 <main_6+0xe6>
    80005cbc:	00d316bb          	sllw	a3,t1,a3
    80005cc0:	9db9                	addw	a1,a1,a4
    80005cc2:	41205ebb          	sraw	t4,zero,s2
    80005cc6:	69ad                	lui	s3,0xb
    80005cc8:	03272133          	mulhsu	sp,a4,s2
    80005ccc:	01b60f63          	beq	a2,s11,80005cea <main_6+0xea>
    80005cd0:	0001                	nop
    80005cd2:	82f9                	srli	a3,a3,0x1e
    80005cd4:	01e203b3          	add	t2,tp,t5
    80005cd8:	56fd                	li	a3,-1
    80005cda:	0001                	nop
    80005cdc:	002495b3          	sll	a1,s1,sp
    80005ce0:	69ad                	lui	s3,0xb
    80005ce2:	56fd                	li	a3,-1
    80005ce4:	c291                	beqz	a3,80005ce8 <main_6+0xe8>
    80005ce6:	0001                	nop
    80005ce8:	69ad                	lui	s3,0xb
    80005cea:	8f8d                	sub	a5,a5,a1
    80005cec:	02deedbb          	remw	s11,t4,a3
    80005cf0:	0aa6                	slli	s5,s5,0x9
    80005cf2:	93a6ba13          	sltiu	s4,a3,-1734
    80005cf6:	0aa6                	slli	s5,s5,0x9
    80005cf8:	0a6c4417          	auipc	s0,0xa6c4
    80005cfc:	00d04263          	bgtz	a3,80005d00 <main_6+0x100>
    80005d00:	04a9                	addi	s1,s1,10
    80005d02:	9d01                	subw	a0,a0,s0
    80005d04:	02a986bb          	mulw	a3,s3,a0
    80005d08:	02eb76bb          	remuw	a3,s6,a4
    80005d0c:	0cc1881b          	addiw	a6,gp,204
    80005d10:	eb01                	bnez	a4,80005d20 <main_6+0x120>
    80005d12:	3f7d                	addiw	t5,t5,-1
    80005d14:	41660233          	sub	tp,a2,s6
    80005d18:	8c79                	and	s0,s0,a4
    80005d1a:	86d9                	srai	a3,a3,0x16
    80005d1c:	00d04963          	bgtz	a3,80005d2e <main_6+0x12e>
    80005d20:	00d316bb          	sllw	a3,t1,a3
    80005d24:	41bb519b          	sraiw	gp,s6,0x1b
    80005d28:	417dd533          	sra	a0,s11,s7
    80005d2c:	82f9                	srli	a3,a3,0x1e
    80005d2e:	0588                	addi	a0,sp,704
    80005d30:	9d01                	subw	a0,a0,s0
    80005d32:	02d04a63          	bgtz	a3,80005d66 <main_6+0x166>
    80005d36:	0166feb3          	and	t4,a3,s6
    80005d3a:	0588                	addi	a0,sp,704
    80005d3c:	e3314393          	xori	t2,sp,-461
    80005d40:	0aa6                	slli	s5,s5,0x9
    80005d42:	69ad                	lui	s3,0xb
    80005d44:	69ad                	lui	s3,0xb
    80005d46:	01ca4133          	xor	sp,s4,t3
    80005d4a:	e3314393          	xori	t2,sp,-461
    80005d4e:	00d316bb          	sllw	a3,t1,a3
    80005d52:	0885e163          	bltu	a1,s0,80005dd4 <main_22+0x6a>
    80005d56:	86d9                	srai	a3,a3,0x16
    80005d58:	002495b3          	sll	a1,s1,sp
    80005d5c:	8f8d                	sub	a5,a5,a1
    80005d5e:	93a6ba13          	sltiu	s4,a3,-1734
    80005d62:	41bb519b          	sraiw	gp,s6,0x1b
    80005d66:	00ce1c1b          	slliw	s8,t3,0xc

0000000080005d6a <main_22>:
    80005d6a:	04a00eef          	jal	t4,80005db4 <main_22+0x4a>
    80005d6e:	04e000ef          	jal	80005dbc <main_22+0x52>
    80005d72:	038000ef          	jal	80005daa <main_22+0x40>
    80005d76:	00c000ef          	jal	80005d82 <main_22+0x18>
    80005d7a:	046000ef          	jal	80005dc0 <main_22+0x56>
    80005d7e:	044000ef          	jal	80005dc2 <main_22+0x58>
    80005d82:	a029                	j	80005d8c <main_22+0x22>
    80005d84:	a819                	j	80005d9a <main_22+0x30>
    80005d86:	02a000ef          	jal	80005db0 <main_22+0x46>
    80005d8a:	bfed                	j	80005d84 <main_22+0x1a>
    80005d8c:	03a000ef          	jal	80005dc6 <main_22+0x5c>
    80005d90:	038000ef          	jal	80005dc8 <main_22+0x5e>
    80005d94:	fe3ff0ef          	jal	80005d76 <main_22+0xc>
    80005d98:	a815                	j	80005dcc <main_22+0x62>
    80005d9a:	004000ef          	jal	80005d9e <main_22+0x34>
    80005d9e:	ffbff0ef          	jal	80005d98 <main_22+0x2e>
    80005da2:	fddff0ef          	jal	80005d7e <main_22+0x14>
    80005da6:	fe1ff0ef          	jal	80005d86 <main_22+0x1c>
    80005daa:	fe1ff0ef          	jal	80005d8a <main_22+0x20>
    80005dae:	b7c1                	j	80005d6e <main_22+0x4>
    80005db0:	b7c9                	j	80005d72 <main_22+0x8>
    80005db2:	bfc5                	j	80005da2 <main_22+0x38>
    80005db4:	fe1ff0ef          	jal	80005d94 <main_22+0x2a>
    80005db8:	fd9ff0ef          	jal	80005d90 <main_22+0x26>
    80005dbc:	ff7ff0ef          	jal	80005db2 <main_22+0x48>
    80005dc0:	b7dd                	j	80005da6 <main_22+0x3c>
    80005dc2:	ff7ff0ef          	jal	80005db8 <main_22+0x4e>
    80005dc6:	b7e5                	j	80005dae <main_22+0x44>
    80005dc8:	fb3ff0ef          	jal	80005d7a <main_22+0x10>
    80005dcc:	000b561b          	srliw	a2,s6,0x0
    80005dd0:	93a6ba13          	sltiu	s4,a3,-1734
    80005dd4:	89d9                	andi	a1,a1,22
    80005dd6:	01e203b3          	add	t2,tp,t5
    80005dda:	003de5b3          	or	a1,s11,gp
    80005dde:	02b2dc33          	divu	s8,t0,a1
    80005de2:	8c21                	xor	s0,s0,s0
    80005de4:	c2a9                	beqz	a3,80005e26 <main_22+0xbc>
    80005de6:	4368d313          	srai	t1,a7,0x36
    80005dea:	41660233          	sub	tp,a2,s6
    80005dee:	03272133          	mulhsu	sp,a4,s2
    80005df2:	000b561b          	srliw	a2,s6,0x0
    80005df6:	69ad                	lui	s3,0xb
    80005df8:	8c79                	and	s0,s0,a4
    80005dfa:	8f8d                	sub	a5,a5,a1
    80005dfc:	03d44f3b          	divw	t5,s0,t4
    80005e00:	8f8d                	sub	a5,a5,a1
    80005e02:	02415b3b          	divuw	s6,sp,tp
    80005e06:	28d0f213          	andi	tp,ra,653
    80005e0a:	01b60563          	beq	a2,s11,80005e14 <main_22+0xaa>
    80005e0e:	3f7d                	addiw	t5,t5,-1
    80005e10:	043a9363          	bne	s5,gp,80005e56 <main_22+0xec>
    80005e14:	28d0f213          	andi	tp,ra,653
    80005e18:	01ca4133          	xor	sp,s4,t3
    80005e1c:	edf82113          	slti	sp,a6,-289
    80005e20:	000b561b          	srliw	a2,s6,0x0
    80005e24:	8c79                	and	s0,s0,a4
    80005e26:	0166feb3          	and	t4,a3,s6
    80005e2a:	417dd533          	sra	a0,s11,s7
    80005e2e:	84627b37          	lui	s6,0x84627
    80005e32:	717d                	addi	sp,sp,-16
    80005e34:	00d316bb          	sllw	a3,t1,a3
    80005e38:	41205ebb          	sraw	t4,zero,s2
    80005e3c:	00d316bb          	sllw	a3,t1,a3
    80005e40:	e3314393          	xori	t2,sp,-461
    80005e44:	69ad                	lui	s3,0xb
    80005e46:	000807bb          	addw	a5,a6,zero
    80005e4a:	03b60a63          	beq	a2,s11,80005e7e <main_22+0x114>
    80005e4e:	00d04463          	bgtz	a3,80005e56 <main_22+0xec>
    80005e52:	4368d313          	srai	t1,a7,0x36
    80005e56:	93a6ba13          	sltiu	s4,a3,-1734
    80005e5a:	8c79                	and	s0,s0,a4
    80005e5c:	4368d313          	srai	t1,a7,0x36
    80005e60:	0094bb33          	sltu	s6,s1,s1
    80005e64:	03272133          	mulhsu	sp,a4,s2
    80005e68:	e30d                	bnez	a4,80005e8a <main_22+0x120>
    80005e6a:	0a6c4417          	auipc	s0,0xa6c4
    80005e6e:	01b95863          	bge	s2,s11,80005e7e <main_22+0x114>
    80005e72:	8c21                	xor	s0,s0,s0
    80005e74:	03f76733          	rem	a4,a4,t6
    80005e78:	0001                	nop
    80005e7a:	93a6ba13          	sltiu	s4,a3,-1734
    80005e7e:	09730a93          	addi	s5,t1,151
    80005e82:	0a6c4417          	auipc	s0,0xa6c4
    80005e86:	40dc89bb          	subw	s3,s9,a3
    80005e8a:	41bb519b          	sraiw	gp,s6,0x1b
    80005e8e:	0cc1881b          	addiw	a6,gp,204
    80005e92:	0a6c4417          	auipc	s0,0xa6c4
    80005e96:	0cc1881b          	addiw	a6,gp,204
    80005e9a:	01b95363          	bge	s2,s11,80005ea0 <main_22+0x136>
    80005e9e:	0aa6                	slli	s5,s5,0x9
    80005ea0:	89d9                	andi	a1,a1,22
    80005ea2:	41205ebb          	sraw	t4,zero,s2
    80005ea6:	000b561b          	srliw	a2,s6,0x0
    80005eaa:	09730a93          	addi	s5,t1,151
    80005eae:	01ca4133          	xor	sp,s4,t3
    80005eb2:	82f9                	srli	a3,a3,0x1e
    80005eb4:	93a6ba13          	sltiu	s4,a3,-1734
    80005eb8:	717d                	addi	sp,sp,-16
    80005eba:	003de5b3          	or	a1,s11,gp
    80005ebe:	000807bb          	addw	a5,a6,zero
    80005ec2:	02061833          	mulh	a6,a2,zero
    80005ec6:	023830b3          	mulhu	ra,a6,gp
    80005eca:	03272133          	mulhsu	sp,a4,s2
    80005ece:	41660233          	sub	tp,a2,s6
    80005ed2:	0aa6                	slli	s5,s5,0x9
    80005ed4:	ce89                	beqz	a3,80005eee <main_22+0x184>
    80005ed6:	0001                	nop
    80005ed8:	56fd                	li	a3,-1
    80005eda:	0094bb33          	sltu	s6,s1,s1
    80005ede:	00d316bb          	sllw	a3,t1,a3
    80005ee2:	93a6ba13          	sltiu	s4,a3,-1734
    80005ee6:	0285ec63          	bltu	a1,s0,80005f1e <main_22+0x1b4>
    80005eea:	82f9                	srli	a3,a3,0x1e
    80005eec:	c2a1                	beqz	a3,80005f2c <main_22+0x1c2>
    80005eee:	4368d313          	srai	t1,a7,0x36
    80005ef2:	9d01                	subw	a0,a0,s0
    80005ef4:	93a6ba13          	sltiu	s4,a3,-1734
    80005ef8:	0094bb33          	sltu	s6,s1,s1
    80005efc:	03272133          	mulhsu	sp,a4,s2
    80005f00:	717d                	addi	sp,sp,-16
    80005f02:	00d316bb          	sllw	a3,t1,a3
    80005f06:	00d04263          	bgtz	a3,80005f0a <main_22+0x1a0>
    80005f0a:	3f7d                	addiw	t5,t5,-1
    80005f0c:	8c79                	and	s0,s0,a4
    80005f0e:	04a9                	addi	s1,s1,10
    80005f10:	41bb519b          	sraiw	gp,s6,0x1b
    80005f14:	9db9                	addw	a1,a1,a4
    80005f16:	02fffcb3          	remu	s9,t6,a5
    80005f1a:	edf82113          	slti	sp,a6,-289
    80005f1e:	86d9                	srai	a3,a3,0x16
    80005f20:	84627b37          	lui	s6,0x84627
    80005f24:	40dc89bb          	subw	s3,s9,a3
    80005f28:	05b95163          	bge	s2,s11,80005f6a <main_22+0x200>
    80005f2c:	0cc1881b          	addiw	a6,gp,204
    80005f30:	84627b37          	lui	s6,0x84627
    80005f34:	28d0f213          	andi	tp,ra,653
    80005f38:	8c21                	xor	s0,s0,s0
    80005f3a:	02a986bb          	mulw	a3,s3,a0
    80005f3e:	0cc1881b          	addiw	a6,gp,204
    80005f42:	03272133          	mulhsu	sp,a4,s2
    80005f46:	edf82113          	slti	sp,a6,-289
    80005f4a:	04a9                	addi	s1,s1,10
    80005f4c:	003de5b3          	or	a1,s11,gp
    80005f50:	0091ddb3          	srl	s11,gp,s1
    80005f54:	03f76733          	rem	a4,a4,t6
    80005f58:	717d                	addi	sp,sp,-16
    80005f5a:	0001                	nop
    80005f5c:	8f8d                	sub	a5,a5,a1
    80005f5e:	0cc1881b          	addiw	a6,gp,204
    80005f62:	049bf063          	bgeu	s7,s1,80005fa2 <main_22+0x238>
    80005f66:	003de5b3          	or	a1,s11,gp
    80005f6a:	01ca4133          	xor	sp,s4,t3
    80005f6e:	03b95a63          	bge	s2,s11,80005fa2 <main_22+0x238>
    80005f72:	8c21                	xor	s0,s0,s0
    80005f74:	56fd                	li	a3,-1
    80005f76:	02415b3b          	divuw	s6,sp,tp
    80005f7a:	01b95863          	bge	s2,s11,80005f8a <main_22+0x220>
    80005f7e:	000b561b          	srliw	a2,s6,0x0
    80005f82:	0001                	nop
    80005f84:	86d9                	srai	a3,a3,0x16
    80005f86:	41660233          	sub	tp,a2,s6
    80005f8a:	0285ea63          	bltu	a1,s0,80005fbe <main_22+0x254>
    80005f8e:	9a7e                	add	s4,s4,t6
    80005f90:	03498fb3          	mul	t6,s3,s4
    80005f94:	4368d313          	srai	t1,a7,0x36
    80005f98:	3f7d                	addiw	t5,t5,-1
    80005f9a:	02deedbb          	remw	s11,t4,a3
    80005f9e:	000807bb          	addw	a5,a6,zero
    80005fa2:	3f7d                	addiw	t5,t5,-1
    80005fa4:	03f76733          	rem	a4,a4,t6
    80005fa8:	01b60363          	beq	a2,s11,80005fae <main_22+0x244>
    80005fac:	ef19                	bnez	a4,80005fca <main_22+0x260>
    80005fae:	01b60663          	beq	a2,s11,80005fba <main_22+0x250>
    80005fb2:	029bf163          	bgeu	s7,s1,80005fd4 <main_22+0x26a>
    80005fb6:	01b60d63          	beq	a2,s11,80005fd0 <main_22+0x266>
    80005fba:	40dc89bb          	subw	s3,s9,a3
    80005fbe:	56fd                	li	a3,-1
    80005fc0:	9a7e                	add	s4,s4,t6
    80005fc2:	018a5213          	srli	tp,s4,0x18
    80005fc6:	00ce1c1b          	slliw	s8,t3,0xc
    80005fca:	82f9                	srli	a3,a3,0x1e
    80005fcc:	000725b3          	sltz	a1,a4
    80005fd0:	edf82113          	slti	sp,a6,-289
    80005fd4:	84627b37          	lui	s6,0x84627
    80005fd8:	e3314393          	xori	t2,sp,-461
    80005fdc:	eb09                	bnez	a4,80005fee <main_22+0x284>
    80005fde:	018a5213          	srli	tp,s4,0x18
    80005fe2:	03d44f3b          	divw	t5,s0,t4
    80005fe6:	84627b37          	lui	s6,0x84627
    80005fea:	000807bb          	addw	a5,a6,zero
    80005fee:	e3314393          	xori	t2,sp,-461
    80005ff2:	00d04863          	bgtz	a3,80006002 <main_22+0x298>
    80005ff6:	8e49                	or	a2,a2,a0
    80005ff8:	69ad                	lui	s3,0xb
    80005ffa:	02deedbb          	remw	s11,t4,a3
    80005ffe:	03eec933          	div	s2,t4,t5
    80006002:	0aa6                	slli	s5,s5,0x9
    80006004:	0aa6                	slli	s5,s5,0x9
    80006006:	01b55bbb          	srlw	s7,a0,s11
    8000600a:	717d                	addi	sp,sp,-16
    8000600c:	89d9                	andi	a1,a1,22
    8000600e:	02a986bb          	mulw	a3,s3,a0
    80006012:	8c21                	xor	s0,s0,s0
    80006014:	03f76733          	rem	a4,a4,t6
    80006018:	02fffcb3          	remu	s9,t6,a5
    8000601c:	018a5213          	srli	tp,s4,0x18
    80006020:	28d0f213          	andi	tp,ra,653
    80006024:	40dc89bb          	subw	s3,s9,a3
    80006028:	0001                	nop
    8000602a:	002495b3          	sll	a1,s1,sp
    8000602e:	02deedbb          	remw	s11,t4,a3
    80006032:	0485e463          	bltu	a1,s0,8000607a <main_22+0x310>
    80006036:	41205ebb          	sraw	t4,zero,s2
    8000603a:	9d01                	subw	a0,a0,s0
    8000603c:	04a9                	addi	s1,s1,10
    8000603e:	41bb519b          	sraiw	gp,s6,0x1b
    80006042:	02eb76bb          	remuw	a3,s6,a4
    80006046:	003de5b3          	or	a1,s11,gp
    8000604a:	02a986bb          	mulw	a3,s3,a0
    8000604e:	01a31093          	slli	ra,t1,0x1a
    80006052:	03b60863          	beq	a2,s11,80006082 <main_22+0x318>
    80006056:	01b55bbb          	srlw	s7,a0,s11
    8000605a:	09730a93          	addi	s5,t1,151
    8000605e:	28d0f213          	andi	tp,ra,653
    80006062:	417dd533          	sra	a0,s11,s7
    80006066:	e3314393          	xori	t2,sp,-461
    8000606a:	02b2dc33          	divu	s8,t0,a1
    8000606e:	023830b3          	mulhu	ra,a6,gp
    80006072:	03d44f3b          	divw	t5,s0,t4
    80006076:	01a31093          	slli	ra,t1,0x1a
    8000607a:	04a9                	addi	s1,s1,10
    8000607c:	02b2dc33          	divu	s8,t0,a1
    80006080:	9db9                	addw	a1,a1,a4
    80006082:	03d44f3b          	divw	t5,s0,t4
    80006086:	09730a93          	addi	s5,t1,151
    8000608a:	417dd533          	sra	a0,s11,s7

000000008000608e <main_25>:
    8000608e:	02200eef          	jal	t4,800060b0 <main_25+0x22>
    80006092:	a825                	j	800060ca <main_25+0x3c>
    80006094:	a035                	j	800060c0 <main_25+0x32>
    80006096:	038000ef          	jal	800060ce <main_25+0x40>
    8000609a:	a82d                	j	800060d4 <main_25+0x46>
    8000609c:	010000ef          	jal	800060ac <main_25+0x1e>
    800060a0:	a019                	j	800060a6 <main_25+0x18>
    800060a2:	a819                	j	800060b8 <main_25+0x2a>
    800060a4:	a00d                	j	800060c6 <main_25+0x38>
    800060a6:	bfc5                	j	80006096 <main_25+0x8>
    800060a8:	01c000ef          	jal	800060c4 <main_25+0x36>
    800060ac:	ff7ff0ef          	jal	800060a2 <main_25+0x14>
    800060b0:	b7d5                	j	80006094 <main_25+0x6>
    800060b2:	bfcd                	j	800060a4 <main_25+0x16>
    800060b4:	fe7ff0ef          	jal	8000609a <main_25+0xc>
    800060b8:	ff1ff0ef          	jal	800060a8 <main_25+0x1a>
    800060bc:	ff7ff0ef          	jal	800060b2 <main_25+0x24>
    800060c0:	fd3ff0ef          	jal	80006092 <main_25+0x4>
    800060c4:	a039                	j	800060d2 <main_25+0x44>
    800060c6:	fdbff0ef          	jal	800060a0 <main_25+0x12>
    800060ca:	ff3ff0ef          	jal	800060bc <main_25+0x2e>
    800060ce:	fcfff0ef          	jal	8000609c <main_25+0xe>
    800060d2:	b7cd                	j	800060b4 <main_25+0x26>
    800060d4:	023830b3          	mulhu	ra,a6,gp
    800060d8:	edf82113          	slti	sp,a6,-289
    800060dc:	023830b3          	mulhu	ra,a6,gp
    800060e0:	049bf263          	bgeu	s7,s1,80006124 <main_25+0x96>
    800060e4:	9a7e                	add	s4,s4,t6
    800060e6:	8e49                	or	a2,a2,a0
    800060e8:	93a6ba13          	sltiu	s4,a3,-1734
    800060ec:	8c79                	and	s0,s0,a4
    800060ee:	0aa6                	slli	s5,s5,0x9
    800060f0:	03eec933          	div	s2,t4,t5
    800060f4:	03b60063          	beq	a2,s11,80006114 <main_25+0x86>
    800060f8:	023830b3          	mulhu	ra,a6,gp
    800060fc:	8f8d                	sub	a5,a5,a1
    800060fe:	86d9                	srai	a3,a3,0x16
    80006100:	01e203b3          	add	t2,tp,t5
    80006104:	0a6c4417          	auipc	s0,0xa6c4
    80006108:	41660233          	sub	tp,a2,s6
    8000610c:	e3314393          	xori	t2,sp,-461
    80006110:	00ce1c1b          	slliw	s8,t3,0xc
    80006114:	02a986bb          	mulw	a3,s3,a0
    80006118:	01b55bbb          	srlw	s7,a0,s11
    8000611c:	03d44f3b          	divw	t5,s0,t4
    80006120:	0a6c4417          	auipc	s0,0xa6c4
    80006124:	5be3e993          	ori	s3,t2,1470
    80006128:	009bf363          	bgeu	s7,s1,8000612e <main_25+0xa0>
    8000612c:	8f8d                	sub	a5,a5,a1
    8000612e:	03272133          	mulhsu	sp,a4,s2
    80006132:	717d                	addi	sp,sp,-16
    80006134:	9d01                	subw	a0,a0,s0
    80006136:	04a9                	addi	s1,s1,10
    80006138:	01b55bbb          	srlw	s7,a0,s11
    8000613c:	417dd533          	sra	a0,s11,s7
    80006140:	0588                	addi	a0,sp,704
    80006142:	56fd                	li	a3,-1
    80006144:	8c21                	xor	s0,s0,s0
    80006146:	edf82113          	slti	sp,a6,-289
    8000614a:	01a31093          	slli	ra,t1,0x1a
    8000614e:	000725b3          	sltz	a1,a4
    80006152:	023830b3          	mulhu	ra,a6,gp
    80006156:	03498fb3          	mul	t6,s3,s4
    8000615a:	00d04263          	bgtz	a3,8000615e <main_25+0xd0>
    8000615e:	41660233          	sub	tp,a2,s6
    80006162:	000725b3          	sltz	a1,a4
    80006166:	02a986bb          	mulw	a3,s3,a0
    8000616a:	8c21                	xor	s0,s0,s0
    8000616c:	40dc89bb          	subw	s3,s9,a3
    80006170:	03f76733          	rem	a4,a4,t6
    80006174:	00d316bb          	sllw	a3,t1,a3
    80006178:	86d9                	srai	a3,a3,0x16
    8000617a:	00d316bb          	sllw	a3,t1,a3
    8000617e:	4368d313          	srai	t1,a7,0x36
    80006182:	9a7e                	add	s4,s4,t6
    80006184:	41bb519b          	sraiw	gp,s6,0x1b
    80006188:	69ad                	lui	s3,0xb
    8000618a:	5be3e993          	ori	s3,t2,1470
    8000618e:	018a5213          	srli	tp,s4,0x18
    80006192:	000b561b          	srliw	a2,s6,0x0
    80006196:	9d01                	subw	a0,a0,s0
    80006198:	0094bb33          	sltu	s6,s1,s1
    8000619c:	03eec933          	div	s2,t4,t5
    800061a0:	c2a1                	beqz	a3,800061e0 <main_25+0x152>
    800061a2:	8c79                	and	s0,s0,a4
    800061a4:	8c79                	and	s0,s0,a4
    800061a6:	003de5b3          	or	a1,s11,gp
    800061aa:	89d9                	andi	a1,a1,22
    800061ac:	02b2dc33          	divu	s8,t0,a1
    800061b0:	41bb519b          	sraiw	gp,s6,0x1b
    800061b4:	86d9                	srai	a3,a3,0x16
    800061b6:	00ce1c1b          	slliw	s8,t3,0xc
    800061ba:	023a9a63          	bne	s5,gp,800061ee <main_25+0x160>
    800061be:	717d                	addi	sp,sp,-16
    800061c0:	01b55bbb          	srlw	s7,a0,s11
    800061c4:	00d316bb          	sllw	a3,t1,a3
    800061c8:	86d9                	srai	a3,a3,0x16
    800061ca:	02eb76bb          	remuw	a3,s6,a4
    800061ce:	02eb76bb          	remuw	a3,s6,a4
    800061d2:	9db9                	addw	a1,a1,a4
    800061d4:	000807bb          	addw	a5,a6,zero
    800061d8:	417dd533          	sra	a0,s11,s7
    800061dc:	5be3e993          	ori	s3,t2,1470
    800061e0:	41bb519b          	sraiw	gp,s6,0x1b
    800061e4:	01b55bbb          	srlw	s7,a0,s11
    800061e8:	417dd533          	sra	a0,s11,s7
    800061ec:	717d                	addi	sp,sp,-16
    800061ee:	9db9                	addw	a1,a1,a4
    800061f0:	8c21                	xor	s0,s0,s0
    800061f2:	0588                	addi	a0,sp,704
    800061f4:	0285ed63          	bltu	a1,s0,8000622e <main_25+0x1a0>
    800061f8:	41bb519b          	sraiw	gp,s6,0x1b
    800061fc:	023830b3          	mulhu	ra,a6,gp
    80006200:	000725b3          	sltz	a1,a4
    80006204:	0aa6                	slli	s5,s5,0x9
    80006206:	41660233          	sub	tp,a2,s6
    8000620a:	89d9                	andi	a1,a1,22
    8000620c:	28d0f213          	andi	tp,ra,653
    80006210:	28d0f213          	andi	tp,ra,653
    80006214:	4368d313          	srai	t1,a7,0x36
    80006218:	02061833          	mulh	a6,a2,zero
    8000621c:	5be3e993          	ori	s3,t2,1470
    80006220:	69ad                	lui	s3,0xb
    80006222:	023830b3          	mulhu	ra,a6,gp
    80006226:	4368d313          	srai	t1,a7,0x36
    8000622a:	41660233          	sub	tp,a2,s6
    8000622e:	0094bb33          	sltu	s6,s1,s1
    80006232:	8f8d                	sub	a5,a5,a1
    80006234:	01ca4133          	xor	sp,s4,t3
    80006238:	01e203b3          	add	t2,tp,t5
    8000623c:	003a9c63          	bne	s5,gp,80006254 <main_25+0x1c6>
    80006240:	01b60463          	beq	a2,s11,80006248 <main_25+0x1ba>
    80006244:	018a5213          	srli	tp,s4,0x18
    80006248:	5be3e993          	ori	s3,t2,1470
    8000624c:	e3314393          	xori	t2,sp,-461
    80006250:	000807bb          	addw	a5,a6,zero
    80006254:	41205ebb          	sraw	t4,zero,s2
    80006258:	02eb76bb          	remuw	a3,s6,a4
    8000625c:	4368d313          	srai	t1,a7,0x36
    80006260:	0cc1881b          	addiw	a6,gp,204
    80006264:	03d44f3b          	divw	t5,s0,t4
    80006268:	02eb76bb          	remuw	a3,s6,a4
    8000626c:	56fd                	li	a3,-1
    8000626e:	8c21                	xor	s0,s0,s0
    80006270:	edf82113          	slti	sp,a6,-289
    80006274:	0091ddb3          	srl	s11,gp,s1
    80006278:	09730a93          	addi	s5,t1,151
    8000627c:	8f8d                	sub	a5,a5,a1
    8000627e:	82f9                	srli	a3,a3,0x1e
    80006280:	9d01                	subw	a0,a0,s0
    80006282:	5be3e993          	ori	s3,t2,1470
    80006286:	8a3a                	mv	s4,a4
    80006288:	edf82113          	slti	sp,a6,-289
    8000628c:	9d01                	subw	a0,a0,s0
    8000628e:	03b60663          	beq	a2,s11,800062ba <main_25+0x22c>
    80006292:	02b2dc33          	divu	s8,t0,a1
    80006296:	8a3a                	mv	s4,a4
    80006298:	0091ddb3          	srl	s11,gp,s1
    8000629c:	0aa6                	slli	s5,s5,0x9
    8000629e:	000807bb          	addw	a5,a6,zero
    800062a2:	0094bb33          	sltu	s6,s1,s1
    800062a6:	023a9563          	bne	s5,gp,800062d0 <main_25+0x242>
    800062aa:	28d0f213          	andi	tp,ra,653
    800062ae:	000725b3          	sltz	a1,a4
    800062b2:	018a5213          	srli	tp,s4,0x18
    800062b6:	5be3e993          	ori	s3,t2,1470
    800062ba:	56fd                	li	a3,-1
    800062bc:	02d04863          	bgtz	a3,800062ec <main_25+0x25e>
    800062c0:	00ce1c1b          	slliw	s8,t3,0xc
    800062c4:	8e49                	or	a2,a2,a0
    800062c6:	8e49                	or	a2,a2,a0
    800062c8:	003a9663          	bne	s5,gp,800062d4 <main_25+0x246>
    800062cc:	00d316bb          	sllw	a3,t1,a3
    800062d0:	4368d313          	srai	t1,a7,0x36
    800062d4:	02deedbb          	remw	s11,t4,a3
    800062d8:	01a31093          	slli	ra,t1,0x1a
    800062dc:	89d9                	andi	a1,a1,22
    800062de:	e311                	bnez	a4,800062e2 <main_25+0x254>
    800062e0:	ef0d                	bnez	a4,8000631a <main_25+0x28c>
    800062e2:	8a3a                	mv	s4,a4
    800062e4:	82f9                	srli	a3,a3,0x1e
    800062e6:	01ca4133          	xor	sp,s4,t3
    800062ea:	0aa6                	slli	s5,s5,0x9
    800062ec:	8e49                	or	a2,a2,a0
    800062ee:	02b2dc33          	divu	s8,t0,a1
    800062f2:	03eec933          	div	s2,t4,t5
    800062f6:	03f76733          	rem	a4,a4,t6
    800062fa:	8a3a                	mv	s4,a4
    800062fc:	000807bb          	addw	a5,a6,zero
    80006300:	0cc1881b          	addiw	a6,gp,204
    80006304:	02eb76bb          	remuw	a3,s6,a4
    80006308:	4368d313          	srai	t1,a7,0x36
    8000630c:	0285ea63          	bltu	a1,s0,80006340 <main_25+0x2b2>
    80006310:	9d01                	subw	a0,a0,s0
    80006312:	01e203b3          	add	t2,tp,t5
    80006316:	4368d313          	srai	t1,a7,0x36
    8000631a:	8e49                	or	a2,a2,a0
    8000631c:	e309                	bnez	a4,8000631e <main_25+0x290>
    8000631e:	0094bb33          	sltu	s6,s1,s1
    80006322:	0001                	nop
    80006324:	8f8d                	sub	a5,a5,a1
    80006326:	e70d                	bnez	a4,80006350 <main_25+0x2c2>
    80006328:	01a31093          	slli	ra,t1,0x1a
    8000632c:	03272133          	mulhsu	sp,a4,s2
    80006330:	e3314393          	xori	t2,sp,-461
    80006334:	01b55bbb          	srlw	s7,a0,s11
    80006338:	01a31093          	slli	ra,t1,0x1a
    8000633c:	28d0f213          	andi	tp,ra,653
    80006340:	5be3e993          	ori	s3,t2,1470
    80006344:	c291                	beqz	a3,80006348 <main_25+0x2ba>
    80006346:	3f7d                	addiw	t5,t5,-1
    80006348:	4368d313          	srai	t1,a7,0x36
    8000634c:	003a9a63          	bne	s5,gp,80006360 <main_25+0x2d2>
    80006350:	03272133          	mulhsu	sp,a4,s2
    80006354:	8e49                	or	a2,a2,a0
    80006356:	417dd533          	sra	a0,s11,s7
    8000635a:	0094bb33          	sltu	s6,s1,s1
    8000635e:	04a9                	addi	s1,s1,10
    80006360:	000807bb          	addw	a5,a6,zero
    80006364:	02061833          	mulh	a6,a2,zero
    80006368:	03498fb3          	mul	t6,s3,s4
    8000636c:	00d04d63          	bgtz	a3,80006386 <main_25+0x2f8>
    80006370:	8f8d                	sub	a5,a5,a1
    80006372:	000807bb          	addw	a5,a6,zero
    80006376:	03498fb3          	mul	t6,s3,s4
    8000637a:	0166feb3          	and	t4,a3,s6
    8000637e:	8c21                	xor	s0,s0,s0
    80006380:	0091ddb3          	srl	s11,gp,s1
    80006384:	82f9                	srli	a3,a3,0x1e
    80006386:	03d44f3b          	divw	t5,s0,t4
    8000638a:	0588                	addi	a0,sp,704
    8000638c:	00d316bb          	sllw	a3,t1,a3
    80006390:	002495b3          	sll	a1,s1,sp
    80006394:	01a31093          	slli	ra,t1,0x1a
    80006398:	029bfa63          	bgeu	s7,s1,800063cc <main_25+0x33e>
    8000639c:	00d316bb          	sllw	a3,t1,a3
    800063a0:	02a986bb          	mulw	a3,s3,a0
    800063a4:	ef0d                	bnez	a4,800063de <main_25+0x350>
    800063a6:	28d0f213          	andi	tp,ra,653
    800063aa:	4368d313          	srai	t1,a7,0x36
    800063ae:	3f7d                	addiw	t5,t5,-1
    800063b0:	003de5b3          	or	a1,s11,gp
    800063b4:	8f8d                	sub	a5,a5,a1
    800063b6:	02eb76bb          	remuw	a3,s6,a4
    800063ba:	000b561b          	srliw	a2,s6,0x0
    800063be:	41205ebb          	sraw	t4,zero,s2
    800063c2:	82f9                	srli	a3,a3,0x1e
    800063c4:	8c21                	xor	s0,s0,s0
    800063c6:	0001                	nop
    800063c8:	e3314393          	xori	t2,sp,-461
    800063cc:	9d01                	subw	a0,a0,s0
    800063ce:	717d                	addi	sp,sp,-16
    800063d0:	89d9                	andi	a1,a1,22
    800063d2:	69ad                	lui	s3,0xb
    800063d4:	41bb519b          	sraiw	gp,s6,0x1b
    800063d8:	02eb76bb          	remuw	a3,s6,a4
    800063dc:	56fd                	li	a3,-1
    800063de:	000807bb          	addw	a5,a6,zero
    800063e2:	03f76733          	rem	a4,a4,t6
    800063e6:	69ad                	lui	s3,0xb
    800063e8:	018a5213          	srli	tp,s4,0x18
    800063ec:	4368d313          	srai	t1,a7,0x36
    800063f0:	02a986bb          	mulw	a3,s3,a0
    800063f4:	01b55bbb          	srlw	s7,a0,s11
    800063f8:	c689                	beqz	a3,80006402 <main_25+0x374>
    800063fa:	9a7e                	add	s4,s4,t6
    800063fc:	8f8d                	sub	a5,a5,a1
    800063fe:	56fd                	li	a3,-1
    80006400:	0aa6                	slli	s5,s5,0x9
    80006402:	018a5213          	srli	tp,s4,0x18
    80006406:	000725b3          	sltz	a1,a4
    8000640a:	04a9                	addi	s1,s1,10
    8000640c:	03272133          	mulhsu	sp,a4,s2
    80006410:	9db9                	addw	a1,a1,a4
    80006412:	02fffcb3          	remu	s9,t6,a5
    80006416:	89d9                	andi	a1,a1,22
    80006418:	05b60163          	beq	a2,s11,8000645a <main_25+0x3cc>
    8000641c:	9a7e                	add	s4,s4,t6
    8000641e:	69ad                	lui	s3,0xb
    80006420:	84627b37          	lui	s6,0x84627
    80006424:	03eec933          	div	s2,t4,t5
    80006428:	01e203b3          	add	t2,tp,t5
    8000642c:	023a9a63          	bne	s5,gp,80006460 <main_25+0x3d2>
    80006430:	02a986bb          	mulw	a3,s3,a0
    80006434:	0166feb3          	and	t4,a3,s6
    80006438:	9d01                	subw	a0,a0,s0
    8000643a:	c299                	beqz	a3,80006440 <main_25+0x3b2>
    8000643c:	023830b3          	mulhu	ra,a6,gp
    80006440:	82f9                	srli	a3,a3,0x1e
    80006442:	04d04063          	bgtz	a3,80006482 <main_25+0x3f4>
    80006446:	03498fb3          	mul	t6,s3,s4
    8000644a:	0091ddb3          	srl	s11,gp,s1
    8000644e:	03272133          	mulhsu	sp,a4,s2
    80006452:	003de5b3          	or	a1,s11,gp
    80006456:	89d9                	andi	a1,a1,22
    80006458:	0588                	addi	a0,sp,704
    8000645a:	717d                	addi	sp,sp,-16
    8000645c:	03d44f3b          	divw	t5,s0,t4
    80006460:	e709                	bnez	a4,8000646a <main_25+0x3dc>
    80006462:	e3314393          	xori	t2,sp,-461
    80006466:	02fffcb3          	remu	s9,t6,a5
    8000646a:	03d44f3b          	divw	t5,s0,t4
    8000646e:	018a5213          	srli	tp,s4,0x18
    80006472:	03f76733          	rem	a4,a4,t6
    80006476:	41660233          	sub	tp,a2,s6
    8000647a:	02deedbb          	remw	s11,t4,a3
    8000647e:	8a3a                	mv	s4,a4
    80006480:	89d9                	andi	a1,a1,22
    80006482:	0588                	addi	a0,sp,704
    80006484:	03498fb3          	mul	t6,s3,s4
    80006488:	002495b3          	sll	a1,s1,sp
    8000648c:	003de5b3          	or	a1,s11,gp
    80006490:	002495b3          	sll	a1,s1,sp
    80006494:	56fd                	li	a3,-1
    80006496:	02deedbb          	remw	s11,t4,a3
    8000649a:	c28d                	beqz	a3,800064bc <main_25+0x42e>
    8000649c:	8c79                	and	s0,s0,a4
    8000649e:	8a3a                	mv	s4,a4
    800064a0:	0001                	nop
    800064a2:	8c79                	and	s0,s0,a4
    800064a4:	28d0f213          	andi	tp,ra,653
    800064a8:	41660233          	sub	tp,a2,s6
    800064ac:	02b2dc33          	divu	s8,t0,a1
    800064b0:	41660233          	sub	tp,a2,s6
    800064b4:	69ad                	lui	s3,0xb
    800064b6:	3f7d                	addiw	t5,t5,-1
    800064b8:	02eb76bb          	remuw	a3,s6,a4
    800064bc:	0a6c4417          	auipc	s0,0xa6c4
    800064c0:	0aa6                	slli	s5,s5,0x9
    800064c2:	09730a93          	addi	s5,t1,151
    800064c6:	ce8d                	beqz	a3,80006500 <main_25+0x472>
    800064c8:	01a31093          	slli	ra,t1,0x1a
    800064cc:	93a6ba13          	sltiu	s4,a3,-1734
    800064d0:	9a7e                	add	s4,s4,t6
    800064d2:	03b60163          	beq	a2,s11,800064f4 <main_25+0x466>
    800064d6:	0cc1881b          	addiw	a6,gp,204
    800064da:	4368d313          	srai	t1,a7,0x36
    800064de:	28d0f213          	andi	tp,ra,653
    800064e2:	69ad                	lui	s3,0xb
    800064e4:	40dc89bb          	subw	s3,s9,a3
    800064e8:	02d04f63          	bgtz	a3,80006526 <main_25+0x498>
    800064ec:	03f76733          	rem	a4,a4,t6
    800064f0:	01e203b3          	add	t2,tp,t5
    800064f4:	01ca4133          	xor	sp,s4,t3
    800064f8:	03f76733          	rem	a4,a4,t6
    800064fc:	01b60263          	beq	a2,s11,80006500 <main_25+0x472>
    80006500:	00d316bb          	sllw	a3,t1,a3
    80006504:	023830b3          	mulhu	ra,a6,gp
    80006508:	000b561b          	srliw	a2,s6,0x0
    8000650c:	717d                	addi	sp,sp,-16
    8000650e:	edf82113          	slti	sp,a6,-289
    80006512:	02deedbb          	remw	s11,t4,a3
    80006516:	000725b3          	sltz	a1,a4
    8000651a:	0588                	addi	a0,sp,704
    8000651c:	9a7e                	add	s4,s4,t6
    8000651e:	9a7e                	add	s4,s4,t6
    80006520:	3f7d                	addiw	t5,t5,-1
    80006522:	023830b3          	mulhu	ra,a6,gp
    80006526:	8f8d                	sub	a5,a5,a1
    80006528:	02eb76bb          	remuw	a3,s6,a4
    8000652c:	8c79                	and	s0,s0,a4
    8000652e:	40dc89bb          	subw	s3,s9,a3
    80006532:	82f9                	srli	a3,a3,0x1e
    80006534:	0001                	nop
    80006536:	02eb76bb          	remuw	a3,s6,a4
    8000653a:	417dd533          	sra	a0,s11,s7
    8000653e:	000807bb          	addw	a5,a6,zero
    80006542:	82f9                	srli	a3,a3,0x1e
    80006544:	03d44f3b          	divw	t5,s0,t4
    80006548:	0001                	nop
    8000654a:	01b55bbb          	srlw	s7,a0,s11
    8000654e:	000b561b          	srliw	a2,s6,0x0
    80006552:	9db9                	addw	a1,a1,a4
    80006554:	e3314393          	xori	t2,sp,-461
    80006558:	56fd                	li	a3,-1
    8000655a:	0094bb33          	sltu	s6,s1,s1
    8000655e:	41660233          	sub	tp,a2,s6
    80006562:	84627b37          	lui	s6,0x84627
    80006566:	9db9                	addw	a1,a1,a4
    80006568:	03eec933          	div	s2,t4,t5
    8000656c:	01a31093          	slli	ra,t1,0x1a
    80006570:	717d                	addi	sp,sp,-16
    80006572:	0cc1881b          	addiw	a6,gp,204
    80006576:	000b561b          	srliw	a2,s6,0x0
    8000657a:	02061833          	mulh	a6,a2,zero
    8000657e:	02415b3b          	divuw	s6,sp,tp
    80006582:	023830b3          	mulhu	ra,a6,gp
    80006586:	8c21                	xor	s0,s0,s0
    80006588:	02415b3b          	divuw	s6,sp,tp
    8000658c:	002495b3          	sll	a1,s1,sp
    80006590:	41660233          	sub	tp,a2,s6
    80006594:	01b95463          	bge	s2,s11,8000659c <main_25+0x50e>
    80006598:	01ca4133          	xor	sp,s4,t3
    8000659c:	93a6ba13          	sltiu	s4,a3,-1734
    800065a0:	000807bb          	addw	a5,a6,zero
    800065a4:	02415b3b          	divuw	s6,sp,tp
    800065a8:	000725b3          	sltz	a1,a4
    800065ac:	002495b3          	sll	a1,s1,sp
    800065b0:	40dc89bb          	subw	s3,s9,a3
    800065b4:	4368d313          	srai	t1,a7,0x36
    800065b8:	03b60c63          	beq	a2,s11,800065f0 <main_25+0x562>
    800065bc:	4368d313          	srai	t1,a7,0x36
    800065c0:	8c79                	and	s0,s0,a4
    800065c2:	01b55bbb          	srlw	s7,a0,s11
    800065c6:	c699                	beqz	a3,800065d4 <main_25+0x546>
    800065c8:	04a9                	addi	s1,s1,10
    800065ca:	84627b37          	lui	s6,0x84627
    800065ce:	0aa6                	slli	s5,s5,0x9
    800065d0:	02061833          	mulh	a6,a2,zero
    800065d4:	01e203b3          	add	t2,tp,t5
    800065d8:	02d04263          	bgtz	a3,800065fc <main_25+0x56e>
    800065dc:	003de5b3          	or	a1,s11,gp
    800065e0:	02eb76bb          	remuw	a3,s6,a4
    800065e4:	00ce1c1b          	slliw	s8,t3,0xc
    800065e8:	02fffcb3          	remu	s9,t6,a5
    800065ec:	02415b3b          	divuw	s6,sp,tp
    800065f0:	0588                	addi	a0,sp,704
    800065f2:	e319                	bnez	a4,800065f8 <main_25+0x56a>
    800065f4:	41bb519b          	sraiw	gp,s6,0x1b
    800065f8:	417dd533          	sra	a0,s11,s7
    800065fc:	8c79                	and	s0,s0,a4
    800065fe:	0094bb33          	sltu	s6,s1,s1
    80006602:	0285ed63          	bltu	a1,s0,8000663c <main_25+0x5ae>
    80006606:	000725b3          	sltz	a1,a4
    8000660a:	93a6ba13          	sltiu	s4,a3,-1734
    8000660e:	00ce1c1b          	slliw	s8,t3,0xc
    80006612:	86d9                	srai	a3,a3,0x16
    80006614:	5be3e993          	ori	s3,t2,1470
    80006618:	09730a93          	addi	s5,t1,151
    8000661c:	00ce1c1b          	slliw	s8,t3,0xc
    80006620:	40dc89bb          	subw	s3,s9,a3
    80006624:	023830b3          	mulhu	ra,a6,gp
    80006628:	0285e663          	bltu	a1,s0,80006654 <main_25+0x5c6>
    8000662c:	02b2dc33          	divu	s8,t0,a1
    80006630:	03eec933          	div	s2,t4,t5
    80006634:	41660233          	sub	tp,a2,s6
    80006638:	5be3e993          	ori	s3,t2,1470
    8000663c:	01e203b3          	add	t2,tp,t5
    80006640:	0001                	nop
    80006642:	0001                	nop
    80006644:	0aa6                	slli	s5,s5,0x9
    80006646:	02deedbb          	remw	s11,t4,a3
    8000664a:	41660233          	sub	tp,a2,s6
    8000664e:	8c79                	and	s0,s0,a4
    80006650:	009bf263          	bgeu	s7,s1,80006654 <main_25+0x5c6>
    80006654:	edf82113          	slti	sp,a6,-289
    80006658:	9a7e                	add	s4,s4,t6
    8000665a:	9a7e                	add	s4,s4,t6
    8000665c:	28d0f213          	andi	tp,ra,653
    80006660:	03498fb3          	mul	t6,s3,s4
    80006664:	03272133          	mulhsu	sp,a4,s2
    80006668:	41bb519b          	sraiw	gp,s6,0x1b
    8000666c:	029bff63          	bgeu	s7,s1,800066aa <main_25+0x61c>
    80006670:	82f9                	srli	a3,a3,0x1e
    80006672:	ef11                	bnez	a4,8000668e <main_25+0x600>
    80006674:	717d                	addi	sp,sp,-16
    80006676:	002495b3          	sll	a1,s1,sp
    8000667a:	41205ebb          	sraw	t4,zero,s2
    8000667e:	5be3e993          	ori	s3,t2,1470
    80006682:	9a7e                	add	s4,s4,t6
    80006684:	0091ddb3          	srl	s11,gp,s1
    80006688:	8f8d                	sub	a5,a5,a1
    8000668a:	e3314393          	xori	t2,sp,-461
    8000668e:	01e203b3          	add	t2,tp,t5
    80006692:	0094bb33          	sltu	s6,s1,s1
    80006696:	89d9                	andi	a1,a1,22
    80006698:	eb0d                	bnez	a4,800066ca <main_25+0x63c>
    8000669a:	018a5213          	srli	tp,s4,0x18
    8000669e:	00ce1c1b          	slliw	s8,t3,0xc
    800066a2:	02b2dc33          	divu	s8,t0,a1
    800066a6:	09730a93          	addi	s5,t1,151
    800066aa:	56fd                	li	a3,-1
    800066ac:	82f9                	srli	a3,a3,0x1e
    800066ae:	0166feb3          	and	t4,a3,s6
    800066b2:	09730a93          	addi	s5,t1,151
    800066b6:	03eec933          	div	s2,t4,t5
    800066ba:	02deedbb          	remw	s11,t4,a3
    800066be:	00d04563          	bgtz	a3,800066c8 <main_25+0x63a>
    800066c2:	03f76733          	rem	a4,a4,t6
    800066c6:	8c79                	and	s0,s0,a4
    800066c8:	8e49                	or	a2,a2,a0
    800066ca:	00d04763          	bgtz	a3,800066d8 <main_25+0x64a>
    800066ce:	3f7d                	addiw	t5,t5,-1
    800066d0:	04a9                	addi	s1,s1,10
    800066d2:	003de5b3          	or	a1,s11,gp
    800066d6:	3f7d                	addiw	t5,t5,-1
    800066d8:	003de5b3          	or	a1,s11,gp
    800066dc:	5be3e993          	ori	s3,t2,1470
    800066e0:	01b95263          	bge	s2,s11,800066e4 <main_25+0x656>
    800066e4:	86d9                	srai	a3,a3,0x16
    800066e6:	003de5b3          	or	a1,s11,gp
    800066ea:	c299                	beqz	a3,800066f0 <main_25+0x662>
    800066ec:	0085e263          	bltu	a1,s0,800066f0 <main_25+0x662>
    800066f0:	edf82113          	slti	sp,a6,-289
    800066f4:	0091ddb3          	srl	s11,gp,s1
    800066f8:	0a6c4417          	auipc	s0,0xa6c4
    800066fc:	0001                	nop
    800066fe:	02b2dc33          	divu	s8,t0,a1
    80006702:	717d                	addi	sp,sp,-16
    80006704:	0001                	nop
    80006706:	8e49                	or	a2,a2,a0
    80006708:	0cc1881b          	addiw	a6,gp,204
    8000670c:	9a7e                	add	s4,s4,t6
    8000670e:	3f7d                	addiw	t5,t5,-1
    80006710:	002495b3          	sll	a1,s1,sp
    80006714:	03b60763          	beq	a2,s11,80006742 <main_25+0x6b4>
    80006718:	e3314393          	xori	t2,sp,-461
    8000671c:	029bfd63          	bgeu	s7,s1,80006756 <main_25+0x6c8>
    80006720:	02eb76bb          	remuw	a3,s6,a4
    80006724:	01b55bbb          	srlw	s7,a0,s11
    80006728:	03d44f3b          	divw	t5,s0,t4
    8000672c:	28d0f213          	andi	tp,ra,653
    80006730:	56fd                	li	a3,-1
    80006732:	41205ebb          	sraw	t4,zero,s2
    80006736:	03d44f3b          	divw	t5,s0,t4
    8000673a:	01a31093          	slli	ra,t1,0x1a
    8000673e:	029bfc63          	bgeu	s7,s1,80006776 <main_25+0x6e8>
    80006742:	000725b3          	sltz	a1,a4
    80006746:	000725b3          	sltz	a1,a4
    8000674a:	0485e163          	bltu	a1,s0,8000678c <main_25+0x6fe>
    8000674e:	0094bb33          	sltu	s6,s1,s1
    80006752:	69ad                	lui	s3,0xb
    80006754:	e331                	bnez	a4,80006798 <main_25+0x70a>
    80006756:	03f76733          	rem	a4,a4,t6
    8000675a:	023a9263          	bne	s5,gp,8000677e <main_25+0x6f0>
    8000675e:	03d44f3b          	divw	t5,s0,t4
    80006762:	03eec933          	div	s2,t4,t5
    80006766:	edf82113          	slti	sp,a6,-289
    8000676a:	0cc1881b          	addiw	a6,gp,204
    8000676e:	00d04963          	bgtz	a3,80006780 <main_25+0x6f2>
    80006772:	41bb519b          	sraiw	gp,s6,0x1b
    80006776:	84627b37          	lui	s6,0x84627
    8000677a:	000725b3          	sltz	a1,a4
    8000677e:	717d                	addi	sp,sp,-16
    80006780:	41205ebb          	sraw	t4,zero,s2
    80006784:	01b95463          	bge	s2,s11,8000678c <main_25+0x6fe>
    80006788:	04a9                	addi	s1,s1,10
    8000678a:	3f7d                	addiw	t5,t5,-1
    8000678c:	e3314393          	xori	t2,sp,-461
    80006790:	0094bb33          	sltu	s6,s1,s1
    80006794:	000725b3          	sltz	a1,a4
    80006798:	417dd533          	sra	a0,s11,s7
    8000679c:	56fd                	li	a3,-1
    8000679e:	01a31093          	slli	ra,t1,0x1a
    800067a2:	02d04663          	bgtz	a3,800067ce <main_25+0x740>
    800067a6:	9a7e                	add	s4,s4,t6
    800067a8:	9d01                	subw	a0,a0,s0
    800067aa:	86d9                	srai	a3,a3,0x16
    800067ac:	00d04963          	bgtz	a3,800067be <main_25+0x730>
    800067b0:	41660233          	sub	tp,a2,s6
    800067b4:	00ce1c1b          	slliw	s8,t3,0xc
    800067b8:	56fd                	li	a3,-1
    800067ba:	02b2dc33          	divu	s8,t0,a1
    800067be:	0091ddb3          	srl	s11,gp,s1
    800067c2:	002495b3          	sll	a1,s1,sp
    800067c6:	02b2dc33          	divu	s8,t0,a1
    800067ca:	0cc1881b          	addiw	a6,gp,204
    800067ce:	043a9063          	bne	s5,gp,8000680e <main_25+0x780>
    800067d2:	56fd                	li	a3,-1
    800067d4:	0cc1881b          	addiw	a6,gp,204
    800067d8:	002495b3          	sll	a1,s1,sp
    800067dc:	0166feb3          	and	t4,a3,s6
    800067e0:	0091ddb3          	srl	s11,gp,s1
    800067e4:	93a6ba13          	sltiu	s4,a3,-1734
    800067e8:	3f7d                	addiw	t5,t5,-1
    800067ea:	c6b1                	beqz	a3,80006836 <main_25+0x7a8>
    800067ec:	02deedbb          	remw	s11,t4,a3
    800067f0:	69ad                	lui	s3,0xb
    800067f2:	02b2dc33          	divu	s8,t0,a1
    800067f6:	e3314393          	xori	t2,sp,-461
    800067fa:	01ca4133          	xor	sp,s4,t3
    800067fe:	5be3e993          	ori	s3,t2,1470
    80006802:	018a5213          	srli	tp,s4,0x18
    80006806:	41bb519b          	sraiw	gp,s6,0x1b
    8000680a:	00d04a63          	bgtz	a3,8000681e <main_25+0x790>
    8000680e:	029bf763          	bgeu	s7,s1,8000683c <main_25+0x7ae>
    80006812:	0094bb33          	sltu	s6,s1,s1
    80006816:	043a9563          	bne	s5,gp,80006860 <main_25+0x7d2>
    8000681a:	02d04e63          	bgtz	a3,80006856 <main_25+0x7c8>
    8000681e:	4368d313          	srai	t1,a7,0x36
    80006822:	018a5213          	srli	tp,s4,0x18
    80006826:	41bb519b          	sraiw	gp,s6,0x1b
    8000682a:	01ca4133          	xor	sp,s4,t3
    8000682e:	0085ef63          	bltu	a1,s0,8000684c <main_25+0x7be>
    80006832:	002495b3          	sll	a1,s1,sp
    80006836:	01e203b3          	add	t2,tp,t5
    8000683a:	9d01                	subw	a0,a0,s0
    8000683c:	41205ebb          	sraw	t4,zero,s2
    80006840:	40dc89bb          	subw	s3,s9,a3
    80006844:	edf82113          	slti	sp,a6,-289
    80006848:	02415b3b          	divuw	s6,sp,tp
    8000684c:	02061833          	mulh	a6,a2,zero
    80006850:	8a3a                	mv	s4,a4
    80006852:	41660233          	sub	tp,a2,s6
    80006856:	89d9                	andi	a1,a1,22
    80006858:	93a6ba13          	sltiu	s4,a3,-1734
    8000685c:	003de5b3          	or	a1,s11,gp
    80006860:	93a6ba13          	sltiu	s4,a3,-1734
    80006864:	02415b3b          	divuw	s6,sp,tp
    80006868:	717d                	addi	sp,sp,-16
    8000686a:	c299                	beqz	a3,80006870 <main_25+0x7e2>
    8000686c:	02415b3b          	divuw	s6,sp,tp
    80006870:	69ad                	lui	s3,0xb
    80006872:	000725b3          	sltz	a1,a4
    80006876:	03d44f3b          	divw	t5,s0,t4
    8000687a:	01ca4133          	xor	sp,s4,t3
    8000687e:	9db9                	addw	a1,a1,a4
    80006880:	01e203b3          	add	t2,tp,t5
    80006884:	02deedbb          	remw	s11,t4,a3
    80006888:	0091ddb3          	srl	s11,gp,s1
    8000688c:	02061833          	mulh	a6,a2,zero
    80006890:	02061833          	mulh	a6,a2,zero
    80006894:	41660233          	sub	tp,a2,s6
    80006898:	03f76733          	rem	a4,a4,t6
    8000689c:	018a5213          	srli	tp,s4,0x18
    800068a0:	03b60163          	beq	a2,s11,800068c2 <main_25+0x834>
    800068a4:	40dc89bb          	subw	s3,s9,a3
    800068a8:	01e203b3          	add	t2,tp,t5
    800068ac:	e3314393          	xori	t2,sp,-461
    800068b0:	018a5213          	srli	tp,s4,0x18
    800068b4:	0166feb3          	and	t4,a3,s6
    800068b8:	0588                	addi	a0,sp,704
    800068ba:	40dc89bb          	subw	s3,s9,a3
    800068be:	0588                	addi	a0,sp,704
    800068c0:	82f9                	srli	a3,a3,0x1e
    800068c2:	0588                	addi	a0,sp,704
    800068c4:	417dd533          	sra	a0,s11,s7
    800068c8:	03b60a63          	beq	a2,s11,800068fc <main_25+0x86e>
    800068cc:	28d0f213          	andi	tp,ra,653
    800068d0:	3f7d                	addiw	t5,t5,-1
    800068d2:	018a5213          	srli	tp,s4,0x18
    800068d6:	717d                	addi	sp,sp,-16
    800068d8:	8a3a                	mv	s4,a4
    800068da:	02061833          	mulh	a6,a2,zero
    800068de:	01ca4133          	xor	sp,s4,t3
    800068e2:	02061833          	mulh	a6,a2,zero
    800068e6:	41205ebb          	sraw	t4,zero,s2
    800068ea:	40dc89bb          	subw	s3,s9,a3
    800068ee:	86d9                	srai	a3,a3,0x16
    800068f0:	03b95b63          	bge	s2,s11,80006926 <main_25+0x898>
    800068f4:	0094bb33          	sltu	s6,s1,s1
    800068f8:	4368d313          	srai	t1,a7,0x36
    800068fc:	717d                	addi	sp,sp,-16
    800068fe:	02a986bb          	mulw	a3,s3,a0
    80006902:	0166feb3          	and	t4,a3,s6
    80006906:	04a9                	addi	s1,s1,10
    80006908:	02061833          	mulh	a6,a2,zero
    8000690c:	02d04b63          	bgtz	a3,80006942 <main_25+0x8b4>
    80006910:	01a31093          	slli	ra,t1,0x1a
    80006914:	8c79                	and	s0,s0,a4
    80006916:	56fd                	li	a3,-1
    80006918:	03498fb3          	mul	t6,s3,s4
    8000691c:	89d9                	andi	a1,a1,22
    8000691e:	0cc1881b          	addiw	a6,gp,204
    80006922:	01b95463          	bge	s2,s11,8000692a <main_25+0x89c>
    80006926:	edf82113          	slti	sp,a6,-289
    8000692a:	02deedbb          	remw	s11,t4,a3
    8000692e:	0588                	addi	a0,sp,704
    80006930:	018a5213          	srli	tp,s4,0x18
    80006934:	02eb76bb          	remuw	a3,s6,a4
    80006938:	8c21                	xor	s0,s0,s0
    8000693a:	02d04163          	bgtz	a3,8000695c <main_25+0x8ce>
    8000693e:	e3314393          	xori	t2,sp,-461
    80006942:	0cc1881b          	addiw	a6,gp,204
    80006946:	01b60663          	beq	a2,s11,80006952 <main_25+0x8c4>
    8000694a:	01b95a63          	bge	s2,s11,8000695e <main_25+0x8d0>
    8000694e:	02deedbb          	remw	s11,t4,a3
    80006952:	02deedbb          	remw	s11,t4,a3
    80006956:	4368d313          	srai	t1,a7,0x36
    8000695a:	717d                	addi	sp,sp,-16
    8000695c:	9a7e                	add	s4,s4,t6
    8000695e:	0091ddb3          	srl	s11,gp,s1
    80006962:	69ad                	lui	s3,0xb
    80006964:	41660233          	sub	tp,a2,s6
    80006968:	c291                	beqz	a3,8000696c <main_25+0x8de>
    8000696a:	8e49                	or	a2,a2,a0
    8000696c:	029bf063          	bgeu	s7,s1,8000698c <main_25+0x8fe>
    80006970:	ce85                	beqz	a3,800069a8 <main_25+0x91a>
    80006972:	02061833          	mulh	a6,a2,zero
    80006976:	41660233          	sub	tp,a2,s6
    8000697a:	01e203b3          	add	t2,tp,t5
    8000697e:	8c79                	and	s0,s0,a4
    80006980:	002495b3          	sll	a1,s1,sp
    80006984:	93a6ba13          	sltiu	s4,a3,-1734
    80006988:	018a5213          	srli	tp,s4,0x18
    8000698c:	3f7d                	addiw	t5,t5,-1
    8000698e:	0166feb3          	and	t4,a3,s6
    80006992:	02deedbb          	remw	s11,t4,a3
    80006996:	003de5b3          	or	a1,s11,gp
    8000699a:	0485e163          	bltu	a1,s0,800069dc <main_25+0x94e>
    8000699e:	00ce1c1b          	slliw	s8,t3,0xc
    800069a2:	01b60863          	beq	a2,s11,800069b2 <main_25+0x924>
    800069a6:	8c21                	xor	s0,s0,s0
    800069a8:	417dd533          	sra	a0,s11,s7
    800069ac:	0094bb33          	sltu	s6,s1,s1
    800069b0:	0001                	nop
    800069b2:	edf82113          	slti	sp,a6,-289
    800069b6:	01e203b3          	add	t2,tp,t5
    800069ba:	717d                	addi	sp,sp,-16
    800069bc:	0001                	nop
    800069be:	417dd533          	sra	a0,s11,s7
    800069c2:	000b561b          	srliw	a2,s6,0x0
    800069c6:	000807bb          	addw	a5,a6,zero
    800069ca:	023a9b63          	bne	s5,gp,80006a00 <main_25+0x972>
    800069ce:	03eec933          	div	s2,t4,t5
    800069d2:	8f8d                	sub	a5,a5,a1
    800069d4:	0cc1881b          	addiw	a6,gp,204
    800069d8:	03eec933          	div	s2,t4,t5
    800069dc:	02fffcb3          	remu	s9,t6,a5
    800069e0:	0a6c4417          	auipc	s0,0xa6c4
    800069e4:	023830b3          	mulhu	ra,a6,gp
    800069e8:	000807bb          	addw	a5,a6,zero
    800069ec:	82f9                	srli	a3,a3,0x1e
    800069ee:	018a5213          	srli	tp,s4,0x18
    800069f2:	03d44f3b          	divw	t5,s0,t4
    800069f6:	0085e563          	bltu	a1,s0,80006a00 <main_25+0x972>
    800069fa:	02d04163          	bgtz	a3,80006a1c <main_25+0x98e>
    800069fe:	8c79                	and	s0,s0,a4
    80006a00:	e3314393          	xori	t2,sp,-461
    80006a04:	0285e363          	bltu	a1,s0,80006a2a <main_25+0x99c>
    80006a08:	018a5213          	srli	tp,s4,0x18
    80006a0c:	01b55bbb          	srlw	s7,a0,s11
    80006a10:	ef1d                	bnez	a4,80006a4e <main_25+0x9c0>
    80006a12:	0094bb33          	sltu	s6,s1,s1
    80006a16:	0001                	nop
    80006a18:	09730a93          	addi	s5,t1,151
    80006a1c:	e339                	bnez	a4,80006a62 <main_25+0x9d4>
    80006a1e:	9d01                	subw	a0,a0,s0
    80006a20:	4368d313          	srai	t1,a7,0x36
    80006a24:	02fffcb3          	remu	s9,t6,a5
    80006a28:	ef1d                	bnez	a4,80006a66 <main_25+0x9d8>
    80006a2a:	000725b3          	sltz	a1,a4
    80006a2e:	40dc89bb          	subw	s3,s9,a3
    80006a32:	018a5213          	srli	tp,s4,0x18
    80006a36:	02eb76bb          	remuw	a3,s6,a4
    80006a3a:	03f76733          	rem	a4,a4,t6
    80006a3e:	01a31093          	slli	ra,t1,0x1a
    80006a42:	4368d313          	srai	t1,a7,0x36
    80006a46:	02a986bb          	mulw	a3,s3,a0
    80006a4a:	00ce1c1b          	slliw	s8,t3,0xc
    80006a4e:	0485ec63          	bltu	a1,s0,80006aa6 <main_34+0x3c>
    80006a52:	002495b3          	sll	a1,s1,sp
    80006a56:	41660233          	sub	tp,a2,s6
    80006a5a:	063a9d63          	bne	s5,gp,80006ad4 <main_34+0x6a>
    80006a5e:	0cc1881b          	addiw	a6,gp,204
    80006a62:	41660233          	sub	tp,a2,s6
    80006a66:	41bb519b          	sraiw	gp,s6,0x1b

0000000080006a6a <main_34>:
    80006a6a:	01000eef          	jal	t4,80006a7a <main_34+0x10>
    80006a6e:	a801                	j	80006a7e <main_34+0x14>
    80006a70:	a019                	j	80006a76 <main_34+0xc>
    80006a72:	026000ef          	jal	80006a98 <main_34+0x2e>
    80006a76:	ff9ff0ef          	jal	80006a6e <main_34+0x4>
    80006a7a:	010000ef          	jal	80006a8a <main_34+0x20>
    80006a7e:	004000ef          	jal	80006a82 <main_34+0x18>
    80006a82:	004000ef          	jal	80006a86 <main_34+0x1c>
    80006a86:	00c000ef          	jal	80006a92 <main_34+0x28>
    80006a8a:	006000ef          	jal	80006a90 <main_34+0x26>
    80006a8e:	a021                	j	80006a96 <main_34+0x2c>
    80006a90:	a029                	j	80006a9a <main_34+0x30>
    80006a92:	fe1ff0ef          	jal	80006a72 <main_34+0x8>
    80006a96:	bfe9                	j	80006a70 <main_34+0x6>
    80006a98:	a011                	j	80006a9c <main_34+0x32>
    80006a9a:	bfd5                	j	80006a8e <main_34+0x24>
    80006a9c:	000b561b          	srliw	a2,s6,0x0
    80006aa0:	93a6ba13          	sltiu	s4,a3,-1734
    80006aa4:	8c79                	and	s0,s0,a4
    80006aa6:	84627b37          	lui	s6,0x84627
    80006aaa:	0a6c4417          	auipc	s0,0xa6c4
    80006aae:	0001                	nop
    80006ab0:	9d01                	subw	a0,a0,s0
    80006ab2:	002495b3          	sll	a1,s1,sp
    80006ab6:	9db9                	addw	a1,a1,a4
    80006ab8:	0cc1881b          	addiw	a6,gp,204
    80006abc:	0166feb3          	and	t4,a3,s6
    80006ac0:	0091ddb3          	srl	s11,gp,s1
    80006ac4:	56fd                	li	a3,-1
    80006ac6:	e3314393          	xori	t2,sp,-461
    80006aca:	89d9                	andi	a1,a1,22
    80006acc:	00d04963          	bgtz	a3,80006ade <main_34+0x74>
    80006ad0:	029bf363          	bgeu	s7,s1,80006af6 <main_34+0x8c>
    80006ad4:	40dc89bb          	subw	s3,s9,a3
    80006ad8:	9a7e                	add	s4,s4,t6
    80006ada:	3f7d                	addiw	t5,t5,-1
    80006adc:	0001                	nop
    80006ade:	0a6c4417          	auipc	s0,0xa6c4
    80006ae2:	002495b3          	sll	a1,s1,sp
    80006ae6:	8c79                	and	s0,s0,a4
    80006ae8:	018a5213          	srli	tp,s4,0x18
    80006aec:	03498fb3          	mul	t6,s3,s4
    80006af0:	0001                	nop
    80006af2:	417dd533          	sra	a0,s11,s7
    80006af6:	8a3a                	mv	s4,a4
    80006af8:	02deedbb          	remw	s11,t4,a3
    80006afc:	02415b3b          	divuw	s6,sp,tp
    80006b00:	02061833          	mulh	a6,a2,zero
    80006b04:	02fffcb3          	remu	s9,t6,a5
    80006b08:	84627b37          	lui	s6,0x84627
    80006b0c:	03272133          	mulhsu	sp,a4,s2
    80006b10:	0285e963          	bltu	a1,s0,80006b42 <main_34+0xd8>
    80006b14:	8a3a                	mv	s4,a4
    80006b16:	00ce1c1b          	slliw	s8,t3,0xc
    80006b1a:	03f76733          	rem	a4,a4,t6
    80006b1e:	9d01                	subw	a0,a0,s0
    80006b20:	8f8d                	sub	a5,a5,a1
    80006b22:	02a986bb          	mulw	a3,s3,a0
    80006b26:	018a5213          	srli	tp,s4,0x18
    80006b2a:	000b561b          	srliw	a2,s6,0x0
    80006b2e:	edf82113          	slti	sp,a6,-289
    80006b32:	01b55bbb          	srlw	s7,a0,s11
    80006b36:	3f7d                	addiw	t5,t5,-1
    80006b38:	56fd                	li	a3,-1
    80006b3a:	01b55bbb          	srlw	s7,a0,s11
    80006b3e:	4368d313          	srai	t1,a7,0x36
    80006b42:	edf82113          	slti	sp,a6,-289
    80006b46:	000725b3          	sltz	a1,a4
    80006b4a:	03498fb3          	mul	t6,s3,s4
    80006b4e:	02415b3b          	divuw	s6,sp,tp
    80006b52:	0001                	nop
    80006b54:	06d04e63          	bgtz	a3,80006bd0 <main_20+0x72>
    80006b58:	0001                	nop
    80006b5a:	03f76733          	rem	a4,a4,t6

0000000080006b5e <main_20>:
    80006b5e:	02200eef          	jal	t4,80006b80 <main_20+0x22>
    80006b62:	032000ef          	jal	80006b94 <main_20+0x36>
    80006b66:	a80d                	j	80006b98 <main_20+0x3a>
    80006b68:	024000ef          	jal	80006b8c <main_20+0x2e>
    80006b6c:	01c000ef          	jal	80006b88 <main_20+0x2a>
    80006b70:	ff7ff0ef          	jal	80006b66 <main_20+0x8>
    80006b74:	010000ef          	jal	80006b84 <main_20+0x26>
    80006b78:	ff5ff0ef          	jal	80006b6c <main_20+0xe>
    80006b7c:	b7dd                	j	80006b62 <main_20+0x4>
    80006b7e:	bfcd                	j	80006b70 <main_20+0x12>
    80006b80:	006000ef          	jal	80006b86 <main_20+0x28>
    80006b84:	bfed                	j	80006b7e <main_20+0x20>
    80006b86:	a029                	j	80006b90 <main_20+0x32>
    80006b88:	fedff0ef          	jal	80006b74 <main_20+0x16>
    80006b8c:	00a000ef          	jal	80006b96 <main_20+0x38>
    80006b90:	fd9ff0ef          	jal	80006b68 <main_20+0xa>
    80006b94:	b7d5                	j	80006b78 <main_20+0x1a>
    80006b96:	b7dd                	j	80006b7c <main_20+0x1e>
    80006b98:	023830b3          	mulhu	ra,a6,gp
    80006b9c:	01ca4133          	xor	sp,s4,t3
    80006ba0:	01a31093          	slli	ra,t1,0x1a
    80006ba4:	8e49                	or	a2,a2,a0
    80006ba6:	89d9                	andi	a1,a1,22
    80006ba8:	5be3e993          	ori	s3,t2,1470
    80006bac:	0001                	nop
    80006bae:	0085e263          	bltu	a1,s0,80006bb2 <main_20+0x54>
    80006bb2:	9a7e                	add	s4,s4,t6
    80006bb4:	00ce1c1b          	slliw	s8,t3,0xc
    80006bb8:	000b561b          	srliw	a2,s6,0x0
    80006bbc:	0aa6                	slli	s5,s5,0x9
    80006bbe:	0001                	nop
    80006bc0:	41bb519b          	sraiw	gp,s6,0x1b
    80006bc4:	0001                	nop
    80006bc6:	01b55bbb          	srlw	s7,a0,s11
    80006bca:	03272133          	mulhsu	sp,a4,s2
    80006bce:	9db9                	addw	a1,a1,a4
    80006bd0:	e309                	bnez	a4,80006bd2 <main_20+0x74>
    80006bd2:	41bb519b          	sraiw	gp,s6,0x1b
    80006bd6:	02a986bb          	mulw	a3,s3,a0
    80006bda:	8c21                	xor	s0,s0,s0
    80006bdc:	8a3a                	mv	s4,a4
    80006bde:	40dc89bb          	subw	s3,s9,a3
    80006be2:	9db9                	addw	a1,a1,a4
    80006be4:	03eec933          	div	s2,t4,t5
    80006be8:	000b561b          	srliw	a2,s6,0x0
    80006bec:	000725b3          	sltz	a1,a4
    80006bf0:	02deedbb          	remw	s11,t4,a3
    80006bf4:	8c21                	xor	s0,s0,s0
    80006bf6:	9db9                	addw	a1,a1,a4
    80006bf8:	0094bb33          	sltu	s6,s1,s1
    80006bfc:	000807bb          	addw	a5,a6,zero
    80006c00:	69ad                	lui	s3,0xb
    80006c02:	40dc89bb          	subw	s3,s9,a3
    80006c06:	e3314393          	xori	t2,sp,-461
    80006c0a:	03272133          	mulhsu	sp,a4,s2
    80006c0e:	03eec933          	div	s2,t4,t5
    80006c12:	41bb519b          	sraiw	gp,s6,0x1b
    80006c16:	0a6c4417          	auipc	s0,0xa6c4
    80006c1a:	0094bb33          	sltu	s6,s1,s1
    80006c1e:	0094bb33          	sltu	s6,s1,s1
    80006c22:	02d04e63          	bgtz	a3,80006c5e <main_20+0x100>
    80006c26:	000725b3          	sltz	a1,a4
    80006c2a:	0094bb33          	sltu	s6,s1,s1
    80006c2e:	00d316bb          	sllw	a3,t1,a3
    80006c32:	023830b3          	mulhu	ra,a6,gp
    80006c36:	edf82113          	slti	sp,a6,-289
    80006c3a:	0001                	nop
    80006c3c:	4368d313          	srai	t1,a7,0x36
    80006c40:	00d04463          	bgtz	a3,80006c48 <main_20+0xea>
    80006c44:	018a5213          	srli	tp,s4,0x18
    80006c48:	009bf963          	bgeu	s7,s1,80006c5a <main_20+0xfc>
    80006c4c:	93a6ba13          	sltiu	s4,a3,-1734
    80006c50:	417dd533          	sra	a0,s11,s7
    80006c54:	ca8d                	beqz	a3,80006c86 <main_20+0x128>
    80006c56:	002495b3          	sll	a1,s1,sp
    80006c5a:	002495b3          	sll	a1,s1,sp
    80006c5e:	9a7e                	add	s4,s4,t6
    80006c60:	0094bb33          	sltu	s6,s1,s1
    80006c64:	9a7e                	add	s4,s4,t6
    80006c66:	00d316bb          	sllw	a3,t1,a3
    80006c6a:	82f9                	srli	a3,a3,0x1e
    80006c6c:	02eb76bb          	remuw	a3,s6,a4
    80006c70:	40dc89bb          	subw	s3,s9,a3
    80006c74:	02061833          	mulh	a6,a2,zero
    80006c78:	09730a93          	addi	s5,t1,151
    80006c7c:	8e49                	or	a2,a2,a0
    80006c7e:	9a7e                	add	s4,s4,t6
    80006c80:	8e49                	or	a2,a2,a0
    80006c82:	00ce1c1b          	slliw	s8,t3,0xc
    80006c86:	01b55bbb          	srlw	s7,a0,s11
    80006c8a:	9d01                	subw	a0,a0,s0
    80006c8c:	41bb519b          	sraiw	gp,s6,0x1b
    80006c90:	0a6c4417          	auipc	s0,0xa6c4
    80006c94:	002495b3          	sll	a1,s1,sp
    80006c98:	003a9463          	bne	s5,gp,80006ca0 <main_20+0x142>
    80006c9c:	28d0f213          	andi	tp,ra,653
    80006ca0:	023830b3          	mulhu	ra,a6,gp
    80006ca4:	02061833          	mulh	a6,a2,zero
    80006ca8:	00ce1c1b          	slliw	s8,t3,0xc
    80006cac:	02deedbb          	remw	s11,t4,a3
    80006cb0:	9d01                	subw	a0,a0,s0
    80006cb2:	3f7d                	addiw	t5,t5,-1
    80006cb4:	02415b3b          	divuw	s6,sp,tp
    80006cb8:	0091ddb3          	srl	s11,gp,s1
    80006cbc:	09730a93          	addi	s5,t1,151
    80006cc0:	00d316bb          	sllw	a3,t1,a3
    80006cc4:	8e49                	or	a2,a2,a0
    80006cc6:	01ca4133          	xor	sp,s4,t3
    80006cca:	02fffcb3          	remu	s9,t6,a5
    80006cce:	000725b3          	sltz	a1,a4
    80006cd2:	0094bb33          	sltu	s6,s1,s1
    80006cd6:	03498fb3          	mul	t6,s3,s4
    80006cda:	717d                	addi	sp,sp,-16
    80006cdc:	01e203b3          	add	t2,tp,t5
    80006ce0:	02d04763          	bgtz	a3,80006d0e <main_20+0x1b0>
    80006ce4:	03f76733          	rem	a4,a4,t6
    80006ce8:	56fd                	li	a3,-1
    80006cea:	41bb519b          	sraiw	gp,s6,0x1b
    80006cee:	69ad                	lui	s3,0xb
    80006cf0:	41bb519b          	sraiw	gp,s6,0x1b
    80006cf4:	edf82113          	slti	sp,a6,-289
    80006cf8:	009bfe63          	bgeu	s7,s1,80006d14 <main_20+0x1b6>
    80006cfc:	28d0f213          	andi	tp,ra,653
    80006d00:	0085e863          	bltu	a1,s0,80006d10 <main_20+0x1b2>
    80006d04:	8e49                	or	a2,a2,a0
    80006d06:	000b561b          	srliw	a2,s6,0x0
    80006d0a:	02415b3b          	divuw	s6,sp,tp
    80006d0e:	04a9                	addi	s1,s1,10
    80006d10:	417dd533          	sra	a0,s11,s7
    80006d14:	02fffcb3          	remu	s9,t6,a5
    80006d18:	86d9                	srai	a3,a3,0x16
    80006d1a:	03498fb3          	mul	t6,s3,s4
    80006d1e:	000725b3          	sltz	a1,a4
    80006d22:	00d04363          	bgtz	a3,80006d28 <main_20+0x1ca>
    80006d26:	0001                	nop
    80006d28:	02415b3b          	divuw	s6,sp,tp
    80006d2c:	86d9                	srai	a3,a3,0x16
    80006d2e:	89d9                	andi	a1,a1,22
    80006d30:	02fffcb3          	remu	s9,t6,a5
    80006d34:	002495b3          	sll	a1,s1,sp
    80006d38:	41660233          	sub	tp,a2,s6
    80006d3c:	4368d313          	srai	t1,a7,0x36
    80006d40:	3f7d                	addiw	t5,t5,-1
    80006d42:	41205ebb          	sraw	t4,zero,s2
    80006d46:	00d04363          	bgtz	a3,80006d4c <main_20+0x1ee>
    80006d4a:	3f7d                	addiw	t5,t5,-1
    80006d4c:	04a9                	addi	s1,s1,10
    80006d4e:	0001                	nop
    80006d50:	02061833          	mulh	a6,a2,zero
    80006d54:	02a986bb          	mulw	a3,s3,a0
    80006d58:	0085e563          	bltu	a1,s0,80006d62 <main_20+0x204>
    80006d5c:	89d9                	andi	a1,a1,22
    80006d5e:	01b55bbb          	srlw	s7,a0,s11
    80006d62:	0085e463          	bltu	a1,s0,80006d6a <main_20+0x20c>
    80006d66:	000807bb          	addw	a5,a6,zero
    80006d6a:	edf82113          	slti	sp,a6,-289
    80006d6e:	0091ddb3          	srl	s11,gp,s1
    80006d72:	8c21                	xor	s0,s0,s0
    80006d74:	03d44f3b          	divw	t5,s0,t4
    80006d78:	01b55bbb          	srlw	s7,a0,s11
    80006d7c:	09730a93          	addi	s5,t1,151
    80006d80:	0aa6                	slli	s5,s5,0x9
    80006d82:	8f8d                	sub	a5,a5,a1
    80006d84:	00d316bb          	sllw	a3,t1,a3
    80006d88:	84627b37          	lui	s6,0x84627
    80006d8c:	8f8d                	sub	a5,a5,a1
    80006d8e:	03f76733          	rem	a4,a4,t6
    80006d92:	8c79                	and	s0,s0,a4
    80006d94:	04a9                	addi	s1,s1,10
    80006d96:	e72d                	bnez	a4,80006e00 <main_60_0_t+0x28>
    80006d98:	e3314393          	xori	t2,sp,-461
    80006d9c:	003a9363          	bne	s5,gp,80006da2 <main_20+0x244>
    80006da0:	04a9                	addi	s1,s1,10
    80006da2:	41660233          	sub	tp,a2,s6
    80006da6:	02deedbb          	remw	s11,t4,a3
    80006daa:	000807bb          	addw	a5,a6,zero
    80006dae:	0588                	addi	a0,sp,704
    80006db0:	01b55bbb          	srlw	s7,a0,s11
    80006db4:	0001                	nop
    80006db6:	05b95f63          	bge	s2,s11,80006e14 <main_60_0_t+0x3c>
    80006dba:	02415b3b          	divuw	s6,sp,tp
    80006dbe:	000807bb          	addw	a5,a6,zero
    80006dc2:	3f7d                	addiw	t5,t5,-1
    80006dc4:	0001                	nop
    80006dc6:	5b6d                	li	s6,-5
    80006dc8:	5c39                	li	s8,-18

0000000080006dca <main_60_1_t>:
    80006dca:	03eec9b3          	div	s3,t4,t5
    80006dce:	41660233          	sub	tp,a2,s6
    80006dd2:	1b65                	addi	s6,s6,-7 # ffffffff84626ff9 <_end+0xffffffff045fa671>
    80006dd4:	4b95                	li	s7,5
    80006dd6:	494d                	li	s2,19

0000000080006dd8 <main_60_0_t>:
    80006dd8:	edf82113          	slti	sp,a6,-289
    80006ddc:	0a26                	slli	s4,s4,0x9
    80006dde:	0b91                	addi	s7,s7,4
    80006de0:	ff2bcce3          	blt	s7,s2,80006dd8 <main_60_0_t>
    80006de4:	ff8b53e3          	bge	s6,s8,80006dca <main_60_1_t>
    80006de8:	02eb76bb          	remuw	a3,s6,a4
    80006dec:	41205ebb          	sraw	t4,zero,s2
    80006df0:	00d316bb          	sllw	a3,t1,a3
    80006df4:	01b95263          	bge	s2,s11,80006df8 <main_60_0_t+0x20>
    80006df8:	03d44f3b          	divw	t5,s0,t4
    80006dfc:	84627b37          	lui	s6,0x84627
    80006e00:	03b60a63          	beq	a2,s11,80006e34 <main_60_0_t+0x5c>
    80006e04:	9db9                	addw	a1,a1,a4
    80006e06:	9a7e                	add	s4,s4,t6
    80006e08:	02415b3b          	divuw	s6,sp,tp
    80006e0c:	000807bb          	addw	a5,a6,zero
    80006e10:	84627b37          	lui	s6,0x84627
    80006e14:	0588                	addi	a0,sp,704
    80006e16:	28d0f213          	andi	tp,ra,653
    80006e1a:	89d9                	andi	a1,a1,22
    80006e1c:	9d01                	subw	a0,a0,s0
    80006e1e:	05b95563          	bge	s2,s11,80006e68 <main_60_0_t+0x90>
    80006e22:	0aa6                	slli	s5,s5,0x9
    80006e24:	002495b3          	sll	a1,s1,sp
    80006e28:	023a9263          	bne	s5,gp,80006e4c <main_60_0_t+0x74>
    80006e2c:	03f76733          	rem	a4,a4,t6
    80006e30:	009bfa63          	bgeu	s7,s1,80006e44 <main_60_0_t+0x6c>
    80006e34:	000b561b          	srliw	a2,s6,0x0
    80006e38:	00d316bb          	sllw	a3,t1,a3
    80006e3c:	41bb519b          	sraiw	gp,s6,0x1b
    80006e40:	03eec933          	div	s2,t4,t5
    80006e44:	0a6c4417          	auipc	s0,0xa6c4
    80006e48:	02b2dc33          	divu	s8,t0,a1
    80006e4c:	9db9                	addw	a1,a1,a4
    80006e4e:	02b2dc33          	divu	s8,t0,a1
    80006e52:	28d0f213          	andi	tp,ra,653
    80006e56:	e3314393          	xori	t2,sp,-461
    80006e5a:	0485e163          	bltu	a1,s0,80006e9c <main_60_0_t+0xc4>
    80006e5e:	8f8d                	sub	a5,a5,a1
    80006e60:	02061833          	mulh	a6,a2,zero
    80006e64:	02deedbb          	remw	s11,t4,a3
    80006e68:	3f7d                	addiw	t5,t5,-1
    80006e6a:	018a5213          	srli	tp,s4,0x18
    80006e6e:	023830b3          	mulhu	ra,a6,gp
    80006e72:	003a9263          	bne	s5,gp,80006e76 <main_60_0_t+0x9e>
    80006e76:	9a7e                	add	s4,s4,t6
    80006e78:	003a9463          	bne	s5,gp,80006e80 <main_60_0_t+0xa8>
    80006e7c:	4368d313          	srai	t1,a7,0x36
    80006e80:	03d44f3b          	divw	t5,s0,t4
    80006e84:	002495b3          	sll	a1,s1,sp
    80006e88:	023830b3          	mulhu	ra,a6,gp
    80006e8c:	edf82113          	slti	sp,a6,-289
    80006e90:	01e203b3          	add	t2,tp,t5
    80006e94:	03d44f3b          	divw	t5,s0,t4
    80006e98:	003a9e63          	bne	s5,gp,80006eb4 <main_60_0_t+0xdc>
    80006e9c:	0588                	addi	a0,sp,704
    80006e9e:	03498fb3          	mul	t6,s3,s4
    80006ea2:	04a9                	addi	s1,s1,10
    80006ea4:	40dc89bb          	subw	s3,s9,a3
    80006ea8:	0166feb3          	and	t4,a3,s6
    80006eac:	41bb519b          	sraiw	gp,s6,0x1b
    80006eb0:	03272133          	mulhsu	sp,a4,s2
    80006eb4:	03eec933          	div	s2,t4,t5
    80006eb8:	02deedbb          	remw	s11,t4,a3
    80006ebc:	00d316bb          	sllw	a3,t1,a3
    80006ec0:	03d44f3b          	divw	t5,s0,t4
    80006ec4:	00d316bb          	sllw	a3,t1,a3
    80006ec8:	04a9                	addi	s1,s1,10
    80006eca:	9d01                	subw	a0,a0,s0
    80006ecc:	02deedbb          	remw	s11,t4,a3
    80006ed0:	69ad                	lui	s3,0xb
    80006ed2:	0a6c4417          	auipc	s0,0xa6c4
    80006ed6:	02a986bb          	mulw	a3,s3,a0
    80006eda:	0085e863          	bltu	a1,s0,80006eea <main_60_0_t+0x112>
    80006ede:	84627b37          	lui	s6,0x84627
    80006ee2:	69ad                	lui	s3,0xb
    80006ee4:	03eec933          	div	s2,t4,t5
    80006ee8:	9d01                	subw	a0,a0,s0
    80006eea:	9d01                	subw	a0,a0,s0
    80006eec:	023a9663          	bne	s5,gp,80006f18 <main_60_0_t+0x140>
    80006ef0:	8e49                	or	a2,a2,a0
    80006ef2:	00ce1c1b          	slliw	s8,t3,0xc
    80006ef6:	28d0f213          	andi	tp,ra,653
    80006efa:	002495b3          	sll	a1,s1,sp
    80006efe:	0285e363          	bltu	a1,s0,80006f24 <main_60_0_t+0x14c>
    80006f02:	02eb76bb          	remuw	a3,s6,a4
    80006f06:	03498fb3          	mul	t6,s3,s4
    80006f0a:	000807bb          	addw	a5,a6,zero
    80006f0e:	018a5213          	srli	tp,s4,0x18
    80006f12:	8c79                	and	s0,s0,a4
    80006f14:	edf82113          	slti	sp,a6,-289
    80006f18:	41660233          	sub	tp,a2,s6
    80006f1c:	01e203b3          	add	t2,tp,t5
    80006f20:	00d316bb          	sllw	a3,t1,a3
    80006f24:	01ca4133          	xor	sp,s4,t3
    80006f28:	41bb519b          	sraiw	gp,s6,0x1b
    80006f2c:	edf82113          	slti	sp,a6,-289
    80006f30:	01a31093          	slli	ra,t1,0x1a
    80006f34:	41bb519b          	sraiw	gp,s6,0x1b
    80006f38:	0a6c4417          	auipc	s0,0xa6c4
    80006f3c:	ca91                	beqz	a3,80006f50 <main_60_0_t+0x178>
    80006f3e:	02b2dc33          	divu	s8,t0,a1
    80006f42:	000807bb          	addw	a5,a6,zero
    80006f46:	02061833          	mulh	a6,a2,zero
    80006f4a:	02d04f63          	bgtz	a3,80006f88 <main_60_0_t+0x1b0>
    80006f4e:	8a3a                	mv	s4,a4
    80006f50:	02fffcb3          	remu	s9,t6,a5
    80006f54:	41205ebb          	sraw	t4,zero,s2
    80006f58:	09730a93          	addi	s5,t1,151
    80006f5c:	82f9                	srli	a3,a3,0x1e
    80006f5e:	0a6c4417          	auipc	s0,0xa6c4
    80006f62:	ca85                	beqz	a3,80006f92 <main_60_0_t+0x1ba>
    80006f64:	41bb519b          	sraiw	gp,s6,0x1b
    80006f68:	0001                	nop
    80006f6a:	41660233          	sub	tp,a2,s6
    80006f6e:	03b60863          	beq	a2,s11,80006f9e <main_60_0_t+0x1c6>
    80006f72:	02415b3b          	divuw	s6,sp,tp
    80006f76:	023830b3          	mulhu	ra,a6,gp
    80006f7a:	09730a93          	addi	s5,t1,151
    80006f7e:	009bf463          	bgeu	s7,s1,80006f86 <main_60_0_t+0x1ae>
    80006f82:	c295                	beqz	a3,80006fa6 <main_60_0_t+0x1ce>
    80006f84:	56fd                	li	a3,-1
    80006f86:	9a7e                	add	s4,s4,t6
    80006f88:	c291                	beqz	a3,80006f8c <main_60_0_t+0x1b4>
    80006f8a:	3f7d                	addiw	t5,t5,-1
    80006f8c:	01b55bbb          	srlw	s7,a0,s11
    80006f90:	9a7e                	add	s4,s4,t6
    80006f92:	edf82113          	slti	sp,a6,-289
    80006f96:	02deedbb          	remw	s11,t4,a3
    80006f9a:	4368d313          	srai	t1,a7,0x36
    80006f9e:	02415b3b          	divuw	s6,sp,tp
    80006fa2:	018a5213          	srli	tp,s4,0x18
    80006fa6:	00d316bb          	sllw	a3,t1,a3
    80006faa:	03b95c63          	bge	s2,s11,80006fe2 <main_60_0_t+0x20a>
    80006fae:	84627b37          	lui	s6,0x84627
    80006fb2:	000807bb          	addw	a5,a6,zero
    80006fb6:	0085e863          	bltu	a1,s0,80006fc6 <main_60_0_t+0x1ee>
    80006fba:	0001                	nop
    80006fbc:	00ce1c1b          	slliw	s8,t3,0xc
    80006fc0:	01e203b3          	add	t2,tp,t5
    80006fc4:	8f8d                	sub	a5,a5,a1
    80006fc6:	02b2dc33          	divu	s8,t0,a1
    80006fca:	56fd                	li	a3,-1
    80006fcc:	03eec933          	div	s2,t4,t5
    80006fd0:	0cc1881b          	addiw	a6,gp,204
    80006fd4:	023830b3          	mulhu	ra,a6,gp
    80006fd8:	02415b3b          	divuw	s6,sp,tp
    80006fdc:	03272133          	mulhsu	sp,a4,s2
    80006fe0:	9a7e                	add	s4,s4,t6
    80006fe2:	0285ef63          	bltu	a1,s0,80007020 <main_60_0_t+0x248>
    80006fe6:	03498fb3          	mul	t6,s3,s4
    80006fea:	02deedbb          	remw	s11,t4,a3
    80006fee:	3f7d                	addiw	t5,t5,-1
    80006ff0:	0cc1881b          	addiw	a6,gp,204
    80006ff4:	5be3e993          	ori	s3,t2,1470
    80006ff8:	0166feb3          	and	t4,a3,s6
    80006ffc:	e705                	bnez	a4,80007024 <main_60_0_t+0x24c>
    80006ffe:	e701                	bnez	a4,80007006 <main_60_0_t+0x22e>
    80007000:	8a3a                	mv	s4,a4
    80007002:	03272133          	mulhsu	sp,a4,s2
    80007006:	0094bb33          	sltu	s6,s1,s1
    8000700a:	93a6ba13          	sltiu	s4,a3,-1734
    8000700e:	04a9                	addi	s1,s1,10
    80007010:	03eec933          	div	s2,t4,t5
    80007014:	9a7e                	add	s4,s4,t6
    80007016:	04a9                	addi	s1,s1,10
    80007018:	03eec933          	div	s2,t4,t5
    8000701c:	02d04d63          	bgtz	a3,80007056 <main_60_0_t+0x27e>
    80007020:	023830b3          	mulhu	ra,a6,gp
    80007024:	9a7e                	add	s4,s4,t6
    80007026:	03498fb3          	mul	t6,s3,s4
    8000702a:	03b95263          	bge	s2,s11,8000704e <main_60_0_t+0x276>
    8000702e:	01a31093          	slli	ra,t1,0x1a
    80007032:	02fffcb3          	remu	s9,t6,a5
    80007036:	40dc89bb          	subw	s3,s9,a3
    8000703a:	01b95263          	bge	s2,s11,8000703e <main_60_0_t+0x266>
    8000703e:	01a31093          	slli	ra,t1,0x1a
    80007042:	002495b3          	sll	a1,s1,sp
    80007046:	02deedbb          	remw	s11,t4,a3
    8000704a:	0085ee63          	bltu	a1,s0,80007066 <main_60_0_t+0x28e>
    8000704e:	5be3e993          	ori	s3,t2,1470
    80007052:	018a5213          	srli	tp,s4,0x18
    80007056:	717d                	addi	sp,sp,-16
    80007058:	3f7d                	addiw	t5,t5,-1
    8000705a:	0285ed63          	bltu	a1,s0,80007094 <main_60_0_t+0x2bc>
    8000705e:	82f9                	srli	a3,a3,0x1e
    80007060:	0aa6                	slli	s5,s5,0x9
    80007062:	0091ddb3          	srl	s11,gp,s1
    80007066:	01ca4133          	xor	sp,s4,t3
    8000706a:	8e49                	or	a2,a2,a0
    8000706c:	000807bb          	addw	a5,a6,zero
    80007070:	01b55bbb          	srlw	s7,a0,s11
    80007074:	8e49                	or	a2,a2,a0
    80007076:	003a9363          	bne	s5,gp,8000707c <main_60_0_t+0x2a4>
    8000707a:	8c79                	and	s0,s0,a4
    8000707c:	0aa6                	slli	s5,s5,0x9
    8000707e:	000725b3          	sltz	a1,a4
    80007082:	edf82113          	slti	sp,a6,-289
    80007086:	00ce1c1b          	slliw	s8,t3,0xc
    8000708a:	86d9                	srai	a3,a3,0x16
    8000708c:	9db9                	addw	a1,a1,a4
    8000708e:	0588                	addi	a0,sp,704
    80007090:	93a6ba13          	sltiu	s4,a3,-1734
    80007094:	0cc1881b          	addiw	a6,gp,204
    80007098:	01b60963          	beq	a2,s11,800070aa <main_60_0_t+0x2d2>
    8000709c:	edf82113          	slti	sp,a6,-289
    800070a0:	89d9                	andi	a1,a1,22
    800070a2:	03498fb3          	mul	t6,s3,s4
    800070a6:	02deedbb          	remw	s11,t4,a3
    800070aa:	023830b3          	mulhu	ra,a6,gp
    800070ae:	02d04463          	bgtz	a3,800070d6 <main_60_0_t+0x2fe>
    800070b2:	02eb76bb          	remuw	a3,s6,a4
    800070b6:	01e203b3          	add	t2,tp,t5
    800070ba:	8c21                	xor	s0,s0,s0
    800070bc:	84627b37          	lui	s6,0x84627
    800070c0:	8e49                	or	a2,a2,a0
    800070c2:	0094bb33          	sltu	s6,s1,s1
    800070c6:	41205ebb          	sraw	t4,zero,s2
    800070ca:	41bb519b          	sraiw	gp,s6,0x1b
    800070ce:	003de5b3          	or	a1,s11,gp
    800070d2:	9db9                	addw	a1,a1,a4
    800070d4:	9db9                	addw	a1,a1,a4
    800070d6:	40dc89bb          	subw	s3,s9,a3
    800070da:	41660233          	sub	tp,a2,s6
    800070de:	03d44f3b          	divw	t5,s0,t4
    800070e2:	3f7d                	addiw	t5,t5,-1
    800070e4:	03272133          	mulhsu	sp,a4,s2
    800070e8:	01ca4133          	xor	sp,s4,t3
    800070ec:	03b95f63          	bge	s2,s11,8000712a <main_60_0_t+0x352>
    800070f0:	41660233          	sub	tp,a2,s6
    800070f4:	002495b3          	sll	a1,s1,sp
    800070f8:	417dd533          	sra	a0,s11,s7
    800070fc:	02415b3b          	divuw	s6,sp,tp
    80007100:	e719                	bnez	a4,8000710e <main_60_0_t+0x336>
    80007102:	84627b37          	lui	s6,0x84627
    80007106:	8c79                	and	s0,s0,a4
    80007108:	56fd                	li	a3,-1
    8000710a:	05b60163          	beq	a2,s11,8000714c <main_60_0_t+0x374>
    8000710e:	0091ddb3          	srl	s11,gp,s1
    80007112:	69ad                	lui	s3,0xb
    80007114:	4368d313          	srai	t1,a7,0x36
    80007118:	01b55bbb          	srlw	s7,a0,s11
    8000711c:	02eb76bb          	remuw	a3,s6,a4
    80007120:	717d                	addi	sp,sp,-16
    80007122:	01b60663          	beq	a2,s11,8000712e <main_60_0_t+0x356>
    80007126:	40dc89bb          	subw	s3,s9,a3
    8000712a:	0285ea63          	bltu	a1,s0,8000715e <main_60_0_t+0x386>
    8000712e:	02415b3b          	divuw	s6,sp,tp
    80007132:	0cc1881b          	addiw	a6,gp,204
    80007136:	03272133          	mulhsu	sp,a4,s2
    8000713a:	3f7d                	addiw	t5,t5,-1
    8000713c:	000b561b          	srliw	a2,s6,0x0
    80007140:	0588                	addi	a0,sp,704
    80007142:	9db9                	addw	a1,a1,a4
    80007144:	003de5b3          	or	a1,s11,gp
    80007148:	01b55bbb          	srlw	s7,a0,s11
    8000714c:	41205ebb          	sraw	t4,zero,s2
    80007150:	002495b3          	sll	a1,s1,sp
    80007154:	9a7e                	add	s4,s4,t6
    80007156:	02415b3b          	divuw	s6,sp,tp
    8000715a:	56fd                	li	a3,-1
    8000715c:	56fd                	li	a3,-1
    8000715e:	9d01                	subw	a0,a0,s0
    80007160:	41660233          	sub	tp,a2,s6
    80007164:	0091ddb3          	srl	s11,gp,s1
    80007168:	8e49                	or	a2,a2,a0
    8000716a:	8a3a                	mv	s4,a4
    8000716c:	05b95163          	bge	s2,s11,800071ae <main_60_0_t+0x3d6>
    80007170:	c695                	beqz	a3,8000719c <main_60_0_t+0x3c4>
    80007172:	01a31093          	slli	ra,t1,0x1a
    80007176:	02061833          	mulh	a6,a2,zero
    8000717a:	02deedbb          	remw	s11,t4,a3
    8000717e:	0001                	nop
    80007180:	01ca4133          	xor	sp,s4,t3
    80007184:	89d9                	andi	a1,a1,22
    80007186:	03eec933          	div	s2,t4,t5
    8000718a:	03d44f3b          	divw	t5,s0,t4
    8000718e:	023830b3          	mulhu	ra,a6,gp
    80007192:	0a6c4417          	auipc	s0,0xa6c4
    80007196:	28d0f213          	andi	tp,ra,653
    8000719a:	0001                	nop
    8000719c:	82f9                	srli	a3,a3,0x1e
    8000719e:	000807bb          	addw	a5,a6,zero
    800071a2:	02415b3b          	divuw	s6,sp,tp
    800071a6:	0001                	nop
    800071a8:	82f9                	srli	a3,a3,0x1e
    800071aa:	01e203b3          	add	t2,tp,t5
    800071ae:	edf82113          	slti	sp,a6,-289
    800071b2:	01a31093          	slli	ra,t1,0x1a
    800071b6:	000807bb          	addw	a5,a6,zero
    800071ba:	000807bb          	addw	a5,a6,zero
    800071be:	0166feb3          	and	t4,a3,s6
    800071c2:	02415b3b          	divuw	s6,sp,tp
    800071c6:	0091ddb3          	srl	s11,gp,s1
    800071ca:	000b561b          	srliw	a2,s6,0x0
    800071ce:	28d0f213          	andi	tp,ra,653
    800071d2:	03b60d63          	beq	a2,s11,8000720c <main_60_0_t+0x434>
    800071d6:	0166feb3          	and	t4,a3,s6
    800071da:	00d04b63          	bgtz	a3,800071f0 <main_60_0_t+0x418>
    800071de:	000725b3          	sltz	a1,a4
    800071e2:	03eec933          	div	s2,t4,t5
    800071e6:	018a5213          	srli	tp,s4,0x18
    800071ea:	8c21                	xor	s0,s0,s0
    800071ec:	84627b37          	lui	s6,0x84627
    800071f0:	0091ddb3          	srl	s11,gp,s1
    800071f4:	9d01                	subw	a0,a0,s0
    800071f6:	e3314393          	xori	t2,sp,-461
    800071fa:	03eec933          	div	s2,t4,t5
    800071fe:	3f7d                	addiw	t5,t5,-1
    80007200:	84627b37          	lui	s6,0x84627
    80007204:	41bb519b          	sraiw	gp,s6,0x1b
    80007208:	5be3e993          	ori	s3,t2,1470
    8000720c:	c689                	beqz	a3,80007216 <main_60_0_t+0x43e>
    8000720e:	93a6ba13          	sltiu	s4,a3,-1734
    80007212:	84627b37          	lui	s6,0x84627
    80007216:	4368d313          	srai	t1,a7,0x36
    8000721a:	01e203b3          	add	t2,tp,t5
    8000721e:	0588                	addi	a0,sp,704
    80007220:	02061833          	mulh	a6,a2,zero
    80007224:	e3314393          	xori	t2,sp,-461
    80007228:	01ca4133          	xor	sp,s4,t3
    8000722c:	0a6c4417          	auipc	s0,0xa6c4
    80007230:	029bf263          	bgeu	s7,s1,80007254 <main_60_0_t+0x47c>
    80007234:	56fd                	li	a3,-1
    80007236:	02eb76bb          	remuw	a3,s6,a4
    8000723a:	28d0f213          	andi	tp,ra,653
    8000723e:	01b60463          	beq	a2,s11,80007246 <main_60_0_t+0x46e>
    80007242:	03272133          	mulhsu	sp,a4,s2
    80007246:	02061833          	mulh	a6,a2,zero
    8000724a:	5be3e993          	ori	s3,t2,1470
    8000724e:	0aa6                	slli	s5,s5,0x9
    80007250:	023830b3          	mulhu	ra,a6,gp
    80007254:	02fffcb3          	remu	s9,t6,a5
    80007258:	0166feb3          	and	t4,a3,s6
    8000725c:	02061833          	mulh	a6,a2,zero
    80007260:	03498fb3          	mul	t6,s3,s4
    80007264:	0094bb33          	sltu	s6,s1,s1
    80007268:	02061833          	mulh	a6,a2,zero
    8000726c:	0cc1881b          	addiw	a6,gp,204
    80007270:	003de5b3          	or	a1,s11,gp
    80007274:	4368d313          	srai	t1,a7,0x36
    80007278:	8a3a                	mv	s4,a4
    8000727a:	8c79                	and	s0,s0,a4
    8000727c:	82f9                	srli	a3,a3,0x1e
    8000727e:	84627b37          	lui	s6,0x84627
    80007282:	0094bb33          	sltu	s6,s1,s1
    80007286:	4368d313          	srai	t1,a7,0x36
    8000728a:	09730a93          	addi	s5,t1,151
    8000728e:	4368d313          	srai	t1,a7,0x36
    80007292:	018a5213          	srli	tp,s4,0x18
    80007296:	04a9                	addi	s1,s1,10
    80007298:	003a9963          	bne	s5,gp,800072aa <main_60_0_t+0x4d2>
    8000729c:	9db9                	addw	a1,a1,a4
    8000729e:	000725b3          	sltz	a1,a4
    800072a2:	0091ddb3          	srl	s11,gp,s1
    800072a6:	03d44f3b          	divw	t5,s0,t4
    800072aa:	09730a93          	addi	s5,t1,151
    800072ae:	01b55bbb          	srlw	s7,a0,s11
    800072b2:	82f9                	srli	a3,a3,0x1e
    800072b4:	84627b37          	lui	s6,0x84627
    800072b8:	8a3a                	mv	s4,a4
    800072ba:	41205ebb          	sraw	t4,zero,s2
    800072be:	e309                	bnez	a4,800072c0 <main_60_0_t+0x4e8>
    800072c0:	02d04163          	bgtz	a3,800072e2 <main_60_0_t+0x50a>
    800072c4:	e3314393          	xori	t2,sp,-461
    800072c8:	000b561b          	srliw	a2,s6,0x0
    800072cc:	003de5b3          	or	a1,s11,gp
    800072d0:	01b55bbb          	srlw	s7,a0,s11
    800072d4:	03b95d63          	bge	s2,s11,8000730e <main_60_0_t+0x536>
    800072d8:	5be3e993          	ori	s3,t2,1470
    800072dc:	417dd533          	sra	a0,s11,s7
    800072e0:	8c21                	xor	s0,s0,s0
    800072e2:	02deedbb          	remw	s11,t4,a3
    800072e6:	41205ebb          	sraw	t4,zero,s2
    800072ea:	82f9                	srli	a3,a3,0x1e
    800072ec:	002495b3          	sll	a1,s1,sp
    800072f0:	02eb76bb          	remuw	a3,s6,a4
    800072f4:	0091ddb3          	srl	s11,gp,s1
    800072f8:	03eec933          	div	s2,t4,t5
    800072fc:	28d0f213          	andi	tp,ra,653
    80007300:	03eec933          	div	s2,t4,t5
    80007304:	000b561b          	srliw	a2,s6,0x0
    80007308:	717d                	addi	sp,sp,-16
    8000730a:	02415b3b          	divuw	s6,sp,tp
    8000730e:	0085e363          	bltu	a1,s0,80007314 <main_60_0_t+0x53c>
    80007312:	8c21                	xor	s0,s0,s0
    80007314:	0588                	addi	a0,sp,704
    80007316:	00d316bb          	sllw	a3,t1,a3
    8000731a:	717d                	addi	sp,sp,-16
    8000731c:	3f7d                	addiw	t5,t5,-1
    8000731e:	02b2dc33          	divu	s8,t0,a1
    80007322:	82f9                	srli	a3,a3,0x1e
    80007324:	417dd533          	sra	a0,s11,s7
    80007328:	e321                	bnez	a4,80007368 <main_60_0_t+0x590>
    8000732a:	41205ebb          	sraw	t4,zero,s2
    8000732e:	02b2dc33          	divu	s8,t0,a1
    80007332:	717d                	addi	sp,sp,-16
    80007334:	8a3a                	mv	s4,a4
    80007336:	0166feb3          	and	t4,a3,s6
    8000733a:	002495b3          	sll	a1,s1,sp
    8000733e:	000b561b          	srliw	a2,s6,0x0
    80007342:	01e203b3          	add	t2,tp,t5
    80007346:	003a9d63          	bne	s5,gp,80007360 <main_60_0_t+0x588>
    8000734a:	28d0f213          	andi	tp,ra,653
    8000734e:	93a6ba13          	sltiu	s4,a3,-1734
    80007352:	86d9                	srai	a3,a3,0x16
    80007354:	8e49                	or	a2,a2,a0
    80007356:	01e203b3          	add	t2,tp,t5
    8000735a:	8e49                	or	a2,a2,a0
    8000735c:	02415b3b          	divuw	s6,sp,tp
    80007360:	018a5213          	srli	tp,s4,0x18
    80007364:	56fd                	li	a3,-1
    80007366:	0aa6                	slli	s5,s5,0x9
    80007368:	9db9                	addw	a1,a1,a4
    8000736a:	00ce1c1b          	slliw	s8,t3,0xc
    8000736e:	0a6c4417          	auipc	s0,0xa6c4

0000000080007372 <main_9>:
    80007372:	02e00eef          	jal	t4,800073a0 <main_9+0x2e>
    80007376:	010000ef          	jal	80007386 <main_9+0x14>
    8000737a:	020000ef          	jal	8000739a <main_9+0x28>
    8000737e:	a839                	j	8000739c <main_9+0x2a>
    80007380:	014000ef          	jal	80007394 <main_9+0x22>
    80007384:	bfdd                	j	8000737a <main_9+0x8>
    80007386:	ffbff0ef          	jal	80007380 <main_9+0xe>
    8000738a:	a831                	j	800073a6 <main_9+0x34>
    8000738c:	bffd                	j	8000738a <main_9+0x18>
    8000738e:	01c000ef          	jal	800073aa <main_9+0x38>
    80007392:	a019                	j	80007398 <main_9+0x26>
    80007394:	00a000ef          	jal	8000739e <main_9+0x2c>
    80007398:	bff9                	j	80007376 <main_9+0x4>
    8000739a:	b7d5                	j	8000737e <main_9+0xc>
    8000739c:	bfdd                	j	80007392 <main_9+0x20>
    8000739e:	bfc5                	j	8000738e <main_9+0x1c>
    800073a0:	a009                	j	800073a2 <main_9+0x30>
    800073a2:	febff0ef          	jal	8000738c <main_9+0x1a>
    800073a6:	fdfff0ef          	jal	80007384 <main_9+0x12>
    800073aa:	02b2dc33          	divu	s8,t0,a1
    800073ae:	00d04463          	bgtz	a3,800073b6 <main_9+0x44>
    800073b2:	03eec933          	div	s2,t4,t5
    800073b6:	01b55bbb          	srlw	s7,a0,s11
    800073ba:	8c79                	and	s0,s0,a4
    800073bc:	8c21                	xor	s0,s0,s0
    800073be:	84627b37          	lui	s6,0x84627
    800073c2:	82f9                	srli	a3,a3,0x1e
    800073c4:	8e49                	or	a2,a2,a0
    800073c6:	82f9                	srli	a3,a3,0x1e
    800073c8:	01a31093          	slli	ra,t1,0x1a
    800073cc:	03272133          	mulhsu	sp,a4,s2
    800073d0:	40dc89bb          	subw	s3,s9,a3
    800073d4:	41bb519b          	sraiw	gp,s6,0x1b
    800073d8:	0001                	nop
    800073da:	003de5b3          	or	a1,s11,gp
    800073de:	023830b3          	mulhu	ra,a6,gp
    800073e2:	02061833          	mulh	a6,a2,zero
    800073e6:	8c21                	xor	s0,s0,s0
    800073e8:	02fffcb3          	remu	s9,t6,a5
    800073ec:	41205ebb          	sraw	t4,zero,s2
    800073f0:	8f8d                	sub	a5,a5,a1
    800073f2:	003de5b3          	or	a1,s11,gp
    800073f6:	89d9                	andi	a1,a1,22
    800073f8:	4368d313          	srai	t1,a7,0x36
    800073fc:	82f9                	srli	a3,a3,0x1e
    800073fe:	0001                	nop
    80007400:	e31d                	bnez	a4,80007426 <main_9+0xb4>
    80007402:	82f9                	srli	a3,a3,0x1e
    80007404:	002495b3          	sll	a1,s1,sp
    80007408:	023830b3          	mulhu	ra,a6,gp
    8000740c:	0001                	nop
    8000740e:	0285ea63          	bltu	a1,s0,80007442 <main_9+0xd0>
    80007412:	9db9                	addw	a1,a1,a4
    80007414:	02deedbb          	remw	s11,t4,a3
    80007418:	02a986bb          	mulw	a3,s3,a0
    8000741c:	40dc89bb          	subw	s3,s9,a3
    80007420:	40dc89bb          	subw	s3,s9,a3
    80007424:	9db9                	addw	a1,a1,a4
    80007426:	023830b3          	mulhu	ra,a6,gp
    8000742a:	01b55bbb          	srlw	s7,a0,s11
    8000742e:	0aa6                	slli	s5,s5,0x9
    80007430:	01e203b3          	add	t2,tp,t5
    80007434:	8e49                	or	a2,a2,a0
    80007436:	04a9                	addi	s1,s1,10
    80007438:	02fffcb3          	remu	s9,t6,a5
    8000743c:	000807bb          	addw	a5,a6,zero
    80007440:	86d9                	srai	a3,a3,0x16
    80007442:	029bfc63          	bgeu	s7,s1,8000747a <main_9+0x108>
    80007446:	000b561b          	srliw	a2,s6,0x0
    8000744a:	02a986bb          	mulw	a3,s3,a0
    8000744e:	9a7e                	add	s4,s4,t6
    80007450:	41bb519b          	sraiw	gp,s6,0x1b
    80007454:	0285ec63          	bltu	a1,s0,8000748c <main_9+0x11a>
    80007458:	41205ebb          	sraw	t4,zero,s2
    8000745c:	018a5213          	srli	tp,s4,0x18
    80007460:	003a9463          	bne	s5,gp,80007468 <main_9+0xf6>
    80007464:	003a9b63          	bne	s5,gp,8000747a <main_9+0x108>
    80007468:	9db9                	addw	a1,a1,a4
    8000746a:	93a6ba13          	sltiu	s4,a3,-1734
    8000746e:	02b2dc33          	divu	s8,t0,a1
    80007472:	40dc89bb          	subw	s3,s9,a3
    80007476:	01a31093          	slli	ra,t1,0x1a
    8000747a:	8c21                	xor	s0,s0,s0
    8000747c:	03498fb3          	mul	t6,s3,s4
    80007480:	000725b3          	sltz	a1,a4
    80007484:	417dd533          	sra	a0,s11,s7
    80007488:	00ce1c1b          	slliw	s8,t3,0xc
    8000748c:	01a31093          	slli	ra,t1,0x1a
    80007490:	8a3a                	mv	s4,a4
    80007492:	8c21                	xor	s0,s0,s0
    80007494:	56fd                	li	a3,-1
    80007496:	03eec933          	div	s2,t4,t5
    8000749a:	8e49                	or	a2,a2,a0
    8000749c:	0094bb33          	sltu	s6,s1,s1
    800074a0:	0588                	addi	a0,sp,704
    800074a2:	0cc1881b          	addiw	a6,gp,204
    800074a6:	0588                	addi	a0,sp,704
    800074a8:	02deedbb          	remw	s11,t4,a3
    800074ac:	3f7d                	addiw	t5,t5,-1
    800074ae:	018a5213          	srli	tp,s4,0x18
    800074b2:	84627b37          	lui	s6,0x84627
    800074b6:	0cc1881b          	addiw	a6,gp,204
    800074ba:	01a31093          	slli	ra,t1,0x1a
    800074be:	023830b3          	mulhu	ra,a6,gp
    800074c2:	04a9                	addi	s1,s1,10
    800074c4:	0cc1881b          	addiw	a6,gp,204
    800074c8:	02d04a63          	bgtz	a3,800074fc <main_9+0x18a>
    800074cc:	003a9f63          	bne	s5,gp,800074ea <main_9+0x178>
    800074d0:	8c21                	xor	s0,s0,s0
    800074d2:	04d04263          	bgtz	a3,80007516 <main_9+0x1a4>
    800074d6:	0aa6                	slli	s5,s5,0x9
    800074d8:	0085e463          	bltu	a1,s0,800074e0 <main_9+0x16e>
    800074dc:	01ca4133          	xor	sp,s4,t3
    800074e0:	0285e063          	bltu	a1,s0,80007500 <main_9+0x18e>
    800074e4:	8f8d                	sub	a5,a5,a1
    800074e6:	edf82113          	slti	sp,a6,-289
    800074ea:	00d316bb          	sllw	a3,t1,a3
    800074ee:	9db9                	addw	a1,a1,a4
    800074f0:	018a5213          	srli	tp,s4,0x18
    800074f4:	28d0f213          	andi	tp,ra,653
    800074f8:	0001                	nop
    800074fa:	8c79                	and	s0,s0,a4
    800074fc:	40dc89bb          	subw	s3,s9,a3
    80007500:	41205ebb          	sraw	t4,zero,s2
    80007504:	02eb76bb          	remuw	a3,s6,a4
    80007508:	01a31093          	slli	ra,t1,0x1a
    8000750c:	c29d                	beqz	a3,80007532 <main_9+0x1c0>
    8000750e:	01ca4133          	xor	sp,s4,t3
    80007512:	5be3e993          	ori	s3,t2,1470
    80007516:	01ca4133          	xor	sp,s4,t3
    8000751a:	03eec933          	div	s2,t4,t5
    8000751e:	01a31093          	slli	ra,t1,0x1a
    80007522:	69ad                	lui	s3,0xb
    80007524:	8c79                	and	s0,s0,a4
    80007526:	717d                	addi	sp,sp,-16
    80007528:	002495b3          	sll	a1,s1,sp
    8000752c:	0001                	nop
    8000752e:	0094bb33          	sltu	s6,s1,s1
    80007532:	edf82113          	slti	sp,a6,-289
    80007536:	41bb519b          	sraiw	gp,s6,0x1b
    8000753a:	01b95963          	bge	s2,s11,8000754c <main_9+0x1da>
    8000753e:	0a6c4417          	auipc	s0,0xa6c4
    80007542:	93a6ba13          	sltiu	s4,a3,-1734
    80007546:	e709                	bnez	a4,80007550 <main_9+0x1de>
    80007548:	02eb76bb          	remuw	a3,s6,a4
    8000754c:	02fffcb3          	remu	s9,t6,a5
    80007550:	0094bb33          	sltu	s6,s1,s1
    80007554:	000807bb          	addw	a5,a6,zero
    80007558:	93a6ba13          	sltiu	s4,a3,-1734
    8000755c:	5be3e993          	ori	s3,t2,1470
    80007560:	0a6c4417          	auipc	s0,0xa6c4
    80007564:	0cc1881b          	addiw	a6,gp,204
    80007568:	02061833          	mulh	a6,a2,zero
    8000756c:	c295                	beqz	a3,80007590 <main_9+0x21e>
    8000756e:	69ad                	lui	s3,0xb
    80007570:	018a5213          	srli	tp,s4,0x18
    80007574:	0588                	addi	a0,sp,704
    80007576:	000b561b          	srliw	a2,s6,0x0
    8000757a:	04a9                	addi	s1,s1,10
    8000757c:	82f9                	srli	a3,a3,0x1e
    8000757e:	0588                	addi	a0,sp,704
    80007580:	003de5b3          	or	a1,s11,gp
    80007584:	0166feb3          	and	t4,a3,s6
    80007588:	023830b3          	mulhu	ra,a6,gp
    8000758c:	023830b3          	mulhu	ra,a6,gp
    80007590:	93a6ba13          	sltiu	s4,a3,-1734
    80007594:	03272133          	mulhsu	sp,a4,s2
    80007598:	023830b3          	mulhu	ra,a6,gp
    8000759c:	0a6c4417          	auipc	s0,0xa6c4
    800075a0:	9d01                	subw	a0,a0,s0
    800075a2:	000807bb          	addw	a5,a6,zero
    800075a6:	c289                	beqz	a3,800075a8 <main_9+0x236>
    800075a8:	02fffcb3          	remu	s9,t6,a5
    800075ac:	0a6c4417          	auipc	s0,0xa6c4
    800075b0:	9d01                	subw	a0,a0,s0
    800075b2:	00ce1c1b          	slliw	s8,t3,0xc
    800075b6:	00ce1c1b          	slliw	s8,t3,0xc
    800075ba:	5be3e993          	ori	s3,t2,1470
    800075be:	4368d313          	srai	t1,a7,0x36
    800075c2:	8c79                	and	s0,s0,a4
    800075c4:	0091ddb3          	srl	s11,gp,s1
    800075c8:	02415b3b          	divuw	s6,sp,tp
    800075cc:	00d316bb          	sllw	a3,t1,a3
    800075d0:	0001                	nop
    800075d2:	000807bb          	addw	a5,a6,zero
    800075d6:	93a6ba13          	sltiu	s4,a3,-1734
    800075da:	3f7d                	addiw	t5,t5,-1
    800075dc:	01b60263          	beq	a2,s11,800075e0 <main_9+0x26e>
    800075e0:	02eb76bb          	remuw	a3,s6,a4
    800075e4:	01e203b3          	add	t2,tp,t5
    800075e8:	02415b3b          	divuw	s6,sp,tp
    800075ec:	04d04063          	bgtz	a3,8000762c <main_9+0x2ba>
    800075f0:	09730a93          	addi	s5,t1,151
    800075f4:	03f76733          	rem	a4,a4,t6
    800075f8:	023a9c63          	bne	s5,gp,80007630 <main_9+0x2be>
    800075fc:	41205ebb          	sraw	t4,zero,s2
    80007600:	03b60c63          	beq	a2,s11,80007638 <main_9+0x2c6>
    80007604:	03272133          	mulhsu	sp,a4,s2
    80007608:	9db9                	addw	a1,a1,a4
    8000760a:	0085ee63          	bltu	a1,s0,80007626 <main_9+0x2b4>
    8000760e:	029bfb63          	bgeu	s7,s1,80007644 <main_9+0x2d2>
    80007612:	89d9                	andi	a1,a1,22
    80007614:	023a9e63          	bne	s5,gp,80007650 <main_9+0x2de>
    80007618:	003de5b3          	or	a1,s11,gp
    8000761c:	000b561b          	srliw	a2,s6,0x0
    80007620:	01ca4133          	xor	sp,s4,t3
    80007624:	0588                	addi	a0,sp,704
    80007626:	0aa6                	slli	s5,s5,0x9
    80007628:	e3314393          	xori	t2,sp,-461
    8000762c:	0a6c4417          	auipc	s0,0xa6c4
    80007630:	04d04763          	bgtz	a3,8000767e <main_9+0x30c>
    80007634:	01ca4133          	xor	sp,s4,t3
    80007638:	000807bb          	addw	a5,a6,zero
    8000763c:	01e203b3          	add	t2,tp,t5
    80007640:	0a6c4417          	auipc	s0,0xa6c4
    80007644:	00ce1c1b          	slliw	s8,t3,0xc
    80007648:	000725b3          	sltz	a1,a4
    8000764c:	00d04463          	bgtz	a3,80007654 <main_9+0x2e2>
    80007650:	02deedbb          	remw	s11,t4,a3
    80007654:	009bfa63          	bgeu	s7,s1,80007668 <main_9+0x2f6>
    80007658:	84627b37          	lui	s6,0x84627
    8000765c:	02fffcb3          	remu	s9,t6,a5
    80007660:	03eec933          	div	s2,t4,t5
    80007664:	0091ddb3          	srl	s11,gp,s1
    80007668:	000807bb          	addw	a5,a6,zero
    8000766c:	018a5213          	srli	tp,s4,0x18
    80007670:	03b95963          	bge	s2,s11,800076a2 <main_9+0x330>
    80007674:	09730a93          	addi	s5,t1,151
    80007678:	9a7e                	add	s4,s4,t6
    8000767a:	4368d313          	srai	t1,a7,0x36
    8000767e:	5be3e993          	ori	s3,t2,1470
    80007682:	9a7e                	add	s4,s4,t6
    80007684:	002495b3          	sll	a1,s1,sp
    80007688:	0588                	addi	a0,sp,704
    8000768a:	009bf563          	bgeu	s7,s1,80007694 <main_9+0x322>
    8000768e:	0001                	nop
    80007690:	00d316bb          	sllw	a3,t1,a3
    80007694:	9d01                	subw	a0,a0,s0
    80007696:	09730a93          	addi	s5,t1,151
    8000769a:	02061833          	mulh	a6,a2,zero
    8000769e:	0094bb33          	sltu	s6,s1,s1
    800076a2:	003de5b3          	or	a1,s11,gp
    800076a6:	02fffcb3          	remu	s9,t6,a5
    800076aa:	02fffcb3          	remu	s9,t6,a5
    800076ae:	717d                	addi	sp,sp,-16
    800076b0:	0cc1881b          	addiw	a6,gp,204
    800076b4:	04a9                	addi	s1,s1,10
    800076b6:	01e203b3          	add	t2,tp,t5
    800076ba:	002495b3          	sll	a1,s1,sp
    800076be:	00ce1c1b          	slliw	s8,t3,0xc
    800076c2:	03d44f3b          	divw	t5,s0,t4
    800076c6:	8c79                	and	s0,s0,a4
    800076c8:	41660233          	sub	tp,a2,s6
    800076cc:	0166feb3          	and	t4,a3,s6
    800076d0:	018a5213          	srli	tp,s4,0x18
    800076d4:	edf82113          	slti	sp,a6,-289
    800076d8:	93a6ba13          	sltiu	s4,a3,-1734
    800076dc:	edf82113          	slti	sp,a6,-289
    800076e0:	8c79                	and	s0,s0,a4
    800076e2:	01a31093          	slli	ra,t1,0x1a
    800076e6:	0094bb33          	sltu	s6,s1,s1
    800076ea:	04a9                	addi	s1,s1,10
    800076ec:	edf82113          	slti	sp,a6,-289
    800076f0:	02a986bb          	mulw	a3,s3,a0
    800076f4:	41660233          	sub	tp,a2,s6
    800076f8:	02a986bb          	mulw	a3,s3,a0
    800076fc:	28d0f213          	andi	tp,ra,653
    80007700:	9db9                	addw	a1,a1,a4
    80007702:	03d44f3b          	divw	t5,s0,t4
    80007706:	02a986bb          	mulw	a3,s3,a0
    8000770a:	02415b3b          	divuw	s6,sp,tp
    8000770e:	56fd                	li	a3,-1
    80007710:	09730a93          	addi	s5,t1,151
    80007714:	03272133          	mulhsu	sp,a4,s2
    80007718:	0a6c4417          	auipc	s0,0xa6c4
    8000771c:	00d04363          	bgtz	a3,80007722 <main_9+0x3b0>
    80007720:	717d                	addi	sp,sp,-16
    80007722:	03272133          	mulhsu	sp,a4,s2
    80007726:	02deedbb          	remw	s11,t4,a3
    8000772a:	4621                	li	a2,8
    8000772c:	9c01                	subw	s0,s0,s0
    8000772e:	02fffe33          	remu	t3,t6,a5
    80007732:	80ba                	mv	ra,a4
    80007734:	0001                	nop
    80007736:	020619b3          	mulh	s3,a2,zero
    8000773a:	032721b3          	mulhsu	gp,a4,s2
    8000773e:	397d                	addiw	s2,s2,-1
    80007740:	02b2ddb3          	divu	s11,t0,a1
    80007744:	5be3ea93          	ori	s5,t2,1470
    80007748:	0008093b          	addw	s2,a6,zero
    8000774c:	01b55cbb          	srlw	s9,a0,s11
    80007750:	4368d393          	srai	t2,a7,0x36
    80007754:	03eeca33          	div	s4,t4,t5
    80007758:	0001                	nop
    8000775a:	717d                	addi	sp,sp,-16

000000008000775c <main_77_0_t>:
    8000775c:	0588                	addi	a0,sp,704
    8000775e:	6a2d                	lui	s4,0xb
    80007760:	1661                	addi	a2,a2,-8
    80007762:	03f76833          	rem	a6,a4,t6
    80007766:	032721b3          	mulhsu	gp,a4,s2
    8000776a:	41bb521b          	sraiw	tp,s6,0x1b
    8000776e:	8c0d                	sub	s0,s0,a1
    80007770:	0091deb3          	srl	t4,gp,s1
    80007774:	0001                	nop
    80007776:	018a5313          	srli	t1,s4,0x18
    8000777a:	d26d                	beqz	a2,8000775c <main_77_0_t>
    8000777c:	03eeca33          	div	s4,t4,t5
    80007780:	023830b3          	mulhu	ra,a6,gp
    80007784:	0285ee63          	bltu	a1,s0,800077c0 <main_77_0_t+0x64>
    80007788:	01e203b3          	add	t2,tp,t5
    8000778c:	41bb519b          	sraiw	gp,s6,0x1b
    80007790:	89d9                	andi	a1,a1,22
    80007792:	717d                	addi	sp,sp,-16
    80007794:	28d0f213          	andi	tp,ra,653
    80007798:	0001                	nop
    8000779a:	717d                	addi	sp,sp,-16
    8000779c:	000807bb          	addw	a5,a6,zero
    800077a0:	3f7d                	addiw	t5,t5,-1
    800077a2:	003de5b3          	or	a1,s11,gp
    800077a6:	03b60563          	beq	a2,s11,800077d0 <main_77_0_t+0x74>
    800077aa:	00ce1c1b          	slliw	s8,t3,0xc
    800077ae:	01e203b3          	add	t2,tp,t5
    800077b2:	40dc89bb          	subw	s3,s9,a3
    800077b6:	69ad                	lui	s3,0xb
    800077b8:	0588                	addi	a0,sp,704
    800077ba:	02eb76bb          	remuw	a3,s6,a4
    800077be:	69ad                	lui	s3,0xb
    800077c0:	0091ddb3          	srl	s11,gp,s1
    800077c4:	02eb76bb          	remuw	a3,s6,a4
    800077c8:	e3314393          	xori	t2,sp,-461
    800077cc:	89d9                	andi	a1,a1,22
    800077ce:	3f7d                	addiw	t5,t5,-1
    800077d0:	41205ebb          	sraw	t4,zero,s2
    800077d4:	01b55bbb          	srlw	s7,a0,s11
    800077d8:	00ce1c1b          	slliw	s8,t3,0xc
    800077dc:	8a3a                	mv	s4,a4
    800077de:	0cc1881b          	addiw	a6,gp,204
    800077e2:	8a3a                	mv	s4,a4
    800077e4:	09730a93          	addi	s5,t1,151
    800077e8:	0285ed63          	bltu	a1,s0,80007822 <main_77_0_t+0xc6>
    800077ec:	0001                	nop
    800077ee:	003de5b3          	or	a1,s11,gp
    800077f2:	009bf763          	bgeu	s7,s1,80007800 <main_77_0_t+0xa4>
    800077f6:	9db9                	addw	a1,a1,a4
    800077f8:	8c21                	xor	s0,s0,s0
    800077fa:	ef11                	bnez	a4,80007816 <main_77_0_t+0xba>
    800077fc:	00d316bb          	sllw	a3,t1,a3
    80007800:	03f76733          	rem	a4,a4,t6
    80007804:	89d9                	andi	a1,a1,22
    80007806:	89d9                	andi	a1,a1,22
    80007808:	417dd533          	sra	a0,s11,s7
    8000780c:	04a9                	addi	s1,s1,10
    8000780e:	01e203b3          	add	t2,tp,t5
    80007812:	0a6c4417          	auipc	s0,0xa6c4
    80007816:	89d9                	andi	a1,a1,22
    80007818:	41205ebb          	sraw	t4,zero,s2
    8000781c:	02fffcb3          	remu	s9,t6,a5
    80007820:	eb0d                	bnez	a4,80007852 <main_77_0_t+0xf6>
    80007822:	09730a93          	addi	s5,t1,151
    80007826:	86d9                	srai	a3,a3,0x16
    80007828:	28d0f213          	andi	tp,ra,653
    8000782c:	02415b3b          	divuw	s6,sp,tp
    80007830:	eb1d                	bnez	a4,80007866 <main_77_0_t+0x10a>
    80007832:	023830b3          	mulhu	ra,a6,gp
    80007836:	02415b3b          	divuw	s6,sp,tp
    8000783a:	01a31093          	slli	ra,t1,0x1a
    8000783e:	84627b37          	lui	s6,0x84627
    80007842:	00ce1c1b          	slliw	s8,t3,0xc
    80007846:	002495b3          	sll	a1,s1,sp
    8000784a:	e3314393          	xori	t2,sp,-461
    8000784e:	3f7d                	addiw	t5,t5,-1
    80007850:	ca89                	beqz	a3,80007862 <main_77_0_t+0x106>
    80007852:	0094bb33          	sltu	s6,s1,s1
    80007856:	04a9                	addi	s1,s1,10
    80007858:	0091ddb3          	srl	s11,gp,s1
    8000785c:	8a3a                	mv	s4,a4
    8000785e:	41660233          	sub	tp,a2,s6
    80007862:	09730a93          	addi	s5,t1,151
    80007866:	8a3a                	mv	s4,a4
    80007868:	93a6ba13          	sltiu	s4,a3,-1734
    8000786c:	002495b3          	sll	a1,s1,sp
    80007870:	93a6ba13          	sltiu	s4,a3,-1734
    80007874:	93a6ba13          	sltiu	s4,a3,-1734
    80007878:	0166feb3          	and	t4,a3,s6
    8000787c:	417dd533          	sra	a0,s11,s7
    80007880:	9db9                	addw	a1,a1,a4
    80007882:	0285eb63          	bltu	a1,s0,800078b8 <main_77_0_t+0x15c>
    80007886:	4368d313          	srai	t1,a7,0x36
    8000788a:	02415b3b          	divuw	s6,sp,tp
    8000788e:	c299                	beqz	a3,80007894 <main_77_0_t+0x138>
    80007890:	023830b3          	mulhu	ra,a6,gp
    80007894:	5be3e993          	ori	s3,t2,1470
    80007898:	3f7d                	addiw	t5,t5,-1
    8000789a:	9a7e                	add	s4,s4,t6
    8000789c:	9d01                	subw	a0,a0,s0
    8000789e:	0a6c4417          	auipc	s0,0xa6c4
    800078a2:	e3314393          	xori	t2,sp,-461
    800078a6:	0cc1881b          	addiw	a6,gp,204
    800078aa:	86d9                	srai	a3,a3,0x16
    800078ac:	e3314393          	xori	t2,sp,-461
    800078b0:	41bb519b          	sraiw	gp,s6,0x1b
    800078b4:	01ca4133          	xor	sp,s4,t3
    800078b8:	41660233          	sub	tp,a2,s6
    800078bc:	84627b37          	lui	s6,0x84627
    800078c0:	002495b3          	sll	a1,s1,sp
    800078c4:	03f76733          	rem	a4,a4,t6
    800078c8:	717d                	addi	sp,sp,-16
    800078ca:	41205ebb          	sraw	t4,zero,s2
    800078ce:	04a9                	addi	s1,s1,10
    800078d0:	93a6ba13          	sltiu	s4,a3,-1734
    800078d4:	0a6c4417          	auipc	s0,0xa6c4
    800078d8:	01b55bbb          	srlw	s7,a0,s11
    800078dc:	0001                	nop
    800078de:	0085e763          	bltu	a1,s0,800078ec <main_77_0_t+0x190>
    800078e2:	56fd                	li	a3,-1
    800078e4:	02b2dc33          	divu	s8,t0,a1
    800078e8:	9db9                	addw	a1,a1,a4
    800078ea:	56fd                	li	a3,-1
    800078ec:	000b561b          	srliw	a2,s6,0x0
    800078f0:	03b60363          	beq	a2,s11,80007916 <main_77_0_t+0x1ba>
    800078f4:	41205ebb          	sraw	t4,zero,s2
    800078f8:	01a31093          	slli	ra,t1,0x1a
    800078fc:	edf82113          	slti	sp,a6,-289
    80007900:	02061833          	mulh	a6,a2,zero
    80007904:	edf82113          	slti	sp,a6,-289
    80007908:	02415b3b          	divuw	s6,sp,tp
    8000790c:	01b95463          	bge	s2,s11,80007914 <main_77_0_t+0x1b8>
    80007910:	0a6c4417          	auipc	s0,0xa6c4
    80007914:	0001                	nop
    80007916:	01e203b3          	add	t2,tp,t5
    8000791a:	e3314393          	xori	t2,sp,-461
    8000791e:	0001                	nop
    80007920:	0588                	addi	a0,sp,704
    80007922:	03d44f3b          	divw	t5,s0,t4
    80007926:	02415b3b          	divuw	s6,sp,tp
    8000792a:	3f7d                	addiw	t5,t5,-1
    8000792c:	4368d313          	srai	t1,a7,0x36
    80007930:	417dd533          	sra	a0,s11,s7
    80007934:	02b2dc33          	divu	s8,t0,a1
    80007938:	002495b3          	sll	a1,s1,sp
    8000793c:	009bfa63          	bgeu	s7,s1,80007950 <main_77_0_t+0x1f4>
    80007940:	01a31093          	slli	ra,t1,0x1a
    80007944:	01b55bbb          	srlw	s7,a0,s11
    80007948:	03f76733          	rem	a4,a4,t6
    8000794c:	40dc89bb          	subw	s3,s9,a3
    80007950:	417dd533          	sra	a0,s11,s7
    80007954:	02b2dc33          	divu	s8,t0,a1
    80007958:	0001                	nop
    8000795a:	03498fb3          	mul	t6,s3,s4
    8000795e:	02b2dc33          	divu	s8,t0,a1
    80007962:	03b60663          	beq	a2,s11,8000798e <main_77_0_t+0x232>
    80007966:	0001                	nop
    80007968:	009bf463          	bgeu	s7,s1,80007970 <main_77_0_t+0x214>
    8000796c:	28d0f213          	andi	tp,ra,653
    80007970:	018a5213          	srli	tp,s4,0x18
    80007974:	023830b3          	mulhu	ra,a6,gp
    80007978:	93a6ba13          	sltiu	s4,a3,-1734
    8000797c:	8c79                	and	s0,s0,a4
    8000797e:	4368d313          	srai	t1,a7,0x36
    80007982:	93a6ba13          	sltiu	s4,a3,-1734
    80007986:	000807bb          	addw	a5,a6,zero
    8000798a:	03d44f3b          	divw	t5,s0,t4
    8000798e:	09730a93          	addi	s5,t1,151
    80007992:	02eb76bb          	remuw	a3,s6,a4
    80007996:	02415b3b          	divuw	s6,sp,tp
    8000799a:	0085ef63          	bltu	a1,s0,800079b8 <main_77_0_t+0x25c>
    8000799e:	4368d313          	srai	t1,a7,0x36
    800079a2:	05b60263          	beq	a2,s11,800079e6 <main_77_0_t+0x28a>
    800079a6:	01e203b3          	add	t2,tp,t5
    800079aa:	03b60c63          	beq	a2,s11,800079e2 <main_77_0_t+0x286>
    800079ae:	000b561b          	srliw	a2,s6,0x0
    800079b2:	02fffcb3          	remu	s9,t6,a5
    800079b6:	c289                	beqz	a3,800079b8 <main_77_0_t+0x25c>
    800079b8:	0091ddb3          	srl	s11,gp,s1
    800079bc:	56fd                	li	a3,-1
    800079be:	0a6c4417          	auipc	s0,0xa6c4
    800079c2:	40dc89bb          	subw	s3,s9,a3
    800079c6:	000725b3          	sltz	a1,a4
    800079ca:	049bf063          	bgeu	s7,s1,80007a0a <main_77_0_t+0x2ae>
    800079ce:	eb0d                	bnez	a4,80007a00 <main_77_0_t+0x2a4>
    800079d0:	03f76733          	rem	a4,a4,t6
    800079d4:	00ce1c1b          	slliw	s8,t3,0xc
    800079d8:	e3314393          	xori	t2,sp,-461
    800079dc:	41660233          	sub	tp,a2,s6
    800079e0:	717d                	addi	sp,sp,-16
    800079e2:	8c79                	and	s0,s0,a4
    800079e4:	82f9                	srli	a3,a3,0x1e
    800079e6:	023830b3          	mulhu	ra,a6,gp
    800079ea:	717d                	addi	sp,sp,-16
    800079ec:	0166feb3          	and	t4,a3,s6
    800079f0:	02fffcb3          	remu	s9,t6,a5
    800079f4:	28d0f213          	andi	tp,ra,653
    800079f8:	03498fb3          	mul	t6,s3,s4
    800079fc:	02fffcb3          	remu	s9,t6,a5
    80007a00:	8c21                	xor	s0,s0,s0
    80007a02:	02fffcb3          	remu	s9,t6,a5
    80007a06:	417dd533          	sra	a0,s11,s7
    80007a0a:	03eec933          	div	s2,t4,t5
    80007a0e:	03d44f3b          	divw	t5,s0,t4
    80007a12:	03b60e63          	beq	a2,s11,80007a4e <main_77_0_t+0x2f2>
    80007a16:	01b60563          	beq	a2,s11,80007a20 <main_77_0_t+0x2c4>
    80007a1a:	9a7e                	add	s4,s4,t6
    80007a1c:	01a31093          	slli	ra,t1,0x1a
    80007a20:	69ad                	lui	s3,0xb
    80007a22:	03eec933          	div	s2,t4,t5
    80007a26:	86d9                	srai	a3,a3,0x16
    80007a28:	8f8d                	sub	a5,a5,a1
    80007a2a:	8c21                	xor	s0,s0,s0
    80007a2c:	0a6c4417          	auipc	s0,0xa6c4
    80007a30:	417dd533          	sra	a0,s11,s7
    80007a34:	003de5b3          	or	a1,s11,gp
    80007a38:	002495b3          	sll	a1,s1,sp
    80007a3c:	03498fb3          	mul	t6,s3,s4
    80007a40:	04a9                	addi	s1,s1,10
    80007a42:	02d04163          	bgtz	a3,80007a64 <main_77_0_t+0x308>
    80007a46:	0cc1881b          	addiw	a6,gp,204
    80007a4a:	000b561b          	srliw	a2,s6,0x0
    80007a4e:	41bb519b          	sraiw	gp,s6,0x1b
    80007a52:	0aa6                	slli	s5,s5,0x9
    80007a54:	41bb519b          	sraiw	gp,s6,0x1b
    80007a58:	0cc1881b          	addiw	a6,gp,204
    80007a5c:	01a31093          	slli	ra,t1,0x1a
    80007a60:	0cc1881b          	addiw	a6,gp,204
    80007a64:	01b60e63          	beq	a2,s11,80007a80 <main_77_0_t+0x324>
    80007a68:	018a5213          	srli	tp,s4,0x18
    80007a6c:	82f9                	srli	a3,a3,0x1e
    80007a6e:	0aa6                	slli	s5,s5,0x9
    80007a70:	01b55bbb          	srlw	s7,a0,s11
    80007a74:	82f9                	srli	a3,a3,0x1e
    80007a76:	8c21                	xor	s0,s0,s0
    80007a78:	0485e363          	bltu	a1,s0,80007abe <main_77_0_t+0x362>
    80007a7c:	84627b37          	lui	s6,0x84627
    80007a80:	93a6ba13          	sltiu	s4,a3,-1734
    80007a84:	edf82113          	slti	sp,a6,-289
    80007a88:	82f9                	srli	a3,a3,0x1e
    80007a8a:	02061833          	mulh	a6,a2,zero
    80007a8e:	02fffcb3          	remu	s9,t6,a5
    80007a92:	002495b3          	sll	a1,s1,sp
    80007a96:	03eec933          	div	s2,t4,t5
    80007a9a:	e701                	bnez	a4,80007aa2 <main_77_0_t+0x346>
    80007a9c:	00d316bb          	sllw	a3,t1,a3
    80007aa0:	717d                	addi	sp,sp,-16
    80007aa2:	84627b37          	lui	s6,0x84627
    80007aa6:	417dd533          	sra	a0,s11,s7
    80007aaa:	00d316bb          	sllw	a3,t1,a3
    80007aae:	00d316bb          	sllw	a3,t1,a3
    80007ab2:	0091ddb3          	srl	s11,gp,s1
    80007ab6:	03eec933          	div	s2,t4,t5
    80007aba:	01b95263          	bge	s2,s11,80007abe <main_77_0_t+0x362>
    80007abe:	0001                	nop
    80007ac0:	8f8d                	sub	a5,a5,a1
    80007ac2:	00ce1c1b          	slliw	s8,t3,0xc
    80007ac6:	9d01                	subw	a0,a0,s0
    80007ac8:	03eec933          	div	s2,t4,t5
    80007acc:	8e49                	or	a2,a2,a0
    80007ace:	00ce1c1b          	slliw	s8,t3,0xc
    80007ad2:	00ce1c1b          	slliw	s8,t3,0xc
    80007ad6:	03b60763          	beq	a2,s11,80007b04 <main_77_0_t+0x3a8>
    80007ada:	02d04963          	bgtz	a3,80007b0c <main_77_0_t+0x3b0>
    80007ade:	41bb519b          	sraiw	gp,s6,0x1b
    80007ae2:	28d0f213          	andi	tp,ra,653
    80007ae6:	0091ddb3          	srl	s11,gp,s1
    80007aea:	03272133          	mulhsu	sp,a4,s2
    80007aee:	023830b3          	mulhu	ra,a6,gp
    80007af2:	00d316bb          	sllw	a3,t1,a3
    80007af6:	0001                	nop
    80007af8:	002495b3          	sll	a1,s1,sp
    80007afc:	000725b3          	sltz	a1,a4
    80007b00:	002495b3          	sll	a1,s1,sp
    80007b04:	03d44f3b          	divw	t5,s0,t4
    80007b08:	03b95a63          	bge	s2,s11,80007b3c <main_77_0_t+0x3e0>
    80007b0c:	02deedbb          	remw	s11,t4,a3
    80007b10:	0091ddb3          	srl	s11,gp,s1
    80007b14:	0aa6                	slli	s5,s5,0x9
    80007b16:	002495b3          	sll	a1,s1,sp
    80007b1a:	02415b3b          	divuw	s6,sp,tp
    80007b1e:	04d04163          	bgtz	a3,80007b60 <main_77_0_t+0x404>
    80007b22:	000b561b          	srliw	a2,s6,0x0
    80007b26:	8f8d                	sub	a5,a5,a1
    80007b28:	56fd                	li	a3,-1
    80007b2a:	03f76733          	rem	a4,a4,t6
    80007b2e:	86d9                	srai	a3,a3,0x16
    80007b30:	0a6c4417          	auipc	s0,0xa6c4
    80007b34:	9a7e                	add	s4,s4,t6
    80007b36:	717d                	addi	sp,sp,-16
    80007b38:	84627b37          	lui	s6,0x84627
    80007b3c:	5be3e993          	ori	s3,t2,1470
    80007b40:	02b2dc33          	divu	s8,t0,a1
    80007b44:	03498fb3          	mul	t6,s3,s4
    80007b48:	0001                	nop
    80007b4a:	01e203b3          	add	t2,tp,t5
    80007b4e:	0094bb33          	sltu	s6,s1,s1
    80007b52:	01e203b3          	add	t2,tp,t5
    80007b56:	8c21                	xor	s0,s0,s0
    80007b58:	02415b3b          	divuw	s6,sp,tp
    80007b5c:	00d04963          	bgtz	a3,80007b6e <main_77_0_t+0x412>
    80007b60:	84627b37          	lui	s6,0x84627
    80007b64:	0166feb3          	and	t4,a3,s6
    80007b68:	e319                	bnez	a4,80007b6e <main_77_0_t+0x412>
    80007b6a:	40dc89bb          	subw	s3,s9,a3
    80007b6e:	01b55bbb          	srlw	s7,a0,s11
    80007b72:	69ad                	lui	s3,0xb
    80007b74:	84627b37          	lui	s6,0x84627
    80007b78:	8c21                	xor	s0,s0,s0
    80007b7a:	40dc89bb          	subw	s3,s9,a3
    80007b7e:	02deedbb          	remw	s11,t4,a3
    80007b82:	3f7d                	addiw	t5,t5,-1
    80007b84:	03eec933          	div	s2,t4,t5
    80007b88:	edf82113          	slti	sp,a6,-289
    80007b8c:	03498fb3          	mul	t6,s3,s4
    80007b90:	41205ebb          	sraw	t4,zero,s2
    80007b94:	01ca4133          	xor	sp,s4,t3
    80007b98:	01b60663          	beq	a2,s11,80007ba4 <main_77_0_t+0x448>
    80007b9c:	5be3e993          	ori	s3,t2,1470
    80007ba0:	0a6c4417          	auipc	s0,0xa6c4
    80007ba4:	69ad                	lui	s3,0xb
    80007ba6:	89d9                	andi	a1,a1,22
    80007ba8:	04a9                	addi	s1,s1,10
    80007baa:	717d                	addi	sp,sp,-16
    80007bac:	4368d313          	srai	t1,a7,0x36
    80007bb0:	84627b37          	lui	s6,0x84627
    80007bb4:	0001                	nop
    80007bb6:	41205ebb          	sraw	t4,zero,s2
    80007bba:	03498fb3          	mul	t6,s3,s4
    80007bbe:	417dd533          	sra	a0,s11,s7
    80007bc2:	000b561b          	srliw	a2,s6,0x0
    80007bc6:	e3314393          	xori	t2,sp,-461
    80007bca:	e3314393          	xori	t2,sp,-461
    80007bce:	417dd533          	sra	a0,s11,s7
    80007bd2:	03272133          	mulhsu	sp,a4,s2
    80007bd6:	023a9463          	bne	s5,gp,80007bfe <main_77_0_t+0x4a2>
    80007bda:	82f9                	srli	a3,a3,0x1e
    80007bdc:	8c21                	xor	s0,s0,s0
    80007bde:	00ce1c1b          	slliw	s8,t3,0xc
    80007be2:	0091ddb3          	srl	s11,gp,s1
    80007be6:	03f76733          	rem	a4,a4,t6
    80007bea:	93a6ba13          	sltiu	s4,a3,-1734
    80007bee:	002495b3          	sll	a1,s1,sp
    80007bf2:	82f9                	srli	a3,a3,0x1e
    80007bf4:	e715                	bnez	a4,80007c20 <main_77_0_t+0x4c4>
    80007bf6:	01ca4133          	xor	sp,s4,t3
    80007bfa:	0a6c4417          	auipc	s0,0xa6c4
    80007bfe:	09730a93          	addi	s5,t1,151
    80007c02:	41660233          	sub	tp,a2,s6
    80007c06:	00d316bb          	sllw	a3,t1,a3
    80007c0a:	02061833          	mulh	a6,a2,zero
    80007c0e:	8f8d                	sub	a5,a5,a1
    80007c10:	ef09                	bnez	a4,80007c2a <main_77_0_t+0x4ce>
    80007c12:	01b60463          	beq	a2,s11,80007c1a <main_77_0_t+0x4be>
    80007c16:	e3314393          	xori	t2,sp,-461
    80007c1a:	8c79                	and	s0,s0,a4
    80007c1c:	e3314393          	xori	t2,sp,-461
    80007c20:	8f8d                	sub	a5,a5,a1
    80007c22:	02415b3b          	divuw	s6,sp,tp
    80007c26:	01b95363          	bge	s2,s11,80007c2c <main_77_0_t+0x4d0>
    80007c2a:	86d9                	srai	a3,a3,0x16
    80007c2c:	02fffcb3          	remu	s9,t6,a5
    80007c30:	043a9263          	bne	s5,gp,80007c74 <main_77_0_t+0x518>
    80007c34:	9db9                	addw	a1,a1,a4
    80007c36:	0091ddb3          	srl	s11,gp,s1
    80007c3a:	0485e163          	bltu	a1,s0,80007c7c <main_77_0_t+0x520>
    80007c3e:	41205ebb          	sraw	t4,zero,s2
    80007c42:	417dd533          	sra	a0,s11,s7
    80007c46:	01b55bbb          	srlw	s7,a0,s11
    80007c4a:	02b2dc33          	divu	s8,t0,a1
    80007c4e:	02d04063          	bgtz	a3,80007c6e <main_77_0_t+0x512>
    80007c52:	01ca4133          	xor	sp,s4,t3
    80007c56:	0001                	nop
    80007c58:	003de5b3          	or	a1,s11,gp
    80007c5c:	8e49                	or	a2,a2,a0
    80007c5e:	86d9                	srai	a3,a3,0x16
    80007c60:	03f76733          	rem	a4,a4,t6
    80007c64:	56fd                	li	a3,-1
    80007c66:	5be3e993          	ori	s3,t2,1470
    80007c6a:	41660233          	sub	tp,a2,s6
    80007c6e:	02a986bb          	mulw	a3,s3,a0
    80007c72:	9a7e                	add	s4,s4,t6
    80007c74:	5be3e993          	ori	s3,t2,1470
    80007c78:	003de5b3          	or	a1,s11,gp
    80007c7c:	0001                	nop
    80007c7e:	e3314393          	xori	t2,sp,-461
    80007c82:	0166feb3          	and	t4,a3,s6
    80007c86:	0588                	addi	a0,sp,704
    80007c88:	40dc89bb          	subw	s3,s9,a3
    80007c8c:	84627b37          	lui	s6,0x84627
    80007c90:	0094bb33          	sltu	s6,s1,s1
    80007c94:	01e203b3          	add	t2,tp,t5
    80007c98:	000725b3          	sltz	a1,a4
    80007c9c:	03d44f3b          	divw	t5,s0,t4
    80007ca0:	003a9263          	bne	s5,gp,80007ca4 <main_77_0_t+0x548>
    80007ca4:	02deedbb          	remw	s11,t4,a3
    80007ca8:	4a85                	li	s5,1
    80007caa:	57fd                	li	a5,-1
    80007cac:	53dd                	li	t2,-9

0000000080007cae <main_40_1_t>:
    80007cae:	02415c3b          	divuw	s8,sp,tp
    80007cb2:	1ad9                	addi	s5,s5,-10
    80007cb4:	5cfd                	li	s9,-1
    80007cb6:	5fd9                	li	t6,-10

0000000080007cb8 <main_40_0_t>:
    80007cb8:	01ca4133          	xor	sp,s4,t3
    80007cbc:	edf82113          	slti	sp,a6,-289
    80007cc0:	1cf5                	addi	s9,s9,-3
    80007cc2:	fffc8be3          	beq	s9,t6,80007cb8 <main_40_0_t>
    80007cc6:	fe7a94e3          	bne	s5,t2,80007cae <main_40_1_t>
    80007cca:	28d0f213          	andi	tp,ra,653
    80007cce:	023a9863          	bne	s5,gp,80007cfe <main_40_0_t+0x46>
    80007cd2:	56fd                	li	a3,-1
    80007cd4:	03d44f3b          	divw	t5,s0,t4
    80007cd8:	002495b3          	sll	a1,s1,sp
    80007cdc:	01b95463          	bge	s2,s11,80007ce4 <main_40_0_t+0x2c>
    80007ce0:	8e49                	or	a2,a2,a0
    80007ce2:	9a7e                	add	s4,s4,t6
    80007ce4:	41205ebb          	sraw	t4,zero,s2
    80007ce8:	5be3e993          	ori	s3,t2,1470
    80007cec:	717d                	addi	sp,sp,-16
    80007cee:	717d                	addi	sp,sp,-16
    80007cf0:	9a7e                	add	s4,s4,t6
    80007cf2:	5be3e993          	ori	s3,t2,1470
    80007cf6:	28d0f213          	andi	tp,ra,653
    80007cfa:	82f9                	srli	a3,a3,0x1e
    80007cfc:	9a7e                	add	s4,s4,t6
    80007cfe:	40dc89bb          	subw	s3,s9,a3
    80007d02:	717d                	addi	sp,sp,-16
    80007d04:	89d9                	andi	a1,a1,22
    80007d06:	01ca4133          	xor	sp,s4,t3
    80007d0a:	40dc89bb          	subw	s3,s9,a3
    80007d0e:	0285ed63          	bltu	a1,s0,80007d48 <main_40_0_t+0x90>
    80007d12:	000b561b          	srliw	a2,s6,0x0
    80007d16:	417dd533          	sra	a0,s11,s7
    80007d1a:	01b55bbb          	srlw	s7,a0,s11
    80007d1e:	e715                	bnez	a4,80007d4a <main_40_0_t+0x92>
    80007d20:	69ad                	lui	s3,0xb
    80007d22:	86d9                	srai	a3,a3,0x16
    80007d24:	8f8d                	sub	a5,a5,a1
    80007d26:	8c21                	xor	s0,s0,s0
    80007d28:	002495b3          	sll	a1,s1,sp
    80007d2c:	69ad                	lui	s3,0xb
    80007d2e:	8a3a                	mv	s4,a4
    80007d30:	417dd533          	sra	a0,s11,s7
    80007d34:	00d316bb          	sllw	a3,t1,a3
    80007d38:	8e49                	or	a2,a2,a0
    80007d3a:	28d0f213          	andi	tp,ra,653
    80007d3e:	82f9                	srli	a3,a3,0x1e
    80007d40:	000725b3          	sltz	a1,a4
    80007d44:	41bb519b          	sraiw	gp,s6,0x1b
    80007d48:	3f7d                	addiw	t5,t5,-1
    80007d4a:	0094bb33          	sltu	s6,s1,s1
    80007d4e:	003a9e63          	bne	s5,gp,80007d6a <main_40_0_t+0xb2>
    80007d52:	8c79                	and	s0,s0,a4
    80007d54:	84627b37          	lui	s6,0x84627
    80007d58:	0001                	nop
    80007d5a:	01a31093          	slli	ra,t1,0x1a
    80007d5e:	03d44f3b          	divw	t5,s0,t4
    80007d62:	8f8d                	sub	a5,a5,a1
    80007d64:	69ad                	lui	s3,0xb
    80007d66:	e3314393          	xori	t2,sp,-461
    80007d6a:	03d44f3b          	divw	t5,s0,t4
    80007d6e:	02b2dc33          	divu	s8,t0,a1
    80007d72:	4368d313          	srai	t1,a7,0x36
    80007d76:	41660233          	sub	tp,a2,s6
    80007d7a:	5be3e993          	ori	s3,t2,1470
    80007d7e:	0001                	nop
    80007d80:	41660233          	sub	tp,a2,s6
    80007d84:	69ad                	lui	s3,0xb
    80007d86:	0091ddb3          	srl	s11,gp,s1
    80007d8a:	003de5b3          	or	a1,s11,gp
    80007d8e:	00d04a63          	bgtz	a3,80007da2 <main_40_0_t+0xea>
    80007d92:	00d04a63          	bgtz	a3,80007da6 <main_40_0_t+0xee>
    80007d96:	009bf963          	bgeu	s7,s1,80007da8 <main_40_0_t+0xf0>
    80007d9a:	4368d313          	srai	t1,a7,0x36
    80007d9e:	41660233          	sub	tp,a2,s6
    80007da2:	03f76733          	rem	a4,a4,t6
    80007da6:	8e49                	or	a2,a2,a0
    80007da8:	82f9                	srli	a3,a3,0x1e
    80007daa:	41205ebb          	sraw	t4,zero,s2
    80007dae:	40dc89bb          	subw	s3,s9,a3
    80007db2:	01a31093          	slli	ra,t1,0x1a
    80007db6:	0588                	addi	a0,sp,704
    80007db8:	69ad                	lui	s3,0xb
    80007dba:	8c21                	xor	s0,s0,s0
    80007dbc:	edf82113          	slti	sp,a6,-289
    80007dc0:	41bb519b          	sraiw	gp,s6,0x1b
    80007dc4:	000725b3          	sltz	a1,a4
    80007dc8:	049bf063          	bgeu	s7,s1,80007e08 <main_40_0_t+0x150>
    80007dcc:	000b561b          	srliw	a2,s6,0x0
    80007dd0:	03d44f3b          	divw	t5,s0,t4
    80007dd4:	89d9                	andi	a1,a1,22
    80007dd6:	0001                	nop
    80007dd8:	01ca4133          	xor	sp,s4,t3
    80007ddc:	03f76733          	rem	a4,a4,t6
    80007de0:	0166feb3          	and	t4,a3,s6
    80007de4:	40dc89bb          	subw	s3,s9,a3
    80007de8:	01ca4133          	xor	sp,s4,t3
    80007dec:	0588                	addi	a0,sp,704
    80007dee:	0166feb3          	and	t4,a3,s6
    80007df2:	000b561b          	srliw	a2,s6,0x0
    80007df6:	01b55bbb          	srlw	s7,a0,s11
    80007dfa:	0091ddb3          	srl	s11,gp,s1
    80007dfe:	01e203b3          	add	t2,tp,t5
    80007e02:	04a9                	addi	s1,s1,10
    80007e04:	01a31093          	slli	ra,t1,0x1a
    80007e08:	000b561b          	srliw	a2,s6,0x0
    80007e0c:	01e203b3          	add	t2,tp,t5
    80007e10:	018a5213          	srli	tp,s4,0x18
    80007e14:	02415b3b          	divuw	s6,sp,tp
    80007e18:	05b60463          	beq	a2,s11,80007e60 <main_40_0_t+0x1a8>
    80007e1c:	89d9                	andi	a1,a1,22
    80007e1e:	03f76733          	rem	a4,a4,t6
    80007e22:	009bf263          	bgeu	s7,s1,80007e26 <main_40_0_t+0x16e>
    80007e26:	023a9d63          	bne	s5,gp,80007e60 <main_40_0_t+0x1a8>
    80007e2a:	00d316bb          	sllw	a3,t1,a3
    80007e2e:	03d44f3b          	divw	t5,s0,t4
    80007e32:	0085eb63          	bltu	a1,s0,80007e48 <main_40_0_t+0x190>
    80007e36:	09730a93          	addi	s5,t1,151
    80007e3a:	000807bb          	addw	a5,a6,zero
    80007e3e:	02a986bb          	mulw	a3,s3,a0
    80007e42:	56fd                	li	a3,-1
    80007e44:	018a5213          	srli	tp,s4,0x18
    80007e48:	8f8d                	sub	a5,a5,a1
    80007e4a:	0cc1881b          	addiw	a6,gp,204
    80007e4e:	01ca4133          	xor	sp,s4,t3
    80007e52:	e3314393          	xori	t2,sp,-461
    80007e56:	02b2dc33          	divu	s8,t0,a1
    80007e5a:	000b561b          	srliw	a2,s6,0x0
    80007e5e:	9a7e                	add	s4,s4,t6
    80007e60:	09730a93          	addi	s5,t1,151
    80007e64:	029bf563          	bgeu	s7,s1,80007e8e <main_40_0_t+0x1d6>
    80007e68:	09730a93          	addi	s5,t1,151
    80007e6c:	01b60463          	beq	a2,s11,80007e74 <main_40_0_t+0x1bc>
    80007e70:	02b2dc33          	divu	s8,t0,a1
    80007e74:	86d9                	srai	a3,a3,0x16
    80007e76:	00d04f63          	bgtz	a3,80007e94 <main_40_0_t+0x1dc>
    80007e7a:	02deedbb          	remw	s11,t4,a3
    80007e7e:	717d                	addi	sp,sp,-16
    80007e80:	03f76733          	rem	a4,a4,t6
    80007e84:	01ca4133          	xor	sp,s4,t3
    80007e88:	0001                	nop
    80007e8a:	02b2dc33          	divu	s8,t0,a1
    80007e8e:	003de5b3          	or	a1,s11,gp
    80007e92:	717d                	addi	sp,sp,-16
    80007e94:	029bfc63          	bgeu	s7,s1,80007ecc <main_40_0_t+0x214>
    80007e98:	0094bb33          	sltu	s6,s1,s1
    80007e9c:	03b95b63          	bge	s2,s11,80007ed2 <main_40_0_t+0x21a>
    80007ea0:	0094bb33          	sltu	s6,s1,s1
    80007ea4:	003a9463          	bne	s5,gp,80007eac <main_40_0_t+0x1f4>
    80007ea8:	002495b3          	sll	a1,s1,sp
    80007eac:	56fd                	li	a3,-1
    80007eae:	01e203b3          	add	t2,tp,t5
    80007eb2:	02d04a63          	bgtz	a3,80007ee6 <main_40_0_t+0x22e>
    80007eb6:	023830b3          	mulhu	ra,a6,gp
    80007eba:	e3314393          	xori	t2,sp,-461
    80007ebe:	8c79                	and	s0,s0,a4
    80007ec0:	0285e363          	bltu	a1,s0,80007ee6 <main_40_0_t+0x22e>
    80007ec4:	003a9963          	bne	s5,gp,80007ed6 <main_40_0_t+0x21e>
    80007ec8:	84627b37          	lui	s6,0x84627
    80007ecc:	56fd                	li	a3,-1
    80007ece:	edf82113          	slti	sp,a6,-289
    80007ed2:	02eb76bb          	remuw	a3,s6,a4
    80007ed6:	9db9                	addw	a1,a1,a4
    80007ed8:	0094bb33          	sltu	s6,s1,s1
    80007edc:	8c79                	and	s0,s0,a4
    80007ede:	69ad                	lui	s3,0xb
    80007ee0:	82f9                	srli	a3,a3,0x1e
    80007ee2:	93a6ba13          	sltiu	s4,a3,-1734
    80007ee6:	0a6c4417          	auipc	s0,0xa6c4
    80007eea:	41205ebb          	sraw	t4,zero,s2
    80007eee:	01e203b3          	add	t2,tp,t5
    80007ef2:	02eb76bb          	remuw	a3,s6,a4
    80007ef6:	00d316bb          	sllw	a3,t1,a3
    80007efa:	93a6ba13          	sltiu	s4,a3,-1734
    80007efe:	0001                	nop
    80007f00:	0166feb3          	and	t4,a3,s6
    80007f04:	000807bb          	addw	a5,a6,zero
    80007f08:	9a7e                	add	s4,s4,t6
    80007f0a:	4368d313          	srai	t1,a7,0x36
    80007f0e:	0001                	nop
    80007f10:	02deedbb          	remw	s11,t4,a3
    80007f14:	000807bb          	addw	a5,a6,zero
    80007f18:	41bb519b          	sraiw	gp,s6,0x1b
    80007f1c:	00d04f63          	bgtz	a3,80007f3a <main_40_0_t+0x282>
    80007f20:	0cc1881b          	addiw	a6,gp,204
    80007f24:	000b561b          	srliw	a2,s6,0x0
    80007f28:	69ad                	lui	s3,0xb
    80007f2a:	023830b3          	mulhu	ra,a6,gp
    80007f2e:	003a9463          	bne	s5,gp,80007f36 <main_40_0_t+0x27e>
    80007f32:	edf82113          	slti	sp,a6,-289
    80007f36:	82f9                	srli	a3,a3,0x1e
    80007f38:	86d9                	srai	a3,a3,0x16
    80007f3a:	0166feb3          	and	t4,a3,s6
    80007f3e:	02d04963          	bgtz	a3,80007f70 <main_40_0_t+0x2b8>
    80007f42:	8f8d                	sub	a5,a5,a1
    80007f44:	84627b37          	lui	s6,0x84627
    80007f48:	417dd533          	sra	a0,s11,s7
    80007f4c:	0cc1881b          	addiw	a6,gp,204
    80007f50:	5be3e993          	ori	s3,t2,1470
    80007f54:	0091ddb3          	srl	s11,gp,s1
    80007f58:	03eec933          	div	s2,t4,t5
    80007f5c:	69ad                	lui	s3,0xb
    80007f5e:	56fd                	li	a3,-1
    80007f60:	c689                	beqz	a3,80007f6a <main_40_0_t+0x2b2>
    80007f62:	93a6ba13          	sltiu	s4,a3,-1734
    80007f66:	41bb519b          	sraiw	gp,s6,0x1b
    80007f6a:	e70d                	bnez	a4,80007f94 <main_40_0_t+0x2dc>
    80007f6c:	41660233          	sub	tp,a2,s6
    80007f70:	04a9                	addi	s1,s1,10
    80007f72:	03f76733          	rem	a4,a4,t6
    80007f76:	8c79                	and	s0,s0,a4
    80007f78:	0001                	nop
    80007f7a:	417dd533          	sra	a0,s11,s7
    80007f7e:	03b60d63          	beq	a2,s11,80007fb8 <main_40_0_t+0x300>
    80007f82:	0091ddb3          	srl	s11,gp,s1
    80007f86:	28d0f213          	andi	tp,ra,653
    80007f8a:	09730a93          	addi	s5,t1,151
    80007f8e:	03eec933          	div	s2,t4,t5
    80007f92:	8c21                	xor	s0,s0,s0
    80007f94:	4368d313          	srai	t1,a7,0x36
    80007f98:	01b60263          	beq	a2,s11,80007f9c <main_40_0_t+0x2e4>
    80007f9c:	417dd533          	sra	a0,s11,s7
    80007fa0:	86d9                	srai	a3,a3,0x16
    80007fa2:	41660233          	sub	tp,a2,s6
    80007fa6:	01ca4133          	xor	sp,s4,t3
    80007faa:	000807bb          	addw	a5,a6,zero
    80007fae:	9d01                	subw	a0,a0,s0
    80007fb0:	0166feb3          	and	t4,a3,s6
    80007fb4:	417dd533          	sra	a0,s11,s7
    80007fb8:	01b55bbb          	srlw	s7,a0,s11
    80007fbc:	82f9                	srli	a3,a3,0x1e
    80007fbe:	03b60b63          	beq	a2,s11,80007ff4 <main_40_0_t+0x33c>
    80007fc2:	0001                	nop
    80007fc4:	0001                	nop
    80007fc6:	0a6c4417          	auipc	s0,0xa6c4
    80007fca:	009bfb63          	bgeu	s7,s1,80007fe0 <main_40_0_t+0x328>
    80007fce:	02fffcb3          	remu	s9,t6,a5
    80007fd2:	01a31093          	slli	ra,t1,0x1a
    80007fd6:	02061833          	mulh	a6,a2,zero
    80007fda:	01b55bbb          	srlw	s7,a0,s11
    80007fde:	0588                	addi	a0,sp,704
    80007fe0:	02061833          	mulh	a6,a2,zero
    80007fe4:	0a6c4417          	auipc	s0,0xa6c4
    80007fe8:	417dd533          	sra	a0,s11,s7
    80007fec:	69ad                	lui	s3,0xb
    80007fee:	0001                	nop
    80007ff0:	03d44f3b          	divw	t5,s0,t4
    80007ff4:	69ad                	lui	s3,0xb
    80007ff6:	043a9163          	bne	s5,gp,80008038 <main_40_0_t+0x380>
    80007ffa:	03eec933          	div	s2,t4,t5
    80007ffe:	0588                	addi	a0,sp,704
    80008000:	56fd                	li	a3,-1
    80008002:	0a6c4417          	auipc	s0,0xa6c4
    80008006:	4368d313          	srai	t1,a7,0x36
    8000800a:	000b561b          	srliw	a2,s6,0x0
    8000800e:	02fffcb3          	remu	s9,t6,a5
    80008012:	04a9                	addi	s1,s1,10
    80008014:	01e203b3          	add	t2,tp,t5
    80008018:	02fffcb3          	remu	s9,t6,a5
    8000801c:	8a3a                	mv	s4,a4
    8000801e:	009bf963          	bgeu	s7,s1,80008030 <main_40_0_t+0x378>
    80008022:	9d01                	subw	a0,a0,s0
    80008024:	e3314393          	xori	t2,sp,-461
    80008028:	e3314393          	xori	t2,sp,-461
    8000802c:	02fffcb3          	remu	s9,t6,a5
    80008030:	edf82113          	slti	sp,a6,-289
    80008034:	01ca4133          	xor	sp,s4,t3
    80008038:	018a5213          	srli	tp,s4,0x18
    8000803c:	0485e163          	bltu	a1,s0,8000807e <main_40_0_t+0x3c6>
    80008040:	89d9                	andi	a1,a1,22
    80008042:	82f9                	srli	a3,a3,0x1e
    80008044:	56fd                	li	a3,-1
    80008046:	8c79                	and	s0,s0,a4
    80008048:	02d04163          	bgtz	a3,8000806a <main_40_0_t+0x3b2>
    8000804c:	02deedbb          	remw	s11,t4,a3
    80008050:	4368d313          	srai	t1,a7,0x36
    80008054:	00d316bb          	sllw	a3,t1,a3
    80008058:	89d9                	andi	a1,a1,22
    8000805a:	01ca4133          	xor	sp,s4,t3
    8000805e:	01a31093          	slli	ra,t1,0x1a
    80008062:	4368d313          	srai	t1,a7,0x36
    80008066:	41bb519b          	sraiw	gp,s6,0x1b
    8000806a:	8e49                	or	a2,a2,a0
    8000806c:	3f7d                	addiw	t5,t5,-1
    8000806e:	00d316bb          	sllw	a3,t1,a3
    80008072:	41bb519b          	sraiw	gp,s6,0x1b
    80008076:	023830b3          	mulhu	ra,a6,gp
    8000807a:	edf82113          	slti	sp,a6,-289
    8000807e:	0588                	addi	a0,sp,704
    80008080:	41bb519b          	sraiw	gp,s6,0x1b
    80008084:	02fffcb3          	remu	s9,t6,a5
    80008088:	03b60963          	beq	a2,s11,800080ba <main_40_0_t+0x402>
    8000808c:	3f7d                	addiw	t5,t5,-1
    8000808e:	0166feb3          	and	t4,a3,s6
    80008092:	02a986bb          	mulw	a3,s3,a0
    80008096:	69ad                	lui	s3,0xb
    80008098:	8c21                	xor	s0,s0,s0
    8000809a:	03d44f3b          	divw	t5,s0,t4
    8000809e:	8c21                	xor	s0,s0,s0
    800080a0:	e309                	bnez	a4,800080a2 <main_40_0_t+0x3ea>
    800080a2:	0cc1881b          	addiw	a6,gp,204
    800080a6:	00d04363          	bgtz	a3,800080ac <main_40_0_t+0x3f4>
    800080aa:	8e49                	or	a2,a2,a0
    800080ac:	84627b37          	lui	s6,0x84627
    800080b0:	02a986bb          	mulw	a3,s3,a0
    800080b4:	3f7d                	addiw	t5,t5,-1
    800080b6:	41205ebb          	sraw	t4,zero,s2
    800080ba:	03498fb3          	mul	t6,s3,s4
    800080be:	02deedbb          	remw	s11,t4,a3
    800080c2:	0a6c4417          	auipc	s0,0xa6c4
    800080c6:	8c79                	and	s0,s0,a4
    800080c8:	01a31093          	slli	ra,t1,0x1a
    800080cc:	003de5b3          	or	a1,s11,gp
    800080d0:	0001                	nop
    800080d2:	000807bb          	addw	a5,a6,zero
    800080d6:	000b561b          	srliw	a2,s6,0x0
    800080da:	69ad                	lui	s3,0xb
    800080dc:	ca85                	beqz	a3,8000810c <main_40_0_t+0x454>
    800080de:	9a7e                	add	s4,s4,t6
    800080e0:	02b2dc33          	divu	s8,t0,a1
    800080e4:	86d9                	srai	a3,a3,0x16
    800080e6:	03498fb3          	mul	t6,s3,s4
    800080ea:	28d0f213          	andi	tp,ra,653
    800080ee:	9db9                	addw	a1,a1,a4
    800080f0:	02061833          	mulh	a6,a2,zero
    800080f4:	02eb76bb          	remuw	a3,s6,a4
    800080f8:	0cc1881b          	addiw	a6,gp,204
    800080fc:	0001                	nop
    800080fe:	417dd533          	sra	a0,s11,s7
    80008102:	02fffcb3          	remu	s9,t6,a5
    80008106:	023830b3          	mulhu	ra,a6,gp
    8000810a:	8a3a                	mv	s4,a4
    8000810c:	02eb76bb          	remuw	a3,s6,a4
    80008110:	8e49                	or	a2,a2,a0

0000000080008112 <main_29>:
    80008112:	00e00eef          	jal	t4,80008120 <main_29+0xe>
    80008116:	a02d                	j	80008140 <main_29+0x2e>
    80008118:	a01d                	j	8000813e <main_29+0x2c>
    8000811a:	bff5                	j	80008116 <main_29+0x4>
    8000811c:	008000ef          	jal	80008124 <main_29+0x12>
    80008120:	024000ef          	jal	80008144 <main_29+0x32>
    80008124:	00a000ef          	jal	8000812e <main_29+0x1c>
    80008128:	00a000ef          	jal	80008132 <main_29+0x20>
    8000812c:	bfc5                	j	8000811c <main_29+0xa>
    8000812e:	fedff0ef          	jal	8000811a <main_29+0x8>
    80008132:	ffbff0ef          	jal	8000812c <main_29+0x1a>
    80008136:	fe3ff0ef          	jal	80008118 <main_29+0x6>
    8000813a:	bff5                	j	80008136 <main_29+0x24>
    8000813c:	bffd                	j	8000813a <main_29+0x28>
    8000813e:	b7ed                	j	80008128 <main_29+0x16>
    80008140:	006000ef          	jal	80008146 <main_29+0x34>
    80008144:	bfe5                	j	8000813c <main_29+0x2a>
    80008146:	0091ddb3          	srl	s11,gp,s1
    8000814a:	8a3a                	mv	s4,a4
    8000814c:	0485e163          	bltu	a1,s0,8000818e <main_29+0x7c>
    80008150:	0091ddb3          	srl	s11,gp,s1
    80008154:	00d316bb          	sllw	a3,t1,a3
    80008158:	03498fb3          	mul	t6,s3,s4
    8000815c:	56fd                	li	a3,-1
    8000815e:	0cc1881b          	addiw	a6,gp,204
    80008162:	02deedbb          	remw	s11,t4,a3
    80008166:	3f7d                	addiw	t5,t5,-1
    80008168:	02eb76bb          	remuw	a3,s6,a4
    8000816c:	003de5b3          	or	a1,s11,gp
    80008170:	417dd533          	sra	a0,s11,s7
    80008174:	8c79                	and	s0,s0,a4
    80008176:	4368d313          	srai	t1,a7,0x36
    8000817a:	009bff63          	bgeu	s7,s1,80008198 <main_29+0x86>
    8000817e:	0a6c4417          	auipc	s0,0xa6c4
    80008182:	02b2dc33          	divu	s8,t0,a1
    80008186:	03272133          	mulhsu	sp,a4,s2
    8000818a:	02deedbb          	remw	s11,t4,a3
    8000818e:	41205ebb          	sraw	t4,zero,s2
    80008192:	69ad                	lui	s3,0xb
    80008194:	00ce1c1b          	slliw	s8,t3,0xc
    80008198:	69ad                	lui	s3,0xb
    8000819a:	0cc1881b          	addiw	a6,gp,204
    8000819e:	0a6c4417          	auipc	s0,0xa6c4
    800081a2:	3f7d                	addiw	t5,t5,-1
    800081a4:	c681                	beqz	a3,800081ac <main_29+0x9a>
    800081a6:	023830b3          	mulhu	ra,a6,gp
    800081aa:	9a7e                	add	s4,s4,t6
    800081ac:	3f7d                	addiw	t5,t5,-1
    800081ae:	000725b3          	sltz	a1,a4
    800081b2:	0166feb3          	and	t4,a3,s6
    800081b6:	029bf563          	bgeu	s7,s1,800081e0 <main_29+0xce>
    800081ba:	89d9                	andi	a1,a1,22
    800081bc:	02061833          	mulh	a6,a2,zero
    800081c0:	01a31093          	slli	ra,t1,0x1a
    800081c4:	93a6ba13          	sltiu	s4,a3,-1734
    800081c8:	84627b37          	lui	s6,0x84627
    800081cc:	01a31093          	slli	ra,t1,0x1a
    800081d0:	ca81                	beqz	a3,800081e0 <main_29+0xce>
    800081d2:	02415b3b          	divuw	s6,sp,tp
    800081d6:	09730a93          	addi	s5,t1,151
    800081da:	03eec933          	div	s2,t4,t5
    800081de:	8a3a                	mv	s4,a4
    800081e0:	41205ebb          	sraw	t4,zero,s2
    800081e4:	3f7d                	addiw	t5,t5,-1
    800081e6:	41660233          	sub	tp,a2,s6
    800081ea:	03498fb3          	mul	t6,s3,s4
    800081ee:	4368d313          	srai	t1,a7,0x36
    800081f2:	03498fb3          	mul	t6,s3,s4
    800081f6:	8c21                	xor	s0,s0,s0
    800081f8:	8a3a                	mv	s4,a4
    800081fa:	0166feb3          	and	t4,a3,s6
    800081fe:	023830b3          	mulhu	ra,a6,gp
    80008202:	e319                	bnez	a4,80008208 <main_29+0xf6>
    80008204:	029bf863          	bgeu	s7,s1,80008234 <main_29+0x122>
    80008208:	02061833          	mulh	a6,a2,zero
    8000820c:	003de5b3          	or	a1,s11,gp
    80008210:	e311                	bnez	a4,80008214 <main_29+0x102>
    80008212:	0001                	nop
    80008214:	8c21                	xor	s0,s0,s0
    80008216:	09730a93          	addi	s5,t1,151
    8000821a:	0001                	nop
    8000821c:	717d                	addi	sp,sp,-16
    8000821e:	0001                	nop
    80008220:	09730a93          	addi	s5,t1,151
    80008224:	023830b3          	mulhu	ra,a6,gp
    80008228:	8c21                	xor	s0,s0,s0
    8000822a:	84627b37          	lui	s6,0x84627
    8000822e:	01a31093          	slli	ra,t1,0x1a
    80008232:	89d9                	andi	a1,a1,22
    80008234:	e3314393          	xori	t2,sp,-461
    80008238:	8e49                	or	a2,a2,a0
    8000823a:	05b60463          	beq	a2,s11,80008282 <main_29+0x170>
    8000823e:	84627b37          	lui	s6,0x84627
    80008242:	417dd533          	sra	a0,s11,s7
    80008246:	56fd                	li	a3,-1
    80008248:	9a7e                	add	s4,s4,t6
    8000824a:	02a986bb          	mulw	a3,s3,a0
    8000824e:	03eec933          	div	s2,t4,t5
    80008252:	28d0f213          	andi	tp,ra,653
    80008256:	05b60263          	beq	a2,s11,8000829a <main_29+0x188>
    8000825a:	02fffcb3          	remu	s9,t6,a5
    8000825e:	02415b3b          	divuw	s6,sp,tp
    80008262:	02a986bb          	mulw	a3,s3,a0
    80008266:	5be3e993          	ori	s3,t2,1470
    8000826a:	84627b37          	lui	s6,0x84627
    8000826e:	9db9                	addw	a1,a1,a4
    80008270:	0166feb3          	and	t4,a3,s6
    80008274:	4368d313          	srai	t1,a7,0x36
    80008278:	04a9                	addi	s1,s1,10
    8000827a:	84627b37          	lui	s6,0x84627
    8000827e:	018a5213          	srli	tp,s4,0x18
    80008282:	8f8d                	sub	a5,a5,a1
    80008284:	41bb519b          	sraiw	gp,s6,0x1b
    80008288:	000725b3          	sltz	a1,a4
    8000828c:	003de5b3          	or	a1,s11,gp
    80008290:	8f8d                	sub	a5,a5,a1
    80008292:	029bf163          	bgeu	s7,s1,800082b4 <main_29+0x1a2>
    80008296:	41660233          	sub	tp,a2,s6
    8000829a:	9db9                	addw	a1,a1,a4
    8000829c:	02061833          	mulh	a6,a2,zero
    800082a0:	89d9                	andi	a1,a1,22
    800082a2:	02061833          	mulh	a6,a2,zero
    800082a6:	8c79                	and	s0,s0,a4
    800082a8:	03272133          	mulhsu	sp,a4,s2
    800082ac:	93a6ba13          	sltiu	s4,a3,-1734
    800082b0:	03b95b63          	bge	s2,s11,800082e6 <main_29+0x1d4>
    800082b4:	02fffcb3          	remu	s9,t6,a5
    800082b8:	02eb76bb          	remuw	a3,s6,a4
    800082bc:	41205ebb          	sraw	t4,zero,s2
    800082c0:	02fffcb3          	remu	s9,t6,a5
    800082c4:	01a31093          	slli	ra,t1,0x1a
    800082c8:	02fffcb3          	remu	s9,t6,a5
    800082cc:	edf82113          	slti	sp,a6,-289
    800082d0:	93a6ba13          	sltiu	s4,a3,-1734
    800082d4:	03d44f3b          	divw	t5,s0,t4
    800082d8:	56fd                	li	a3,-1
    800082da:	02eb76bb          	remuw	a3,s6,a4
    800082de:	9db9                	addw	a1,a1,a4
    800082e0:	0091ddb3          	srl	s11,gp,s1
    800082e4:	9db9                	addw	a1,a1,a4
    800082e6:	edf82113          	slti	sp,a6,-289
    800082ea:	01a31093          	slli	ra,t1,0x1a
    800082ee:	02deedbb          	remw	s11,t4,a3
    800082f2:	0094bb33          	sltu	s6,s1,s1
    800082f6:	04a9                	addi	s1,s1,10
    800082f8:	86d9                	srai	a3,a3,0x16
    800082fa:	9db9                	addw	a1,a1,a4
    800082fc:	02deedbb          	remw	s11,t4,a3
    80008300:	56fd                	li	a3,-1
    80008302:	02fffcb3          	remu	s9,t6,a5
    80008306:	c2a1                	beqz	a3,80008346 <main_29+0x234>
    80008308:	002495b3          	sll	a1,s1,sp
    8000830c:	00d316bb          	sllw	a3,t1,a3
    80008310:	00d04463          	bgtz	a3,80008318 <main_29+0x206>
    80008314:	029bf463          	bgeu	s7,s1,8000833c <main_29+0x22a>
    80008318:	0a6c4417          	auipc	s0,0xa6c4
    8000831c:	89d9                	andi	a1,a1,22
    8000831e:	09730a93          	addi	s5,t1,151
    80008322:	41205ebb          	sraw	t4,zero,s2
    80008326:	69ad                	lui	s3,0xb
    80008328:	8c79                	and	s0,s0,a4
    8000832a:	9a7e                	add	s4,s4,t6
    8000832c:	03d44f3b          	divw	t5,s0,t4
    80008330:	5be3e993          	ori	s3,t2,1470
    80008334:	01e203b3          	add	t2,tp,t5
    80008338:	93a6ba13          	sltiu	s4,a3,-1734
    8000833c:	9db9                	addw	a1,a1,a4
    8000833e:	5be3e993          	ori	s3,t2,1470
    80008342:	01b60463          	beq	a2,s11,8000834a <main_29+0x238>
    80008346:	5be3e993          	ori	s3,t2,1470
    8000834a:	8e49                	or	a2,a2,a0
    8000834c:	09730a93          	addi	s5,t1,151
    80008350:	00ce1c1b          	slliw	s8,t3,0xc
    80008354:	04a9                	addi	s1,s1,10
    80008356:	9db9                	addw	a1,a1,a4
    80008358:	023830b3          	mulhu	ra,a6,gp
    8000835c:	0588                	addi	a0,sp,704
    8000835e:	41205ebb          	sraw	t4,zero,s2
    80008362:	009bf463          	bgeu	s7,s1,8000836a <main_29+0x258>
    80008366:	00ce1c1b          	slliw	s8,t3,0xc
    8000836a:	02deedbb          	remw	s11,t4,a3
    8000836e:	002495b3          	sll	a1,s1,sp
    80008372:	0091ddb3          	srl	s11,gp,s1
    80008376:	02eb76bb          	remuw	a3,s6,a4
    8000837a:	01ca4133          	xor	sp,s4,t3
    8000837e:	56fd                	li	a3,-1
    80008380:	03272133          	mulhsu	sp,a4,s2
    80008384:	00d316bb          	sllw	a3,t1,a3
    80008388:	0cc1881b          	addiw	a6,gp,204
    8000838c:	eb19                	bnez	a4,800083a2 <main_29+0x290>
    8000838e:	0aa6                	slli	s5,s5,0x9
    80008390:	9a7e                	add	s4,s4,t6
    80008392:	86d9                	srai	a3,a3,0x16
    80008394:	717d                	addi	sp,sp,-16
    80008396:	0aa6                	slli	s5,s5,0x9
    80008398:	003de5b3          	or	a1,s11,gp
    8000839c:	029bf663          	bgeu	s7,s1,800083c8 <main_29+0x2b6>
    800083a0:	8a3a                	mv	s4,a4
    800083a2:	0094bb33          	sltu	s6,s1,s1
    800083a6:	9d01                	subw	a0,a0,s0
    800083a8:	84627b37          	lui	s6,0x84627
    800083ac:	717d                	addi	sp,sp,-16
    800083ae:	00d04263          	bgtz	a3,800083b2 <main_29+0x2a0>
    800083b2:	01b55bbb          	srlw	s7,a0,s11
    800083b6:	40dc89bb          	subw	s3,s9,a3
    800083ba:	40dc89bb          	subw	s3,s9,a3
    800083be:	8f8d                	sub	a5,a5,a1
    800083c0:	002495b3          	sll	a1,s1,sp
    800083c4:	03272133          	mulhsu	sp,a4,s2
    800083c8:	000807bb          	addw	a5,a6,zero
    800083cc:	51d9                	li	gp,-10
    800083ce:	9e81                	subw	a3,a3,s0
    800083d0:	0001                	nop
    800083d2:	4368d393          	srai	t2,a7,0x36
    800083d6:	80ba                	mv	ra,a4
    800083d8:	02061933          	mulh	s2,a2,zero
    800083dc:	717d                	addi	sp,sp,-16
    800083de:	023830b3          	mulhu	ra,a6,gp
    800083e2:	5be1                	li	s7,-8
    800083e4:	02fffe33          	remu	t3,t6,a5
    800083e8:	86d9                	srai	a3,a3,0x16

00000000800083ea <main_74_0_t>:
    800083ea:	02b2ddb3          	divu	s11,t0,a1
    800083ee:	8959                	andi	a0,a0,22
    800083f0:	019d                	addi	gp,gp,7
    800083f2:	ff71cce3          	blt	gp,s7,800083ea <main_74_0_t>
    800083f6:	40dc8a3b          	subw	s4,s9,a3
    800083fa:	023830b3          	mulhu	ra,a6,gp
    800083fe:	01e203b3          	add	t2,tp,t5
    80008402:	01a31093          	slli	ra,t1,0x1a
    80008406:	89d9                	andi	a1,a1,22
    80008408:	02b2dc33          	divu	s8,t0,a1
    8000840c:	03272133          	mulhsu	sp,a4,s2
    80008410:	9a7e                	add	s4,s4,t6
    80008412:	0001                	nop
    80008414:	018a5213          	srli	tp,s4,0x18
    80008418:	01e203b3          	add	t2,tp,t5
    8000841c:	03272133          	mulhsu	sp,a4,s2
    80008420:	03d44f3b          	divw	t5,s0,t4
    80008424:	e3314393          	xori	t2,sp,-461
    80008428:	717d                	addi	sp,sp,-16
    8000842a:	003de5b3          	or	a1,s11,gp
    8000842e:	02deedbb          	remw	s11,t4,a3
    80008432:	e3314393          	xori	t2,sp,-461
    80008436:	41205ebb          	sraw	t4,zero,s2
    8000843a:	41660233          	sub	tp,a2,s6
    8000843e:	02a986bb          	mulw	a3,s3,a0
    80008442:	9d01                	subw	a0,a0,s0
    80008444:	8e49                	or	a2,a2,a0
    80008446:	01b60463          	beq	a2,s11,8000844e <main_74_0_t+0x64>
    8000844a:	02415b3b          	divuw	s6,sp,tp
    8000844e:	69ad                	lui	s3,0xb
    80008450:	86d9                	srai	a3,a3,0x16
    80008452:	023830b3          	mulhu	ra,a6,gp
    80008456:	000725b3          	sltz	a1,a4
    8000845a:	03b95263          	bge	s2,s11,8000847e <main_74_0_t+0x94>
    8000845e:	56fd                	li	a3,-1
    80008460:	41660233          	sub	tp,a2,s6
    80008464:	4368d313          	srai	t1,a7,0x36
    80008468:	717d                	addi	sp,sp,-16
    8000846a:	02061833          	mulh	a6,a2,zero
    8000846e:	023830b3          	mulhu	ra,a6,gp
    80008472:	41bb519b          	sraiw	gp,s6,0x1b
    80008476:	02061833          	mulh	a6,a2,zero
    8000847a:	03d44f3b          	divw	t5,s0,t4
    8000847e:	9a7e                	add	s4,s4,t6
    80008480:	003de5b3          	or	a1,s11,gp
    80008484:	8a3a                	mv	s4,a4
    80008486:	000b561b          	srliw	a2,s6,0x0
    8000848a:	4368d313          	srai	t1,a7,0x36
    8000848e:	41660233          	sub	tp,a2,s6
    80008492:	9db9                	addw	a1,a1,a4
    80008494:	41660233          	sub	tp,a2,s6
    80008498:	03272133          	mulhsu	sp,a4,s2
    8000849c:	0cc1881b          	addiw	a6,gp,204
    800084a0:	28d0f213          	andi	tp,ra,653
    800084a4:	02a986bb          	mulw	a3,s3,a0
    800084a8:	9d01                	subw	a0,a0,s0
    800084aa:	04a9                	addi	s1,s1,10
    800084ac:	04a9                	addi	s1,s1,10
    800084ae:	02061833          	mulh	a6,a2,zero
    800084b2:	03498fb3          	mul	t6,s3,s4
    800084b6:	000725b3          	sltz	a1,a4
    800084ba:	01b55bbb          	srlw	s7,a0,s11
    800084be:	28d0f213          	andi	tp,ra,653
    800084c2:	8c21                	xor	s0,s0,s0
    800084c4:	56fd                	li	a3,-1
    800084c6:	82f9                	srli	a3,a3,0x1e
    800084c8:	e3314393          	xori	t2,sp,-461
    800084cc:	e3314393          	xori	t2,sp,-461
    800084d0:	0085e563          	bltu	a1,s0,800084da <main_74_0_t+0xf0>
    800084d4:	93a6ba13          	sltiu	s4,a3,-1734
    800084d8:	e31d                	bnez	a4,800084fe <main_74_0_t+0x114>
    800084da:	8f8d                	sub	a5,a5,a1
    800084dc:	c285                	beqz	a3,800084fc <main_74_0_t+0x112>
    800084de:	5be3e993          	ori	s3,t2,1470
    800084e2:	41660233          	sub	tp,a2,s6
    800084e6:	0094bb33          	sltu	s6,s1,s1
    800084ea:	02a986bb          	mulw	a3,s3,a0
    800084ee:	00ce1c1b          	slliw	s8,t3,0xc
    800084f2:	8e49                	or	a2,a2,a0
    800084f4:	03498fb3          	mul	t6,s3,s4
    800084f8:	01a31093          	slli	ra,t1,0x1a
    800084fc:	8c21                	xor	s0,s0,s0
    800084fe:	03f76733          	rem	a4,a4,t6
    80008502:	0085e263          	bltu	a1,s0,80008506 <main_74_0_t+0x11c>
    80008506:	9d01                	subw	a0,a0,s0
    80008508:	04a9                	addi	s1,s1,10
    8000850a:	018a5213          	srli	tp,s4,0x18
    8000850e:	e331                	bnez	a4,80008552 <main_74_0_t+0x168>
    80008510:	0166feb3          	and	t4,a3,s6
    80008514:	0485e163          	bltu	a1,s0,80008556 <main_74_0_t+0x16c>
    80008518:	e3314393          	xori	t2,sp,-461
    8000851c:	03eec933          	div	s2,t4,t5
    80008520:	018a5213          	srli	tp,s4,0x18
    80008524:	0166feb3          	and	t4,a3,s6
    80008528:	4368d313          	srai	t1,a7,0x36
    8000852c:	02415b3b          	divuw	s6,sp,tp
    80008530:	717d                	addi	sp,sp,-16
    80008532:	0588                	addi	a0,sp,704
    80008534:	02a986bb          	mulw	a3,s3,a0
    80008538:	000807bb          	addw	a5,a6,zero
    8000853c:	02b2dc33          	divu	s8,t0,a1
    80008540:	03eec933          	div	s2,t4,t5
    80008544:	0001                	nop
    80008546:	89d9                	andi	a1,a1,22
    80008548:	02061833          	mulh	a6,a2,zero
    8000854c:	ca89                	beqz	a3,8000855e <main_74_0_t+0x174>
    8000854e:	023830b3          	mulhu	ra,a6,gp
    80008552:	03eec933          	div	s2,t4,t5
    80008556:	417dd533          	sra	a0,s11,s7
    8000855a:	41bb519b          	sraiw	gp,s6,0x1b
    8000855e:	9db9                	addw	a1,a1,a4
    80008560:	03272133          	mulhsu	sp,a4,s2
    80008564:	02415b3b          	divuw	s6,sp,tp
    80008568:	03b60c63          	beq	a2,s11,800085a0 <main_74_0_t+0x1b6>
    8000856c:	00d04863          	bgtz	a3,8000857c <main_74_0_t+0x192>
    80008570:	8c21                	xor	s0,s0,s0
    80008572:	e3314393          	xori	t2,sp,-461
    80008576:	02eb76bb          	remuw	a3,s6,a4
    8000857a:	9a7e                	add	s4,s4,t6
    8000857c:	8a3a                	mv	s4,a4
    8000857e:	41205ebb          	sraw	t4,zero,s2
    80008582:	01e203b3          	add	t2,tp,t5
    80008586:	0166feb3          	and	t4,a3,s6
    8000858a:	0091ddb3          	srl	s11,gp,s1
    8000858e:	02eb76bb          	remuw	a3,s6,a4
    80008592:	ce85                	beqz	a3,800085ca <main_74_0_t+0x1e0>
    80008594:	003a9a63          	bne	s5,gp,800085a8 <main_74_0_t+0x1be>
    80008598:	0166feb3          	and	t4,a3,s6
    8000859c:	01a31093          	slli	ra,t1,0x1a
    800085a0:	000807bb          	addw	a5,a6,zero
    800085a4:	4368d313          	srai	t1,a7,0x36
    800085a8:	01a31093          	slli	ra,t1,0x1a
    800085ac:	03272133          	mulhsu	sp,a4,s2
    800085b0:	84627b37          	lui	s6,0x84627
    800085b4:	82f9                	srli	a3,a3,0x1e
    800085b6:	9db9                	addw	a1,a1,a4
    800085b8:	009bf563          	bgeu	s7,s1,800085c2 <main_74_0_t+0x1d8>
    800085bc:	01a31093          	slli	ra,t1,0x1a
    800085c0:	8e49                	or	a2,a2,a0
    800085c2:	40dc89bb          	subw	s3,s9,a3
    800085c6:	02061833          	mulh	a6,a2,zero
    800085ca:	717d                	addi	sp,sp,-16
    800085cc:	02deedbb          	remw	s11,t4,a3
    800085d0:	5be3e993          	ori	s3,t2,1470
    800085d4:	000b561b          	srliw	a2,s6,0x0
    800085d8:	93a6ba13          	sltiu	s4,a3,-1734
    800085dc:	02b2dc33          	divu	s8,t0,a1
    800085e0:	0001                	nop
    800085e2:	01b55bbb          	srlw	s7,a0,s11
    800085e6:	ca91                	beqz	a3,800085fa <main_74_0_t+0x210>
    800085e8:	417dd533          	sra	a0,s11,s7
    800085ec:	0285e663          	bltu	a1,s0,80008618 <main_74_0_t+0x22e>
    800085f0:	8e49                	or	a2,a2,a0
    800085f2:	03eec933          	div	s2,t4,t5
    800085f6:	02415b3b          	divuw	s6,sp,tp
    800085fa:	5be3e993          	ori	s3,t2,1470
    800085fe:	8f8d                	sub	a5,a5,a1
    80008600:	8a3a                	mv	s4,a4
    80008602:	002495b3          	sll	a1,s1,sp
    80008606:	9d01                	subw	a0,a0,s0
    80008608:	ef05                	bnez	a4,80008640 <main_74_0_t+0x256>
    8000860a:	8a3a                	mv	s4,a4
    8000860c:	018a5213          	srli	tp,s4,0x18
    80008610:	04a9                	addi	s1,s1,10
    80008612:	9db9                	addw	a1,a1,a4
    80008614:	0094bb33          	sltu	s6,s1,s1
    80008618:	003a9d63          	bne	s5,gp,80008632 <main_74_0_t+0x248>
    8000861c:	8c79                	and	s0,s0,a4
    8000861e:	000725b3          	sltz	a1,a4
    80008622:	018a5213          	srli	tp,s4,0x18
    80008626:	0588                	addi	a0,sp,704
    80008628:	0aa6                	slli	s5,s5,0x9
    8000862a:	023a9c63          	bne	s5,gp,80008662 <main_74_0_t+0x278>
    8000862e:	03eec933          	div	s2,t4,t5
    80008632:	0285ec63          	bltu	a1,s0,8000866a <main_74_0_t+0x280>
    80008636:	4368d313          	srai	t1,a7,0x36
    8000863a:	8c79                	and	s0,s0,a4
    8000863c:	02deedbb          	remw	s11,t4,a3
    80008640:	04d04363          	bgtz	a3,80008686 <main_74_0_t+0x29c>
    80008644:	9d01                	subw	a0,a0,s0
    80008646:	ef11                	bnez	a4,80008662 <main_74_0_t+0x278>
    80008648:	4368d313          	srai	t1,a7,0x36
    8000864c:	0166feb3          	and	t4,a3,s6
    80008650:	0588                	addi	a0,sp,704
    80008652:	84627b37          	lui	s6,0x84627
    80008656:	41205ebb          	sraw	t4,zero,s2
    8000865a:	84627b37          	lui	s6,0x84627
    8000865e:	02a986bb          	mulw	a3,s3,a0
    80008662:	93a6ba13          	sltiu	s4,a3,-1734
    80008666:	93a6ba13          	sltiu	s4,a3,-1734
    8000866a:	0091ddb3          	srl	s11,gp,s1
    8000866e:	40dc89bb          	subw	s3,s9,a3
    80008672:	03b95f63          	bge	s2,s11,800086b0 <main_74_0_t+0x2c6>
    80008676:	02061833          	mulh	a6,a2,zero
    8000867a:	9a7e                	add	s4,s4,t6
    8000867c:	0cc1881b          	addiw	a6,gp,204
    80008680:	9d01                	subw	a0,a0,s0
    80008682:	023830b3          	mulhu	ra,a6,gp
    80008686:	0588                	addi	a0,sp,704
    80008688:	002495b3          	sll	a1,s1,sp
    8000868c:	03f76733          	rem	a4,a4,t6
    80008690:	023830b3          	mulhu	ra,a6,gp
    80008694:	018a5213          	srli	tp,s4,0x18
    80008698:	40dc89bb          	subw	s3,s9,a3
    8000869c:	69ad                	lui	s3,0xb
    8000869e:	8c21                	xor	s0,s0,s0
    800086a0:	03498fb3          	mul	t6,s3,s4
    800086a4:	28d0f213          	andi	tp,ra,653
    800086a8:	9d01                	subw	a0,a0,s0
    800086aa:	0aa6                	slli	s5,s5,0x9
    800086ac:	00ce1c1b          	slliw	s8,t3,0xc
    800086b0:	000807bb          	addw	a5,a6,zero
    800086b4:	03b60663          	beq	a2,s11,800086e0 <main_74_0_t+0x2f6>
    800086b8:	40dc89bb          	subw	s3,s9,a3
    800086bc:	01ca4133          	xor	sp,s4,t3
    800086c0:	02415b3b          	divuw	s6,sp,tp
    800086c4:	9a7e                	add	s4,s4,t6
    800086c6:	000807bb          	addw	a5,a6,zero
    800086ca:	28d0f213          	andi	tp,ra,653
    800086ce:	8a3a                	mv	s4,a4
    800086d0:	03272133          	mulhsu	sp,a4,s2
    800086d4:	86d9                	srai	a3,a3,0x16
    800086d6:	8c21                	xor	s0,s0,s0
    800086d8:	9d01                	subw	a0,a0,s0
    800086da:	8f8d                	sub	a5,a5,a1
    800086dc:	e311                	bnez	a4,800086e0 <main_74_0_t+0x2f6>
    800086de:	717d                	addi	sp,sp,-16
    800086e0:	03d44f3b          	divw	t5,s0,t4
    800086e4:	01a31093          	slli	ra,t1,0x1a
    800086e8:	01b95263          	bge	s2,s11,800086ec <main_74_0_t+0x302>
    800086ec:	01a31093          	slli	ra,t1,0x1a
    800086f0:	0001                	nop
    800086f2:	01a31093          	slli	ra,t1,0x1a
    800086f6:	ce99                	beqz	a3,80008714 <main_74_0_t+0x32a>
    800086f8:	9a7e                	add	s4,s4,t6
    800086fa:	00d316bb          	sllw	a3,t1,a3
    800086fe:	04a9                	addi	s1,s1,10
    80008700:	09730a93          	addi	s5,t1,151
    80008704:	717d                	addi	sp,sp,-16
    80008706:	000b561b          	srliw	a2,s6,0x0
    8000870a:	5be3e993          	ori	s3,t2,1470
    8000870e:	edf82113          	slti	sp,a6,-289
    80008712:	0588                	addi	a0,sp,704
    80008714:	02deedbb          	remw	s11,t4,a3
    80008718:	8a3a                	mv	s4,a4
    8000871a:	018a5213          	srli	tp,s4,0x18
    8000871e:	9a7e                	add	s4,s4,t6
    80008720:	0588                	addi	a0,sp,704
    80008722:	01e203b3          	add	t2,tp,t5
    80008726:	009bfb63          	bgeu	s7,s1,8000873c <main_74_0_t+0x352>
    8000872a:	01b95363          	bge	s2,s11,80008730 <main_74_0_t+0x346>
    8000872e:	82f9                	srli	a3,a3,0x1e
    80008730:	09730a93          	addi	s5,t1,151
    80008734:	09730a93          	addi	s5,t1,151
    80008738:	417dd533          	sra	a0,s11,s7
    8000873c:	56fd                	li	a3,-1
    8000873e:	8f8d                	sub	a5,a5,a1
    80008740:	01e203b3          	add	t2,tp,t5
    80008744:	717d                	addi	sp,sp,-16
    80008746:	018a5213          	srli	tp,s4,0x18
    8000874a:	93a6ba13          	sltiu	s4,a3,-1734
    8000874e:	03b95d63          	bge	s2,s11,80008788 <main_74_0_t+0x39e>
    80008752:	02fffcb3          	remu	s9,t6,a5
    80008756:	002495b3          	sll	a1,s1,sp
    8000875a:	00ce1c1b          	slliw	s8,t3,0xc
    8000875e:	0166feb3          	and	t4,a3,s6
    80008762:	56fd                	li	a3,-1
    80008764:	00d316bb          	sllw	a3,t1,a3
    80008768:	02fffcb3          	remu	s9,t6,a5
    8000876c:	09730a93          	addi	s5,t1,151
    80008770:	03eec933          	div	s2,t4,t5
    80008774:	e701                	bnez	a4,8000877c <main_74_0_t+0x392>
    80008776:	03eec933          	div	s2,t4,t5
    8000877a:	56fd                	li	a3,-1
    8000877c:	5be3e993          	ori	s3,t2,1470
    80008780:	023a9163          	bne	s5,gp,800087a2 <main_74_0_t+0x3b8>
    80008784:	002495b3          	sll	a1,s1,sp
    80008788:	02415b3b          	divuw	s6,sp,tp
    8000878c:	0588                	addi	a0,sp,704
    8000878e:	01b55bbb          	srlw	s7,a0,s11
    80008792:	41205ebb          	sraw	t4,zero,s2
    80008796:	0a6c4417          	auipc	s0,0xa6c4
    8000879a:	00ce1c1b          	slliw	s8,t3,0xc
    8000879e:	000725b3          	sltz	a1,a4
    800087a2:	41bb519b          	sraiw	gp,s6,0x1b
    800087a6:	0cc1881b          	addiw	a6,gp,204
    800087aa:	0588                	addi	a0,sp,704
    800087ac:	89d9                	andi	a1,a1,22
    800087ae:	28d0f213          	andi	tp,ra,653
    800087b2:	8f8d                	sub	a5,a5,a1
    800087b4:	9d01                	subw	a0,a0,s0
    800087b6:	0a6c4417          	auipc	s0,0xa6c4
    800087ba:	023830b3          	mulhu	ra,a6,gp
    800087be:	0588                	addi	a0,sp,704
    800087c0:	0001                	nop
    800087c2:	28d0f213          	andi	tp,ra,653
    800087c6:	03272133          	mulhsu	sp,a4,s2
    800087ca:	03272133          	mulhsu	sp,a4,s2
    800087ce:	03498fb3          	mul	t6,s3,s4
    800087d2:	56fd                	li	a3,-1
    800087d4:	02415b3b          	divuw	s6,sp,tp
    800087d8:	02b2dc33          	divu	s8,t0,a1
    800087dc:	003de5b3          	or	a1,s11,gp
    800087e0:	01b95a63          	bge	s2,s11,800087f4 <main_74_0_t+0x40a>
    800087e4:	03498fb3          	mul	t6,s3,s4
    800087e8:	5be3e993          	ori	s3,t2,1470
    800087ec:	0166feb3          	and	t4,a3,s6
    800087f0:	023830b3          	mulhu	ra,a6,gp
    800087f4:	000725b3          	sltz	a1,a4
    800087f8:	82f9                	srli	a3,a3,0x1e
    800087fa:	02a986bb          	mulw	a3,s3,a0
    800087fe:	0094bb33          	sltu	s6,s1,s1
    80008802:	02fffcb3          	remu	s9,t6,a5
    80008806:	03f76733          	rem	a4,a4,t6
    8000880a:	4368d313          	srai	t1,a7,0x36
    8000880e:	8f8d                	sub	a5,a5,a1
    80008810:	023830b3          	mulhu	ra,a6,gp
    80008814:	93a6ba13          	sltiu	s4,a3,-1734
    80008818:	023a9163          	bne	s5,gp,8000883a <main_74_0_t+0x450>
    8000881c:	0285e963          	bltu	a1,s0,8000884e <main_74_0_t+0x464>
    80008820:	03d44f3b          	divw	t5,s0,t4
    80008824:	01e203b3          	add	t2,tp,t5
    80008828:	4368d313          	srai	t1,a7,0x36
    8000882c:	89d9                	andi	a1,a1,22
    8000882e:	000807bb          	addw	a5,a6,zero
    80008832:	04d04363          	bgtz	a3,80008878 <main_74_0_t+0x48e>
    80008836:	0094bb33          	sltu	s6,s1,s1
    8000883a:	003de5b3          	or	a1,s11,gp
    8000883e:	018a5213          	srli	tp,s4,0x18
    80008842:	03f76733          	rem	a4,a4,t6
    80008846:	01e203b3          	add	t2,tp,t5
    8000884a:	000807bb          	addw	a5,a6,zero
    8000884e:	018a5213          	srli	tp,s4,0x18
    80008852:	4368d313          	srai	t1,a7,0x36
    80008856:	02deedbb          	remw	s11,t4,a3
    8000885a:	0a6c4417          	auipc	s0,0xa6c4
    8000885e:	03498fb3          	mul	t6,s3,s4
    80008862:	0cc1881b          	addiw	a6,gp,204
    80008866:	40dc89bb          	subw	s3,s9,a3
    8000886a:	0091ddb3          	srl	s11,gp,s1
    8000886e:	5be3e993          	ori	s3,t2,1470
    80008872:	02deedbb          	remw	s11,t4,a3
    80008876:	82f9                	srli	a3,a3,0x1e
    80008878:	018a5213          	srli	tp,s4,0x18
    8000887c:	8e49                	or	a2,a2,a0
    8000887e:	8c21                	xor	s0,s0,s0
    80008880:	e3314393          	xori	t2,sp,-461
    80008884:	69ad                	lui	s3,0xb
    80008886:	029bfd63          	bgeu	s7,s1,800088c0 <main_74_0_t+0x4d6>
    8000888a:	89d9                	andi	a1,a1,22
    8000888c:	02b2dc33          	divu	s8,t0,a1
    80008890:	0001                	nop
    80008892:	9db9                	addw	a1,a1,a4
    80008894:	002495b3          	sll	a1,s1,sp
    80008898:	56fd                	li	a3,-1
    8000889a:	002495b3          	sll	a1,s1,sp
    8000889e:	e3314393          	xori	t2,sp,-461
    800088a2:	8e49                	or	a2,a2,a0
    800088a4:	8f8d                	sub	a5,a5,a1
    800088a6:	00d04263          	bgtz	a3,800088aa <main_74_0_t+0x4c0>
    800088aa:	9db9                	addw	a1,a1,a4
    800088ac:	40dc89bb          	subw	s3,s9,a3
    800088b0:	3f7d                	addiw	t5,t5,-1
    800088b2:	4368d313          	srai	t1,a7,0x36
    800088b6:	5be3e993          	ori	s3,t2,1470
    800088ba:	0001                	nop
    800088bc:	02deedbb          	remw	s11,t4,a3
    800088c0:	0aa6                	slli	s5,s5,0x9
    800088c2:	09730a93          	addi	s5,t1,151
    800088c6:	000725b3          	sltz	a1,a4
    800088ca:	018a5213          	srli	tp,s4,0x18
    800088ce:	8c21                	xor	s0,s0,s0
    800088d0:	03d44f3b          	divw	t5,s0,t4
    800088d4:	018a5213          	srli	tp,s4,0x18
    800088d8:	023830b3          	mulhu	ra,a6,gp
    800088dc:	89d9                	andi	a1,a1,22
    800088de:	00d316bb          	sllw	a3,t1,a3
    800088e2:	02deedbb          	remw	s11,t4,a3
    800088e6:	02061833          	mulh	a6,a2,zero
    800088ea:	9d01                	subw	a0,a0,s0
    800088ec:	9d01                	subw	a0,a0,s0
    800088ee:	01b55bbb          	srlw	s7,a0,s11
    800088f2:	82f9                	srli	a3,a3,0x1e
    800088f4:	01e203b3          	add	t2,tp,t5
    800088f8:	0285ee63          	bltu	a1,s0,80008934 <main_74_0_t+0x54a>
    800088fc:	0085e963          	bltu	a1,s0,8000890e <main_74_0_t+0x524>
    80008900:	000725b3          	sltz	a1,a4
    80008904:	00d316bb          	sllw	a3,t1,a3
    80008908:	02fffcb3          	remu	s9,t6,a5
    8000890c:	56fd                	li	a3,-1
    8000890e:	018a5213          	srli	tp,s4,0x18
    80008912:	03272133          	mulhsu	sp,a4,s2
    80008916:	01b95663          	bge	s2,s11,80008922 <main_74_0_t+0x538>
    8000891a:	0285e763          	bltu	a1,s0,80008948 <main_74_0_t+0x55e>
    8000891e:	023830b3          	mulhu	ra,a6,gp
    80008922:	01e203b3          	add	t2,tp,t5
    80008926:	4368d313          	srai	t1,a7,0x36
    8000892a:	03272133          	mulhsu	sp,a4,s2
    8000892e:	05b95063          	bge	s2,s11,8000896e <main_74_0_t+0x584>
    80008932:	0001                	nop
    80008934:	02d04863          	bgtz	a3,80008964 <main_74_0_t+0x57a>
    80008938:	41660233          	sub	tp,a2,s6
    8000893c:	009bf463          	bgeu	s7,s1,80008944 <main_74_0_t+0x55a>
    80008940:	01e203b3          	add	t2,tp,t5
    80008944:	023a9763          	bne	s5,gp,80008972 <main_74_0_t+0x588>
    80008948:	56fd                	li	a3,-1
    8000894a:	0aa6                	slli	s5,s5,0x9
    8000894c:	9d01                	subw	a0,a0,s0
    8000894e:	717d                	addi	sp,sp,-16
    80008950:	8a3a                	mv	s4,a4
    80008952:	edf82113          	slti	sp,a6,-289
    80008956:	04a9                	addi	s1,s1,10
    80008958:	03272133          	mulhsu	sp,a4,s2
    8000895c:	edf82113          	slti	sp,a6,-289
    80008960:	02061833          	mulh	a6,a2,zero
    80008964:	02b2dc33          	divu	s8,t0,a1
    80008968:	86d9                	srai	a3,a3,0x16
    8000896a:	01b95763          	bge	s2,s11,80008978 <main_74_0_t+0x58e>
    8000896e:	eb1d                	bnez	a4,800089a4 <main_74_0_t+0x5ba>
    80008970:	89d9                	andi	a1,a1,22
    80008972:	8e49                	or	a2,a2,a0
    80008974:	93a6ba13          	sltiu	s4,a3,-1734
    80008978:	09730a93          	addi	s5,t1,151
    8000897c:	56fd                	li	a3,-1
    8000897e:	00d316bb          	sllw	a3,t1,a3
    80008982:	09730a93          	addi	s5,t1,151
    80008986:	018a5213          	srli	tp,s4,0x18
    8000898a:	01ca4133          	xor	sp,s4,t3
    8000898e:	e3314393          	xori	t2,sp,-461
    80008992:	02a986bb          	mulw	a3,s3,a0
    80008996:	0094bb33          	sltu	s6,s1,s1
    8000899a:	84627b37          	lui	s6,0x84627
    8000899e:	000725b3          	sltz	a1,a4
    800089a2:	c2b1                	beqz	a3,800089e6 <main_74_0_t+0x5fc>
    800089a4:	0166feb3          	and	t4,a3,s6
    800089a8:	e715                	bnez	a4,800089d4 <main_74_0_t+0x5ea>
    800089aa:	03f76733          	rem	a4,a4,t6
    800089ae:	00d04463          	bgtz	a3,800089b6 <main_74_0_t+0x5cc>
    800089b2:	00ce1c1b          	slliw	s8,t3,0xc
    800089b6:	84627b37          	lui	s6,0x84627
    800089ba:	09730a93          	addi	s5,t1,151
    800089be:	40dc89bb          	subw	s3,s9,a3
    800089c2:	93a6ba13          	sltiu	s4,a3,-1734
    800089c6:	41bb519b          	sraiw	gp,s6,0x1b
    800089ca:	018a5213          	srli	tp,s4,0x18
    800089ce:	0001                	nop
    800089d0:	02a986bb          	mulw	a3,s3,a0
    800089d4:	02061833          	mulh	a6,a2,zero
    800089d8:	000725b3          	sltz	a1,a4
    800089dc:	0001                	nop
    800089de:	0588                	addi	a0,sp,704
    800089e0:	8c21                	xor	s0,s0,s0
    800089e2:	93a6ba13          	sltiu	s4,a3,-1734
    800089e6:	01b60463          	beq	a2,s11,800089ee <main_74_0_t+0x604>
    800089ea:	01e203b3          	add	t2,tp,t5
    800089ee:	02fffcb3          	remu	s9,t6,a5
    800089f2:	0a6c4417          	auipc	s0,0xa6c4
    800089f6:	41660233          	sub	tp,a2,s6
    800089fa:	02061833          	mulh	a6,a2,zero
    800089fe:	003de5b3          	or	a1,s11,gp
    80008a02:	00d316bb          	sllw	a3,t1,a3
    80008a06:	01b55bbb          	srlw	s7,a0,s11
    80008a0a:	000b561b          	srliw	a2,s6,0x0
    80008a0e:	84627b37          	lui	s6,0x84627
    80008a12:	09b95163          	bge	s2,s11,80008a94 <main_12+0x72>
    80008a16:	0166feb3          	and	t4,a3,s6
    80008a1a:	03d44f3b          	divw	t5,s0,t4
    80008a1e:	28d0f213          	andi	tp,ra,653

0000000080008a22 <main_12>:
    80008a22:	01c00eef          	jal	t4,80008a3e <main_12+0x1c>
    80008a26:	022000ef          	jal	80008a48 <main_12+0x26>
    80008a2a:	006000ef          	jal	80008a30 <main_12+0xe>
    80008a2e:	a025                	j	80008a56 <main_12+0x34>
    80008a30:	a02d                	j	80008a5a <main_12+0x38>
    80008a32:	bfd5                	j	80008a26 <main_12+0x4>
    80008a34:	a031                	j	80008a40 <main_12+0x1e>
    80008a36:	03a000ef          	jal	80008a70 <main_12+0x4e>
    80008a3a:	034000ef          	jal	80008a6e <main_12+0x4c>
    80008a3e:	bfdd                	j	80008a34 <main_12+0x12>
    80008a40:	bfcd                	j	80008a32 <main_12+0x10>
    80008a42:	ff5ff0ef          	jal	80008a36 <main_12+0x14>
    80008a46:	b7e5                	j	80008a2e <main_12+0xc>
    80008a48:	bfcd                	j	80008a3a <main_12+0x18>
    80008a4a:	014000ef          	jal	80008a5e <main_12+0x3c>
    80008a4e:	ffdff0ef          	jal	80008a4a <main_12+0x28>
    80008a52:	00e000ef          	jal	80008a60 <main_12+0x3e>
    80008a56:	fd5ff0ef          	jal	80008a2a <main_12+0x8>
    80008a5a:	010000ef          	jal	80008a6a <main_12+0x48>
    80008a5e:	bfd5                	j	80008a52 <main_12+0x30>
    80008a60:	004000ef          	jal	80008a64 <main_12+0x42>
    80008a64:	bff9                	j	80008a42 <main_12+0x20>
    80008a66:	fe1ff0ef          	jal	80008a46 <main_12+0x24>
    80008a6a:	fe5ff0ef          	jal	80008a4e <main_12+0x2c>
    80008a6e:	bfe5                	j	80008a66 <main_12+0x44>
    80008a70:	40dc89bb          	subw	s3,s9,a3
    80008a74:	0085e563          	bltu	a1,s0,80008a7e <main_12+0x5c>
    80008a78:	9d01                	subw	a0,a0,s0
    80008a7a:	023830b3          	mulhu	ra,a6,gp
    80008a7e:	417dd533          	sra	a0,s11,s7
    80008a82:	28d0f213          	andi	tp,ra,653
    80008a86:	0094bb33          	sltu	s6,s1,s1
    80008a8a:	003de5b3          	or	a1,s11,gp
    80008a8e:	000725b3          	sltz	a1,a4
    80008a92:	86d9                	srai	a3,a3,0x16
    80008a94:	000807bb          	addw	a5,a6,zero
    80008a98:	01b60263          	beq	a2,s11,80008a9c <main_12+0x7a>
    80008a9c:	41660233          	sub	tp,a2,s6
    80008aa0:	41bb519b          	sraiw	gp,s6,0x1b
    80008aa4:	0166feb3          	and	t4,a3,s6
    80008aa8:	01ca4133          	xor	sp,s4,t3
    80008aac:	02eb76bb          	remuw	a3,s6,a4
    80008ab0:	05b95063          	bge	s2,s11,80008af0 <main_12+0xce>
    80008ab4:	01ca4133          	xor	sp,s4,t3
    80008ab8:	03d44f3b          	divw	t5,s0,t4
    80008abc:	02b2dc33          	divu	s8,t0,a1
    80008ac0:	eb01                	bnez	a4,80008ad0 <main_12+0xae>
    80008ac2:	03b95163          	bge	s2,s11,80008ae4 <main_12+0xc2>
    80008ac6:	69ad                	lui	s3,0xb
    80008ac8:	02eb76bb          	remuw	a3,s6,a4
    80008acc:	41bb519b          	sraiw	gp,s6,0x1b
    80008ad0:	03d44f3b          	divw	t5,s0,t4
    80008ad4:	02deedbb          	remw	s11,t4,a3
    80008ad8:	000807bb          	addw	a5,a6,zero
    80008adc:	09730a93          	addi	s5,t1,151
    80008ae0:	0091ddb3          	srl	s11,gp,s1
    80008ae4:	03d44f3b          	divw	t5,s0,t4
    80008ae8:	01b95363          	bge	s2,s11,80008aee <main_12+0xcc>
    80008aec:	69ad                	lui	s3,0xb
    80008aee:	c689                	beqz	a3,80008af8 <main_12+0xd6>
    80008af0:	02415b3b          	divuw	s6,sp,tp
    80008af4:	01ca4133          	xor	sp,s4,t3
    80008af8:	8c79                	and	s0,s0,a4
    80008afa:	8e49                	or	a2,a2,a0
    80008afc:	5be3e993          	ori	s3,t2,1470
    80008b00:	09730a93          	addi	s5,t1,151
    80008b04:	00d316bb          	sllw	a3,t1,a3
    80008b08:	8a3a                	mv	s4,a4
    80008b0a:	69ad                	lui	s3,0xb
    80008b0c:	000725b3          	sltz	a1,a4
    80008b10:	8c79                	and	s0,s0,a4
    80008b12:	717d                	addi	sp,sp,-16
    80008b14:	8a3a                	mv	s4,a4
    80008b16:	09730a93          	addi	s5,t1,151
    80008b1a:	0588                	addi	a0,sp,704
    80008b1c:	03498fb3          	mul	t6,s3,s4
    80008b20:	417dd533          	sra	a0,s11,s7
    80008b24:	02eb76bb          	remuw	a3,s6,a4
    80008b28:	0085e263          	bltu	a1,s0,80008b2c <main_12+0x10a>
    80008b2c:	4368d313          	srai	t1,a7,0x36
    80008b30:	09730a93          	addi	s5,t1,151
    80008b34:	0588                	addi	a0,sp,704
    80008b36:	03272133          	mulhsu	sp,a4,s2
    80008b3a:	09730a93          	addi	s5,t1,151
    80008b3e:	0001                	nop
    80008b40:	0001                	nop
    80008b42:	02a986bb          	mulw	a3,s3,a0
    80008b46:	82f9                	srli	a3,a3,0x1e
    80008b48:	03272133          	mulhsu	sp,a4,s2
    80008b4c:	40dc89bb          	subw	s3,s9,a3
    80008b50:	9d01                	subw	a0,a0,s0
    80008b52:	41bb519b          	sraiw	gp,s6,0x1b
    80008b56:	03b95f63          	bge	s2,s11,80008b94 <main_12+0x172>
    80008b5a:	0588                	addi	a0,sp,704
    80008b5c:	0094bb33          	sltu	s6,s1,s1
    80008b60:	03498fb3          	mul	t6,s3,s4
    80008b64:	717d                	addi	sp,sp,-16
    80008b66:	02a986bb          	mulw	a3,s3,a0
    80008b6a:	e3314393          	xori	t2,sp,-461
    80008b6e:	9db9                	addw	a1,a1,a4
    80008b70:	0cc1881b          	addiw	a6,gp,204
    80008b74:	0588                	addi	a0,sp,704
    80008b76:	ce89                	beqz	a3,80008b90 <main_12+0x16e>
    80008b78:	8a3a                	mv	s4,a4
    80008b7a:	03d44f3b          	divw	t5,s0,t4
    80008b7e:	018a5213          	srli	tp,s4,0x18
    80008b82:	0a6c4417          	auipc	s0,0xa6c4
    80008b86:	5be3e993          	ori	s3,t2,1470
    80008b8a:	8e49                	or	a2,a2,a0
    80008b8c:	03d44f3b          	divw	t5,s0,t4
    80008b90:	09730a93          	addi	s5,t1,151
    80008b94:	28d0f213          	andi	tp,ra,653
    80008b98:	3f7d                	addiw	t5,t5,-1
    80008b9a:	02415b3b          	divuw	s6,sp,tp
    80008b9e:	41bb519b          	sraiw	gp,s6,0x1b
    80008ba2:	003de5b3          	or	a1,s11,gp
    80008ba6:	003de5b3          	or	a1,s11,gp
    80008baa:	93a6ba13          	sltiu	s4,a3,-1734
    80008bae:	40dc89bb          	subw	s3,s9,a3
    80008bb2:	0588                	addi	a0,sp,704
    80008bb4:	89d9                	andi	a1,a1,22
    80008bb6:	04a9                	addi	s1,s1,10
    80008bb8:	09730a93          	addi	s5,t1,151
    80008bbc:	0001                	nop
    80008bbe:	717d                	addi	sp,sp,-16
    80008bc0:	02eb76bb          	remuw	a3,s6,a4
    80008bc4:	01a31093          	slli	ra,t1,0x1a
    80008bc8:	000725b3          	sltz	a1,a4
    80008bcc:	9d01                	subw	a0,a0,s0
    80008bce:	3f7d                	addiw	t5,t5,-1
    80008bd0:	023a9b63          	bne	s5,gp,80008c06 <main_12+0x1e4>
    80008bd4:	717d                	addi	sp,sp,-16
    80008bd6:	8c79                	and	s0,s0,a4
    80008bd8:	03498fb3          	mul	t6,s3,s4
    80008bdc:	41660233          	sub	tp,a2,s6
    80008be0:	03f76733          	rem	a4,a4,t6
    80008be4:	84627b37          	lui	s6,0x84627
    80008be8:	8a3a                	mv	s4,a4
    80008bea:	03b60d63          	beq	a2,s11,80008c24 <main_12+0x202>
    80008bee:	02061833          	mulh	a6,a2,zero
    80008bf2:	56fd                	li	a3,-1
    80008bf4:	0094bb33          	sltu	s6,s1,s1
    80008bf8:	ef1d                	bnez	a4,80008c36 <main_12+0x214>
    80008bfa:	edf82113          	slti	sp,a6,-289
    80008bfe:	02415b3b          	divuw	s6,sp,tp
    80008c02:	41bb519b          	sraiw	gp,s6,0x1b
    80008c06:	00ce1c1b          	slliw	s8,t3,0xc
    80008c0a:	000b561b          	srliw	a2,s6,0x0
    80008c0e:	0001                	nop
    80008c10:	82f9                	srli	a3,a3,0x1e
    80008c12:	0001                	nop
    80008c14:	0aa6                	slli	s5,s5,0x9
    80008c16:	86d9                	srai	a3,a3,0x16
    80008c18:	0588                	addi	a0,sp,704
    80008c1a:	01a31093          	slli	ra,t1,0x1a
    80008c1e:	0285e163          	bltu	a1,s0,80008c40 <main_12+0x21e>
    80008c22:	ef19                	bnez	a4,80008c40 <main_12+0x21e>
    80008c24:	000807bb          	addw	a5,a6,zero
    80008c28:	4368d313          	srai	t1,a7,0x36
    80008c2c:	09730a93          	addi	s5,t1,151
    80008c30:	8e49                	or	a2,a2,a0
    80008c32:	01ca4133          	xor	sp,s4,t3
    80008c36:	01e203b3          	add	t2,tp,t5
    80008c3a:	0001                	nop
    80008c3c:	0a6c4417          	auipc	s0,0xa6c4
    80008c40:	8e49                	or	a2,a2,a0
    80008c42:	02deedbb          	remw	s11,t4,a3
    80008c46:	93a6ba13          	sltiu	s4,a3,-1734
    80008c4a:	28d0f213          	andi	tp,ra,653
    80008c4e:	28d0f213          	andi	tp,ra,653
    80008c52:	02415b3b          	divuw	s6,sp,tp
    80008c56:	04a9                	addi	s1,s1,10
    80008c58:	9db9                	addw	a1,a1,a4
    80008c5a:	41205ebb          	sraw	t4,zero,s2
    80008c5e:	0cc1881b          	addiw	a6,gp,204
    80008c62:	018a5213          	srli	tp,s4,0x18
    80008c66:	02deedbb          	remw	s11,t4,a3
    80008c6a:	0aa6                	slli	s5,s5,0x9
    80008c6c:	03b95963          	bge	s2,s11,80008c9e <main_12+0x27c>
    80008c70:	0285e863          	bltu	a1,s0,80008ca0 <main_12+0x27e>
    80008c74:	0166feb3          	and	t4,a3,s6
    80008c78:	0094bb33          	sltu	s6,s1,s1
    80008c7c:	03eec933          	div	s2,t4,t5
    80008c80:	86d9                	srai	a3,a3,0x16
    80008c82:	8f8d                	sub	a5,a5,a1
    80008c84:	56fd                	li	a3,-1
    80008c86:	02deedbb          	remw	s11,t4,a3
    80008c8a:	09730a93          	addi	s5,t1,151
    80008c8e:	000725b3          	sltz	a1,a4
    80008c92:	8e49                	or	a2,a2,a0
    80008c94:	03f76733          	rem	a4,a4,t6
    80008c98:	e3314393          	xori	t2,sp,-461
    80008c9c:	3f7d                	addiw	t5,t5,-1
    80008c9e:	717d                	addi	sp,sp,-16
    80008ca0:	02415b3b          	divuw	s6,sp,tp
    80008ca4:	0166feb3          	and	t4,a3,s6
    80008ca8:	0166feb3          	and	t4,a3,s6
    80008cac:	86d9                	srai	a3,a3,0x16
    80008cae:	00d316bb          	sllw	a3,t1,a3
    80008cb2:	84627b37          	lui	s6,0x84627
    80008cb6:	04a9                	addi	s1,s1,10
    80008cb8:	0588                	addi	a0,sp,704
    80008cba:	41660233          	sub	tp,a2,s6
    80008cbe:	01b60863          	beq	a2,s11,80008cce <main_12+0x2ac>
    80008cc2:	0588                	addi	a0,sp,704
    80008cc4:	03d44f3b          	divw	t5,s0,t4
    80008cc8:	03eec933          	div	s2,t4,t5
    80008ccc:	86d9                	srai	a3,a3,0x16
    80008cce:	41bb519b          	sraiw	gp,s6,0x1b
    80008cd2:	00d316bb          	sllw	a3,t1,a3
    80008cd6:	023a9d63          	bne	s5,gp,80008d10 <main_12+0x2ee>
    80008cda:	e3314393          	xori	t2,sp,-461
    80008cde:	04d04163          	bgtz	a3,80008d20 <main_12+0x2fe>
    80008ce2:	8c21                	xor	s0,s0,s0
    80008ce4:	03eec933          	div	s2,t4,t5
    80008ce8:	0166feb3          	and	t4,a3,s6
    80008cec:	003a9363          	bne	s5,gp,80008cf2 <main_12+0x2d0>
    80008cf0:	717d                	addi	sp,sp,-16
    80008cf2:	01e203b3          	add	t2,tp,t5
    80008cf6:	000b561b          	srliw	a2,s6,0x0
    80008cfa:	9a7e                	add	s4,s4,t6
    80008cfc:	02eb76bb          	remuw	a3,s6,a4
    80008d00:	41205ebb          	sraw	t4,zero,s2
    80008d04:	0094bb33          	sltu	s6,s1,s1
    80008d08:	01b55bbb          	srlw	s7,a0,s11
    80008d0c:	01e203b3          	add	t2,tp,t5
    80008d10:	0285ea63          	bltu	a1,s0,80008d44 <main_12+0x322>
    80008d14:	8c21                	xor	s0,s0,s0
    80008d16:	04a9                	addi	s1,s1,10
    80008d18:	000725b3          	sltz	a1,a4
    80008d1c:	8a3a                	mv	s4,a4
    80008d1e:	69ad                	lui	s3,0xb
    80008d20:	417dd533          	sra	a0,s11,s7
    80008d24:	0a6c4417          	auipc	s0,0xa6c4
    80008d28:	8c79                	and	s0,s0,a4
    80008d2a:	5be3e993          	ori	s3,t2,1470
    80008d2e:	00d04963          	bgtz	a3,80008d40 <main_12+0x31e>
    80008d32:	018a5213          	srli	tp,s4,0x18
    80008d36:	002495b3          	sll	a1,s1,sp
    80008d3a:	93a6ba13          	sltiu	s4,a3,-1734
    80008d3e:	0588                	addi	a0,sp,704
    80008d40:	03272133          	mulhsu	sp,a4,s2
    80008d44:	000725b3          	sltz	a1,a4
    80008d48:	0588                	addi	a0,sp,704
    80008d4a:	c291                	beqz	a3,80008d4e <main_12+0x32c>
    80008d4c:	0001                	nop
    80008d4e:	93a6ba13          	sltiu	s4,a3,-1734
    80008d52:	0094bb33          	sltu	s6,s1,s1
    80008d56:	018a5213          	srli	tp,s4,0x18
    80008d5a:	0aa6                	slli	s5,s5,0x9
    80008d5c:	01ca4133          	xor	sp,s4,t3
    80008d60:	8e49                	or	a2,a2,a0
    80008d62:	0588                	addi	a0,sp,704
    80008d64:	01b55bbb          	srlw	s7,a0,s11
    80008d68:	9db9                	addw	a1,a1,a4
    80008d6a:	03b95463          	bge	s2,s11,80008d92 <main_12+0x370>
    80008d6e:	e3314393          	xori	t2,sp,-461
    80008d72:	56fd                	li	a3,-1
    80008d74:	03b95463          	bge	s2,s11,80008d9c <main_12+0x37a>
    80008d78:	03b60b63          	beq	a2,s11,80008dae <main_12+0x38c>
    80008d7c:	ca91                	beqz	a3,80008d90 <main_12+0x36e>
    80008d7e:	00d316bb          	sllw	a3,t1,a3
    80008d82:	023830b3          	mulhu	ra,a6,gp
    80008d86:	9a7e                	add	s4,s4,t6
    80008d88:	000b561b          	srliw	a2,s6,0x0
    80008d8c:	02415b3b          	divuw	s6,sp,tp
    80008d90:	0001                	nop
    80008d92:	0001                	nop
    80008d94:	41205ebb          	sraw	t4,zero,s2
    80008d98:	e3314393          	xori	t2,sp,-461
    80008d9c:	417dd533          	sra	a0,s11,s7
    80008da0:	01e203b3          	add	t2,tp,t5
    80008da4:	09b60363          	beq	a2,s11,80008e2a <main_57_0_t+0x40>
    80008da8:	0a6c4417          	auipc	s0,0xa6c4
    80008dac:	3f7d                	addiw	t5,t5,-1
    80008dae:	00d316bb          	sllw	a3,t1,a3
    80008db2:	5be3e993          	ori	s3,t2,1470
    80008db6:	84627b37          	lui	s6,0x84627
    80008dba:	8c79                	and	s0,s0,a4
    80008dbc:	0001                	nop
    80008dbe:	0aa6                	slli	s5,s5,0x9
    80008dc0:	02415b3b          	divuw	s6,sp,tp
    80008dc4:	411d                	li	sp,7
    80008dc6:	8e21                	xor	a2,a2,s0
    80008dc8:	edf82193          	slti	gp,a6,-289
    80008dcc:	02deeebb          	remw	t4,t4,a3
    80008dd0:	03d44c3b          	divw	s8,s0,t4
    80008dd4:	8179                	srli	a0,a0,0x1e
    80008dd6:	0001                	nop
    80008dd8:	edf82193          	slti	gp,a6,-289
    80008ddc:	5959                	li	s2,-10
    80008dde:	02fffe33          	remu	t3,t6,a5
    80008de2:	02deeebb          	remw	t4,t4,a3
    80008de6:	28d0f313          	andi	t1,ra,653

0000000080008dea <main_57_0_t>:
    80008dea:	41660333          	sub	t1,a2,s6
    80008dee:	0001                	nop
    80008df0:	1179                	addi	sp,sp,-2
    80008df2:	00249633          	sll	a2,s1,sp
    80008df6:	9b7e                	add	s6,s6,t6
    80008df8:	0008083b          	addw	a6,a6,zero
    80008dfc:	9b7e                	add	s6,s6,t6
    80008dfe:	03498333          	mul	t1,s3,s4
    80008e02:	8d8d                	sub	a1,a1,a1
    80008e04:	0a6c4497          	auipc	s1,0xa6c4
    80008e08:	02415c3b          	divuw	s8,sp,tp
    80008e0c:	02eb773b          	remuw	a4,s6,a4
    80008e10:	02415c3b          	divuw	s8,sp,tp
    80008e14:	09730b93          	addi	s7,t1,151
    80008e18:	020619b3          	mulh	s3,a2,zero
    80008e1c:	fd2157e3          	bge	sp,s2,80008dea <main_57_0_t>
    80008e20:	01a31093          	slli	ra,t1,0x1a
    80008e24:	8e49                	or	a2,a2,a0
    80008e26:	01b55bbb          	srlw	s7,a0,s11
    80008e2a:	03d44f3b          	divw	t5,s0,t4
    80008e2e:	000725b3          	sltz	a1,a4
    80008e32:	02fffcb3          	remu	s9,t6,a5
    80008e36:	03498fb3          	mul	t6,s3,s4
    80008e3a:	0cc1881b          	addiw	a6,gp,204
    80008e3e:	00d04263          	bgtz	a3,80008e42 <main_57_0_t+0x58>
    80008e42:	9a7e                	add	s4,s4,t6
    80008e44:	9d01                	subw	a0,a0,s0
    80008e46:	0a6c4417          	auipc	s0,0xa6c4
    80008e4a:	9db9                	addw	a1,a1,a4
    80008e4c:	01b95f63          	bge	s2,s11,80008e6a <main_57_0_t+0x80>
    80008e50:	08d04563          	bgtz	a3,80008eda <main_30+0x62>
    80008e54:	417dd533          	sra	a0,s11,s7
    80008e58:	8c79                	and	s0,s0,a4
    80008e5a:	000725b3          	sltz	a1,a4
    80008e5e:	0001                	nop
    80008e60:	02eb76bb          	remuw	a3,s6,a4
    80008e64:	000b561b          	srliw	a2,s6,0x0
    80008e68:	8e49                	or	a2,a2,a0
    80008e6a:	8a3a                	mv	s4,a4
    80008e6c:	00d316bb          	sllw	a3,t1,a3
    80008e70:	023830b3          	mulhu	ra,a6,gp
    80008e74:	8f8d                	sub	a5,a5,a1
    80008e76:	82f9                	srli	a3,a3,0x1e

0000000080008e78 <main_30>:
    80008e78:	04800eef          	jal	t4,80008ec0 <main_30+0x48>
    80008e7c:	016000ef          	jal	80008e92 <main_30+0x1a>
    80008e80:	026000ef          	jal	80008ea6 <main_30+0x2e>
    80008e84:	a019                	j	80008e8a <main_30+0x12>
    80008e86:	00e000ef          	jal	80008e94 <main_30+0x1c>
    80008e8a:	a819                	j	80008ea0 <main_30+0x28>
    80008e8c:	02a000ef          	jal	80008eb6 <main_30+0x3e>
    80008e90:	bfdd                	j	80008e86 <main_30+0xe>
    80008e92:	a831                	j	80008eae <main_30+0x36>
    80008e94:	004000ef          	jal	80008e98 <main_30+0x20>
    80008e98:	a009                	j	80008e9a <main_30+0x22>
    80008e9a:	a801                	j	80008eaa <main_30+0x32>
    80008e9c:	020000ef          	jal	80008ebc <main_30+0x44>
    80008ea0:	a015                	j	80008ec4 <main_30+0x4c>
    80008ea2:	fdbff0ef          	jal	80008e7c <main_30+0x4>
    80008ea6:	a811                	j	80008eba <main_30+0x42>
    80008ea8:	bff1                	j	80008e84 <main_30+0xc>
    80008eaa:	ff9ff0ef          	jal	80008ea2 <main_30+0x2a>
    80008eae:	fd3ff0ef          	jal	80008e80 <main_30+0x8>
    80008eb2:	fdbff0ef          	jal	80008e8c <main_30+0x14>
    80008eb6:	fe7ff0ef          	jal	80008e9c <main_30+0x24>
    80008eba:	bfe5                	j	80008eb2 <main_30+0x3a>
    80008ebc:	fedff0ef          	jal	80008ea8 <main_30+0x30>
    80008ec0:	fd1ff0ef          	jal	80008e90 <main_30+0x18>
    80008ec4:	edf82113          	slti	sp,a6,-289
    80008ec8:	009bf463          	bgeu	s7,s1,80008ed0 <main_30+0x58>
    80008ecc:	03f76733          	rem	a4,a4,t6
    80008ed0:	02061833          	mulh	a6,a2,zero
    80008ed4:	8e49                	or	a2,a2,a0
    80008ed6:	03d44f3b          	divw	t5,s0,t4
    80008eda:	02a986bb          	mulw	a3,s3,a0
    80008ede:	03d44f3b          	divw	t5,s0,t4
    80008ee2:	4368d313          	srai	t1,a7,0x36
    80008ee6:	0166feb3          	and	t4,a3,s6
    80008eea:	03f76733          	rem	a4,a4,t6
    80008eee:	02b2dc33          	divu	s8,t0,a1
    80008ef2:	28d0f213          	andi	tp,ra,653
    80008ef6:	02eb76bb          	remuw	a3,s6,a4
    80008efa:	0cc1881b          	addiw	a6,gp,204
    80008efe:	86d9                	srai	a3,a3,0x16
    80008f00:	0091ddb3          	srl	s11,gp,s1
    80008f04:	93a6ba13          	sltiu	s4,a3,-1734
    80008f08:	56fd                	li	a3,-1
    80008f0a:	417dd533          	sra	a0,s11,s7
    80008f0e:	0166feb3          	and	t4,a3,s6
    80008f12:	000807bb          	addw	a5,a6,zero
    80008f16:	03f76733          	rem	a4,a4,t6

0000000080008f1a <main_1>:
    80008f1a:	00e00eef          	jal	t4,80008f28 <main_1+0xe>
    80008f1e:	a081                	j	80008f5e <main_1+0x44>
    80008f20:	a81d                	j	80008f56 <main_1+0x3c>
    80008f22:	a03d                	j	80008f50 <main_1+0x36>
    80008f24:	01c000ef          	jal	80008f40 <main_1+0x26>
    80008f28:	014000ef          	jal	80008f3c <main_1+0x22>
    80008f2c:	012000ef          	jal	80008f3e <main_1+0x24>
    80008f30:	018000ef          	jal	80008f48 <main_1+0x2e>
    80008f34:	fedff0ef          	jal	80008f20 <main_1+0x6>
    80008f38:	fedff0ef          	jal	80008f24 <main_1+0xa>
    80008f3c:	bfc5                	j	80008f2c <main_1+0x12>
    80008f3e:	a819                	j	80008f54 <main_1+0x3a>
    80008f40:	00a000ef          	jal	80008f4a <main_1+0x30>
    80008f44:	ff5ff0ef          	jal	80008f38 <main_1+0x1e>
    80008f48:	b7f5                	j	80008f34 <main_1+0x1a>
    80008f4a:	fd9ff0ef          	jal	80008f22 <main_1+0x8>
    80008f4e:	a031                	j	80008f5a <main_1+0x40>
    80008f50:	fcfff0ef          	jal	80008f1e <main_1+0x4>
    80008f54:	bff1                	j	80008f30 <main_1+0x16>
    80008f56:	ff9ff0ef          	jal	80008f4e <main_1+0x34>
    80008f5a:	febff0ef          	jal	80008f44 <main_1+0x2a>
    80008f5e:	5be3e993          	ori	s3,t2,1470
    80008f62:	5be3e993          	ori	s3,t2,1470
    80008f66:	02415b3b          	divuw	s6,sp,tp
    80008f6a:	8e49                	or	a2,a2,a0
    80008f6c:	002495b3          	sll	a1,s1,sp
    80008f70:	0091ddb3          	srl	s11,gp,s1
    80008f74:	9a7e                	add	s4,s4,t6
    80008f76:	3f7d                	addiw	t5,t5,-1
    80008f78:	00d316bb          	sllw	a3,t1,a3
    80008f7c:	000807bb          	addw	a5,a6,zero
    80008f80:	41205ebb          	sraw	t4,zero,s2
    80008f84:	009bfb63          	bgeu	s7,s1,80008f9a <main_1+0x80>
    80008f88:	003de5b3          	or	a1,s11,gp
    80008f8c:	09730a93          	addi	s5,t1,151
    80008f90:	0001                	nop
    80008f92:	02061833          	mulh	a6,a2,zero
    80008f96:	01e203b3          	add	t2,tp,t5
    80008f9a:	5be3e993          	ori	s3,t2,1470
    80008f9e:	018a5213          	srli	tp,s4,0x18
    80008fa2:	049bf163          	bgeu	s7,s1,80008fe4 <main_1+0xca>
    80008fa6:	000b561b          	srliw	a2,s6,0x0
    80008faa:	8a3a                	mv	s4,a4
    80008fac:	01e203b3          	add	t2,tp,t5
    80008fb0:	02fffcb3          	remu	s9,t6,a5
    80008fb4:	0166feb3          	and	t4,a3,s6
    80008fb8:	84627b37          	lui	s6,0x84627
    80008fbc:	41660233          	sub	tp,a2,s6
    80008fc0:	0588                	addi	a0,sp,704
    80008fc2:	01b95763          	bge	s2,s11,80008fd0 <main_1+0xb6>
    80008fc6:	02fffcb3          	remu	s9,t6,a5
    80008fca:	8e49                	or	a2,a2,a0
    80008fcc:	9db9                	addw	a1,a1,a4
    80008fce:	86d9                	srai	a3,a3,0x16
    80008fd0:	8c21                	xor	s0,s0,s0
    80008fd2:	000b561b          	srliw	a2,s6,0x0
    80008fd6:	03272133          	mulhsu	sp,a4,s2
    80008fda:	93a6ba13          	sltiu	s4,a3,-1734
    80008fde:	4368d313          	srai	t1,a7,0x36
    80008fe2:	8e49                	or	a2,a2,a0
    80008fe4:	0485e263          	bltu	a1,s0,80009028 <main_1+0x10e>
    80008fe8:	41660233          	sub	tp,a2,s6
    80008fec:	0aa6                	slli	s5,s5,0x9
    80008fee:	0285eb63          	bltu	a1,s0,80009024 <main_1+0x10a>
    80008ff2:	84627b37          	lui	s6,0x84627
    80008ff6:	03498fb3          	mul	t6,s3,s4
    80008ffa:	8f8d                	sub	a5,a5,a1
    80008ffc:	41660233          	sub	tp,a2,s6
    80009000:	03498fb3          	mul	t6,s3,s4
    80009004:	00d316bb          	sllw	a3,t1,a3
    80009008:	9db9                	addw	a1,a1,a4
    8000900a:	000807bb          	addw	a5,a6,zero
    8000900e:	03d44f3b          	divw	t5,s0,t4
    80009012:	02061833          	mulh	a6,a2,zero
    80009016:	02061833          	mulh	a6,a2,zero
    8000901a:	89d9                	andi	a1,a1,22
    8000901c:	01e203b3          	add	t2,tp,t5
    80009020:	000725b3          	sltz	a1,a4
    80009024:	41205ebb          	sraw	t4,zero,s2
    80009028:	01ca4133          	xor	sp,s4,t3
    8000902c:	04a9                	addi	s1,s1,10 # 8a6cce0e <_end+0xa6a0486>
    8000902e:	000725b3          	sltz	a1,a4
    80009032:	8c21                	xor	s0,s0,s0
    80009034:	03b95b63          	bge	s2,s11,8000906a <main_1+0x150>
    80009038:	89d9                	andi	a1,a1,22
    8000903a:	023a9263          	bne	s5,gp,8000905e <main_1+0x144>
    8000903e:	002495b3          	sll	a1,s1,sp
    80009042:	8c21                	xor	s0,s0,s0
    80009044:	3f7d                	addiw	t5,t5,-1
    80009046:	0588                	addi	a0,sp,704
    80009048:	0001                	nop
    8000904a:	00d316bb          	sllw	a3,t1,a3
    8000904e:	717d                	addi	sp,sp,-16
    80009050:	003de5b3          	or	a1,s11,gp
    80009054:	8a3a                	mv	s4,a4
    80009056:	0001                	nop
    80009058:	023830b3          	mulhu	ra,a6,gp
    8000905c:	8a3a                	mv	s4,a4
    8000905e:	02a986bb          	mulw	a3,s3,a0
    80009062:	86d9                	srai	a3,a3,0x16
    80009064:	8c79                	and	s0,s0,a4
    80009066:	0094bb33          	sltu	s6,s1,s1
    8000906a:	82f9                	srli	a3,a3,0x1e
    8000906c:	01b55bbb          	srlw	s7,a0,s11
    80009070:	02415b3b          	divuw	s6,sp,tp
    80009074:	002495b3          	sll	a1,s1,sp
    80009078:	000807bb          	addw	a5,a6,zero
    8000907c:	02d04663          	bgtz	a3,800090a8 <main_1+0x18e>
    80009080:	0cc1881b          	addiw	a6,gp,204
    80009084:	01ca4133          	xor	sp,s4,t3
    80009088:	00ce1c1b          	slliw	s8,t3,0xc
    8000908c:	93a6ba13          	sltiu	s4,a3,-1734
    80009090:	09730a93          	addi	s5,t1,151
    80009094:	03f76733          	rem	a4,a4,t6
    80009098:	02061833          	mulh	a6,a2,zero
    8000909c:	41205ebb          	sraw	t4,zero,s2
    800090a0:	41660233          	sub	tp,a2,s6
    800090a4:	89d9                	andi	a1,a1,22
    800090a6:	0aa6                	slli	s5,s5,0x9
    800090a8:	89d9                	andi	a1,a1,22
    800090aa:	002495b3          	sll	a1,s1,sp
    800090ae:	93a6ba13          	sltiu	s4,a3,-1734
    800090b2:	02415b3b          	divuw	s6,sp,tp
    800090b6:	01a31093          	slli	ra,t1,0x1a
    800090ba:	01b55bbb          	srlw	s7,a0,s11
    800090be:	69ad                	lui	s3,0xb
    800090c0:	05b95463          	bge	s2,s11,80009108 <main_1+0x1ee>
    800090c4:	03b60263          	beq	a2,s11,800090e8 <main_1+0x1ce>
    800090c8:	9d01                	subw	a0,a0,s0
    800090ca:	0cc1881b          	addiw	a6,gp,204
    800090ce:	003de5b3          	or	a1,s11,gp
    800090d2:	edf82113          	slti	sp,a6,-289
    800090d6:	00ce1c1b          	slliw	s8,t3,0xc
    800090da:	02a986bb          	mulw	a3,s3,a0
    800090de:	002495b3          	sll	a1,s1,sp
    800090e2:	02deedbb          	remw	s11,t4,a3
    800090e6:	8c21                	xor	s0,s0,s0
    800090e8:	0091ddb3          	srl	s11,gp,s1
    800090ec:	89d9                	andi	a1,a1,22
    800090ee:	01e203b3          	add	t2,tp,t5
    800090f2:	009bf663          	bgeu	s7,s1,800090fe <main_1+0x1e4>
    800090f6:	00ce1c1b          	slliw	s8,t3,0xc
    800090fa:	0166feb3          	and	t4,a3,s6
    800090fe:	eb1d                	bnez	a4,80009134 <main_1+0x21a>
    80009100:	003a9463          	bne	s5,gp,80009108 <main_1+0x1ee>
    80009104:	02fffcb3          	remu	s9,t6,a5
    80009108:	00d316bb          	sllw	a3,t1,a3
    8000910c:	02415b3b          	divuw	s6,sp,tp
    80009110:	8f8d                	sub	a5,a5,a1
    80009112:	0588                	addi	a0,sp,704
    80009114:	00d316bb          	sllw	a3,t1,a3
    80009118:	000b561b          	srliw	a2,s6,0x0
    8000911c:	0085ee63          	bltu	a1,s0,80009138 <main_1+0x21e>
    80009120:	eb1d                	bnez	a4,80009156 <main_1+0x23c>
    80009122:	01b95263          	bge	s2,s11,80009126 <main_1+0x20c>
    80009126:	8c21                	xor	s0,s0,s0
    80009128:	01e203b3          	add	t2,tp,t5
    8000912c:	0a6c4417          	auipc	s0,0xa6c4
    80009130:	00d04a63          	bgtz	a3,80009144 <main_1+0x22a>
    80009134:	01b60463          	beq	a2,s11,8000913c <main_1+0x222>
    80009138:	023830b3          	mulhu	ra,a6,gp
    8000913c:	01b95963          	bge	s2,s11,8000914e <main_1+0x234>
    80009140:	03272133          	mulhsu	sp,a4,s2
    80009144:	41660233          	sub	tp,a2,s6
    80009148:	0001                	nop
    8000914a:	03272133          	mulhsu	sp,a4,s2
    8000914e:	eb0d                	bnez	a4,80009180 <main_1+0x266>
    80009150:	84627b37          	lui	s6,0x84627
    80009154:	8f8d                	sub	a5,a5,a1
    80009156:	717d                	addi	sp,sp,-16
    80009158:	03498fb3          	mul	t6,s3,s4
    8000915c:	41205ebb          	sraw	t4,zero,s2
    80009160:	00ce1c1b          	slliw	s8,t3,0xc
    80009164:	e3314393          	xori	t2,sp,-461
    80009168:	000725b3          	sltz	a1,a4
    8000916c:	02b2dc33          	divu	s8,t0,a1
    80009170:	02deedbb          	remw	s11,t4,a3
    80009174:	0001                	nop
    80009176:	03f76733          	rem	a4,a4,t6
    8000917a:	023830b3          	mulhu	ra,a6,gp
    8000917e:	9d01                	subw	a0,a0,s0
    80009180:	9d01                	subw	a0,a0,s0
    80009182:	93a6ba13          	sltiu	s4,a3,-1734
    80009186:	029bf263          	bgeu	s7,s1,800091aa <main_1+0x290>
    8000918a:	03498fb3          	mul	t6,s3,s4
    8000918e:	00d04663          	bgtz	a3,8000919a <main_1+0x280>
    80009192:	0091ddb3          	srl	s11,gp,s1
    80009196:	009bf463          	bgeu	s7,s1,8000919e <main_1+0x284>
    8000919a:	02b2dc33          	divu	s8,t0,a1
    8000919e:	02deedbb          	remw	s11,t4,a3
    800091a2:	0166feb3          	and	t4,a3,s6
    800091a6:	41660233          	sub	tp,a2,s6
    800091aa:	e3314393          	xori	t2,sp,-461
    800091ae:	3f7d                	addiw	t5,t5,-1
    800091b0:	28d0f213          	andi	tp,ra,653
    800091b4:	00ce1c1b          	slliw	s8,t3,0xc
    800091b8:	023a9d63          	bne	s5,gp,800091f2 <main_1+0x2d8>
    800091bc:	0001                	nop
    800091be:	9d01                	subw	a0,a0,s0
    800091c0:	000807bb          	addw	a5,a6,zero
    800091c4:	00ce1c1b          	slliw	s8,t3,0xc
    800091c8:	01a31093          	slli	ra,t1,0x1a
    800091cc:	4368d313          	srai	t1,a7,0x36
    800091d0:	02415b3b          	divuw	s6,sp,tp
    800091d4:	417dd533          	sra	a0,s11,s7
    800091d8:	417dd533          	sra	a0,s11,s7
    800091dc:	e3314393          	xori	t2,sp,-461
    800091e0:	03b95b63          	bge	s2,s11,80009216 <main_1+0x2fc>
    800091e4:	03eec933          	div	s2,t4,t5
    800091e8:	02a986bb          	mulw	a3,s3,a0
    800091ec:	41bb519b          	sraiw	gp,s6,0x1b
    800091f0:	e705                	bnez	a4,80009218 <main_1+0x2fe>
    800091f2:	02d04363          	bgtz	a3,80009218 <main_1+0x2fe>
    800091f6:	0094bb33          	sltu	s6,s1,s1
    800091fa:	82f9                	srli	a3,a3,0x1e
    800091fc:	02061833          	mulh	a6,a2,zero
    80009200:	02b2dc33          	divu	s8,t0,a1
    80009204:	9d01                	subw	a0,a0,s0
    80009206:	93a6ba13          	sltiu	s4,a3,-1734
    8000920a:	9d01                	subw	a0,a0,s0
    8000920c:	00ce1c1b          	slliw	s8,t3,0xc
    80009210:	9d01                	subw	a0,a0,s0
    80009212:	09730a93          	addi	s5,t1,151
    80009216:	9d01                	subw	a0,a0,s0
    80009218:	03eec933          	div	s2,t4,t5
    8000921c:	0001                	nop
    8000921e:	89d9                	andi	a1,a1,22
    80009220:	8a3a                	mv	s4,a4
    80009222:	01e203b3          	add	t2,tp,t5
    80009226:	edf82113          	slti	sp,a6,-289
    8000922a:	03498fb3          	mul	t6,s3,s4
    8000922e:	417dd533          	sra	a0,s11,s7
    80009232:	0aa6                	slli	s5,s5,0x9
    80009234:	02a986bb          	mulw	a3,s3,a0
    80009238:	00d04563          	bgtz	a3,80009242 <main_1+0x328>
    8000923c:	8e49                	or	a2,a2,a0
    8000923e:	0cc1881b          	addiw	a6,gp,204
    80009242:	02415b3b          	divuw	s6,sp,tp
    80009246:	000725b3          	sltz	a1,a4
    8000924a:	09730a93          	addi	s5,t1,151
    8000924e:	41205ebb          	sraw	t4,zero,s2
    80009252:	28d0f213          	andi	tp,ra,653
    80009256:	03272133          	mulhsu	sp,a4,s2
    8000925a:	04a9                	addi	s1,s1,10
    8000925c:	02deedbb          	remw	s11,t4,a3
    80009260:	0588                	addi	a0,sp,704
    80009262:	03d44f3b          	divw	t5,s0,t4
    80009266:	02deedbb          	remw	s11,t4,a3
    8000926a:	86d9                	srai	a3,a3,0x16
    8000926c:	000b561b          	srliw	a2,s6,0x0
    80009270:	84627b37          	lui	s6,0x84627
    80009274:	04a9                	addi	s1,s1,10
    80009276:	09730a93          	addi	s5,t1,151
    8000927a:	01a31093          	slli	ra,t1,0x1a
    8000927e:	417dd533          	sra	a0,s11,s7
    80009282:	84627b37          	lui	s6,0x84627
    80009286:	0588                	addi	a0,sp,704
    80009288:	41205ebb          	sraw	t4,zero,s2
    8000928c:	0091ddb3          	srl	s11,gp,s1
    80009290:	717d                	addi	sp,sp,-16
    80009292:	0091ddb3          	srl	s11,gp,s1
    80009296:	02415b3b          	divuw	s6,sp,tp
    8000929a:	0001                	nop
    8000929c:	02415b3b          	divuw	s6,sp,tp
    800092a0:	8c21                	xor	s0,s0,s0
    800092a2:	01b55bbb          	srlw	s7,a0,s11
    800092a6:	8e49                	or	a2,a2,a0
    800092a8:	0588                	addi	a0,sp,704
    800092aa:	00d316bb          	sllw	a3,t1,a3
    800092ae:	8c79                	and	s0,s0,a4
    800092b0:	00d316bb          	sllw	a3,t1,a3
    800092b4:	9d01                	subw	a0,a0,s0
    800092b6:	000807bb          	addw	a5,a6,zero
    800092ba:	3f7d                	addiw	t5,t5,-1
    800092bc:	003a9463          	bne	s5,gp,800092c4 <main_1+0x3aa>
    800092c0:	93a6ba13          	sltiu	s4,a3,-1734
    800092c4:	c699                	beqz	a3,800092d2 <main_1+0x3b8>
    800092c6:	01a31093          	slli	ra,t1,0x1a
    800092ca:	02deedbb          	remw	s11,t4,a3
    800092ce:	9db9                	addw	a1,a1,a4
    800092d0:	8c79                	and	s0,s0,a4
    800092d2:	edf82113          	slti	sp,a6,-289
    800092d6:	717d                	addi	sp,sp,-16
    800092d8:	0091ddb3          	srl	s11,gp,s1
    800092dc:	86d9                	srai	a3,a3,0x16
    800092de:	0085e563          	bltu	a1,s0,800092e8 <main_1+0x3ce>
    800092e2:	0085e263          	bltu	a1,s0,800092e6 <main_1+0x3cc>
    800092e6:	8c21                	xor	s0,s0,s0
    800092e8:	69ad                	lui	s3,0xb
    800092ea:	82f9                	srli	a3,a3,0x1e
    800092ec:	000725b3          	sltz	a1,a4
    800092f0:	40dc89bb          	subw	s3,s9,a3
    800092f4:	02eb76bb          	remuw	a3,s6,a4
    800092f8:	9a7e                	add	s4,s4,t6
    800092fa:	09730a93          	addi	s5,t1,151
    800092fe:	01e203b3          	add	t2,tp,t5
    80009302:	000b561b          	srliw	a2,s6,0x0
    80009306:	09b95763          	bge	s2,s11,80009394 <main_10+0x7a>
    8000930a:	002495b3          	sll	a1,s1,sp
    8000930e:	002495b3          	sll	a1,s1,sp
    80009312:	02fffcb3          	remu	s9,t6,a5
    80009316:	002495b3          	sll	a1,s1,sp

000000008000931a <main_10>:
    8000931a:	05000eef          	jal	t4,8000936a <main_10+0x50>
    8000931e:	a805                	j	8000934e <main_10+0x34>
    80009320:	004000ef          	jal	80009324 <main_10+0xa>
    80009324:	018000ef          	jal	8000933c <main_10+0x22>
    80009328:	03c000ef          	jal	80009364 <main_10+0x4a>
    8000932c:	a021                	j	80009334 <main_10+0x1a>
    8000932e:	01e000ef          	jal	8000934c <main_10+0x32>
    80009332:	a801                	j	80009342 <main_10+0x28>
    80009334:	010000ef          	jal	80009344 <main_10+0x2a>
    80009338:	020000ef          	jal	80009358 <main_10+0x3e>
    8000933c:	a821                	j	80009354 <main_10+0x3a>
    8000933e:	ff5ff0ef          	jal	80009332 <main_10+0x18>
    80009342:	a019                	j	80009348 <main_10+0x2e>
    80009344:	01a000ef          	jal	8000935e <main_10+0x44>
    80009348:	024000ef          	jal	8000936c <main_10+0x52>
    8000934c:	b7f5                	j	80009338 <main_10+0x1e>
    8000934e:	a009                	j	80009350 <main_10+0x36>
    80009350:	fddff0ef          	jal	8000932c <main_10+0x12>
    80009354:	fdbff0ef          	jal	8000932e <main_10+0x14>
    80009358:	a009                	j	8000935a <main_10+0x40>
    8000935a:	b7d5                	j	8000933e <main_10+0x24>
    8000935c:	a011                	j	80009360 <main_10+0x46>
    8000935e:	b7c9                	j	80009320 <main_10+0x6>
    80009360:	006000ef          	jal	80009366 <main_10+0x4c>
    80009364:	bfe5                	j	8000935c <main_10+0x42>
    80009366:	fb9ff0ef          	jal	8000931e <main_10+0x4>
    8000936a:	bf7d                	j	80009328 <main_10+0xe>
    8000936c:	004000ef          	jal	80009370 <main_10+0x56>
    80009370:	41bb519b          	sraiw	gp,s6,0x1b
    80009374:	003a9363          	bne	s5,gp,8000937a <main_10+0x60>
    80009378:	56fd                	li	a3,-1
    8000937a:	000725b3          	sltz	a1,a4
    8000937e:	0588                	addi	a0,sp,704
    80009380:	8f8d                	sub	a5,a5,a1
    80009382:	00ce1c1b          	slliw	s8,t3,0xc
    80009386:	41bb519b          	sraiw	gp,s6,0x1b
    8000938a:	000b561b          	srliw	a2,s6,0x0
    8000938e:	03d44f3b          	divw	t5,s0,t4
    80009392:	82f9                	srli	a3,a3,0x1e
    80009394:	02deedbb          	remw	s11,t4,a3
    80009398:	023a9963          	bne	s5,gp,800093ca <main_10+0xb0>
    8000939c:	03272133          	mulhsu	sp,a4,s2
    800093a0:	003a9263          	bne	s5,gp,800093a4 <main_10+0x8a>
    800093a4:	03f76733          	rem	a4,a4,t6
    800093a8:	89d9                	andi	a1,a1,22
    800093aa:	0001                	nop
    800093ac:	40dc89bb          	subw	s3,s9,a3
    800093b0:	8a3a                	mv	s4,a4
    800093b2:	28d0f213          	andi	tp,ra,653
    800093b6:	86d9                	srai	a3,a3,0x16
    800093b8:	717d                	addi	sp,sp,-16
    800093ba:	0001                	nop
    800093bc:	01b55bbb          	srlw	s7,a0,s11
    800093c0:	0091ddb3          	srl	s11,gp,s1
    800093c4:	717d                	addi	sp,sp,-16
    800093c6:	02d04d63          	bgtz	a3,80009400 <main_10+0xe6>
    800093ca:	00d316bb          	sllw	a3,t1,a3
    800093ce:	049bf163          	bgeu	s7,s1,80009410 <main_10+0xf6>
    800093d2:	edf82113          	slti	sp,a6,-289
    800093d6:	02deedbb          	remw	s11,t4,a3
    800093da:	04a9                	addi	s1,s1,10
    800093dc:	41205ebb          	sraw	t4,zero,s2
    800093e0:	02eb76bb          	remuw	a3,s6,a4
    800093e4:	e70d                	bnez	a4,8000940e <main_10+0xf4>
    800093e6:	000807bb          	addw	a5,a6,zero
    800093ea:	03d44f3b          	divw	t5,s0,t4
    800093ee:	41205ebb          	sraw	t4,zero,s2
    800093f2:	03272133          	mulhsu	sp,a4,s2
    800093f6:	0a6c4417          	auipc	s0,0xa6c4
    800093fa:	02deedbb          	remw	s11,t4,a3
    800093fe:	8c79                	and	s0,s0,a4
    80009400:	417dd533          	sra	a0,s11,s7
    80009404:	86d9                	srai	a3,a3,0x16
    80009406:	02a986bb          	mulw	a3,s3,a0
    8000940a:	023830b3          	mulhu	ra,a6,gp
    8000940e:	9db9                	addw	a1,a1,a4
    80009410:	02b2dc33          	divu	s8,t0,a1
    80009414:	8c21                	xor	s0,s0,s0
    80009416:	000725b3          	sltz	a1,a4
    8000941a:	02fffcb3          	remu	s9,t6,a5
    8000941e:	edf82113          	slti	sp,a6,-289
    80009422:	5be3e993          	ori	s3,t2,1470
    80009426:	02deedbb          	remw	s11,t4,a3
    8000942a:	02415b3b          	divuw	s6,sp,tp
    8000942e:	01a31093          	slli	ra,t1,0x1a
    80009432:	003de5b3          	or	a1,s11,gp
    80009436:	9d01                	subw	a0,a0,s0
    80009438:	0a6c4417          	auipc	s0,0xa6c4
    8000943c:	0094bb33          	sltu	s6,s1,s1
    80009440:	717d                	addi	sp,sp,-16
    80009442:	01ca4133          	xor	sp,s4,t3
    80009446:	41bb519b          	sraiw	gp,s6,0x1b
    8000944a:	03d44f3b          	divw	t5,s0,t4
    8000944e:	03b95863          	bge	s2,s11,8000947e <main_10+0x164>
    80009452:	03498fb3          	mul	t6,s3,s4
    80009456:	8e49                	or	a2,a2,a0
    80009458:	8c79                	and	s0,s0,a4
    8000945a:	edf82113          	slti	sp,a6,-289
    8000945e:	03d44f3b          	divw	t5,s0,t4
    80009462:	69ad                	lui	s3,0xb
    80009464:	0094bb33          	sltu	s6,s1,s1
    80009468:	4368d313          	srai	t1,a7,0x36
    8000946c:	0a6c4417          	auipc	s0,0xa6c4
    80009470:	8c21                	xor	s0,s0,s0
    80009472:	41660233          	sub	tp,a2,s6
    80009476:	93a6ba13          	sltiu	s4,a3,-1734
    8000947a:	69ad                	lui	s3,0xb
    8000947c:	86d9                	srai	a3,a3,0x16
    8000947e:	01a31093          	slli	ra,t1,0x1a
    80009482:	000b561b          	srliw	a2,s6,0x0
    80009486:	8a3a                	mv	s4,a4
    80009488:	5be3e993          	ori	s3,t2,1470
    8000948c:	3f7d                	addiw	t5,t5,-1
    8000948e:	03d44f3b          	divw	t5,s0,t4
    80009492:	03f76733          	rem	a4,a4,t6
    80009496:	9db9                	addw	a1,a1,a4
    80009498:	8e49                	or	a2,a2,a0
    8000949a:	002495b3          	sll	a1,s1,sp
    8000949e:	ce89                	beqz	a3,800094b8 <main_10+0x19e>
    800094a0:	84627b37          	lui	s6,0x84627
    800094a4:	ce85                	beqz	a3,800094dc <main_10+0x1c2>
    800094a6:	01ca4133          	xor	sp,s4,t3
    800094aa:	0588                	addi	a0,sp,704
    800094ac:	9d01                	subw	a0,a0,s0
    800094ae:	84627b37          	lui	s6,0x84627
    800094b2:	eb1d                	bnez	a4,800094e8 <main_10+0x1ce>
    800094b4:	edf82113          	slti	sp,a6,-289
    800094b8:	8f8d                	sub	a5,a5,a1
    800094ba:	000807bb          	addw	a5,a6,zero
    800094be:	84627b37          	lui	s6,0x84627
    800094c2:	89d9                	andi	a1,a1,22
    800094c4:	01b55bbb          	srlw	s7,a0,s11
    800094c8:	00d316bb          	sllw	a3,t1,a3
    800094cc:	0a6c4417          	auipc	s0,0xa6c4
    800094d0:	002495b3          	sll	a1,s1,sp
    800094d4:	4368d313          	srai	t1,a7,0x36
    800094d8:	8f8d                	sub	a5,a5,a1
    800094da:	8e49                	or	a2,a2,a0
    800094dc:	000725b3          	sltz	a1,a4
    800094e0:	02b2dc33          	divu	s8,t0,a1
    800094e4:	0166feb3          	and	t4,a3,s6
    800094e8:	02b2dc33          	divu	s8,t0,a1
    800094ec:	02415b3b          	divuw	s6,sp,tp
    800094f0:	84627b37          	lui	s6,0x84627
    800094f4:	28d0f213          	andi	tp,ra,653
    800094f8:	02061833          	mulh	a6,a2,zero
    800094fc:	00ce1c1b          	slliw	s8,t3,0xc
    80009500:	01ca4133          	xor	sp,s4,t3
    80009504:	04a9                	addi	s1,s1,10
    80009506:	8c79                	and	s0,s0,a4
    80009508:	00ce1c1b          	slliw	s8,t3,0xc
    8000950c:	0588                	addi	a0,sp,704
    8000950e:	3f7d                	addiw	t5,t5,-1
    80009510:	417dd533          	sra	a0,s11,s7
    80009514:	09730a93          	addi	s5,t1,151
    80009518:	0166feb3          	and	t4,a3,s6
    8000951c:	5be3e993          	ori	s3,t2,1470
    80009520:	02415b3b          	divuw	s6,sp,tp
    80009524:	003de5b3          	or	a1,s11,gp
    80009528:	05b60363          	beq	a2,s11,8000956e <main_10+0x254>
    8000952c:	04a9                	addi	s1,s1,10
    8000952e:	03d44f3b          	divw	t5,s0,t4
    80009532:	05b95163          	bge	s2,s11,80009574 <main_10+0x25a>
    80009536:	28d0f213          	andi	tp,ra,653
    8000953a:	0588                	addi	a0,sp,704
    8000953c:	e3314393          	xori	t2,sp,-461
    80009540:	00d316bb          	sllw	a3,t1,a3
    80009544:	5be3e993          	ori	s3,t2,1470
    80009548:	417dd533          	sra	a0,s11,s7
    8000954c:	01a31093          	slli	ra,t1,0x1a
    80009550:	01b55bbb          	srlw	s7,a0,s11
    80009554:	9d01                	subw	a0,a0,s0
    80009556:	000807bb          	addw	a5,a6,zero
    8000955a:	9a7e                	add	s4,s4,t6
    8000955c:	01ca4133          	xor	sp,s4,t3
    80009560:	000725b3          	sltz	a1,a4
    80009564:	002495b3          	sll	a1,s1,sp
    80009568:	417dd533          	sra	a0,s11,s7
    8000956c:	8f8d                	sub	a5,a5,a1
    8000956e:	3f7d                	addiw	t5,t5,-1
    80009570:	41205ebb          	sraw	t4,zero,s2
    80009574:	02b2dc33          	divu	s8,t0,a1
    80009578:	0001                	nop
    8000957a:	41205ebb          	sraw	t4,zero,s2
    8000957e:	03b60b63          	beq	a2,s11,800095b4 <main_10+0x29a>
    80009582:	28d0f213          	andi	tp,ra,653
    80009586:	56fd                	li	a3,-1
    80009588:	043a9063          	bne	s5,gp,800095c8 <main_10+0x2ae>
    8000958c:	01b55bbb          	srlw	s7,a0,s11
    80009590:	89d9                	andi	a1,a1,22
    80009592:	5be3e993          	ori	s3,t2,1470
    80009596:	02eb76bb          	remuw	a3,s6,a4
    8000959a:	e3314393          	xori	t2,sp,-461
    8000959e:	c699                	beqz	a3,800095ac <main_10+0x292>
    800095a0:	ce91                	beqz	a3,800095bc <main_10+0x2a2>
    800095a2:	3f7d                	addiw	t5,t5,-1
    800095a4:	003a9d63          	bne	s5,gp,800095be <main_10+0x2a4>
    800095a8:	28d0f213          	andi	tp,ra,653
    800095ac:	01b60463          	beq	a2,s11,800095b4 <main_10+0x29a>
    800095b0:	01ca4133          	xor	sp,s4,t3
    800095b4:	023830b3          	mulhu	ra,a6,gp
    800095b8:	8f8d                	sub	a5,a5,a1
    800095ba:	0001                	nop
    800095bc:	9a7e                	add	s4,s4,t6
    800095be:	01a31093          	slli	ra,t1,0x1a
    800095c2:	01ca4133          	xor	sp,s4,t3
    800095c6:	82f9                	srli	a3,a3,0x1e
    800095c8:	000b561b          	srliw	a2,s6,0x0
    800095cc:	02b2dc33          	divu	s8,t0,a1
    800095d0:	02a986bb          	mulw	a3,s3,a0
    800095d4:	e3314393          	xori	t2,sp,-461
    800095d8:	02eb76bb          	remuw	a3,s6,a4
    800095dc:	000807bb          	addw	a5,a6,zero
    800095e0:	03eec933          	div	s2,t4,t5
    800095e4:	0001                	nop
    800095e6:	41660233          	sub	tp,a2,s6
    800095ea:	0094bb33          	sltu	s6,s1,s1
    800095ee:	00ce1c1b          	slliw	s8,t3,0xc
    800095f2:	009bf763          	bgeu	s7,s1,80009600 <main_10+0x2e6>
    800095f6:	03272133          	mulhsu	sp,a4,s2
    800095fa:	0001                	nop
    800095fc:	9a7e                	add	s4,s4,t6
    800095fe:	04a9                	addi	s1,s1,10
    80009600:	0001                	nop
    80009602:	003a9c63          	bne	s5,gp,8000961a <main_10+0x300>
    80009606:	018a5213          	srli	tp,s4,0x18
    8000960a:	41205ebb          	sraw	t4,zero,s2
    8000960e:	28d0f213          	andi	tp,ra,653
    80009612:	84627b37          	lui	s6,0x84627
    80009616:	02eb76bb          	remuw	a3,s6,a4
    8000961a:	0285e263          	bltu	a1,s0,8000963e <main_10+0x324>
    8000961e:	01b95463          	bge	s2,s11,80009626 <main_10+0x30c>
    80009622:	0091ddb3          	srl	s11,gp,s1
    80009626:	02a986bb          	mulw	a3,s3,a0
    8000962a:	89d9                	andi	a1,a1,22
    8000962c:	0a6c4417          	auipc	s0,0xa6c4
    80009630:	02a986bb          	mulw	a3,s3,a0
    80009634:	0aa6                	slli	s5,s5,0x9
    80009636:	e3314393          	xori	t2,sp,-461
    8000963a:	03f76733          	rem	a4,a4,t6
    8000963e:	0166feb3          	and	t4,a3,s6
    80009642:	9a7e                	add	s4,s4,t6
    80009644:	00ce1c1b          	slliw	s8,t3,0xc
    80009648:	04a9                	addi	s1,s1,10
    8000964a:	01e203b3          	add	t2,tp,t5
    8000964e:	9d01                	subw	a0,a0,s0
    80009650:	0166feb3          	and	t4,a3,s6
    80009654:	02b2dc33          	divu	s8,t0,a1
    80009658:	c689                	beqz	a3,80009662 <main_10+0x348>
    8000965a:	0085e263          	bltu	a1,s0,8000965e <main_10+0x344>
    8000965e:	09730a93          	addi	s5,t1,151
    80009662:	8c21                	xor	s0,s0,s0
    80009664:	717d                	addi	sp,sp,-16
    80009666:	edf82113          	slti	sp,a6,-289
    8000966a:	4368d313          	srai	t1,a7,0x36
    8000966e:	5be3e993          	ori	s3,t2,1470
    80009672:	0285e463          	bltu	a1,s0,8000969a <main_10+0x380>
    80009676:	417dd533          	sra	a0,s11,s7
    8000967a:	41bb519b          	sraiw	gp,s6,0x1b
    8000967e:	8e49                	or	a2,a2,a0
    80009680:	023830b3          	mulhu	ra,a6,gp
    80009684:	03f76733          	rem	a4,a4,t6
    80009688:	56fd                	li	a3,-1
    8000968a:	93a6ba13          	sltiu	s4,a3,-1734
    8000968e:	82f9                	srli	a3,a3,0x1e
    80009690:	01ca4133          	xor	sp,s4,t3
    80009694:	56fd                	li	a3,-1
    80009696:	0094bb33          	sltu	s6,s1,s1
    8000969a:	0a6c4417          	auipc	s0,0xa6c4
    8000969e:	9d01                	subw	a0,a0,s0
    800096a0:	003de5b3          	or	a1,s11,gp
    800096a4:	003de5b3          	or	a1,s11,gp
    800096a8:	01b55bbb          	srlw	s7,a0,s11
    800096ac:	69ad                	lui	s3,0xb
    800096ae:	02eb76bb          	remuw	a3,s6,a4
    800096b2:	84627b37          	lui	s6,0x84627
    800096b6:	717d                	addi	sp,sp,-16
    800096b8:	02a986bb          	mulw	a3,s3,a0
    800096bc:	029bf963          	bgeu	s7,s1,800096ee <main_10+0x3d4>
    800096c0:	8c79                	and	s0,s0,a4
    800096c2:	417dd533          	sra	a0,s11,s7
    800096c6:	e3314393          	xori	t2,sp,-461
    800096ca:	56fd                	li	a3,-1
    800096cc:	01b60263          	beq	a2,s11,800096d0 <main_10+0x3b6>
    800096d0:	0285e763          	bltu	a1,s0,800096fe <main_10+0x3e4>
    800096d4:	0a6c4417          	auipc	s0,0xa6c4
    800096d8:	0a6c4417          	auipc	s0,0xa6c4
    800096dc:	56fd                	li	a3,-1
    800096de:	0cc1881b          	addiw	a6,gp,204
    800096e2:	41bb519b          	sraiw	gp,s6,0x1b
    800096e6:	000807bb          	addw	a5,a6,zero
    800096ea:	9db9                	addw	a1,a1,a4
    800096ec:	8c79                	and	s0,s0,a4
    800096ee:	84627b37          	lui	s6,0x84627
    800096f2:	03272133          	mulhsu	sp,a4,s2
    800096f6:	09730a93          	addi	s5,t1,151
    800096fa:	0094bb33          	sltu	s6,s1,s1
    800096fe:	0094bb33          	sltu	s6,s1,s1
    80009702:	4368d313          	srai	t1,a7,0x36
    80009706:	69ad                	lui	s3,0xb
    80009708:	edf82113          	slti	sp,a6,-289
    8000970c:	417dd533          	sra	a0,s11,s7
    80009710:	8c21                	xor	s0,s0,s0
    80009712:	0001                	nop
    80009714:	41205ebb          	sraw	t4,zero,s2
    80009718:	09730a93          	addi	s5,t1,151
    8000971c:	002495b3          	sll	a1,s1,sp
    80009720:	e3314393          	xori	t2,sp,-461
    80009724:	0aa6                	slli	s5,s5,0x9
    80009726:	417dd533          	sra	a0,s11,s7
    8000972a:	00d04463          	bgtz	a3,80009732 <main_10+0x418>
    8000972e:	84627b37          	lui	s6,0x84627
    80009732:	0001                	nop
    80009734:	000b561b          	srliw	a2,s6,0x0
    80009738:	e3314393          	xori	t2,sp,-461
    8000973c:	000b561b          	srliw	a2,s6,0x0
    80009740:	56fd                	li	a3,-1
    80009742:	03272133          	mulhsu	sp,a4,s2
    80009746:	02deedbb          	remw	s11,t4,a3
    8000974a:	03f76733          	rem	a4,a4,t6
    8000974e:	9db9                	addw	a1,a1,a4
    80009750:	717d                	addi	sp,sp,-16
    80009752:	8c79                	and	s0,s0,a4
    80009754:	02061833          	mulh	a6,a2,zero
    80009758:	8c79                	and	s0,s0,a4
    8000975a:	000b561b          	srliw	a2,s6,0x0
    8000975e:	03b95663          	bge	s2,s11,8000978a <main_10+0x470>
    80009762:	003a9a63          	bne	s5,gp,80009776 <main_10+0x45c>
    80009766:	000725b3          	sltz	a1,a4
    8000976a:	41205ebb          	sraw	t4,zero,s2
    8000976e:	02415b3b          	divuw	s6,sp,tp
    80009772:	000725b3          	sltz	a1,a4
    80009776:	00ce1c1b          	slliw	s8,t3,0xc
    8000977a:	0166feb3          	and	t4,a3,s6
    8000977e:	3f7d                	addiw	t5,t5,-1
    80009780:	01b60963          	beq	a2,s11,80009792 <main_10+0x478>
    80009784:	8c79                	and	s0,s0,a4
    80009786:	023830b3          	mulhu	ra,a6,gp
    8000978a:	717d                	addi	sp,sp,-16
    8000978c:	02fffcb3          	remu	s9,t6,a5
    80009790:	9a7e                	add	s4,s4,t6
    80009792:	9a7e                	add	s4,s4,t6
    80009794:	00d04463          	bgtz	a3,8000979c <main_10+0x482>
    80009798:	02deedbb          	remw	s11,t4,a3
    8000979c:	9a7e                	add	s4,s4,t6
    8000979e:	56fd                	li	a3,-1
    800097a0:	417dd533          	sra	a0,s11,s7
    800097a4:	41660233          	sub	tp,a2,s6
    800097a8:	01e203b3          	add	t2,tp,t5
    800097ac:	e3314393          	xori	t2,sp,-461
    800097b0:	56fd                	li	a3,-1
    800097b2:	56fd                	li	a3,-1
    800097b4:	9db9                	addw	a1,a1,a4
    800097b6:	9d01                	subw	a0,a0,s0
    800097b8:	c28d                	beqz	a3,800097da <main_10+0x4c0>
    800097ba:	02d04b63          	bgtz	a3,800097f0 <main_10+0x4d6>
    800097be:	41bb519b          	sraiw	gp,s6,0x1b
    800097c2:	003de5b3          	or	a1,s11,gp
    800097c6:	000807bb          	addw	a5,a6,zero
    800097ca:	9d01                	subw	a0,a0,s0
    800097cc:	02a986bb          	mulw	a3,s3,a0
    800097d0:	9a7e                	add	s4,s4,t6
    800097d2:	01e203b3          	add	t2,tp,t5
    800097d6:	003de5b3          	or	a1,s11,gp
    800097da:	03eec933          	div	s2,t4,t5
    800097de:	93a6ba13          	sltiu	s4,a3,-1734
    800097e2:	00d04f63          	bgtz	a3,80009800 <main_10+0x4e6>
    800097e6:	02b2dc33          	divu	s8,t0,a1
    800097ea:	56fd                	li	a3,-1
    800097ec:	00d316bb          	sllw	a3,t1,a3
    800097f0:	8c79                	and	s0,s0,a4
    800097f2:	69ad                	lui	s3,0xb
    800097f4:	93a6ba13          	sltiu	s4,a3,-1734
    800097f8:	417dd533          	sra	a0,s11,s7
    800097fc:	e3314393          	xori	t2,sp,-461
    80009800:	0588                	addi	a0,sp,704
    80009802:	00d316bb          	sllw	a3,t1,a3
    80009806:	02b2dc33          	divu	s8,t0,a1
    8000980a:	04a9                	addi	s1,s1,10

000000008000980c <main_0>:
    8000980c:	00800eef          	jal	t4,80009814 <main_0+0x8>
    80009810:	030000ef          	jal	80009840 <main_0+0x34>
    80009814:	a01d                	j	8000983a <main_0+0x2e>
    80009816:	01a000ef          	jal	80009830 <main_0+0x24>
    8000981a:	a011                	j	8000981e <main_0+0x12>
    8000981c:	a80d                	j	8000984e <main_0+0x42>
    8000981e:	a039                	j	8000982c <main_0+0x20>
    80009820:	022000ef          	jal	80009842 <main_0+0x36>
    80009824:	024000ef          	jal	80009848 <main_0+0x3c>
    80009828:	006000ef          	jal	8000982e <main_0+0x22>
    8000982c:	a801                	j	8000983c <main_0+0x30>
    8000982e:	bfcd                	j	80009820 <main_0+0x14>
    80009830:	01a000ef          	jal	8000984a <main_0+0x3e>
    80009834:	fddff0ef          	jal	80009810 <main_0+0x4>
    80009838:	bff5                	j	80009834 <main_0+0x28>
    8000983a:	a031                	j	80009846 <main_0+0x3a>
    8000983c:	fdbff0ef          	jal	80009816 <main_0+0xa>
    80009840:	b7d5                	j	80009824 <main_0+0x18>
    80009842:	fdbff0ef          	jal	8000981c <main_0+0x10>
    80009846:	bfcd                	j	80009838 <main_0+0x2c>
    80009848:	bfc9                	j	8000981a <main_0+0xe>
    8000984a:	fdfff0ef          	jal	80009828 <main_0+0x1c>
    8000984e:	89d9                	andi	a1,a1,22
    80009850:	003de5b3          	or	a1,s11,gp
    80009854:	03272133          	mulhsu	sp,a4,s2
    80009858:	8c21                	xor	s0,s0,s0
    8000985a:	02fffcb3          	remu	s9,t6,a5
    8000985e:	000725b3          	sltz	a1,a4
    80009862:	0588                	addi	a0,sp,704
    80009864:	8c21                	xor	s0,s0,s0
    80009866:	02a986bb          	mulw	a3,s3,a0
    8000986a:	0091ddb3          	srl	s11,gp,s1
    8000986e:	01e203b3          	add	t2,tp,t5
    80009872:	02fffcb3          	remu	s9,t6,a5
    80009876:	4368d313          	srai	t1,a7,0x36
    8000987a:	01e203b3          	add	t2,tp,t5
    8000987e:	02eb76bb          	remuw	a3,s6,a4
    80009882:	02d04e63          	bgtz	a3,800098be <main_0+0xb2>
    80009886:	9d01                	subw	a0,a0,s0
    80009888:	0001                	nop
    8000988a:	018a5213          	srli	tp,s4,0x18
    8000988e:	03eec933          	div	s2,t4,t5
    80009892:	02fffcb3          	remu	s9,t6,a5
    80009896:	01b55bbb          	srlw	s7,a0,s11
    8000989a:	0166feb3          	and	t4,a3,s6
    8000989e:	9db9                	addw	a1,a1,a4
    800098a0:	9db9                	addw	a1,a1,a4
    800098a2:	40dc89bb          	subw	s3,s9,a3
    800098a6:	5be3e993          	ori	s3,t2,1470
    800098aa:	0cc1881b          	addiw	a6,gp,204
    800098ae:	56fd                	li	a3,-1
    800098b0:	8f8d                	sub	a5,a5,a1
    800098b2:	41bb519b          	sraiw	gp,s6,0x1b
    800098b6:	41bb519b          	sraiw	gp,s6,0x1b
    800098ba:	000b561b          	srliw	a2,s6,0x0
    800098be:	02b2dc33          	divu	s8,t0,a1
    800098c2:	02eb76bb          	remuw	a3,s6,a4
    800098c6:	000807bb          	addw	a5,a6,zero
    800098ca:	9db9                	addw	a1,a1,a4
    800098cc:	5be3e993          	ori	s3,t2,1470
    800098d0:	03f76733          	rem	a4,a4,t6
    800098d4:	0001                	nop
    800098d6:	40dc89bb          	subw	s3,s9,a3
    800098da:	0001                	nop
    800098dc:	0588                	addi	a0,sp,704
    800098de:	8f8d                	sub	a5,a5,a1
    800098e0:	0166feb3          	and	t4,a3,s6
    800098e4:	0588                	addi	a0,sp,704
    800098e6:	5be3e993          	ori	s3,t2,1470
    800098ea:	9db9                	addw	a1,a1,a4
    800098ec:	00d04463          	bgtz	a3,800098f4 <main_0+0xe8>
    800098f0:	edf82113          	slti	sp,a6,-289
    800098f4:	00d316bb          	sllw	a3,t1,a3
    800098f8:	003de5b3          	or	a1,s11,gp
    800098fc:	02a986bb          	mulw	a3,s3,a0
    80009900:	00d316bb          	sllw	a3,t1,a3
    80009904:	023a9d63          	bne	s5,gp,8000993e <main_0+0x132>
    80009908:	00d316bb          	sllw	a3,t1,a3
    8000990c:	02eb76bb          	remuw	a3,s6,a4
    80009910:	56fd                	li	a3,-1
    80009912:	09730a93          	addi	s5,t1,151
    80009916:	0588                	addi	a0,sp,704
    80009918:	02061833          	mulh	a6,a2,zero
    8000991c:	0094bb33          	sltu	s6,s1,s1
    80009920:	86d9                	srai	a3,a3,0x16
    80009922:	02fffcb3          	remu	s9,t6,a5
    80009926:	8c79                	and	s0,s0,a4
    80009928:	8c79                	and	s0,s0,a4
    8000992a:	02a986bb          	mulw	a3,s3,a0
    8000992e:	3f7d                	addiw	t5,t5,-1
    80009930:	69ad                	lui	s3,0xb
    80009932:	41bb519b          	sraiw	gp,s6,0x1b
    80009936:	8a3a                	mv	s4,a4
    80009938:	56fd                	li	a3,-1
    8000993a:	4368d313          	srai	t1,a7,0x36
    8000993e:	89d9                	andi	a1,a1,22
    80009940:	0588                	addi	a0,sp,704
    80009942:	9d01                	subw	a0,a0,s0
    80009944:	0cc1881b          	addiw	a6,gp,204
    80009948:	00d316bb          	sllw	a3,t1,a3
    8000994c:	00000897          	auipc	a7,0x0
    80009950:	00c88893          	addi	a7,a7,12 # 80009958 <test_done>
    80009954:	00088067          	jr	a7

0000000080009958 <test_done>:
    80009958:	4185                	li	gp,1
    8000995a:	00000073          	ecall

000000008000995e <write_tohost>:
    8000995e:	00000f17          	auipc	t5,0x0
    80009962:	6a3f2123          	sw	gp,1698(t5) # 8000a000 <tohost>

0000000080009966 <_exit>:
    80009966:	bfe5                	j	8000995e <write_tohost>

0000000080009968 <instr_end>:
    80009968:	0001                	nop
    8000996a:	0001                	nop

000000008000996c <mtvec_handler>:
    8000996c:	12f1                	addi	t0,t0,-4
    8000996e:	01a2b023          	sd	s10,0(t0)
    80009972:	00028d33          	add	s10,t0,zero
    80009976:	f00d0d13          	addi	s10,s10,-256
    8000997a:	001d3423          	sd	ra,8(s10)
    8000997e:	002d3823          	sd	sp,16(s10)
    80009982:	003d3c23          	sd	gp,24(s10)
    80009986:	024d3023          	sd	tp,32(s10)
    8000998a:	025d3423          	sd	t0,40(s10)
    8000998e:	026d3823          	sd	t1,48(s10)
    80009992:	027d3c23          	sd	t2,56(s10)
    80009996:	048d3023          	sd	s0,64(s10)
    8000999a:	049d3423          	sd	s1,72(s10)
    8000999e:	04ad3823          	sd	a0,80(s10)
    800099a2:	04bd3c23          	sd	a1,88(s10)
    800099a6:	06cd3023          	sd	a2,96(s10)
    800099aa:	06dd3423          	sd	a3,104(s10)
    800099ae:	06ed3823          	sd	a4,112(s10)
    800099b2:	06fd3c23          	sd	a5,120(s10)
    800099b6:	090d3023          	sd	a6,128(s10)
    800099ba:	091d3423          	sd	a7,136(s10)
    800099be:	092d3823          	sd	s2,144(s10)
    800099c2:	093d3c23          	sd	s3,152(s10)
    800099c6:	0b4d3023          	sd	s4,160(s10)
    800099ca:	0b5d3423          	sd	s5,168(s10)
    800099ce:	0b6d3823          	sd	s6,176(s10)
    800099d2:	0b7d3c23          	sd	s7,184(s10)
    800099d6:	0d8d3023          	sd	s8,192(s10)
    800099da:	0d9d3423          	sd	s9,200(s10)
    800099de:	0dad3823          	sd	s10,208(s10)
    800099e2:	0dbd3c23          	sd	s11,216(s10)
    800099e6:	0fcd3023          	sd	t3,224(s10)
    800099ea:	0fdd3423          	sd	t4,232(s10)
    800099ee:	0fed3823          	sd	t5,240(s10)
    800099f2:	0ffd3c23          	sd	t6,248(s10)
    800099f6:	000d02b3          	add	t0,s10,zero
    800099fa:	30002273          	csrr	tp,mstatus
    800099fe:	34202273          	csrr	tp,mcause
    80009a02:	03f25213          	srli	tp,tp,0x3f
    80009a06:	3e021163          	bnez	tp,80009de8 <mmode_intr_handler>

0000000080009a0a <mmode_exception_handler>:
    80009a0a:	34102273          	csrr	tp,mepc
    80009a0e:	34202273          	csrr	tp,mcause
    80009a12:	4f0d                	li	t5,3
    80009a14:	29e20d63          	beq	tp,t5,80009cae <ebreak_handler>
    80009a18:	4f21                	li	t5,8
    80009a1a:	05e20563          	beq	tp,t5,80009a64 <ecall_handler>
    80009a1e:	4f25                	li	t5,9
    80009a20:	05e20263          	beq	tp,t5,80009a64 <ecall_handler>
    80009a24:	4f2d                	li	t5,11
    80009a26:	03e20f63          	beq	tp,t5,80009a64 <ecall_handler>
    80009a2a:	4f05                	li	t5,1
    80009a2c:	0de20663          	beq	tp,t5,80009af8 <instr_fault_handler>
    80009a30:	4f15                	li	t5,5
    80009a32:	15e20c63          	beq	tp,t5,80009b8a <load_fault_handler>
    80009a36:	4f1d                	li	t5,7
    80009a38:	1fe20263          	beq	tp,t5,80009c1c <store_fault_handler>
    80009a3c:	4f31                	li	t5,12
    80009a3e:	3be20463          	beq	tp,t5,80009de6 <pt_fault_handler>
    80009a42:	4f35                	li	t5,13
    80009a44:	3be20163          	beq	tp,t5,80009de6 <pt_fault_handler>
    80009a48:	4f3d                	li	t5,15
    80009a4a:	39e20e63          	beq	tp,t5,80009de6 <pt_fault_handler>
    80009a4e:	4f09                	li	t5,2
    80009a50:	2fe20d63          	beq	tp,t5,80009d4a <illegal_instr_handler>
    80009a54:	34302f73          	csrr	t5,mtval
    80009a58:	00000897          	auipc	a7,0x0
    80009a5c:	f0088893          	addi	a7,a7,-256 # 80009958 <test_done>
    80009a60:	000880e7          	jalr	a7

0000000080009a64 <ecall_handler>:
    80009a64:	ffff6217          	auipc	tp,0xffff6
    80009a68:	59c20213          	addi	tp,tp,1436 # 80000000 <_start>
    80009a6c:	00023023          	sd	zero,0(tp) # 0 <_start-0x80000000>
    80009a70:	00123423          	sd	ra,8(tp) # 8 <_start-0x7ffffff8>
    80009a74:	00223823          	sd	sp,16(tp) # 10 <_start-0x7ffffff0>
    80009a78:	00323c23          	sd	gp,24(tp) # 18 <_start-0x7fffffe8>
    80009a7c:	02423023          	sd	tp,32(tp) # 20 <_start-0x7fffffe0>
    80009a80:	02523423          	sd	t0,40(tp) # 28 <_start-0x7fffffd8>
    80009a84:	02623823          	sd	t1,48(tp) # 30 <_start-0x7fffffd0>
    80009a88:	02723c23          	sd	t2,56(tp) # 38 <_start-0x7fffffc8>
    80009a8c:	04823023          	sd	s0,64(tp) # 40 <_start-0x7fffffc0>
    80009a90:	04923423          	sd	s1,72(tp) # 48 <_start-0x7fffffb8>
    80009a94:	04a23823          	sd	a0,80(tp) # 50 <_start-0x7fffffb0>
    80009a98:	04b23c23          	sd	a1,88(tp) # 58 <_start-0x7fffffa8>
    80009a9c:	06c23023          	sd	a2,96(tp) # 60 <_start-0x7fffffa0>
    80009aa0:	06d23423          	sd	a3,104(tp) # 68 <_start-0x7fffff98>
    80009aa4:	06e23823          	sd	a4,112(tp) # 70 <_start-0x7fffff90>
    80009aa8:	06f23c23          	sd	a5,120(tp) # 78 <_start-0x7fffff88>
    80009aac:	09023023          	sd	a6,128(tp) # 80 <_start-0x7fffff80>
    80009ab0:	09123423          	sd	a7,136(tp) # 88 <_start-0x7fffff78>
    80009ab4:	09223823          	sd	s2,144(tp) # 90 <_start-0x7fffff70>
    80009ab8:	09323c23          	sd	s3,152(tp) # 98 <_start-0x7fffff68>
    80009abc:	0b423023          	sd	s4,160(tp) # a0 <_start-0x7fffff60>
    80009ac0:	0b523423          	sd	s5,168(tp) # a8 <_start-0x7fffff58>
    80009ac4:	0b623823          	sd	s6,176(tp) # b0 <_start-0x7fffff50>
    80009ac8:	0b723c23          	sd	s7,184(tp) # b8 <_start-0x7fffff48>
    80009acc:	0d823023          	sd	s8,192(tp) # c0 <_start-0x7fffff40>
    80009ad0:	0d923423          	sd	s9,200(tp) # c8 <_start-0x7fffff38>
    80009ad4:	0da23823          	sd	s10,208(tp) # d0 <_start-0x7fffff30>
    80009ad8:	0db23c23          	sd	s11,216(tp) # d8 <_start-0x7fffff28>
    80009adc:	0fc23023          	sd	t3,224(tp) # e0 <_start-0x7fffff20>
    80009ae0:	0fd23423          	sd	t4,232(tp) # e8 <_start-0x7fffff18>
    80009ae4:	0fe23823          	sd	t5,240(tp) # f0 <_start-0x7fffff10>
    80009ae8:	0ff23c23          	sd	t6,248(tp) # f8 <_start-0x7fffff08>
    80009aec:	00000897          	auipc	a7,0x0
    80009af0:	e7288893          	addi	a7,a7,-398 # 8000995e <write_tohost>
    80009af4:	00088067          	jr	a7

0000000080009af8 <instr_fault_handler>:
    80009af8:	00028d33          	add	s10,t0,zero
    80009afc:	008d3083          	ld	ra,8(s10)
    80009b00:	010d3103          	ld	sp,16(s10)
    80009b04:	018d3183          	ld	gp,24(s10)
    80009b08:	020d3203          	ld	tp,32(s10)
    80009b0c:	028d3283          	ld	t0,40(s10)
    80009b10:	030d3303          	ld	t1,48(s10)
    80009b14:	038d3383          	ld	t2,56(s10)
    80009b18:	040d3403          	ld	s0,64(s10)
    80009b1c:	048d3483          	ld	s1,72(s10)
    80009b20:	050d3503          	ld	a0,80(s10)
    80009b24:	058d3583          	ld	a1,88(s10)
    80009b28:	060d3603          	ld	a2,96(s10)
    80009b2c:	068d3683          	ld	a3,104(s10)
    80009b30:	070d3703          	ld	a4,112(s10)
    80009b34:	078d3783          	ld	a5,120(s10)
    80009b38:	080d3803          	ld	a6,128(s10)
    80009b3c:	088d3883          	ld	a7,136(s10)
    80009b40:	090d3903          	ld	s2,144(s10)
    80009b44:	098d3983          	ld	s3,152(s10)
    80009b48:	0a0d3a03          	ld	s4,160(s10)
    80009b4c:	0a8d3a83          	ld	s5,168(s10)
    80009b50:	0b0d3b03          	ld	s6,176(s10)
    80009b54:	0b8d3b83          	ld	s7,184(s10)
    80009b58:	0c0d3c03          	ld	s8,192(s10)
    80009b5c:	0c8d3c83          	ld	s9,200(s10)
    80009b60:	0d0d3d03          	ld	s10,208(s10)
    80009b64:	0d8d3d83          	ld	s11,216(s10)
    80009b68:	0e0d3e03          	ld	t3,224(s10)
    80009b6c:	0e8d3e83          	ld	t4,232(s10)
    80009b70:	0f0d3f03          	ld	t5,240(s10)
    80009b74:	0f8d3f83          	ld	t6,248(s10)
    80009b78:	100d0d13          	addi	s10,s10,256
    80009b7c:	000d02b3          	add	t0,s10,zero
    80009b80:	0002bd03          	ld	s10,0(t0)
    80009b84:	0291                	addi	t0,t0,4
    80009b86:	30200073          	mret

0000000080009b8a <load_fault_handler>:
    80009b8a:	00028d33          	add	s10,t0,zero
    80009b8e:	008d3083          	ld	ra,8(s10)
    80009b92:	010d3103          	ld	sp,16(s10)
    80009b96:	018d3183          	ld	gp,24(s10)
    80009b9a:	020d3203          	ld	tp,32(s10)
    80009b9e:	028d3283          	ld	t0,40(s10)
    80009ba2:	030d3303          	ld	t1,48(s10)
    80009ba6:	038d3383          	ld	t2,56(s10)
    80009baa:	040d3403          	ld	s0,64(s10)
    80009bae:	048d3483          	ld	s1,72(s10)
    80009bb2:	050d3503          	ld	a0,80(s10)
    80009bb6:	058d3583          	ld	a1,88(s10)
    80009bba:	060d3603          	ld	a2,96(s10)
    80009bbe:	068d3683          	ld	a3,104(s10)
    80009bc2:	070d3703          	ld	a4,112(s10)
    80009bc6:	078d3783          	ld	a5,120(s10)
    80009bca:	080d3803          	ld	a6,128(s10)
    80009bce:	088d3883          	ld	a7,136(s10)
    80009bd2:	090d3903          	ld	s2,144(s10)
    80009bd6:	098d3983          	ld	s3,152(s10)
    80009bda:	0a0d3a03          	ld	s4,160(s10)
    80009bde:	0a8d3a83          	ld	s5,168(s10)
    80009be2:	0b0d3b03          	ld	s6,176(s10)
    80009be6:	0b8d3b83          	ld	s7,184(s10)
    80009bea:	0c0d3c03          	ld	s8,192(s10)
    80009bee:	0c8d3c83          	ld	s9,200(s10)
    80009bf2:	0d0d3d03          	ld	s10,208(s10)
    80009bf6:	0d8d3d83          	ld	s11,216(s10)
    80009bfa:	0e0d3e03          	ld	t3,224(s10)
    80009bfe:	0e8d3e83          	ld	t4,232(s10)
    80009c02:	0f0d3f03          	ld	t5,240(s10)
    80009c06:	0f8d3f83          	ld	t6,248(s10)
    80009c0a:	100d0d13          	addi	s10,s10,256
    80009c0e:	000d02b3          	add	t0,s10,zero
    80009c12:	0002bd03          	ld	s10,0(t0)
    80009c16:	0291                	addi	t0,t0,4
    80009c18:	30200073          	mret

0000000080009c1c <store_fault_handler>:
    80009c1c:	00028d33          	add	s10,t0,zero
    80009c20:	008d3083          	ld	ra,8(s10)
    80009c24:	010d3103          	ld	sp,16(s10)
    80009c28:	018d3183          	ld	gp,24(s10)
    80009c2c:	020d3203          	ld	tp,32(s10)
    80009c30:	028d3283          	ld	t0,40(s10)
    80009c34:	030d3303          	ld	t1,48(s10)
    80009c38:	038d3383          	ld	t2,56(s10)
    80009c3c:	040d3403          	ld	s0,64(s10)
    80009c40:	048d3483          	ld	s1,72(s10)
    80009c44:	050d3503          	ld	a0,80(s10)
    80009c48:	058d3583          	ld	a1,88(s10)
    80009c4c:	060d3603          	ld	a2,96(s10)
    80009c50:	068d3683          	ld	a3,104(s10)
    80009c54:	070d3703          	ld	a4,112(s10)
    80009c58:	078d3783          	ld	a5,120(s10)
    80009c5c:	080d3803          	ld	a6,128(s10)
    80009c60:	088d3883          	ld	a7,136(s10)
    80009c64:	090d3903          	ld	s2,144(s10)
    80009c68:	098d3983          	ld	s3,152(s10)
    80009c6c:	0a0d3a03          	ld	s4,160(s10)
    80009c70:	0a8d3a83          	ld	s5,168(s10)
    80009c74:	0b0d3b03          	ld	s6,176(s10)
    80009c78:	0b8d3b83          	ld	s7,184(s10)
    80009c7c:	0c0d3c03          	ld	s8,192(s10)
    80009c80:	0c8d3c83          	ld	s9,200(s10)
    80009c84:	0d0d3d03          	ld	s10,208(s10)
    80009c88:	0d8d3d83          	ld	s11,216(s10)
    80009c8c:	0e0d3e03          	ld	t3,224(s10)
    80009c90:	0e8d3e83          	ld	t4,232(s10)
    80009c94:	0f0d3f03          	ld	t5,240(s10)
    80009c98:	0f8d3f83          	ld	t6,248(s10)
    80009c9c:	100d0d13          	addi	s10,s10,256
    80009ca0:	000d02b3          	add	t0,s10,zero
    80009ca4:	0002bd03          	ld	s10,0(t0)
    80009ca8:	0291                	addi	t0,t0,4
    80009caa:	30200073          	mret

0000000080009cae <ebreak_handler>:
    80009cae:	34102273          	csrr	tp,mepc
    80009cb2:	0211                	addi	tp,tp,4 # 4 <_start-0x7ffffffc>
    80009cb4:	34121073          	csrw	mepc,tp
    80009cb8:	00028d33          	add	s10,t0,zero
    80009cbc:	008d3083          	ld	ra,8(s10)
    80009cc0:	010d3103          	ld	sp,16(s10)
    80009cc4:	018d3183          	ld	gp,24(s10)
    80009cc8:	020d3203          	ld	tp,32(s10)
    80009ccc:	028d3283          	ld	t0,40(s10)
    80009cd0:	030d3303          	ld	t1,48(s10)
    80009cd4:	038d3383          	ld	t2,56(s10)
    80009cd8:	040d3403          	ld	s0,64(s10)
    80009cdc:	048d3483          	ld	s1,72(s10)
    80009ce0:	050d3503          	ld	a0,80(s10)
    80009ce4:	058d3583          	ld	a1,88(s10)
    80009ce8:	060d3603          	ld	a2,96(s10)
    80009cec:	068d3683          	ld	a3,104(s10)
    80009cf0:	070d3703          	ld	a4,112(s10)
    80009cf4:	078d3783          	ld	a5,120(s10)
    80009cf8:	080d3803          	ld	a6,128(s10)
    80009cfc:	088d3883          	ld	a7,136(s10)
    80009d00:	090d3903          	ld	s2,144(s10)
    80009d04:	098d3983          	ld	s3,152(s10)
    80009d08:	0a0d3a03          	ld	s4,160(s10)
    80009d0c:	0a8d3a83          	ld	s5,168(s10)
    80009d10:	0b0d3b03          	ld	s6,176(s10)
    80009d14:	0b8d3b83          	ld	s7,184(s10)
    80009d18:	0c0d3c03          	ld	s8,192(s10)
    80009d1c:	0c8d3c83          	ld	s9,200(s10)
    80009d20:	0d0d3d03          	ld	s10,208(s10)
    80009d24:	0d8d3d83          	ld	s11,216(s10)
    80009d28:	0e0d3e03          	ld	t3,224(s10)
    80009d2c:	0e8d3e83          	ld	t4,232(s10)
    80009d30:	0f0d3f03          	ld	t5,240(s10)
    80009d34:	0f8d3f83          	ld	t6,248(s10)
    80009d38:	100d0d13          	addi	s10,s10,256
    80009d3c:	000d02b3          	add	t0,s10,zero
    80009d40:	0002bd03          	ld	s10,0(t0)
    80009d44:	0291                	addi	t0,t0,4
    80009d46:	30200073          	mret

0000000080009d4a <illegal_instr_handler>:
    80009d4a:	34102273          	csrr	tp,mepc
    80009d4e:	0211                	addi	tp,tp,4 # 4 <_start-0x7ffffffc>
    80009d50:	34121073          	csrw	mepc,tp
    80009d54:	00028d33          	add	s10,t0,zero
    80009d58:	008d3083          	ld	ra,8(s10)
    80009d5c:	010d3103          	ld	sp,16(s10)
    80009d60:	018d3183          	ld	gp,24(s10)
    80009d64:	020d3203          	ld	tp,32(s10)
    80009d68:	028d3283          	ld	t0,40(s10)
    80009d6c:	030d3303          	ld	t1,48(s10)
    80009d70:	038d3383          	ld	t2,56(s10)
    80009d74:	040d3403          	ld	s0,64(s10)
    80009d78:	048d3483          	ld	s1,72(s10)
    80009d7c:	050d3503          	ld	a0,80(s10)
    80009d80:	058d3583          	ld	a1,88(s10)
    80009d84:	060d3603          	ld	a2,96(s10)
    80009d88:	068d3683          	ld	a3,104(s10)
    80009d8c:	070d3703          	ld	a4,112(s10)
    80009d90:	078d3783          	ld	a5,120(s10)
    80009d94:	080d3803          	ld	a6,128(s10)
    80009d98:	088d3883          	ld	a7,136(s10)
    80009d9c:	090d3903          	ld	s2,144(s10)
    80009da0:	098d3983          	ld	s3,152(s10)
    80009da4:	0a0d3a03          	ld	s4,160(s10)
    80009da8:	0a8d3a83          	ld	s5,168(s10)
    80009dac:	0b0d3b03          	ld	s6,176(s10)
    80009db0:	0b8d3b83          	ld	s7,184(s10)
    80009db4:	0c0d3c03          	ld	s8,192(s10)
    80009db8:	0c8d3c83          	ld	s9,200(s10)
    80009dbc:	0d0d3d03          	ld	s10,208(s10)
    80009dc0:	0d8d3d83          	ld	s11,216(s10)
    80009dc4:	0e0d3e03          	ld	t3,224(s10)
    80009dc8:	0e8d3e83          	ld	t4,232(s10)
    80009dcc:	0f0d3f03          	ld	t5,240(s10)
    80009dd0:	0f8d3f83          	ld	t6,248(s10)
    80009dd4:	100d0d13          	addi	s10,s10,256
    80009dd8:	000d02b3          	add	t0,s10,zero
    80009ddc:	0002bd03          	ld	s10,0(t0)
    80009de0:	0291                	addi	t0,t0,4
    80009de2:	30200073          	mret

0000000080009de6 <pt_fault_handler>:
    80009de6:	0001                	nop

0000000080009de8 <mmode_intr_handler>:
    80009de8:	30002273          	csrr	tp,mstatus
    80009dec:	30402273          	csrr	tp,mie
    80009df0:	34402273          	csrr	tp,mip
    80009df4:	34423273          	csrrc	tp,mip,tp
    80009df8:	00028d33          	add	s10,t0,zero
    80009dfc:	008d3083          	ld	ra,8(s10)
    80009e00:	010d3103          	ld	sp,16(s10)
    80009e04:	018d3183          	ld	gp,24(s10)
    80009e08:	020d3203          	ld	tp,32(s10)
    80009e0c:	028d3283          	ld	t0,40(s10)
    80009e10:	030d3303          	ld	t1,48(s10)
    80009e14:	038d3383          	ld	t2,56(s10)
    80009e18:	040d3403          	ld	s0,64(s10)
    80009e1c:	048d3483          	ld	s1,72(s10)
    80009e20:	050d3503          	ld	a0,80(s10)
    80009e24:	058d3583          	ld	a1,88(s10)
    80009e28:	060d3603          	ld	a2,96(s10)
    80009e2c:	068d3683          	ld	a3,104(s10)
    80009e30:	070d3703          	ld	a4,112(s10)
    80009e34:	078d3783          	ld	a5,120(s10)
    80009e38:	080d3803          	ld	a6,128(s10)
    80009e3c:	088d3883          	ld	a7,136(s10)
    80009e40:	090d3903          	ld	s2,144(s10)
    80009e44:	098d3983          	ld	s3,152(s10)
    80009e48:	0a0d3a03          	ld	s4,160(s10)
    80009e4c:	0a8d3a83          	ld	s5,168(s10)
    80009e50:	0b0d3b03          	ld	s6,176(s10)
    80009e54:	0b8d3b83          	ld	s7,184(s10)
    80009e58:	0c0d3c03          	ld	s8,192(s10)
    80009e5c:	0c8d3c83          	ld	s9,200(s10)
    80009e60:	0d0d3d03          	ld	s10,208(s10)
    80009e64:	0d8d3d83          	ld	s11,216(s10)
    80009e68:	0e0d3e03          	ld	t3,224(s10)
    80009e6c:	0e8d3e83          	ld	t4,232(s10)
    80009e70:	0f0d3f03          	ld	t5,240(s10)
    80009e74:	0f8d3f83          	ld	t6,248(s10)
    80009e78:	100d0d13          	addi	s10,s10,256
    80009e7c:	000d02b3          	add	t0,s10,zero
    80009e80:	0002bd03          	ld	s10,0(t0)
    80009e84:	0291                	addi	t0,t0,4
    80009e86:	30200073          	mret

0000000080009e8a <kernel_instr_end>:
    80009e8a:	0001                	nop
	...
