
riscv_arithmetic_basic_test_0.o:     file format elf64-littleriscv


Disassembly of section .text:

0000000080000000 <_start>:
    80000000:	f14022f3          	csrr	t0,mhartid
    80000004:	4301                	li	t1,0
    80000006:	00628263          	beq	t0,t1,8000000a <_start+0xa>
    8000000a:	00000f97          	auipc	t6,0x0
    8000000e:	00cf8f93          	addi	t6,t6,12 # 80000016 <h0_start>
    80000012:	000f8067          	jr	t6

0000000080000016 <h0_start>:
    80000016:	fff0089b          	addiw	a7,zero,-1
    8000001a:	18fe                	slli	a7,a7,0x3f
    8000001c:	10488893          	addi	a7,a7,260
    80000020:	30189073          	csrw	misa,a7

0000000080000024 <kernel_sp>:
    80000024:	0001da97          	auipc	s5,0x1d
    80000028:	95ca8a93          	addi	s5,s5,-1700 # 8001c980 <kernel_stack_end>

000000008000002c <trap_vec_init>:
    8000002c:	0000a897          	auipc	a7,0xa
    80000030:	11488893          	addi	a7,a7,276 # 8000a140 <mtvec_handler>
    80000034:	0018e893          	ori	a7,a7,1
    80000038:	30589073          	csrw	mtvec,a7

000000008000003c <mepc_setup>:
    8000003c:	00000897          	auipc	a7,0x0
    80000040:	02288893          	addi	a7,a7,34 # 8000005e <init>
    80000044:	34189073          	csrw	mepc,a7

0000000080000048 <custom_csr_setup>:
    80000048:	0001                	nop

000000008000004a <init_machine_mode>:
    8000004a:	6889                	lui	a7,0x2
    8000004c:	8008889b          	addiw	a7,a7,-2048 # 1800 <_start-0x7fffe800>
    80000050:	30089073          	csrw	mstatus,a7
    80000054:	4881                	li	a7,0
    80000056:	30489073          	csrw	mie,a7
    8000005a:	30200073          	mret

000000008000005e <init>:
    8000005e:	5ea59037          	lui	zero,0x5ea59
    80000062:	8440001b          	addiw	zero,zero,-1980
    80000066:	4081                	li	ra,0
    80000068:	4101                	li	sp,0
    8000006a:	000f11b7          	lui	gp,0xf1
    8000006e:	39b1819b          	addiw	gp,gp,923 # f139b <_start-0x7ff0ec65>
    80000072:	01b2                	slli	gp,gp,0xc
    80000074:	d5c18193          	addi	gp,gp,-676
    80000078:	5fc3b237          	lui	tp,0x5fc3b
    8000007c:	78a2021b          	addiw	tp,tp,1930 # 5fc3b78a <_start-0x203c4876>
    80000080:	4289                	li	t0,2
    80000082:	431d                	li	t1,7
    80000084:	4395                	li	t2,5
    80000086:	4bfd9437          	lui	s0,0x4bfd9
    8000008a:	9694041b          	addiw	s0,s0,-1687 # 4bfd8969 <_start-0x34027697>
    8000008e:	0007e4b7          	lui	s1,0x7e
    80000092:	6a94849b          	addiw	s1,s1,1705 # 7e6a9 <_start-0x7ff81957>
    80000096:	04b6                	slli	s1,s1,0xd
    80000098:	35748493          	addi	s1,s1,855
    8000009c:	0010059b          	addiw	a1,zero,1
    800000a0:	05fe                	slli	a1,a1,0x1f
    800000a2:	0010061b          	addiw	a2,zero,1
    800000a6:	067e                	slli	a2,a2,0x1f
    800000a8:	4681                	li	a3,0
    800000aa:	000f2737          	lui	a4,0xf2
    800000ae:	b0d7071b          	addiw	a4,a4,-1267 # f1b0d <_start-0x7ff0e4f3>
    800000b2:	0732                	slli	a4,a4,0xc
    800000b4:	49570713          	addi	a4,a4,1173
    800000b8:	000f47b7          	lui	a5,0xf4
    800000bc:	03f7879b          	addiw	a5,a5,63 # f403f <_start-0x7ff0bfc1>
    800000c0:	07b2                	slli	a5,a5,0xc
    800000c2:	30078793          	addi	a5,a5,768
    800000c6:	4801                	li	a6,0
    800000c8:	48a1                	li	a7,8
    800000ca:	4901                	li	s2,0
    800000cc:	49a5                	li	s3,9
    800000ce:	4a01                	li	s4,0
    800000d0:	00100b1b          	addiw	s6,zero,1
    800000d4:	0b7e                	slli	s6,s6,0x1f
    800000d6:	4b81                	li	s7,0
    800000d8:	00084c37          	lui	s8,0x84
    800000dc:	6f9c0c1b          	addiw	s8,s8,1785 # 846f9 <_start-0x7ff7b907>
    800000e0:	0c32                	slli	s8,s8,0xc
    800000e2:	f5fc0c13          	addi	s8,s8,-161
    800000e6:	4c9d                	li	s9,7
    800000e8:	4d35                	li	s10,13
    800000ea:	4dad                	li	s11,11
    800000ec:	4e11                	li	t3,4
    800000ee:	00100eb7          	lui	t4,0x100
    800000f2:	ae5e8e9b          	addiw	t4,t4,-1307 # ffae5 <_start-0x7ff0051b>
    800000f6:	0eb2                	slli	t4,t4,0xc
    800000f8:	723e8e93          	addi	t4,t4,1827
    800000fc:	000f3f37          	lui	t5,0xf3
    80000100:	a69f0f1b          	addiw	t5,t5,-1431 # f2a69 <_start-0x7ff0d597>
    80000104:	0f32                	slli	t5,t5,0xc
    80000106:	7f6f0f13          	addi	t5,t5,2038
    8000010a:	7f78afb7          	lui	t6,0x7f78a
    8000010e:	11af8f9b          	addiw	t6,t6,282 # 7f78a11a <_start-0x875ee6>
    80000112:	00015517          	auipc	a0,0x15
    80000116:	b6e50513          	addi	a0,a0,-1170 # 80014c80 <user_stack_end>

000000008000011a <main>:
    8000011a:	59fd                	li	s3,-1
    8000011c:	4d81                	li	s11,0
    8000011e:	54fd                	li	s1,-1
    80000120:	51fd                	li	gp,-1
    80000122:	4581                	li	a1,0
    80000124:	fff0041b          	addiw	s0,zero,-1
    80000128:	147e                	slli	s0,s0,0x3f
    8000012a:	4f01                	li	t5,0
    8000012c:	4a01                	li	s4,0
    8000012e:	4781                	li	a5,0
    80000130:	5efd                	li	t4,-1
    80000132:	41478f33          	sub	t5,a5,s4
    80000136:	01318a3b          	addw	s4,gp,s3
    8000013a:	01318a3b          	addw	s4,gp,s3
    8000013e:	98ba019b          	addiw	gp,s4,-1653
    80000142:	01318a3b          	addw	s4,gp,s3
    80000146:	41478f33          	sub	t5,a5,s4
    8000014a:	41bd8f3b          	subw	t5,s11,s11
    8000014e:	19e8b5b7          	lui	a1,0x19e8b
    80000152:	01318a3b          	addw	s4,gp,s3
    80000156:	cd248a13          	addi	s4,s1,-814
    8000015a:	19e8b5b7          	lui	a1,0x19e8b
    8000015e:	01318a3b          	addw	s4,gp,s3
    80000162:	41478f33          	sub	t5,a5,s4
    80000166:	98ba019b          	addiw	gp,s4,-1653
    8000016a:	98ba019b          	addiw	gp,s4,-1653
    8000016e:	41bd8f3b          	subw	t5,s11,s11
    80000172:	0001                	nop
    80000174:	98ba019b          	addiw	gp,s4,-1653
    80000178:	99f6                	add	s3,s3,t4
    8000017a:	cd248a13          	addi	s4,s1,-814
    8000017e:	cd248a13          	addi	s4,s1,-814
    80000182:	01318a3b          	addw	s4,gp,s3
    80000186:	41478f33          	sub	t5,a5,s4
    8000018a:	00656417          	auipc	s0,0x656
    8000018e:	41bd8f3b          	subw	t5,s11,s11
    80000192:	41478f33          	sub	t5,a5,s4
    80000196:	00656417          	auipc	s0,0x656
    8000019a:	41bd8f3b          	subw	t5,s11,s11
    8000019e:	01318a3b          	addw	s4,gp,s3
    800001a2:	5f7d                	li	t5,-1
    800001a4:	8ae6f837          	lui	a6,0x8ae6f
    800001a8:	06f8081b          	addiw	a6,a6,111 # ffffffff8ae6f06f <_end+0xffffffff0ae526e7>
    800001ac:	0832                	slli	a6,a6,0xc
    800001ae:	3db80813          	addi	a6,a6,987
    800001b2:	0852                	slli	a6,a6,0x14
    800001b4:	45a80813          	addi	a6,a6,1114
    800001b8:	55fd                	li	a1,-1
    800001ba:	5a7d                	li	s4,-1
    800001bc:	f973d6b7          	lui	a3,0xf973d
    800001c0:	36fd                	addiw	a3,a3,-1 # fffffffff973cfff <_end+0xffffffff79720677>
    800001c2:	06b2                	slli	a3,a3,0xc
    800001c4:	dc568693          	addi	a3,a3,-571
    800001c8:	06b2                	slli	a3,a3,0xc
    800001ca:	0c768693          	addi	a3,a3,199
    800001ce:	06b2                	slli	a3,a3,0xc
    800001d0:	e8768693          	addi	a3,a3,-377
    800001d4:	00353237          	lui	tp,0x353
    800001d8:	1532021b          	addiw	tp,tp,339 # 353153 <_start-0x7fcacead>
    800001dc:	023a                	slli	tp,tp,0xe
    800001de:	3a720213          	addi	tp,tp,935 # 3a7 <_start-0x7ffffc59>
    800001e2:	0236                	slli	tp,tp,0xd
    800001e4:	32520213          	addi	tp,tp,805 # 325 <_start-0x7ffffcdb>
    800001e8:	0232                	slli	tp,tp,0xc
    800001ea:	7d220213          	addi	tp,tp,2002 # 7d2 <_start-0x7ffff82e>
    800001ee:	4b81                	li	s7,0
    800001f0:	fff0031b          	addiw	t1,zero,-1
    800001f4:	137e                	slli	t1,t1,0x3f
    800001f6:	01c48cb7          	lui	s9,0x1c48
    800001fa:	329c8c9b          	addiw	s9,s9,809 # 1c48329 <_start-0x7e3b7cd7>
    800001fe:	0cb2                	slli	s9,s9,0xc
    80000200:	217c8c93          	addi	s9,s9,535
    80000204:	0cb2                	slli	s9,s9,0xc
    80000206:	89dc8c93          	addi	s9,s9,-1891
    8000020a:	0cb6                	slli	s9,s9,0xd
    8000020c:	fcbc8c93          	addi	s9,s9,-53
    80000210:	fff033b7          	lui	t2,0xfff03
    80000214:	4a33839b          	addiw	t2,t2,1187 # fffffffffff034a3 <_end+0xffffffff7fee6b1b>
    80000218:	03c6                	slli	t2,t2,0x11
    8000021a:	2af38393          	addi	t2,t2,687
    8000021e:	03b2                	slli	t2,t2,0xc
    80000220:	7f138393          	addi	t2,t2,2033
    80000224:	03ba                	slli	t2,t2,0xe
    80000226:	95e38393          	addi	t2,t2,-1698
    8000022a:	19e8b5b7          	lui	a1,0x19e8b
    8000022e:	9866                	add	a6,a6,s9
    80000230:	417b8f3b          	subw	t5,s7,s7
    80000234:	9866                	add	a6,a6,s9
    80000236:	cd238a13          	addi	s4,t2,-814
    8000023a:	0001                	nop
    8000023c:	98ba021b          	addiw	tp,s4,-1653
    80000240:	0001                	nop
    80000242:	9866                	add	a6,a6,s9
    80000244:	00656317          	auipc	t1,0x656
    80000248:	9866                	add	a6,a6,s9
    8000024a:	41468f33          	sub	t5,a3,s4
    8000024e:	00656317          	auipc	t1,0x656
    80000252:	0001                	nop
    80000254:	417b8f3b          	subw	t5,s7,s7
    80000258:	9866                	add	a6,a6,s9
    8000025a:	41468f33          	sub	t5,a3,s4
    8000025e:	417b8f3b          	subw	t5,s7,s7
    80000262:	0001                	nop
    80000264:	01020a3b          	addw	s4,tp,a6
    80000268:	41468f33          	sub	t5,a3,s4
    8000026c:	03c02437          	lui	s0,0x3c02
    80000270:	1754041b          	addiw	s0,s0,373 # 3c02175 <_start-0x7c3fde8b>
    80000274:	0432                	slli	s0,s0,0xc
    80000276:	11340413          	addi	s0,s0,275
    8000027a:	0436                	slli	s0,s0,0xd
    8000027c:	09140413          	addi	s0,s0,145
    80000280:	0432                	slli	s0,s0,0xc
    80000282:	47d40413          	addi	s0,s0,1149
    80000286:	ff213eb7          	lui	t4,0xff213
    8000028a:	cb5e8e9b          	addiw	t4,t4,-843 # ffffffffff212cb5 <_end+0xffffffff7f1f632d>
    8000028e:	0eb6                	slli	t4,t4,0xd
    80000290:	317e8e93          	addi	t4,t4,791
    80000294:	0eb2                	slli	t4,t4,0xc
    80000296:	2bfe8e93          	addi	t4,t4,703
    8000029a:	0eb2                	slli	t4,t4,0xc
    8000029c:	203e8e93          	addi	t4,t4,515
    800002a0:	4781                	li	a5,0
    800002a2:	fff00f1b          	addiw	t5,zero,-1
    800002a6:	1f7e                	slli	t5,t5,0x3f
    800002a8:	fff00d1b          	addiw	s10,zero,-1
    800002ac:	1d7e                	slli	s10,s10,0x3f
    800002ae:	01277e37          	lui	t3,0x1277
    800002b2:	ebbe0e1b          	addiw	t3,t3,-325 # 1276ebb <_start-0x7ed89145>
    800002b6:	0e36                	slli	t3,t3,0xd
    800002b8:	bf7e0e13          	addi	t3,t3,-1033
    800002bc:	0e32                	slli	t3,t3,0xc
    800002be:	bc9e0e13          	addi	t3,t3,-1079
    800002c2:	0e36                	slli	t3,t3,0xd
    800002c4:	afce0e13          	addi	t3,t3,-1284
    800002c8:	0107db37          	lui	s6,0x107d
    800002cc:	233b0b1b          	addiw	s6,s6,563 # 107d233 <_start-0x7ef82dcd>
    800002d0:	0b3a                	slli	s6,s6,0xe
    800002d2:	28bb0b13          	addi	s6,s6,651
    800002d6:	0b32                	slli	s6,s6,0xc
    800002d8:	ecbb0b13          	addi	s6,s6,-309
    800002dc:	0b32                	slli	s6,s6,0xc
    800002de:	90eb0b13          	addi	s6,s6,-1778
    800002e2:	4581                	li	a1,0
    800002e4:	fff0019b          	addiw	gp,zero,-1
    800002e8:	11fe                	slli	gp,gp,0x3f
    800002ea:	fff00a1b          	addiw	s4,zero,-1
    800002ee:	1a7e                	slli	s4,s4,0x3f
    800002f0:	9b76                	add	s6,s6,t4
    800002f2:	41aa0f33          	sub	t5,s4,s10
    800002f6:	0001                	nop
    800002f8:	41aa0f33          	sub	t5,s4,s10
    800002fc:	9b76                	add	s6,s6,t4
    800002fe:	98bd019b          	addiw	gp,s10,-1653
    80000302:	00656417          	auipc	s0,0x656
    80000306:	41ce0f3b          	subw	t5,t3,t3
    8000030a:	cd258d13          	addi	s10,a1,-814 # 19e8acd2 <_start-0x6617532e>
    8000030e:	98bd019b          	addiw	gp,s10,-1653
    80000312:	41ce0f3b          	subw	t5,t3,t3
    80000316:	9b76                	add	s6,s6,t4
    80000318:	41ce0f3b          	subw	t5,t3,t3
    8000031c:	0001                	nop
    8000031e:	41aa0f33          	sub	t5,s4,s10
    80000322:	19e8b7b7          	lui	a5,0x19e8b
    80000326:	cd258d13          	addi	s10,a1,-814
    8000032a:	9b76                	add	s6,s6,t4
    8000032c:	98bd019b          	addiw	gp,s10,-1653
    80000330:	01618d3b          	addw	s10,gp,s6
    80000334:	4981                	li	s3,0
    80000336:	fff0049b          	addiw	s1,zero,-1
    8000033a:	14fe                	slli	s1,s1,0x3f
    8000033c:	fd2016b7          	lui	a3,0xfd201
    80000340:	3df6869b          	addiw	a3,a3,991 # fffffffffd2013df <_end+0xffffffff7d1e4a57>
    80000344:	06b2                	slli	a3,a3,0xc
    80000346:	3d168693          	addi	a3,a3,977
    8000034a:	06b2                	slli	a3,a3,0xc
    8000034c:	26168693          	addi	a3,a3,609
    80000350:	06b6                	slli	a3,a3,0xd
    80000352:	45968693          	addi	a3,a3,1113
    80000356:	577d                	li	a4,-1
    80000358:	4e01                	li	t3,0
    8000035a:	4f01                	li	t5,0
    8000035c:	58fd                	li	a7,-1
    8000035e:	03c2d437          	lui	s0,0x3c2d
    80000362:	f8b4041b          	addiw	s0,s0,-117 # 3c2cf8b <_start-0x7c3d3075>
    80000366:	0432                	slli	s0,s0,0xc
    80000368:	2bf40413          	addi	s0,s0,703
    8000036c:	0432                	slli	s0,s0,0xc
    8000036e:	69b40413          	addi	s0,s0,1691
    80000372:	0436                	slli	s0,s0,0xd
    80000374:	d6540413          	addi	s0,s0,-667
    80000378:	fff00d9b          	addiw	s11,zero,-1
    8000037c:	1dfe                	slli	s11,s11,0x3f
    8000037e:	ff41ad37          	lui	s10,0xff41a
    80000382:	c31d0d1b          	addiw	s10,s10,-975 # ffffffffff419c31 <_end+0xffffffff7f3fd2a9>
    80000386:	0d32                	slli	s10,s10,0xc
    80000388:	7d3d0d13          	addi	s10,s10,2003
    8000038c:	0d3e                	slli	s10,s10,0xf
    8000038e:	a33d0d13          	addi	s10,s10,-1485
    80000392:	0d32                	slli	s10,s10,0xc
    80000394:	238d0d13          	addi	s10,s10,568
    80000398:	99f2                	add	s3,s3,t3
    8000039a:	cd268d13          	addi	s10,a3,-814
    8000039e:	19e8b737          	lui	a4,0x19e8b
    800003a2:	41bd8f3b          	subw	t5,s11,s11
    800003a6:	41a88f33          	sub	t5,a7,s10
    800003aa:	19e8b737          	lui	a4,0x19e8b
    800003ae:	98bd041b          	addiw	s0,s10,-1653
    800003b2:	19e8b737          	lui	a4,0x19e8b
    800003b6:	00656497          	auipc	s1,0x656
    800003ba:	98bd041b          	addiw	s0,s10,-1653
    800003be:	0001                	nop
    800003c0:	01340d3b          	addw	s10,s0,s3
    800003c4:	cd268d13          	addi	s10,a3,-814
    800003c8:	00656497          	auipc	s1,0x656
    800003cc:	41bd8f3b          	subw	t5,s11,s11
    800003d0:	99f2                	add	s3,s3,t3
    800003d2:	41bd8f3b          	subw	t5,s11,s11
    800003d6:	41a88f33          	sub	t5,a7,s10
    800003da:	41a88f33          	sub	t5,a7,s10
    800003de:	cd268d13          	addi	s10,a3,-814
    800003e2:	99f2                	add	s3,s3,t3
    800003e4:	cd268d13          	addi	s10,a3,-814
    800003e8:	0001                	nop
    800003ea:	0001                	nop
    800003ec:	19e8b737          	lui	a4,0x19e8b
    800003f0:	00656497          	auipc	s1,0x656
    800003f4:	99f2                	add	s3,s3,t3
    800003f6:	19e8b737          	lui	a4,0x19e8b
    800003fa:	19e8b737          	lui	a4,0x19e8b
    800003fe:	19e8b737          	lui	a4,0x19e8b
    80000402:	4c01                	li	s8,0
    80000404:	4e81                	li	t4,0
    80000406:	012168b7          	lui	a7,0x1216
    8000040a:	d638889b          	addiw	a7,a7,-669 # 1215d63 <_start-0x7edea29d>
    8000040e:	08b6                	slli	a7,a7,0xd
    80000410:	b3d88893          	addi	a7,a7,-1219
    80000414:	08e6                	slli	a7,a7,0x19
    80000416:	85088893          	addi	a7,a7,-1968
    8000041a:	59fd                	li	s3,-1
    8000041c:	ffed8e37          	lui	t3,0xffed8
    80000420:	e93e0e1b          	addiw	t3,t3,-365 # ffffffffffed7e93 <_end+0xffffffff7febb50b>
    80000424:	0e32                	slli	t3,t3,0xc
    80000426:	f2de0e13          	addi	t3,t3,-211
    8000042a:	0e4a                	slli	t3,t3,0x12
    8000042c:	1e7e0e13          	addi	t3,t3,487
    80000430:	0e32                	slli	t3,t3,0xc
    80000432:	31ee0e13          	addi	t3,t3,798
    80000436:	01c242b7          	lui	t0,0x1c24
    8000043a:	3972829b          	addiw	t0,t0,919 # 1c24397 <_start-0x7e3dbc69>
    8000043e:	02b2                	slli	t0,t0,0xc
    80000440:	1a128293          	addi	t0,t0,417
    80000444:	02b6                	slli	t0,t0,0xd
    80000446:	def28293          	addi	t0,t0,-529
    8000044a:	02b6                	slli	t0,t0,0xd
    8000044c:	fde28293          	addi	t0,t0,-34
    80000450:	4581                	li	a1,0
    80000452:	4401                	li	s0,0
    80000454:	fff0071b          	addiw	a4,zero,-1
    80000458:	177e                	slli	a4,a4,0x3f
    8000045a:	4681                	li	a3,0
    8000045c:	cd258993          	addi	s3,a1,-814
    80000460:	00656417          	auipc	s0,0x656
    80000464:	41370eb3          	sub	t4,a4,s3
    80000468:	98b9829b          	addiw	t0,s3,-1653
    8000046c:	98b9829b          	addiw	t0,s3,-1653
    80000470:	cd258993          	addi	s3,a1,-814
    80000474:	00656417          	auipc	s0,0x656
    80000478:	19e8b6b7          	lui	a3,0x19e8b
    8000047c:	cd258993          	addi	s3,a1,-814
    80000480:	0001                	nop
    80000482:	418c0ebb          	subw	t4,s8,s8
    80000486:	011289bb          	addw	s3,t0,a7
    8000048a:	cd258993          	addi	s3,a1,-814
    8000048e:	00656417          	auipc	s0,0x656
    80000492:	98f2                	add	a7,a7,t3
    80000494:	98b9829b          	addiw	t0,s3,-1653
    80000498:	98b9829b          	addiw	t0,s3,-1653
    8000049c:	98f2                	add	a7,a7,t3
    8000049e:	41370eb3          	sub	t4,a4,s3
    800004a2:	0001                	nop
    800004a4:	cd258993          	addi	s3,a1,-814
    800004a8:	cd258993          	addi	s3,a1,-814
    800004ac:	41370eb3          	sub	t4,a4,s3
    800004b0:	41370eb3          	sub	t4,a4,s3
    800004b4:	fff00f1b          	addiw	t5,zero,-1
    800004b8:	1f7e                	slli	t5,t5,0x3f
    800004ba:	fff0011b          	addiw	sp,zero,-1
    800004be:	117e                	slli	sp,sp,0x3f
    800004c0:	4401                	li	s0,0
    800004c2:	5dfd                	li	s11,-1
    800004c4:	fff0099b          	addiw	s3,zero,-1
    800004c8:	19fe                	slli	s3,s3,0x3f
    800004ca:	4c81                	li	s9,0
    800004cc:	fff0019b          	addiw	gp,zero,-1
    800004d0:	11fe                	slli	gp,gp,0x3f
    800004d2:	02b52bb7          	lui	s7,0x2b52
    800004d6:	8b5b8b9b          	addiw	s7,s7,-1867 # 2b518b5 <_start-0x7d4ae74b>
    800004da:	0bb2                	slli	s7,s7,0xc
    800004dc:	983b8b93          	addi	s7,s7,-1661
    800004e0:	0bb6                	slli	s7,s7,0xd
    800004e2:	be5b8b93          	addi	s7,s7,-1051
    800004e6:	0bb2                	slli	s7,s7,0xc
    800004e8:	f38b8b93          	addi	s7,s7,-200
    800004ec:	577d                	li	a4,-1
    800004ee:	003d5237          	lui	tp,0x3d5
    800004f2:	4192021b          	addiw	tp,tp,1049 # 3d5419 <_start-0x7fc2abe7>
    800004f6:	0232                	slli	tp,tp,0xc
    800004f8:	c9b20213          	addi	tp,tp,-869 # fffffffffffffc9b <_end+0xffffffff7ffe3313>
    800004fc:	023e                	slli	tp,tp,0xf
    800004fe:	7c920213          	addi	tp,tp,1993 # 7c9 <_start-0x7ffff837>
    80000502:	023a                	slli	tp,tp,0xe
    80000504:	47a20213          	addi	tp,tp,1146 # 47a <_start-0x7ffffb86>
    80000508:	41770f33          	sub	t5,a4,s7
    8000050c:	0001                	nop
    8000050e:	19e8b437          	lui	s0,0x19e8b
    80000512:	19e8b437          	lui	s0,0x19e8b
    80000516:	0001                	nop
    80000518:	cd220b93          	addi	s7,tp,-814 # fffffffffffffcd2 <_end+0xffffffff7ffe334a>
    8000051c:	98bb811b          	addiw	sp,s7,-1653
    80000520:	419c8f3b          	subw	t5,s9,s9
    80000524:	00656197          	auipc	gp,0x656
    80000528:	98bb811b          	addiw	sp,s7,-1653
    8000052c:	19e8b437          	lui	s0,0x19e8b
    80000530:	00656197          	auipc	gp,0x656
    80000534:	19e8b437          	lui	s0,0x19e8b
    80000538:	00656197          	auipc	gp,0x656
    8000053c:	419c8f3b          	subw	t5,s9,s9
    80000540:	41770f33          	sub	t5,a4,s7
    80000544:	19e8b437          	lui	s0,0x19e8b
    80000548:	98bb811b          	addiw	sp,s7,-1653
    8000054c:	99ee                	add	s3,s3,s11
    8000054e:	00656197          	auipc	gp,0x656
    80000552:	fff00c1b          	addiw	s8,zero,-1
    80000556:	1c7e                	slli	s8,s8,0x3f
    80000558:	4901                	li	s2,0
    8000055a:	50fd                	li	ra,-1
    8000055c:	577d                	li	a4,-1
    8000055e:	5efd                	li	t4,-1
    80000560:	4881                	li	a7,0
    80000562:	0054c1b7          	lui	gp,0x54c
    80000566:	52b1819b          	addiw	gp,gp,1323 # 54c52b <_start-0x7fab3ad5>
    8000056a:	01be                	slli	gp,gp,0xf
    8000056c:	3eb18193          	addi	gp,gp,1003
    80000570:	01b2                	slli	gp,gp,0xc
    80000572:	60f18193          	addi	gp,gp,1551
    80000576:	01b6                	slli	gp,gp,0xd
    80000578:	5cb18193          	addi	gp,gp,1483
    8000057c:	55fd                	li	a1,-1
    8000057e:	00328637          	lui	a2,0x328
    80000582:	5776061b          	addiw	a2,a2,1399 # 328577 <_start-0x7fcd7a89>
    80000586:	0636                	slli	a2,a2,0xd
    80000588:	13560613          	addi	a2,a2,309
    8000058c:	0642                	slli	a2,a2,0x10
    8000058e:	66560613          	addi	a2,a2,1637
    80000592:	0632                	slli	a2,a2,0xc
    80000594:	08960613          	addi	a2,a2,137
    80000598:	4e01                	li	t3,0
    8000059a:	98f2                	add	a7,a7,t3
    8000059c:	19e8b637          	lui	a2,0x19e8b
    800005a0:	00656197          	auipc	gp,0x656
    800005a4:	41270eb3          	sub	t4,a4,s2
    800005a8:	41270eb3          	sub	t4,a4,s2
    800005ac:	418c0ebb          	subw	t4,s8,s8
    800005b0:	0110893b          	addw	s2,ra,a7
    800005b4:	418c0ebb          	subw	t4,s8,s8
    800005b8:	98b9009b          	addiw	ra,s2,-1653
    800005bc:	98b9009b          	addiw	ra,s2,-1653
    800005c0:	00656197          	auipc	gp,0x656
    800005c4:	19e8b637          	lui	a2,0x19e8b
    800005c8:	418c0ebb          	subw	t4,s8,s8
    800005cc:	98b9009b          	addiw	ra,s2,-1653
    800005d0:	cd258913          	addi	s2,a1,-814
    800005d4:	19e8b637          	lui	a2,0x19e8b
    800005d8:	0001                	nop
    800005da:	418c0ebb          	subw	t4,s8,s8
    800005de:	19e8b637          	lui	a2,0x19e8b
    800005e2:	cd258913          	addi	s2,a1,-814
    800005e6:	fff0059b          	addiw	a1,zero,-1
    800005ea:	15fe                	slli	a1,a1,0x3f
    800005ec:	4d01                	li	s10,0
    800005ee:	01ab4bb7          	lui	s7,0x1ab4
    800005f2:	d07b8b9b          	addiw	s7,s7,-761 # 1ab3d07 <_start-0x7e54c2f9>
    800005f6:	0bb2                	slli	s7,s7,0xc
    800005f8:	18fb8b93          	addi	s7,s7,399
    800005fc:	0bb2                	slli	s7,s7,0xc
    800005fe:	295b8b93          	addi	s7,s7,661
    80000602:	0bba                	slli	s7,s7,0xe
    80000604:	d46b8b93          	addi	s7,s7,-698
    80000608:	5c7d                	li	s8,-1
    8000060a:	00391637          	lui	a2,0x391
    8000060e:	1236061b          	addiw	a2,a2,291 # 391123 <_start-0x7fc6eedd>
    80000612:	063a                	slli	a2,a2,0xe
    80000614:	6f160613          	addi	a2,a2,1777
    80000618:	063e                	slli	a2,a2,0xf
    8000061a:	91760613          	addi	a2,a2,-1769
    8000061e:	0632                	slli	a2,a2,0xc
    80000620:	b4960613          	addi	a2,a2,-1207
    80000624:	05401f37          	lui	t5,0x5401
    80000628:	d57f0f1b          	addiw	t5,t5,-681 # 5400d57 <_start-0x7abff2a9>
    8000062c:	0f32                	slli	t5,t5,0xc
    8000062e:	99ff0f13          	addi	t5,t5,-1633
    80000632:	0f32                	slli	t5,t5,0xc
    80000634:	6a7f0f13          	addi	t5,t5,1703
    80000638:	0f32                	slli	t5,t5,0xc
    8000063a:	1f05                	addi	t5,t5,-31
    8000063c:	547d                	li	s0,-1
    8000063e:	527d                	li	tp,-1
    80000640:	f9fdbe37          	lui	t3,0xf9fdb
    80000644:	9ade0e1b          	addiw	t3,t3,-1619 # fffffffff9fda9ad <_end+0xffffffff79fbe025>
    80000648:	0e32                	slli	t3,t3,0xc
    8000064a:	50fe0e13          	addi	t3,t3,1295
    8000064e:	0e32                	slli	t3,t3,0xc
    80000650:	7f3e0e13          	addi	t3,t3,2035
    80000654:	0e32                	slli	t3,t3,0xc
    80000656:	472e0e13          	addi	t3,t3,1138
    8000065a:	54fd                	li	s1,-1
    8000065c:	41ad0f3b          	subw	t5,s10,s10
    80000660:	41860f33          	sub	t5,a2,s8
    80000664:	0001                	nop
    80000666:	cd248c13          	addi	s8,s1,-814 # 806560c2 <_end+0x63973a>
    8000066a:	41860f33          	sub	t5,a2,s8
    8000066e:	41860f33          	sub	t5,a2,s8
    80000672:	01720c3b          	addw	s8,tp,s7
    80000676:	41ad0f3b          	subw	t5,s10,s10
    8000067a:	9bf2                	add	s7,s7,t3
    8000067c:	19e8b5b7          	lui	a1,0x19e8b
    80000680:	9bf2                	add	s7,s7,t3
    80000682:	cd248c13          	addi	s8,s1,-814
    80000686:	41ad0f3b          	subw	t5,s10,s10
    8000068a:	00656417          	auipc	s0,0x656
    8000068e:	41ad0f3b          	subw	t5,s10,s10
    80000692:	4f01                	li	t5,0
    80000694:	4b01                	li	s6,0
    80000696:	587d                	li	a6,-1
    80000698:	fff0091b          	addiw	s2,zero,-1
    8000069c:	197e                	slli	s2,s2,0x3f
    8000069e:	0012ca37          	lui	s4,0x12c
    800006a2:	1eba0a1b          	addiw	s4,s4,491 # 12c1eb <_start-0x7fed3e15>
    800006a6:	0a3a                	slli	s4,s4,0xe
    800006a8:	c29a0a13          	addi	s4,s4,-983
    800006ac:	0a36                	slli	s4,s4,0xd
    800006ae:	2eda0a13          	addi	s4,s4,749
    800006b2:	0a3e                	slli	s4,s4,0xf
    800006b4:	576a0a13          	addi	s4,s4,1398
    800006b8:	ff0064b7          	lui	s1,0xff006
    800006bc:	5b54849b          	addiw	s1,s1,1461 # ffffffffff0065b5 <_end+0xffffffff7efe9c2d>
    800006c0:	04b2                	slli	s1,s1,0xc
    800006c2:	eb548493          	addi	s1,s1,-331
    800006c6:	04b2                	slli	s1,s1,0xc
    800006c8:	45f48493          	addi	s1,s1,1119
    800006cc:	04b6                	slli	s1,s1,0xd
    800006ce:	21748493          	addi	s1,s1,535
    800006d2:	fff00c9b          	addiw	s9,zero,-1
    800006d6:	1cfe                	slli	s9,s9,0x3f
    800006d8:	fff0059b          	addiw	a1,zero,-1
    800006dc:	15fe                	slli	a1,a1,0x3f
    800006de:	000520b7          	lui	ra,0x52
    800006e2:	abd0809b          	addiw	ra,ra,-1347 # 51abd <_start-0x7ffae543>
    800006e6:	00b6                	slli	ra,ra,0xd
    800006e8:	12508093          	addi	ra,ra,293
    800006ec:	00b2                	slli	ra,ra,0xc
    800006ee:	f0108093          	addi	ra,ra,-255
    800006f2:	00b6                	slli	ra,ra,0xd
    800006f4:	b1408093          	addi	ra,ra,-1260
    800006f8:	4d81                	li	s11,0
    800006fa:	98bb009b          	addiw	ra,s6,-1653
    800006fe:	01408b3b          	addw	s6,ra,s4
    80000702:	41690f33          	sub	t5,s2,s6
    80000706:	98bb009b          	addiw	ra,s6,-1653
    8000070a:	0001                	nop
    8000070c:	cd258b13          	addi	s6,a1,-814 # 19e8acd2 <_start-0x6617532e>
    80000710:	00656497          	auipc	s1,0x656
    80000714:	19e8b837          	lui	a6,0x19e8b
    80000718:	01408b3b          	addw	s6,ra,s4
    8000071c:	0001                	nop
    8000071e:	41690f33          	sub	t5,s2,s6
    80000722:	0001                	nop
    80000724:	41690f33          	sub	t5,s2,s6
    80000728:	01408b3b          	addw	s6,ra,s4
    8000072c:	41690f33          	sub	t5,s2,s6
    80000730:	41690f33          	sub	t5,s2,s6
    80000734:	98bb009b          	addiw	ra,s6,-1653
    80000738:	01408b3b          	addw	s6,ra,s4
    8000073c:	00656497          	auipc	s1,0x656
    80000740:	fff0079b          	addiw	a5,zero,-1
    80000744:	17fe                	slli	a5,a5,0x3f
    80000746:	fff00b9b          	addiw	s7,zero,-1
    8000074a:	1bfe                	slli	s7,s7,0x3f
    8000074c:	4301                	li	t1,0
    8000074e:	4281                	li	t0,0
    80000750:	5cfd                	li	s9,-1
    80000752:	fff0009b          	addiw	ra,zero,-1
    80000756:	10fe                	slli	ra,ra,0x3f
    80000758:	00316b37          	lui	s6,0x316
    8000075c:	379b0b1b          	addiw	s6,s6,889 # 316379 <_start-0x7fce9c87>
    80000760:	0b32                	slli	s6,s6,0xc
    80000762:	855b0b13          	addi	s6,s6,-1963
    80000766:	0b32                	slli	s6,s6,0xc
    80000768:	921b0b13          	addi	s6,s6,-1759
    8000076c:	0b36                	slli	s6,s6,0xd
    8000076e:	72cb0b13          	addi	s6,s6,1836
    80000772:	fff0071b          	addiw	a4,zero,-1
    80000776:	177e                	slli	a4,a4,0x3f
    80000778:	4a01                	li	s4,0
    8000077a:	dcd76937          	lui	s2,0xdcd76
    8000077e:	a3d9091b          	addiw	s2,s2,-1475 # ffffffffdcd75a3d <_end+0xffffffff5cd590b5>
    80000782:	0932                	slli	s2,s2,0xc
    80000784:	92d90913          	addi	s2,s2,-1747
    80000788:	0952                	slli	s2,s2,0x14
    8000078a:	66f90913          	addi	s2,s2,1647
    8000078e:	41478cb3          	sub	s9,a5,s4
    80000792:	416b0cbb          	subw	s9,s6,s6
    80000796:	0001                	nop
    80000798:	19e8b737          	lui	a4,0x19e8b
    8000079c:	00656297          	auipc	t0,0x656
    800007a0:	98ba009b          	addiw	ra,s4,-1653
    800007a4:	995e                	add	s2,s2,s7
    800007a6:	0001                	nop
    800007a8:	98ba009b          	addiw	ra,s4,-1653
    800007ac:	cd230a13          	addi	s4,t1,-814 # 80655f20 <_end+0x639598>
    800007b0:	416b0cbb          	subw	s9,s6,s6
    800007b4:	19e8b737          	lui	a4,0x19e8b
    800007b8:	416b0cbb          	subw	s9,s6,s6
    800007bc:	19e8b737          	lui	a4,0x19e8b
    800007c0:	416b0cbb          	subw	s9,s6,s6
    800007c4:	416b0cbb          	subw	s9,s6,s6
    800007c8:	995e                	add	s2,s2,s7
    800007ca:	98ba009b          	addiw	ra,s4,-1653
    800007ce:	567d                	li	a2,-1
    800007d0:	04cd4db7          	lui	s11,0x4cd4
    800007d4:	60fd8d9b          	addiw	s11,s11,1551 # 4cd460f <_start-0x7b32b9f1>
    800007d8:	0db2                	slli	s11,s11,0xc
    800007da:	0dad                	addi	s11,s11,11
    800007dc:	0db2                	slli	s11,s11,0xc
    800007de:	e7dd8d93          	addi	s11,s11,-387
    800007e2:	0db2                	slli	s11,s11,0xc
    800007e4:	b61d8d93          	addi	s11,s11,-1183
    800007e8:	f9a28237          	lui	tp,0xf9a28
    800007ec:	6f52021b          	addiw	tp,tp,1781 # fffffffff9a286f5 <_end+0xffffffff79a0bd6d>
    800007f0:	0232                	slli	tp,tp,0xc
    800007f2:	c9720213          	addi	tp,tp,-873 # fffffffffffffc97 <_end+0xffffffff7ffe330f>
    800007f6:	0232                	slli	tp,tp,0xc
    800007f8:	aa420213          	addi	tp,tp,-1372 # fffffffffffffaa4 <_end+0xffffffff7ffe311c>
    800007fc:	4901                	li	s2,0
    800007fe:	4c81                	li	s9,0
    80000800:	53fd                	li	t2,-1
    80000802:	fff0031b          	addiw	t1,zero,-1
    80000806:	137e                	slli	t1,t1,0x3f
    80000808:	fff0069b          	addiw	a3,zero,-1
    8000080c:	16fe                	slli	a3,a3,0x3f
    8000080e:	4b81                	li	s7,0
    80000810:	05ba4837          	lui	a6,0x5ba4
    80000814:	b5d8081b          	addiw	a6,a6,-1187 # 5ba3b5d <_start-0x7a45c4a3>
    80000818:	0832                	slli	a6,a6,0xc
    8000081a:	91180813          	addi	a6,a6,-1775
    8000081e:	0832                	slli	a6,a6,0xc
    80000820:	f4180813          	addi	a6,a6,-191
    80000824:	0832                	slli	a6,a6,0xc
    80000826:	34680813          	addi	a6,a6,838
    8000082a:	0102093b          	addw	s2,tp,a6
    8000082e:	19e8b637          	lui	a2,0x19e8b
    80000832:	19e8b637          	lui	a2,0x19e8b
    80000836:	0102093b          	addw	s2,tp,a6
    8000083a:	41268db3          	sub	s11,a3,s2
    8000083e:	cd238913          	addi	s2,t2,-814
    80000842:	cd238913          	addi	s2,t2,-814
    80000846:	19e8b637          	lui	a2,0x19e8b
    8000084a:	cd238913          	addi	s2,t2,-814
    8000084e:	0001                	nop
    80000850:	00656317          	auipc	t1,0x656
    80000854:	98b9021b          	addiw	tp,s2,-1653
    80000858:	0102093b          	addw	s2,tp,a6
    8000085c:	0102093b          	addw	s2,tp,a6
    80000860:	417b8dbb          	subw	s11,s7,s7
    80000864:	19e8b637          	lui	a2,0x19e8b
    80000868:	19e8b637          	lui	a2,0x19e8b
    8000086c:	0102093b          	addw	s2,tp,a6
    80000870:	ff824437          	lui	s0,0xff824
    80000874:	8714041b          	addiw	s0,s0,-1935 # ffffffffff823871 <_end+0xffffffff7f806ee9>
    80000878:	043a                	slli	s0,s0,0xe
    8000087a:	48340413          	addi	s0,s0,1155
    8000087e:	0436                	slli	s0,s0,0xd
    80000880:	70d40413          	addi	s0,s0,1805
    80000884:	0432                	slli	s0,s0,0xc
    80000886:	b9140413          	addi	s0,s0,-1135
    8000088a:	fff0031b          	addiw	t1,zero,-1
    8000088e:	137e                	slli	t1,t1,0x3f
    80000890:	fff00b1b          	addiw	s6,zero,-1
    80000894:	1b7e                	slli	s6,s6,0x3f
    80000896:	6cfb2937          	lui	s2,0x6cfb2
    8000089a:	2919091b          	addiw	s2,s2,657 # 6cfb2291 <_start-0x1304dd6f>
    8000089e:	093e                	slli	s2,s2,0xf
    800008a0:	8b590913          	addi	s2,s2,-1867
    800008a4:	093e                	slli	s2,s2,0xf
    800008a6:	88e90913          	addi	s2,s2,-1906
    800008aa:	5a7d                	li	s4,-1
    800008ac:	000f63b7          	lui	t2,0xf6
    800008b0:	6533839b          	addiw	t2,t2,1619 # f6653 <_start-0x7ff099ad>
    800008b4:	03b6                	slli	t2,t2,0xd
    800008b6:	c6b38393          	addi	t2,t2,-917
    800008ba:	03b6                	slli	t2,t2,0xd
    800008bc:	8d338393          	addi	t2,t2,-1837
    800008c0:	03c6                	slli	t2,t2,0x11
    800008c2:	59038393          	addi	t2,t2,1424
    800008c6:	00351737          	lui	a4,0x351
    800008ca:	8dd7071b          	addiw	a4,a4,-1827 # 3508dd <_start-0x7fcaf723>
    800008ce:	0732                	slli	a4,a4,0xc
    800008d0:	80570713          	addi	a4,a4,-2043
    800008d4:	0736                	slli	a4,a4,0xd
    800008d6:	46770713          	addi	a4,a4,1127
    800008da:	0742                	slli	a4,a4,0x10
    800008dc:	aab70713          	addi	a4,a4,-1365
    800008e0:	54fd                	li	s1,-1
    800008e2:	5cfd                	li	s9,-1
    800008e4:	fff0009b          	addiw	ra,zero,-1
    800008e8:	10fe                	slli	ra,ra,0x3f
    800008ea:	975a                	add	a4,a4,s6
    800008ec:	19e8b437          	lui	s0,0x19e8b
    800008f0:	cd238913          	addi	s2,t2,-814
    800008f4:	00656317          	auipc	t1,0x656
    800008f8:	414a0cbb          	subw	s9,s4,s4
    800008fc:	98b9009b          	addiw	ra,s2,-1653
    80000900:	19e8b437          	lui	s0,0x19e8b
    80000904:	00e0893b          	addw	s2,ra,a4
    80000908:	cd238913          	addi	s2,t2,-814
    8000090c:	00656317          	auipc	t1,0x656
    80000910:	19e8b437          	lui	s0,0x19e8b
    80000914:	0001                	nop
    80000916:	975a                	add	a4,a4,s6
    80000918:	00e0893b          	addw	s2,ra,a4
    8000091c:	975a                	add	a4,a4,s6
    8000091e:	98b9009b          	addiw	ra,s2,-1653
    80000922:	00656317          	auipc	t1,0x656
    80000926:	975a                	add	a4,a4,s6
    80000928:	975a                	add	a4,a4,s6
    8000092a:	975a                	add	a4,a4,s6
    8000092c:	98b9009b          	addiw	ra,s2,-1653
    80000930:	41248cb3          	sub	s9,s1,s2
    80000934:	fff00d1b          	addiw	s10,zero,-1
    80000938:	1d7e                	slli	s10,s10,0x3f
    8000093a:	5cfd                	li	s9,-1
    8000093c:	56fd                	li	a3,-1
    8000093e:	57fd                	li	a5,-1
    80000940:	51fd                	li	gp,-1
    80000942:	fff0049b          	addiw	s1,zero,-1
    80000946:	14fe                	slli	s1,s1,0x3f
    80000948:	4e01                	li	t3,0
    8000094a:	567d                	li	a2,-1
    8000094c:	4c01                	li	s8,0
    8000094e:	fff00a1b          	addiw	s4,zero,-1
    80000952:	1a7e                	slli	s4,s4,0x3f
    80000954:	01418c3b          	addw	s8,gp,s4
    80000958:	cd260c13          	addi	s8,a2,-814 # 19e8acd2 <_start-0x6617532e>
    8000095c:	01418c3b          	addw	s8,gp,s4
    80000960:	9a6a                	add	s4,s4,s10
    80000962:	01418c3b          	addw	s8,gp,s4
    80000966:	9a6a                	add	s4,s4,s10
    80000968:	9a6a                	add	s4,s4,s10
    8000096a:	19e8b6b7          	lui	a3,0x19e8b
    8000096e:	01418c3b          	addw	s8,gp,s4
    80000972:	19e8b6b7          	lui	a3,0x19e8b
    80000976:	419c8e3b          	subw	t3,s9,s9
    8000097a:	419c8e3b          	subw	t3,s9,s9
    8000097e:	98bc019b          	addiw	gp,s8,-1653
    80000982:	cd260c13          	addi	s8,a2,-814
    80000986:	19e8b6b7          	lui	a3,0x19e8b
    8000098a:	0001                	nop
    8000098c:	98bc019b          	addiw	gp,s8,-1653
    80000990:	cd260c13          	addi	s8,a2,-814
    80000994:	00656497          	auipc	s1,0x656
    80000998:	98bc019b          	addiw	gp,s8,-1653
    8000099c:	0001                	nop
    8000099e:	19e8b6b7          	lui	a3,0x19e8b
    800009a2:	00656497          	auipc	s1,0x656
    800009a6:	41878e33          	sub	t3,a5,s8
    800009aa:	0001                	nop
    800009ac:	4e81                	li	t4,0
    800009ae:	fff16cb7          	lui	s9,0xfff16
    800009b2:	703c8c9b          	addiw	s9,s9,1795 # fffffffffff16703 <_end+0xffffffff7fef9d7b>
    800009b6:	0cbe                	slli	s9,s9,0xf
    800009b8:	ec7c8c93          	addi	s9,s9,-313
    800009bc:	0cb6                	slli	s9,s9,0xd
    800009be:	55bc8c93          	addi	s9,s9,1371
    800009c2:	0cb6                	slli	s9,s9,0xd
    800009c4:	762c8c93          	addi	s9,s9,1890
    800009c8:	0314ca37          	lui	s4,0x314c
    800009cc:	945a0a1b          	addiw	s4,s4,-1723 # 314b945 <_start-0x7ceb46bb>
    800009d0:	0a32                	slli	s4,s4,0xc
    800009d2:	639a0a13          	addi	s4,s4,1593
    800009d6:	0a32                	slli	s4,s4,0xc
    800009d8:	3a3a0a13          	addi	s4,s4,931
    800009dc:	0a32                	slli	s4,s4,0xc
    800009de:	b6ca0a13          	addi	s4,s4,-1172
    800009e2:	4681                	li	a3,0
    800009e4:	ea80ce37          	lui	t3,0xea80c
    800009e8:	629e0e1b          	addiw	t3,t3,1577 # ffffffffea80c629 <_end+0xffffffff6a7efca1>
    800009ec:	0e3e                	slli	t3,t3,0xf
    800009ee:	0a1e0e13          	addi	t3,t3,161
    800009f2:	0e4e                	slli	t3,t3,0x13
    800009f4:	c0de0e13          	addi	t3,t3,-1011
    800009f8:	567d                	li	a2,-1
    800009fa:	0023ed37          	lui	s10,0x23e
    800009fe:	217d0d1b          	addiw	s10,s10,535 # 23e217 <_start-0x7fdc1de9>
    80000a02:	0d32                	slli	s10,s10,0xc
    80000a04:	e4dd0d13          	addi	s10,s10,-435
    80000a08:	0d3a                	slli	s10,s10,0xe
    80000a0a:	927d0d13          	addi	s10,s10,-1753
    80000a0e:	0d32                	slli	s10,s10,0xc
    80000a10:	f38d0d13          	addi	s10,s10,-200
    80000a14:	59fd                	li	s3,-1
    80000a16:	4701                	li	a4,0
    80000a18:	fff0081b          	addiw	a6,zero,-1
    80000a1c:	187e                	slli	a6,a6,0x3f
    80000a1e:	cd270c93          	addi	s9,a4,-814
    80000a22:	01460cbb          	addw	s9,a2,s4
    80000a26:	19e8b837          	lui	a6,0x19e8b
    80000a2a:	01460cbb          	addw	s9,a2,s4
    80000a2e:	01460cbb          	addw	s9,a2,s4
    80000a32:	41998eb3          	sub	t4,s3,s9
    80000a36:	9a72                	add	s4,s4,t3
    80000a38:	cd270c93          	addi	s9,a4,-814
    80000a3c:	19e8b837          	lui	a6,0x19e8b
    80000a40:	01460cbb          	addw	s9,a2,s4
    80000a44:	0001                	nop
    80000a46:	98bc861b          	addiw	a2,s9,-1653
    80000a4a:	0001                	nop
    80000a4c:	41ad0ebb          	subw	t4,s10,s10
    80000a50:	41998eb3          	sub	t4,s3,s9
    80000a54:	4d01                	li	s10,0
    80000a56:	59fd                	li	s3,-1
    80000a58:	fffa41b7          	lui	gp,0xfffa4
    80000a5c:	b591819b          	addiw	gp,gp,-1191 # fffffffffffa3b59 <_end+0xffffffff7ff871d1>
    80000a60:	01b6                	slli	gp,gp,0xd
    80000a62:	b3518193          	addi	gp,gp,-1227
    80000a66:	01b2                	slli	gp,gp,0xc
    80000a68:	d7518193          	addi	gp,gp,-651
    80000a6c:	01ce                	slli	gp,gp,0x13
    80000a6e:	cf118193          	addi	gp,gp,-783
    80000a72:	4381                	li	t2,0
    80000a74:	5f7d                	li	t5,-1
    80000a76:	4801                	li	a6,0
    80000a78:	fff00c9b          	addiw	s9,zero,-1
    80000a7c:	1cfe                	slli	s9,s9,0x3f
    80000a7e:	4b81                	li	s7,0
    80000a80:	fff0009b          	addiw	ra,zero,-1
    80000a84:	10fe                	slli	ra,ra,0x3f
    80000a86:	ff620637          	lui	a2,0xff620
    80000a8a:	4116061b          	addiw	a2,a2,1041 # ffffffffff620411 <_end+0xffffffff7f603a89>
    80000a8e:	0632                	slli	a2,a2,0xc
    80000a90:	90160613          	addi	a2,a2,-1791
    80000a94:	063a                	slli	a2,a2,0xe
    80000a96:	3e360613          	addi	a2,a2,995
    80000a9a:	0636                	slli	a2,a2,0xd
    80000a9c:	3e060613          	addi	a2,a2,992
    80000aa0:	98bb809b          	addiw	ra,s7,-1653
    80000aa4:	cd238b93          	addi	s7,t2,-814
    80000aa8:	0001                	nop
    80000aaa:	0001                	nop
    80000aac:	01308bbb          	addw	s7,ra,s3
    80000ab0:	0001                	nop
    80000ab2:	99ea                	add	s3,s3,s10
    80000ab4:	99ea                	add	s3,s3,s10
    80000ab6:	99ea                	add	s3,s3,s10
    80000ab8:	19e8b637          	lui	a2,0x19e8b
    80000abc:	cd238b93          	addi	s7,t2,-814
    80000ac0:	41780f33          	sub	t5,a6,s7
    80000ac4:	98bb809b          	addiw	ra,s7,-1653
    80000ac8:	98bb809b          	addiw	ra,s7,-1653
    80000acc:	98bb809b          	addiw	ra,s7,-1653
    80000ad0:	99ea                	add	s3,s3,s10
    80000ad2:	99ea                	add	s3,s3,s10
    80000ad4:	19e8b637          	lui	a2,0x19e8b
    80000ad8:	01308bbb          	addw	s7,ra,s3
    80000adc:	fff0021b          	addiw	tp,zero,-1
    80000ae0:	127e                	slli	tp,tp,0x3f
    80000ae2:	fff0089b          	addiw	a7,zero,-1
    80000ae6:	18fe                	slli	a7,a7,0x3f
    80000ae8:	fff0019b          	addiw	gp,zero,-1
    80000aec:	11fe                	slli	gp,gp,0x3f
    80000aee:	597d                	li	s2,-1
    80000af0:	fff0029b          	addiw	t0,zero,-1
    80000af4:	12fe                	slli	t0,t0,0x3f
    80000af6:	fff0041b          	addiw	s0,zero,-1
    80000afa:	147e                	slli	s0,s0,0x3f
    80000afc:	4e81                	li	t4,0
    80000afe:	4381                	li	t2,0
    80000b00:	4d81                	li	s11,0
    80000b02:	4f01                	li	t5,0
    80000b04:	98b9019b          	addiw	gp,s2,-1653
    80000b08:	41bd8f3b          	subw	t5,s11,s11
    80000b0c:	41240f33          	sub	t5,s0,s2
    80000b10:	98b9019b          	addiw	gp,s2,-1653
    80000b14:	cd228913          	addi	s2,t0,-814 # 8065646e <_end+0x639ae6>
    80000b18:	98b9019b          	addiw	gp,s2,-1653
    80000b1c:	41bd8f3b          	subw	t5,s11,s11
    80000b20:	19e8b3b7          	lui	t2,0x19e8b
    80000b24:	98b9019b          	addiw	gp,s2,-1653
    80000b28:	0111893b          	addw	s2,gp,a7
    80000b2c:	41240f33          	sub	t5,s0,s2
    80000b30:	98f6                	add	a7,a7,t4
    80000b32:	98b9019b          	addiw	gp,s2,-1653
    80000b36:	00656217          	auipc	tp,0x656
    80000b3a:	19e8b3b7          	lui	t2,0x19e8b
    80000b3e:	0001                	nop
    80000b40:	41bd8f3b          	subw	t5,s11,s11
    80000b44:	0001                	nop
    80000b46:	00656217          	auipc	tp,0x656
    80000b4a:	cd228913          	addi	s2,t0,-814
    80000b4e:	98f6                	add	a7,a7,t4
    80000b50:	98b9019b          	addiw	gp,s2,-1653
    80000b54:	50fd                	li	ra,-1
    80000b56:	fff0029b          	addiw	t0,zero,-1
    80000b5a:	12fe                	slli	t0,t0,0x3f
    80000b5c:	5bfd                	li	s7,-1
    80000b5e:	fff0061b          	addiw	a2,zero,-1
    80000b62:	167e                	slli	a2,a2,0x3f
    80000b64:	4981                	li	s3,0
    80000b66:	062b91b7          	lui	gp,0x62b9
    80000b6a:	1b91819b          	addiw	gp,gp,441 # 62b91b9 <_start-0x79d46e47>
    80000b6e:	01b2                	slli	gp,gp,0xc
    80000b70:	95318193          	addi	gp,gp,-1709
    80000b74:	01b2                	slli	gp,gp,0xc
    80000b76:	88718193          	addi	gp,gp,-1913
    80000b7a:	01b2                	slli	gp,gp,0xc
    80000b7c:	3a418193          	addi	gp,gp,932
    80000b80:	fff0081b          	addiw	a6,zero,-1
    80000b84:	187e                	slli	a6,a6,0x3f
    80000b86:	fe96ac37          	lui	s8,0xfe96a
    80000b8a:	e4bc0c1b          	addiw	s8,s8,-437 # fffffffffe969e4b <_end+0xffffffff7e94d4c3>
    80000b8e:	0c32                	slli	s8,s8,0xc
    80000b90:	f89c0c13          	addi	s8,s8,-119
    80000b94:	0c32                	slli	s8,s8,0xc
    80000b96:	13dc0c13          	addi	s8,s8,317
    80000b9a:	0c36                	slli	s8,s8,0xd
    80000b9c:	13ac0c13          	addi	s8,s8,314
    80000ba0:	4201                	li	tp,0
    80000ba2:	5a7d                	li	s4,-1
    80000ba4:	cd220993          	addi	s3,tp,-814 # 80656818 <_end+0x639e90>
    80000ba8:	19e8b2b7          	lui	t0,0x19e8b
    80000bac:	98b9809b          	addiw	ra,s3,-1653
    80000bb0:	98b9809b          	addiw	ra,s3,-1653
    80000bb4:	985e                	add	a6,a6,s7
    80000bb6:	414a0c3b          	subw	s8,s4,s4
    80000bba:	414a0c3b          	subw	s8,s4,s4
    80000bbe:	414a0c3b          	subw	s8,s4,s4
    80000bc2:	cd220993          	addi	s3,tp,-814 # fffffffffffffcd2 <_end+0xffffffff7ffe334a>
    80000bc6:	0001                	nop
    80000bc8:	cd220993          	addi	s3,tp,-814 # fffffffffffffcd2 <_end+0xffffffff7ffe334a>
    80000bcc:	010089bb          	addw	s3,ra,a6
    80000bd0:	41360c33          	sub	s8,a2,s3
    80000bd4:	19e8b2b7          	lui	t0,0x19e8b
    80000bd8:	19e8b2b7          	lui	t0,0x19e8b
    80000bdc:	010089bb          	addw	s3,ra,a6
    80000be0:	414a0c3b          	subw	s8,s4,s4
    80000be4:	414a0c3b          	subw	s8,s4,s4
    80000be8:	19e8b2b7          	lui	t0,0x19e8b
    80000bec:	98b9809b          	addiw	ra,s3,-1653
    80000bf0:	985e                	add	a6,a6,s7
    80000bf2:	4c01                	li	s8,0
    80000bf4:	000c0737          	lui	a4,0xc0
    80000bf8:	ddd7071b          	addiw	a4,a4,-547 # bfddd <_start-0x7ff40223>
    80000bfc:	0746                	slli	a4,a4,0x11
    80000bfe:	4f570713          	addi	a4,a4,1269
    80000c02:	0732                	slli	a4,a4,0xc
    80000c04:	f8f70713          	addi	a4,a4,-113
    80000c08:	073a                	slli	a4,a4,0xe
    80000c0a:	a4f70713          	addi	a4,a4,-1457
    80000c0e:	00d2f8b7          	lui	a7,0xd2f
    80000c12:	3978889b          	addiw	a7,a7,919 # d2f397 <_start-0x7f2d0c69>
    80000c16:	08b2                	slli	a7,a7,0xc
    80000c18:	a8788893          	addi	a7,a7,-1401
    80000c1c:	08ba                	slli	a7,a7,0xe
    80000c1e:	9ed88893          	addi	a7,a7,-1555
    80000c22:	08b2                	slli	a7,a7,0xc
    80000c24:	66588893          	addi	a7,a7,1637
    80000c28:	ffe180b7          	lui	ra,0xffe18
    80000c2c:	5050809b          	addiw	ra,ra,1285 # ffffffffffe18505 <_end+0xffffffff7fdfbb7d>
    80000c30:	00b2                	slli	ra,ra,0xc
    80000c32:	f1908093          	addi	ra,ra,-231
    80000c36:	00ba                	slli	ra,ra,0xe
    80000c38:	11708093          	addi	ra,ra,279
    80000c3c:	00c2                	slli	ra,ra,0x10
    80000c3e:	ebe08093          	addi	ra,ra,-322
    80000c42:	fff00c9b          	addiw	s9,zero,-1
    80000c46:	1cfe                	slli	s9,s9,0x3f
    80000c48:	ff9117b7          	lui	a5,0xff911
    80000c4c:	1d37879b          	addiw	a5,a5,467 # ffffffffff9111d3 <_end+0xffffffff7f8f484b>
    80000c50:	07b6                	slli	a5,a5,0xd
    80000c52:	c4578793          	addi	a5,a5,-955
    80000c56:	07b2                	slli	a5,a5,0xc
    80000c58:	ccf78793          	addi	a5,a5,-817
    80000c5c:	07b2                	slli	a5,a5,0xc
    80000c5e:	fce78793          	addi	a5,a5,-50
    80000c62:	4281                	li	t0,0
    80000c64:	fff0011b          	addiw	sp,zero,-1
    80000c68:	117e                	slli	sp,sp,0x3f
    80000c6a:	4d81                	li	s11,0
    80000c6c:	fff0031b          	addiw	t1,zero,-1
    80000c70:	137e                	slli	t1,t1,0x3f
    80000c72:	418c0dbb          	subw	s11,s8,s8
    80000c76:	00f088bb          	addw	a7,ra,a5
    80000c7a:	0001                	nop
    80000c7c:	0001                	nop
    80000c7e:	41170db3          	sub	s11,a4,a7
    80000c82:	19e8b337          	lui	t1,0x19e8b
    80000c86:	98b8809b          	addiw	ra,a7,-1653
    80000c8a:	41170db3          	sub	s11,a4,a7
    80000c8e:	cd228893          	addi	a7,t0,-814 # 19e8acd2 <_start-0x6617532e>
    80000c92:	98b8809b          	addiw	ra,a7,-1653
    80000c96:	98b8809b          	addiw	ra,a7,-1653
    80000c9a:	cd228893          	addi	a7,t0,-814
    80000c9e:	00656117          	auipc	sp,0x656
    80000ca2:	98b8809b          	addiw	ra,a7,-1653
    80000ca6:	19e8b337          	lui	t1,0x19e8b
    80000caa:	97e6                	add	a5,a5,s9
    80000cac:	cd228893          	addi	a7,t0,-814
    80000cb0:	19e8b337          	lui	t1,0x19e8b
    80000cb4:	00656117          	auipc	sp,0x656
    80000cb8:	418c0dbb          	subw	s11,s8,s8
    80000cbc:	00f088bb          	addw	a7,ra,a5
    80000cc0:	0001                	nop
    80000cc2:	cd228893          	addi	a7,t0,-814
    80000cc6:	cd228893          	addi	a7,t0,-814
    80000cca:	97e6                	add	a5,a5,s9
    80000ccc:	98b8809b          	addiw	ra,a7,-1653
    80000cd0:	0001                	nop
    80000cd2:	537d                	li	t1,-1
    80000cd4:	ff884737          	lui	a4,0xff884
    80000cd8:	fbf7071b          	addiw	a4,a4,-65 # ffffffffff883fbf <_end+0xffffffff7f867637>
    80000cdc:	073a                	slli	a4,a4,0xe
    80000cde:	29f70713          	addi	a4,a4,671
    80000ce2:	0732                	slli	a4,a4,0xc
    80000ce4:	3e970713          	addi	a4,a4,1001
    80000ce8:	0736                	slli	a4,a4,0xd
    80000cea:	e9470713          	addi	a4,a4,-364
    80000cee:	57fd                	li	a5,-1
    80000cf0:	fff0039b          	addiw	t2,zero,-1
    80000cf4:	13fe                	slli	t2,t2,0x3f
    80000cf6:	4581                	li	a1,0
    80000cf8:	02d29d37          	lui	s10,0x2d29
    80000cfc:	46fd0d1b          	addiw	s10,s10,1135 # 2d2946f <_start-0x7d2d6b91>
    80000d00:	0d32                	slli	s10,s10,0xc
    80000d02:	343d0d13          	addi	s10,s10,835
    80000d06:	0d32                	slli	s10,s10,0xc
    80000d08:	0a9d0d13          	addi	s10,s10,169
    80000d0c:	0d36                	slli	s10,s10,0xd
    80000d0e:	d7fd0d13          	addi	s10,s10,-641
    80000d12:	fff0099b          	addiw	s3,zero,-1
    80000d16:	19fe                	slli	s3,s3,0x3f
    80000d18:	0102d137          	lui	sp,0x102d
    80000d1c:	76d1011b          	addiw	sp,sp,1901 # 102d76d <_start-0x7efd2893>
    80000d20:	0136                	slli	sp,sp,0xd
    80000d22:	ded10113          	addi	sp,sp,-531
    80000d26:	0132                	slli	sp,sp,0xc
    80000d28:	0fd10113          	addi	sp,sp,253
    80000d2c:	0132                	slli	sp,sp,0xc
    80000d2e:	1eb10113          	addi	sp,sp,491
    80000d32:	ff45cb37          	lui	s6,0xff45c
    80000d36:	2cfb0b1b          	addiw	s6,s6,719 # ffffffffff45c2cf <_end+0xffffffff7f43f947>
    80000d3a:	0b32                	slli	s6,s6,0xc
    80000d3c:	5dfb0b13          	addi	s6,s6,1503
    80000d40:	0b32                	slli	s6,s6,0xc
    80000d42:	fc5b0b13          	addi	s6,s6,-59
    80000d46:	0b36                	slli	s6,s6,0xd
    80000d48:	da5b0b13          	addi	s6,s6,-603
    80000d4c:	547d                	li	s0,-1
    80000d4e:	40f58d33          	sub	s10,a1,a5
    80000d52:	00656317          	auipc	t1,0x656
    80000d56:	19e8b437          	lui	s0,0x19e8b
    80000d5a:	00e107bb          	addw	a5,sp,a4
    80000d5e:	cd238793          	addi	a5,t2,-814 # 19e8acd2 <_start-0x6617532e>
    80000d62:	19e8b437          	lui	s0,0x19e8b
    80000d66:	cd238793          	addi	a5,t2,-814
    80000d6a:	00656317          	auipc	t1,0x656
    80000d6e:	00e107bb          	addw	a5,sp,a4
    80000d72:	00e107bb          	addw	a5,sp,a4
    80000d76:	19e8b437          	lui	s0,0x19e8b
    80000d7a:	00656317          	auipc	t1,0x656
    80000d7e:	00e107bb          	addw	a5,sp,a4
    80000d82:	41398d3b          	subw	s10,s3,s3
    80000d86:	0001                	nop
    80000d88:	19e8b437          	lui	s0,0x19e8b
    80000d8c:	41398d3b          	subw	s10,s3,s3
    80000d90:	40f58d33          	sub	s10,a1,a5
    80000d94:	975a                	add	a4,a4,s6
    80000d96:	19e8b437          	lui	s0,0x19e8b
    80000d9a:	975a                	add	a4,a4,s6
    80000d9c:	19e8b437          	lui	s0,0x19e8b
    80000da0:	98b7811b          	addiw	sp,a5,-1653
    80000da4:	00656317          	auipc	t1,0x656
    80000da8:	00656317          	auipc	t1,0x656
    80000dac:	41398d3b          	subw	s10,s3,s3
    80000db0:	8ccd                	or	s1,s1,a1
    80000db2:	00870f33          	add	t5,a4,s0
    80000db6:	406f04b3          	sub	s1,t5,t1
    80000dba:	00870f33          	add	t5,a4,s0
    80000dbe:	2d21                	addiw	s10,s10,8
    80000dc0:	4168d29b          	sraiw	t0,a7,0x16
    80000dc4:	40755e3b          	sraw	t3,a0,t2
    80000dc8:	ee38b993          	sltiu	s3,a7,-285
    80000dcc:	0652                	slli	a2,a2,0x14
    80000dce:	00f45293          	srli	t0,s0,0xf
    80000dd2:	4520e893          	ori	a7,ra,1106
    80000dd6:	19e8ba37          	lui	s4,0x19e8b
    80000dda:	8e9d                	sub	a3,a3,a5
    80000ddc:	0001                	nop
    80000dde:	42f85593          	srai	a1,a6,0x2f
    80000de2:	42f85593          	srai	a1,a6,0x2f
    80000de6:	03b39993          	slli	s3,t2,0x3b
    80000dea:	9335a213          	slti	tp,a1,-1741
    80000dee:	0652                	slli	a2,a2,0x14
    80000df0:	00065a33          	srl	s4,a2,zero
    80000df4:	ee38b993          	sltiu	s3,a7,-285
    80000df8:	01209933          	sll	s2,ra,s2
    80000dfc:	2d21                	addiw	s10,s10,8
    80000dfe:	00f45293          	srli	t0,s0,0xf
    80000e02:	0001                	nop
    80000e04:	9ea5                	addw	a3,a3,s1
    80000e06:	42f85593          	srai	a1,a6,0x2f
    80000e0a:	407b84bb          	subw	s1,s7,t2
    80000e0e:	9b8e                	add	s7,s7,gp
    80000e10:	6e8d                	lui	t4,0x3
    80000e12:	6e8d                	lui	t4,0x3
    80000e14:	8e9d                	sub	a3,a3,a5
    80000e16:	42f85593          	srai	a1,a6,0x2f
    80000e1a:	1f6dce93          	xori	t4,s11,502
    80000e1e:	197d                	addi	s2,s2,-1
    80000e20:	00656917          	auipc	s2,0x656
    80000e24:	86be                	mv	a3,a5
    80000e26:	00fdf133          	and	sp,s11,a5
    80000e2a:	00fdf133          	and	sp,s11,a5
    80000e2e:	407b84bb          	subw	s1,s7,t2
    80000e32:	00656917          	auipc	s2,0x656
    80000e36:	8dad                	xor	a1,a1,a1
    80000e38:	4168d29b          	sraiw	t0,a7,0x16
    80000e3c:	9f99                	subw	a5,a5,a4
    80000e3e:	40755e3b          	sraw	t3,a0,t2
    80000e42:	8431                	srai	s0,s0,0xc
    80000e44:	4520e893          	ori	a7,ra,1106
    80000e48:	42f85593          	srai	a1,a6,0x2f
    80000e4c:	8dad                	xor	a1,a1,a1
    80000e4e:	01209933          	sll	s2,ra,s2
    80000e52:	86be                	mv	a3,a5
    80000e54:	9ea5                	addw	a3,a3,s1
    80000e56:	9b8e                	add	s7,s7,gp
    80000e58:	0001                	nop
    80000e5a:	013fab33          	slt	s6,t6,s3
    80000e5e:	01f00c3b          	addw	s8,zero,t6
    80000e62:	717d                	addi	sp,sp,-16
    80000e64:	00fdf133          	and	sp,s11,a5
    80000e68:	1f6dce93          	xori	t4,s11,502
    80000e6c:	01a3c333          	xor	t1,t2,s10
    80000e70:	8ccd                	or	s1,s1,a1
    80000e72:	ee38b993          	sltiu	s3,a7,-285
    80000e76:	9b8e                	add	s7,s7,gp
    80000e78:	1f6dce93          	xori	t4,s11,502
    80000e7c:	0088181b          	slliw	a6,a6,0x8
    80000e80:	50fd                	li	ra,-1
    80000e82:	8c61                	and	s0,s0,s0
    80000e84:	404f5833          	sra	a6,t5,tp
    80000e88:	00870f33          	add	t5,a4,s0
    80000e8c:	00065a33          	srl	s4,a2,zero
    80000e90:	0001                	nop
    80000e92:	8dad                	xor	a1,a1,a1
    80000e94:	406f04b3          	sub	s1,t5,t1
    80000e98:	0095ebb3          	or	s7,a1,s1
    80000e9c:	8e9d                	sub	a3,a3,a5
    80000e9e:	0088181b          	slliw	a6,a6,0x8
    80000ea2:	8dad                	xor	a1,a1,a1
    80000ea4:	99fd                	andi	a1,a1,-1
    80000ea6:	197d                	addi	s2,s2,-1 # 80656e31 <_end+0x63a4a9>
    80000ea8:	f747f813          	andi	a6,a5,-140
    80000eac:	197d                	addi	s2,s2,-1
    80000eae:	8c61                	and	s0,s0,s0
    80000eb0:	00870f33          	add	t5,a4,s0
    80000eb4:	8c61                	and	s0,s0,s0
    80000eb6:	4520e893          	ori	a7,ra,1106
    80000eba:	013fab33          	slt	s6,t6,s3
    80000ebe:	8431                	srai	s0,s0,0xc
    80000ec0:	8431                	srai	s0,s0,0xc
    80000ec2:	1018                	addi	a4,sp,32
    80000ec4:	013fab33          	slt	s6,t6,s3
    80000ec8:	8431                	srai	s0,s0,0xc
    80000eca:	406f04b3          	sub	s1,t5,t1
    80000ece:	0652                	slli	a2,a2,0x14
    80000ed0:	013fab33          	slt	s6,t6,s3
    80000ed4:	0001                	nop
    80000ed6:	9f99                	subw	a5,a5,a4
    80000ed8:	40755e3b          	sraw	t3,a0,t2
    80000edc:	0088181b          	slliw	a6,a6,0x8
    80000ee0:	0001                	nop
    80000ee2:	1f6dce93          	xori	t4,s11,502
    80000ee6:	9f99                	subw	a5,a5,a4
    80000ee8:	00acb4b3          	sltu	s1,s9,a0
    80000eec:	407b84bb          	subw	s1,s7,t2
    80000ef0:	86be                	mv	a3,a5
    80000ef2:	98b3089b          	addiw	a7,t1,-1653 # ffffffff80656733 <_end+0xffffffff00639dab>
    80000ef6:	0088181b          	slliw	a6,a6,0x8
    80000efa:	00065a33          	srl	s4,a2,zero
    80000efe:	407b84bb          	subw	s1,s7,t2
    80000f02:	0095ebb3          	or	s7,a1,s1
    80000f06:	99fd                	andi	a1,a1,-1
    80000f08:	8271                	srli	a2,a2,0x1c
    80000f0a:	40755e3b          	sraw	t3,a0,t2
    80000f0e:	40755e3b          	sraw	t3,a0,t2
    80000f12:	8c61                	and	s0,s0,s0
    80000f14:	01a3c333          	xor	t1,t2,s10
    80000f18:	197d                	addi	s2,s2,-1
    80000f1a:	9ea5                	addw	a3,a3,s1
    80000f1c:	8c61                	and	s0,s0,s0
    80000f1e:	9f99                	subw	a5,a5,a4
    80000f20:	9f99                	subw	a5,a5,a4
    80000f22:	19e8ba37          	lui	s4,0x19e8b
    80000f26:	1f6dce93          	xori	t4,s11,502
    80000f2a:	cd268c13          	addi	s8,a3,-814 # 19e8acd2 <_start-0x6617532e>
    80000f2e:	1018                	addi	a4,sp,32
    80000f30:	717d                	addi	sp,sp,-16
    80000f32:	86be                	mv	a3,a5
    80000f34:	0095ebb3          	or	s7,a1,s1
    80000f38:	015d16bb          	sllw	a3,s10,s5
    80000f3c:	9335a213          	slti	tp,a1,-1741
    80000f40:	9b8e                	add	s7,s7,gp
    80000f42:	99fd                	andi	a1,a1,-1
    80000f44:	8e9d                	sub	a3,a3,a5
    80000f46:	9b8e                	add	s7,s7,gp
    80000f48:	00870f33          	add	t5,a4,s0
    80000f4c:	03b39993          	slli	s3,t2,0x3b
    80000f50:	4168d29b          	sraiw	t0,a7,0x16
    80000f54:	9335a213          	slti	tp,a1,-1741
    80000f58:	407b84bb          	subw	s1,s7,t2
    80000f5c:	01209933          	sll	s2,ra,s2
    80000f60:	8e9d                	sub	a3,a3,a5
    80000f62:	01f00c3b          	addw	s8,zero,t6
    80000f66:	f747f813          	andi	a6,a5,-140
    80000f6a:	1f6dce93          	xori	t4,s11,502
    80000f6e:	0001                	nop
    80000f70:	8e9d                	sub	a3,a3,a5
    80000f72:	99fd                	andi	a1,a1,-1
    80000f74:	0652                	slli	a2,a2,0x14
    80000f76:	8ccd                	or	s1,s1,a1
    80000f78:	03b39993          	slli	s3,t2,0x3b
    80000f7c:	9b8e                	add	s7,s7,gp
    80000f7e:	0137d79b          	srliw	a5,a5,0x13
    80000f82:	40755e3b          	sraw	t3,a0,t2
    80000f86:	00fdf133          	and	sp,s11,a5
    80000f8a:	99fd                	andi	a1,a1,-1
    80000f8c:	0652                	slli	a2,a2,0x14
    80000f8e:	00065a33          	srl	s4,a2,zero
    80000f92:	99fd                	andi	a1,a1,-1
    80000f94:	99fd                	andi	a1,a1,-1
    80000f96:	01efd0bb          	srlw	ra,t6,t5
    80000f9a:	8dad                	xor	a1,a1,a1
    80000f9c:	99fd                	andi	a1,a1,-1
    80000f9e:	8271                	srli	a2,a2,0x1c
    80000fa0:	406f04b3          	sub	s1,t5,t1
    80000fa4:	0001                	nop
    80000fa6:	6e8d                	lui	t4,0x3
    80000fa8:	0095ebb3          	or	s7,a1,s1
    80000fac:	015d16bb          	sllw	a3,s10,s5
    80000fb0:	6e8d                	lui	t4,0x3
    80000fb2:	8271                	srli	a2,a2,0x1c
    80000fb4:	f747f813          	andi	a6,a5,-140
    80000fb8:	4520e893          	ori	a7,ra,1106
    80000fbc:	0137d79b          	srliw	a5,a5,0x13
    80000fc0:	01f00c3b          	addw	s8,zero,t6
    80000fc4:	50fd                	li	ra,-1
    80000fc6:	8431                	srai	s0,s0,0xc
    80000fc8:	197d                	addi	s2,s2,-1
    80000fca:	01efd0bb          	srlw	ra,t6,t5
    80000fce:	01209933          	sll	s2,ra,s2
    80000fd2:	9b8e                	add	s7,s7,gp
    80000fd4:	00fdf133          	and	sp,s11,a5
    80000fd8:	406f04b3          	sub	s1,t5,t1
    80000fdc:	00065a33          	srl	s4,a2,zero
    80000fe0:	1018                	addi	a4,sp,32
    80000fe2:	9f99                	subw	a5,a5,a4
    80000fe4:	1018                	addi	a4,sp,32
    80000fe6:	717d                	addi	sp,sp,-16
    80000fe8:	0137d79b          	srliw	a5,a5,0x13
    80000fec:	717d                	addi	sp,sp,-16
    80000fee:	0095ebb3          	or	s7,a1,s1
    80000ff2:	0088181b          	slliw	a6,a6,0x8
    80000ff6:	01a3c333          	xor	t1,t2,s10
    80000ffa:	717d                	addi	sp,sp,-16
    80000ffc:	01f00c3b          	addw	s8,zero,t6
    80001000:	8c61                	and	s0,s0,s0
    80001002:	00870f33          	add	t5,a4,s0
    80001006:	50fd                	li	ra,-1
    80001008:	0137d79b          	srliw	a5,a5,0x13
    8000100c:	8431                	srai	s0,s0,0xc
    8000100e:	cd268c13          	addi	s8,a3,-814
    80001012:	8431                	srai	s0,s0,0xc
    80001014:	015d16bb          	sllw	a3,s10,s5
    80001018:	9ea5                	addw	a3,a3,s1
    8000101a:	8dad                	xor	a1,a1,a1
    8000101c:	406f04b3          	sub	s1,t5,t1
    80001020:	40755e3b          	sraw	t3,a0,t2
    80001024:	00656917          	auipc	s2,0x656
    80001028:	404f5833          	sra	a6,t5,tp
    8000102c:	0001                	nop
    8000102e:	00f45293          	srli	t0,s0,0xf
    80001032:	8271                	srli	a2,a2,0x1c
    80001034:	00870f33          	add	t5,a4,s0
    80001038:	407b84bb          	subw	s1,s7,t2
    8000103c:	00acb4b3          	sltu	s1,s9,a0
    80001040:	1018                	addi	a4,sp,32
    80001042:	0088181b          	slliw	a6,a6,0x8
    80001046:	0095ebb3          	or	s7,a1,s1
    8000104a:	00870f33          	add	t5,a4,s0
    8000104e:	9f99                	subw	a5,a5,a4
    80001050:	013fab33          	slt	s6,t6,s3
    80001054:	42f85593          	srai	a1,a6,0x2f
    80001058:	8431                	srai	s0,s0,0xc
    8000105a:	00acb4b3          	sltu	s1,s9,a0
    8000105e:	03b39993          	slli	s3,t2,0x3b
    80001062:	40755e3b          	sraw	t3,a0,t2
    80001066:	8431                	srai	s0,s0,0xc
    80001068:	0001                	nop
    8000106a:	406f04b3          	sub	s1,t5,t1
    8000106e:	40755e3b          	sraw	t3,a0,t2
    80001072:	f747f813          	andi	a6,a5,-140
    80001076:	8431                	srai	s0,s0,0xc
    80001078:	01efd0bb          	srlw	ra,t6,t5
    8000107c:	cd268c13          	addi	s8,a3,-814
    80001080:	01209933          	sll	s2,ra,s2
    80001084:	1f6dce93          	xori	t4,s11,502
    80001088:	00f45293          	srli	t0,s0,0xf
    8000108c:	0137d79b          	srliw	a5,a5,0x13
    80001090:	9b8e                	add	s7,s7,gp
    80001092:	03b39993          	slli	s3,t2,0x3b
    80001096:	1f6dce93          	xori	t4,s11,502
    8000109a:	404f5833          	sra	a6,t5,tp
    8000109e:	40755e3b          	sraw	t3,a0,t2
    800010a2:	8ccd                	or	s1,s1,a1
    800010a4:	03b39993          	slli	s3,t2,0x3b
    800010a8:	407b84bb          	subw	s1,s7,t2
    800010ac:	9335a213          	slti	tp,a1,-1741
    800010b0:	19e8ba37          	lui	s4,0x19e8b
    800010b4:	4168d29b          	sraiw	t0,a7,0x16
    800010b8:	0095ebb3          	or	s7,a1,s1
    800010bc:	98b3089b          	addiw	a7,t1,-1653
    800010c0:	8271                	srli	a2,a2,0x1c
    800010c2:	00870f33          	add	t5,a4,s0
    800010c6:	0088181b          	slliw	a6,a6,0x8
    800010ca:	42f85593          	srai	a1,a6,0x2f
    800010ce:	8dad                	xor	a1,a1,a1
    800010d0:	8c61                	and	s0,s0,s0
    800010d2:	01f00c3b          	addw	s8,zero,t6
    800010d6:	8c61                	and	s0,s0,s0
    800010d8:	40755e3b          	sraw	t3,a0,t2
    800010dc:	406f04b3          	sub	s1,t5,t1
    800010e0:	00acb4b3          	sltu	s1,s9,a0
    800010e4:	4168d29b          	sraiw	t0,a7,0x16
    800010e8:	01efd0bb          	srlw	ra,t6,t5
    800010ec:	8dad                	xor	a1,a1,a1
    800010ee:	8431                	srai	s0,s0,0xc
    800010f0:	197d                	addi	s2,s2,-1 # 80657023 <_end+0x63a69b>
    800010f2:	406f04b3          	sub	s1,t5,t1
    800010f6:	8c61                	and	s0,s0,s0
    800010f8:	8271                	srli	a2,a2,0x1c
    800010fa:	f747f813          	andi	a6,a5,-140
    800010fe:	f747f813          	andi	a6,a5,-140
    80001102:	8c61                	and	s0,s0,s0
    80001104:	407b84bb          	subw	s1,s7,t2
    80001108:	8c61                	and	s0,s0,s0
    8000110a:	01209933          	sll	s2,ra,s2
    8000110e:	8dad                	xor	a1,a1,a1
    80001110:	8ccd                	or	s1,s1,a1
    80001112:	9ea5                	addw	a3,a3,s1
    80001114:	407b84bb          	subw	s1,s7,t2
    80001118:	9ea5                	addw	a3,a3,s1
    8000111a:	8431                	srai	s0,s0,0xc
    8000111c:	2d21                	addiw	s10,s10,8
    8000111e:	1018                	addi	a4,sp,32
    80001120:	6e8d                	lui	t4,0x3
    80001122:	0095ebb3          	or	s7,a1,s1
    80001126:	1018                	addi	a4,sp,32
    80001128:	407b84bb          	subw	s1,s7,t2
    8000112c:	8e9d                	sub	a3,a3,a5
    8000112e:	01a3c333          	xor	t1,t2,s10
    80001132:	1f6dce93          	xori	t4,s11,502
    80001136:	01209933          	sll	s2,ra,s2
    8000113a:	cd268c13          	addi	s8,a3,-814
    8000113e:	ee38b993          	sltiu	s3,a7,-285
    80001142:	8e9d                	sub	a3,a3,a5
    80001144:	01a3c333          	xor	t1,t2,s10
    80001148:	1018                	addi	a4,sp,32
    8000114a:	2d21                	addiw	s10,s10,8
    8000114c:	197d                	addi	s2,s2,-1
    8000114e:	00fdf133          	and	sp,s11,a5
    80001152:	40755e3b          	sraw	t3,a0,t2
    80001156:	8e9d                	sub	a3,a3,a5
    80001158:	717d                	addi	sp,sp,-16
    8000115a:	4520e893          	ori	a7,ra,1106
    8000115e:	00acb4b3          	sltu	s1,s9,a0
    80001162:	8431                	srai	s0,s0,0xc
    80001164:	1018                	addi	a4,sp,32
    80001166:	03b39993          	slli	s3,t2,0x3b
    8000116a:	8ccd                	or	s1,s1,a1
    8000116c:	8e9d                	sub	a3,a3,a5
    8000116e:	f747f813          	andi	a6,a5,-140
    80001172:	00acb4b3          	sltu	s1,s9,a0
    80001176:	00f45293          	srli	t0,s0,0xf
    8000117a:	19e8ba37          	lui	s4,0x19e8b
    8000117e:	01209933          	sll	s2,ra,s2
    80001182:	f747f813          	andi	a6,a5,-140
    80001186:	99fd                	andi	a1,a1,-1
    80001188:	407b84bb          	subw	s1,s7,t2
    8000118c:	4168d29b          	sraiw	t0,a7,0x16
    80001190:	00870f33          	add	t5,a4,s0
    80001194:	2d21                	addiw	s10,s10,8
    80001196:	99fd                	andi	a1,a1,-1
    80001198:	404f5833          	sra	a6,t5,tp
    8000119c:	86be                	mv	a3,a5
    8000119e:	cd268c13          	addi	s8,a3,-814
    800011a2:	9b8e                	add	s7,s7,gp
    800011a4:	404f5833          	sra	a6,t5,tp
    800011a8:	86be                	mv	a3,a5
    800011aa:	4168d29b          	sraiw	t0,a7,0x16
    800011ae:	015d16bb          	sllw	a3,s10,s5
    800011b2:	407b84bb          	subw	s1,s7,t2
    800011b6:	197d                	addi	s2,s2,-1
    800011b8:	197d                	addi	s2,s2,-1
    800011ba:	406f04b3          	sub	s1,t5,t1
    800011be:	0001                	nop
    800011c0:	00f45293          	srli	t0,s0,0xf
    800011c4:	1f6dce93          	xori	t4,s11,502
    800011c8:	0001                	nop
    800011ca:	9f99                	subw	a5,a5,a4
    800011cc:	01efd0bb          	srlw	ra,t6,t5
    800011d0:	015d16bb          	sllw	a3,s10,s5
    800011d4:	03b39993          	slli	s3,t2,0x3b
    800011d8:	9b8e                	add	s7,s7,gp
    800011da:	8431                	srai	s0,s0,0xc
    800011dc:	8ccd                	or	s1,s1,a1
    800011de:	40755e3b          	sraw	t3,a0,t2
    800011e2:	00065a33          	srl	s4,a2,zero
    800011e6:	9f99                	subw	a5,a5,a4
    800011e8:	42f85593          	srai	a1,a6,0x2f
    800011ec:	00870f33          	add	t5,a4,s0
    800011f0:	4168d29b          	sraiw	t0,a7,0x16
    800011f4:	40755e3b          	sraw	t3,a0,t2
    800011f8:	9335a213          	slti	tp,a1,-1741
    800011fc:	50fd                	li	ra,-1
    800011fe:	2d21                	addiw	s10,s10,8
    80001200:	9335a213          	slti	tp,a1,-1741
    80001204:	015d16bb          	sllw	a3,s10,s5
    80001208:	0001                	nop
    8000120a:	406f04b3          	sub	s1,t5,t1
    8000120e:	00fdf133          	and	sp,s11,a5
    80001212:	8ccd                	or	s1,s1,a1
    80001214:	406f04b3          	sub	s1,t5,t1
    80001218:	406f04b3          	sub	s1,t5,t1
    8000121c:	8ccd                	or	s1,s1,a1
    8000121e:	99fd                	andi	a1,a1,-1
    80001220:	8e9d                	sub	a3,a3,a5
    80001222:	013fab33          	slt	s6,t6,s3
    80001226:	8431                	srai	s0,s0,0xc
    80001228:	00870f33          	add	t5,a4,s0
    8000122c:	8271                	srli	a2,a2,0x1c
    8000122e:	4168d29b          	sraiw	t0,a7,0x16
    80001232:	cd268c13          	addi	s8,a3,-814
    80001236:	01a3c333          	xor	t1,t2,s10
    8000123a:	00870f33          	add	t5,a4,s0
    8000123e:	6e8d                	lui	t4,0x3
    80001240:	8431                	srai	s0,s0,0xc
    80001242:	ee38b993          	sltiu	s3,a7,-285
    80001246:	015d16bb          	sllw	a3,s10,s5
    8000124a:	42f85593          	srai	a1,a6,0x2f
    8000124e:	9ea5                	addw	a3,a3,s1
    80001250:	19e8ba37          	lui	s4,0x19e8b
    80001254:	40755e3b          	sraw	t3,a0,t2
    80001258:	0652                	slli	a2,a2,0x14
    8000125a:	6e8d                	lui	t4,0x3
    8000125c:	9335a213          	slti	tp,a1,-1741
    80001260:	00acb4b3          	sltu	s1,s9,a0
    80001264:	0088181b          	slliw	a6,a6,0x8
    80001268:	cd268c13          	addi	s8,a3,-814
    8000126c:	00870f33          	add	t5,a4,s0
    80001270:	1018                	addi	a4,sp,32
    80001272:	717d                	addi	sp,sp,-16
    80001274:	2d21                	addiw	s10,s10,8
    80001276:	8e9d                	sub	a3,a3,a5
    80001278:	0001                	nop
    8000127a:	4168d29b          	sraiw	t0,a7,0x16
    8000127e:	8c61                	and	s0,s0,s0
    80001280:	406f04b3          	sub	s1,t5,t1
    80001284:	407b84bb          	subw	s1,s7,t2
    80001288:	717d                	addi	sp,sp,-16
    8000128a:	00656917          	auipc	s2,0x656
    8000128e:	00fdf133          	and	sp,s11,a5
    80001292:	2d21                	addiw	s10,s10,8
    80001294:	19e8ba37          	lui	s4,0x19e8b
    80001298:	f747f813          	andi	a6,a5,-140
    8000129c:	00fdf133          	and	sp,s11,a5
    800012a0:	00fdf133          	and	sp,s11,a5
    800012a4:	9b8e                	add	s7,s7,gp
    800012a6:	717d                	addi	sp,sp,-16
    800012a8:	0001                	nop
    800012aa:	01efd0bb          	srlw	ra,t6,t5
    800012ae:	00acb4b3          	sltu	s1,s9,a0
    800012b2:	ee38b993          	sltiu	s3,a7,-285
    800012b6:	98b3089b          	addiw	a7,t1,-1653
    800012ba:	86be                	mv	a3,a5
    800012bc:	40755e3b          	sraw	t3,a0,t2
    800012c0:	4520e893          	ori	a7,ra,1106
    800012c4:	4168d29b          	sraiw	t0,a7,0x16
    800012c8:	00fdf133          	and	sp,s11,a5
    800012cc:	01a3c333          	xor	t1,t2,s10
    800012d0:	01a3c333          	xor	t1,t2,s10
    800012d4:	0137d79b          	srliw	a5,a5,0x13
    800012d8:	0001                	nop
    800012da:	00acb4b3          	sltu	s1,s9,a0
    800012de:	00065a33          	srl	s4,a2,zero
    800012e2:	2d21                	addiw	s10,s10,8
    800012e4:	cd268c13          	addi	s8,a3,-814
    800012e8:	0088181b          	slliw	a6,a6,0x8
    800012ec:	9ea5                	addw	a3,a3,s1
    800012ee:	9ea5                	addw	a3,a3,s1
    800012f0:	9335a213          	slti	tp,a1,-1741
    800012f4:	4168d29b          	sraiw	t0,a7,0x16
    800012f8:	717d                	addi	sp,sp,-16
    800012fa:	4168d29b          	sraiw	t0,a7,0x16
    800012fe:	00fdf133          	and	sp,s11,a5
    80001302:	9b8e                	add	s7,s7,gp
    80001304:	00870f33          	add	t5,a4,s0
    80001308:	50fd                	li	ra,-1
    8000130a:	01a3c333          	xor	t1,t2,s10
    8000130e:	0095ebb3          	or	s7,a1,s1
    80001312:	407b84bb          	subw	s1,s7,t2
    80001316:	8431                	srai	s0,s0,0xc
    80001318:	03b39993          	slli	s3,t2,0x3b
    8000131c:	00f45293          	srli	t0,s0,0xf
    80001320:	0095ebb3          	or	s7,a1,s1
    80001324:	4520e893          	ori	a7,ra,1106
    80001328:	0088181b          	slliw	a6,a6,0x8
    8000132c:	0095ebb3          	or	s7,a1,s1
    80001330:	717d                	addi	sp,sp,-16
    80001332:	8dad                	xor	a1,a1,a1
    80001334:	0001                	nop
    80001336:	717d                	addi	sp,sp,-16
    80001338:	8dad                	xor	a1,a1,a1
    8000133a:	407b84bb          	subw	s1,s7,t2
    8000133e:	86be                	mv	a3,a5
    80001340:	0001                	nop
    80001342:	0001                	nop
    80001344:	8c61                	and	s0,s0,s0
    80001346:	013fab33          	slt	s6,t6,s3
    8000134a:	99fd                	andi	a1,a1,-1
    8000134c:	9335a213          	slti	tp,a1,-1741
    80001350:	01efd0bb          	srlw	ra,t6,t5
    80001354:	8dad                	xor	a1,a1,a1
    80001356:	01a3c333          	xor	t1,t2,s10
    8000135a:	9ea5                	addw	a3,a3,s1
    8000135c:	0652                	slli	a2,a2,0x14
    8000135e:	99fd                	andi	a1,a1,-1
    80001360:	50fd                	li	ra,-1
    80001362:	8dad                	xor	a1,a1,a1
    80001364:	9f99                	subw	a5,a5,a4
    80001366:	9f99                	subw	a5,a5,a4
    80001368:	8431                	srai	s0,s0,0xc
    8000136a:	00065a33          	srl	s4,a2,zero
    8000136e:	01f00c3b          	addw	s8,zero,t6
    80001372:	1f6dce93          	xori	t4,s11,502
    80001376:	99fd                	andi	a1,a1,-1
    80001378:	00870f33          	add	t5,a4,s0
    8000137c:	00fdf133          	and	sp,s11,a5
    80001380:	0088181b          	slliw	a6,a6,0x8
    80001384:	00fdf133          	and	sp,s11,a5
    80001388:	8dad                	xor	a1,a1,a1
    8000138a:	99fd                	andi	a1,a1,-1
    8000138c:	8271                	srli	a2,a2,0x1c
    8000138e:	01a3c333          	xor	t1,t2,s10
    80001392:	9b8e                	add	s7,s7,gp
    80001394:	1f6dce93          	xori	t4,s11,502
    80001398:	8ccd                	or	s1,s1,a1
    8000139a:	50fd                	li	ra,-1
    8000139c:	0088181b          	slliw	a6,a6,0x8
    800013a0:	50fd                	li	ra,-1
    800013a2:	013fab33          	slt	s6,t6,s3
    800013a6:	407b84bb          	subw	s1,s7,t2
    800013aa:	99fd                	andi	a1,a1,-1
    800013ac:	f747f813          	andi	a6,a5,-140
    800013b0:	00fdf133          	and	sp,s11,a5
    800013b4:	40755e3b          	sraw	t3,a0,t2
    800013b8:	197d                	addi	s2,s2,-1 # 80657289 <_end+0x63a901>
    800013ba:	0137d79b          	srliw	a5,a5,0x13
    800013be:	407b84bb          	subw	s1,s7,t2
    800013c2:	19e8ba37          	lui	s4,0x19e8b
    800013c6:	8e9d                	sub	a3,a3,a5
    800013c8:	1018                	addi	a4,sp,32
    800013ca:	00f45293          	srli	t0,s0,0xf
    800013ce:	4168d29b          	sraiw	t0,a7,0x16
    800013d2:	9b8e                	add	s7,s7,gp
    800013d4:	42f85593          	srai	a1,a6,0x2f
    800013d8:	00065a33          	srl	s4,a2,zero
    800013dc:	40755e3b          	sraw	t3,a0,t2
    800013e0:	8e9d                	sub	a3,a3,a5
    800013e2:	0137d79b          	srliw	a5,a5,0x13
    800013e6:	0095ebb3          	or	s7,a1,s1
    800013ea:	00870f33          	add	t5,a4,s0
    800013ee:	01a3c333          	xor	t1,t2,s10
    800013f2:	9f99                	subw	a5,a5,a4
    800013f4:	407b84bb          	subw	s1,s7,t2
    800013f8:	98b3089b          	addiw	a7,t1,-1653
    800013fc:	9335a213          	slti	tp,a1,-1741
    80001400:	0137d79b          	srliw	a5,a5,0x13
    80001404:	00065a33          	srl	s4,a2,zero
    80001408:	00fdf133          	and	sp,s11,a5
    8000140c:	407b84bb          	subw	s1,s7,t2
    80001410:	8271                	srli	a2,a2,0x1c
    80001412:	8dad                	xor	a1,a1,a1
    80001414:	6e8d                	lui	t4,0x3
    80001416:	0095ebb3          	or	s7,a1,s1
    8000141a:	1f6dce93          	xori	t4,s11,502
    8000141e:	9b8e                	add	s7,s7,gp
    80001420:	f747f813          	andi	a6,a5,-140
    80001424:	98b3089b          	addiw	a7,t1,-1653
    80001428:	cd268c13          	addi	s8,a3,-814
    8000142c:	8c61                	and	s0,s0,s0
    8000142e:	01a3c333          	xor	t1,t2,s10
    80001432:	404f5833          	sra	a6,t5,tp
    80001436:	013fab33          	slt	s6,t6,s3
    8000143a:	4520e893          	ori	a7,ra,1106
    8000143e:	013fab33          	slt	s6,t6,s3
    80001442:	19e8ba37          	lui	s4,0x19e8b
    80001446:	00acb4b3          	sltu	s1,s9,a0
    8000144a:	19e8ba37          	lui	s4,0x19e8b
    8000144e:	42f85593          	srai	a1,a6,0x2f
    80001452:	406f04b3          	sub	s1,t5,t1
    80001456:	cd268c13          	addi	s8,a3,-814
    8000145a:	4520e893          	ori	a7,ra,1106
    8000145e:	50fd                	li	ra,-1
    80001460:	6e8d                	lui	t4,0x3
    80001462:	86be                	mv	a3,a5
    80001464:	00acb4b3          	sltu	s1,s9,a0
    80001468:	00acb4b3          	sltu	s1,s9,a0
    8000146c:	0652                	slli	a2,a2,0x14
    8000146e:	01209933          	sll	s2,ra,s2
    80001472:	00870f33          	add	t5,a4,s0
    80001476:	013fab33          	slt	s6,t6,s3
    8000147a:	406f04b3          	sub	s1,t5,t1
    8000147e:	8dad                	xor	a1,a1,a1
    80001480:	00870f33          	add	t5,a4,s0
    80001484:	9f99                	subw	a5,a5,a4
    80001486:	8c61                	and	s0,s0,s0
    80001488:	00fdf133          	and	sp,s11,a5
    8000148c:	0652                	slli	a2,a2,0x14
    8000148e:	42f85593          	srai	a1,a6,0x2f
    80001492:	0088181b          	slliw	a6,a6,0x8
    80001496:	01209933          	sll	s2,ra,s2
    8000149a:	00065a33          	srl	s4,a2,zero
    8000149e:	f747f813          	andi	a6,a5,-140
    800014a2:	01f00c3b          	addw	s8,zero,t6
    800014a6:	86be                	mv	a3,a5
    800014a8:	407b84bb          	subw	s1,s7,t2
    800014ac:	1f6dce93          	xori	t4,s11,502
    800014b0:	01209933          	sll	s2,ra,s2
    800014b4:	00656917          	auipc	s2,0x656
    800014b8:	0001                	nop
    800014ba:	00870f33          	add	t5,a4,s0
    800014be:	99fd                	andi	a1,a1,-1
    800014c0:	0001                	nop
    800014c2:	00f45293          	srli	t0,s0,0xf
    800014c6:	01efd0bb          	srlw	ra,t6,t5
    800014ca:	717d                	addi	sp,sp,-16
    800014cc:	0088181b          	slliw	a6,a6,0x8
    800014d0:	8e9d                	sub	a3,a3,a5
    800014d2:	00f45293          	srli	t0,s0,0xf
    800014d6:	86be                	mv	a3,a5
    800014d8:	00f45293          	srli	t0,s0,0xf
    800014dc:	ee38b993          	sltiu	s3,a7,-285
    800014e0:	00fdf133          	and	sp,s11,a5
    800014e4:	4520e893          	ori	a7,ra,1106
    800014e8:	407b84bb          	subw	s1,s7,t2
    800014ec:	00fdf133          	and	sp,s11,a5
    800014f0:	42f85593          	srai	a1,a6,0x2f
    800014f4:	00acb4b3          	sltu	s1,s9,a0
    800014f8:	4168d29b          	sraiw	t0,a7,0x16
    800014fc:	8271                	srli	a2,a2,0x1c
    800014fe:	8431                	srai	s0,s0,0xc
    80001500:	0652                	slli	a2,a2,0x14
    80001502:	01a3c333          	xor	t1,t2,s10
    80001506:	00fdf133          	and	sp,s11,a5
    8000150a:	00acb4b3          	sltu	s1,s9,a0
    8000150e:	0001                	nop
    80001510:	407b84bb          	subw	s1,s7,t2
    80001514:	8e9d                	sub	a3,a3,a5
    80001516:	407b84bb          	subw	s1,s7,t2
    8000151a:	404f5833          	sra	a6,t5,tp
    8000151e:	86be                	mv	a3,a5
    80001520:	f747f813          	andi	a6,a5,-140
    80001524:	8ccd                	or	s1,s1,a1
    80001526:	f747f813          	andi	a6,a5,-140
    8000152a:	407b84bb          	subw	s1,s7,t2
    8000152e:	4520e893          	ori	a7,ra,1106
    80001532:	50fd                	li	ra,-1
    80001534:	407b84bb          	subw	s1,s7,t2
    80001538:	4520e893          	ori	a7,ra,1106
    8000153c:	406f04b3          	sub	s1,t5,t1
    80001540:	00f45293          	srli	t0,s0,0xf
    80001544:	86be                	mv	a3,a5
    80001546:	0001                	nop
    80001548:	00f45293          	srli	t0,s0,0xf
    8000154c:	cd268c13          	addi	s8,a3,-814
    80001550:	197d                	addi	s2,s2,-1 # 806574b3 <_end+0x63ab2b>
    80001552:	01efd0bb          	srlw	ra,t6,t5
    80001556:	1018                	addi	a4,sp,32
    80001558:	0137d79b          	srliw	a5,a5,0x13
    8000155c:	9b8e                	add	s7,s7,gp
    8000155e:	6e8d                	lui	t4,0x3
    80001560:	42f85593          	srai	a1,a6,0x2f
    80001564:	8ccd                	or	s1,s1,a1
    80001566:	ee38b993          	sltiu	s3,a7,-285
    8000156a:	4520e893          	ori	a7,ra,1106
    8000156e:	8dad                	xor	a1,a1,a1
    80001570:	8dad                	xor	a1,a1,a1
    80001572:	86be                	mv	a3,a5
    80001574:	00f45293          	srli	t0,s0,0xf
    80001578:	404f5833          	sra	a6,t5,tp
    8000157c:	42f85593          	srai	a1,a6,0x2f
    80001580:	01efd0bb          	srlw	ra,t6,t5
    80001584:	19e8ba37          	lui	s4,0x19e8b
    80001588:	50fd                	li	ra,-1
    8000158a:	ee38b993          	sltiu	s3,a7,-285
    8000158e:	0001                	nop
    80001590:	9b8e                	add	s7,s7,gp
    80001592:	0652                	slli	a2,a2,0x14
    80001594:	0088181b          	slliw	a6,a6,0x8
    80001598:	6e8d                	lui	t4,0x3
    8000159a:	9b8e                	add	s7,s7,gp
    8000159c:	4520e893          	ori	a7,ra,1106
    800015a0:	013fab33          	slt	s6,t6,s3
    800015a4:	0001                	nop
    800015a6:	8271                	srli	a2,a2,0x1c
    800015a8:	404f5833          	sra	a6,t5,tp
    800015ac:	0001                	nop
    800015ae:	01209933          	sll	s2,ra,s2
    800015b2:	00065a33          	srl	s4,a2,zero
    800015b6:	404f5833          	sra	a6,t5,tp
    800015ba:	015d16bb          	sllw	a3,s10,s5
    800015be:	1018                	addi	a4,sp,32
    800015c0:	0652                	slli	a2,a2,0x14
    800015c2:	98b3089b          	addiw	a7,t1,-1653
    800015c6:	00065a33          	srl	s4,a2,zero
    800015ca:	015d16bb          	sllw	a3,s10,s5
    800015ce:	0652                	slli	a2,a2,0x14
    800015d0:	6e8d                	lui	t4,0x3
    800015d2:	0001                	nop
    800015d4:	8dad                	xor	a1,a1,a1
    800015d6:	9ea5                	addw	a3,a3,s1
    800015d8:	cd268c13          	addi	s8,a3,-814
    800015dc:	50fd                	li	ra,-1
    800015de:	197d                	addi	s2,s2,-1
    800015e0:	0001                	nop
    800015e2:	40755e3b          	sraw	t3,a0,t2
    800015e6:	1018                	addi	a4,sp,32
    800015e8:	717d                	addi	sp,sp,-16
    800015ea:	0095ebb3          	or	s7,a1,s1
    800015ee:	99fd                	andi	a1,a1,-1
    800015f0:	0137d79b          	srliw	a5,a5,0x13
    800015f4:	00870f33          	add	t5,a4,s0
    800015f8:	0137d79b          	srliw	a5,a5,0x13
    800015fc:	ee38b993          	sltiu	s3,a7,-285
    80001600:	9b8e                	add	s7,s7,gp
    80001602:	717d                	addi	sp,sp,-16
    80001604:	00065a33          	srl	s4,a2,zero
    80001608:	015d16bb          	sllw	a3,s10,s5
    8000160c:	00f45293          	srli	t0,s0,0xf
    80001610:	404f5833          	sra	a6,t5,tp
    80001614:	01a3c333          	xor	t1,t2,s10
    80001618:	4520e893          	ori	a7,ra,1106
    8000161c:	197d                	addi	s2,s2,-1
    8000161e:	404f5833          	sra	a6,t5,tp
    80001622:	0137d79b          	srliw	a5,a5,0x13
    80001626:	01f00c3b          	addw	s8,zero,t6
    8000162a:	42f85593          	srai	a1,a6,0x2f
    8000162e:	197d                	addi	s2,s2,-1
    80001630:	42f85593          	srai	a1,a6,0x2f
    80001634:	2d21                	addiw	s10,s10,8
    80001636:	8dad                	xor	a1,a1,a1
    80001638:	6e8d                	lui	t4,0x3
    8000163a:	42f85593          	srai	a1,a6,0x2f
    8000163e:	00870f33          	add	t5,a4,s0
    80001642:	0001                	nop
    80001644:	8431                	srai	s0,s0,0xc
    80001646:	99fd                	andi	a1,a1,-1
    80001648:	00656917          	auipc	s2,0x656
    8000164c:	717d                	addi	sp,sp,-16
    8000164e:	50fd                	li	ra,-1
    80001650:	013fab33          	slt	s6,t6,s3
    80001654:	00fdf133          	and	sp,s11,a5
    80001658:	9f99                	subw	a5,a5,a4
    8000165a:	1f6dce93          	xori	t4,s11,502
    8000165e:	0001                	nop
    80001660:	0137d79b          	srliw	a5,a5,0x13
    80001664:	0088181b          	slliw	a6,a6,0x8
    80001668:	0088181b          	slliw	a6,a6,0x8
    8000166c:	8e9d                	sub	a3,a3,a5
    8000166e:	00656917          	auipc	s2,0x656
    80001672:	406f04b3          	sub	s1,t5,t1
    80001676:	00870f33          	add	t5,a4,s0
    8000167a:	0095ebb3          	or	s7,a1,s1
    8000167e:	9ea5                	addw	a3,a3,s1
    80001680:	0001                	nop
    80001682:	cd268c13          	addi	s8,a3,-814
    80001686:	99fd                	andi	a1,a1,-1
    80001688:	0137d79b          	srliw	a5,a5,0x13
    8000168c:	4520e893          	ori	a7,ra,1106
    80001690:	cd268c13          	addi	s8,a3,-814
    80001694:	0001                	nop
    80001696:	86be                	mv	a3,a5
    80001698:	8dad                	xor	a1,a1,a1
    8000169a:	01f00c3b          	addw	s8,zero,t6
    8000169e:	9ea5                	addw	a3,a3,s1
    800016a0:	407b84bb          	subw	s1,s7,t2
    800016a4:	0095ebb3          	or	s7,a1,s1
    800016a8:	cd268c13          	addi	s8,a3,-814
    800016ac:	01f00c3b          	addw	s8,zero,t6
    800016b0:	42f85593          	srai	a1,a6,0x2f
    800016b4:	9ea5                	addw	a3,a3,s1
    800016b6:	9ea5                	addw	a3,a3,s1
    800016b8:	9f99                	subw	a5,a5,a4
    800016ba:	2d21                	addiw	s10,s10,8
    800016bc:	19e8ba37          	lui	s4,0x19e8b
    800016c0:	9ea5                	addw	a3,a3,s1
    800016c2:	0088181b          	slliw	a6,a6,0x8
    800016c6:	f747f813          	andi	a6,a5,-140
    800016ca:	cd268c13          	addi	s8,a3,-814
    800016ce:	9b8e                	add	s7,s7,gp
    800016d0:	8c61                	and	s0,s0,s0
    800016d2:	42f85593          	srai	a1,a6,0x2f
    800016d6:	4520e893          	ori	a7,ra,1106
    800016da:	0095ebb3          	or	s7,a1,s1
    800016de:	40755e3b          	sraw	t3,a0,t2
    800016e2:	717d                	addi	sp,sp,-16
    800016e4:	6e8d                	lui	t4,0x3
    800016e6:	00fdf133          	and	sp,s11,a5
    800016ea:	0001                	nop
    800016ec:	8e9d                	sub	a3,a3,a5
    800016ee:	0095ebb3          	or	s7,a1,s1
    800016f2:	cd268c13          	addi	s8,a3,-814
    800016f6:	50fd                	li	ra,-1
    800016f8:	9335a213          	slti	tp,a1,-1741
    800016fc:	00870f33          	add	t5,a4,s0
    80001700:	8c61                	and	s0,s0,s0
    80001702:	00f45293          	srli	t0,s0,0xf
    80001706:	9ea5                	addw	a3,a3,s1
    80001708:	0652                	slli	a2,a2,0x14
    8000170a:	8ccd                	or	s1,s1,a1
    8000170c:	407b84bb          	subw	s1,s7,t2
    80001710:	9b8e                	add	s7,s7,gp
    80001712:	8dad                	xor	a1,a1,a1
    80001714:	4520e893          	ori	a7,ra,1106
    80001718:	00065a33          	srl	s4,a2,zero
    8000171c:	0137d79b          	srliw	a5,a5,0x13
    80001720:	407b84bb          	subw	s1,s7,t2
    80001724:	8e9d                	sub	a3,a3,a5
    80001726:	0088181b          	slliw	a6,a6,0x8
    8000172a:	8c61                	and	s0,s0,s0
    8000172c:	8271                	srli	a2,a2,0x1c
    8000172e:	4520e893          	ori	a7,ra,1106
    80001732:	8e9d                	sub	a3,a3,a5
    80001734:	1f6dce93          	xori	t4,s11,502
    80001738:	404f5833          	sra	a6,t5,tp
    8000173c:	98b3089b          	addiw	a7,t1,-1653
    80001740:	8431                	srai	s0,s0,0xc
    80001742:	015d16bb          	sllw	a3,s10,s5
    80001746:	50fd                	li	ra,-1
    80001748:	0095ebb3          	or	s7,a1,s1
    8000174c:	99fd                	andi	a1,a1,-1
    8000174e:	00065a33          	srl	s4,a2,zero
    80001752:	00656917          	auipc	s2,0x656
    80001756:	8c61                	and	s0,s0,s0
    80001758:	0095ebb3          	or	s7,a1,s1
    8000175c:	42f85593          	srai	a1,a6,0x2f
    80001760:	00656917          	auipc	s2,0x656
    80001764:	407b84bb          	subw	s1,s7,t2
    80001768:	6e8d                	lui	t4,0x3
    8000176a:	86be                	mv	a3,a5
    8000176c:	01209933          	sll	s2,ra,s2
    80001770:	98b3089b          	addiw	a7,t1,-1653
    80001774:	01efd0bb          	srlw	ra,t6,t5
    80001778:	407b84bb          	subw	s1,s7,t2
    8000177c:	01f00c3b          	addw	s8,zero,t6
    80001780:	86be                	mv	a3,a5
    80001782:	9b8e                	add	s7,s7,gp
    80001784:	8ccd                	or	s1,s1,a1
    80001786:	406f04b3          	sub	s1,t5,t1
    8000178a:	406f04b3          	sub	s1,t5,t1
    8000178e:	01a3c333          	xor	t1,t2,s10
    80001792:	9f99                	subw	a5,a5,a4
    80001794:	00acb4b3          	sltu	s1,s9,a0
    80001798:	1f6dce93          	xori	t4,s11,502
    8000179c:	407b84bb          	subw	s1,s7,t2
    800017a0:	cd268c13          	addi	s8,a3,-814
    800017a4:	8c61                	and	s0,s0,s0
    800017a6:	4520e893          	ori	a7,ra,1106
    800017aa:	1f6dce93          	xori	t4,s11,502
    800017ae:	015d16bb          	sllw	a3,s10,s5
    800017b2:	86be                	mv	a3,a5
    800017b4:	406f04b3          	sub	s1,t5,t1
    800017b8:	0088181b          	slliw	a6,a6,0x8
    800017bc:	406f04b3          	sub	s1,t5,t1
    800017c0:	8431                	srai	s0,s0,0xc
    800017c2:	2d21                	addiw	s10,s10,8
    800017c4:	50fd                	li	ra,-1
    800017c6:	9b8e                	add	s7,s7,gp
    800017c8:	8271                	srli	a2,a2,0x1c
    800017ca:	013fab33          	slt	s6,t6,s3
    800017ce:	00065a33          	srl	s4,a2,zero
    800017d2:	0088181b          	slliw	a6,a6,0x8
    800017d6:	99fd                	andi	a1,a1,-1
    800017d8:	8c61                	and	s0,s0,s0
    800017da:	0088181b          	slliw	a6,a6,0x8
    800017de:	9335a213          	slti	tp,a1,-1741
    800017e2:	9f99                	subw	a5,a5,a4
    800017e4:	50fd                	li	ra,-1
    800017e6:	03b39993          	slli	s3,t2,0x3b
    800017ea:	42f85593          	srai	a1,a6,0x2f
    800017ee:	0652                	slli	a2,a2,0x14
    800017f0:	406f04b3          	sub	s1,t5,t1
    800017f4:	42f85593          	srai	a1,a6,0x2f
    800017f8:	cd268c13          	addi	s8,a3,-814
    800017fc:	9b8e                	add	s7,s7,gp
    800017fe:	50fd                	li	ra,-1
    80001800:	00f45293          	srli	t0,s0,0xf
    80001804:	00f45293          	srli	t0,s0,0xf
    80001808:	0137d79b          	srliw	a5,a5,0x13
    8000180c:	8e9d                	sub	a3,a3,a5
    8000180e:	8e9d                	sub	a3,a3,a5
    80001810:	42f85593          	srai	a1,a6,0x2f
    80001814:	03b39993          	slli	s3,t2,0x3b
    80001818:	4520e893          	ori	a7,ra,1106
    8000181c:	00f45293          	srli	t0,s0,0xf
    80001820:	98b3089b          	addiw	a7,t1,-1653
    80001824:	8271                	srli	a2,a2,0x1c
    80001826:	42f85593          	srai	a1,a6,0x2f
    8000182a:	9335a213          	slti	tp,a1,-1741
    8000182e:	9f99                	subw	a5,a5,a4
    80001830:	4520e893          	ori	a7,ra,1106
    80001834:	8ccd                	or	s1,s1,a1
    80001836:	8e9d                	sub	a3,a3,a5
    80001838:	01efd0bb          	srlw	ra,t6,t5
    8000183c:	0088181b          	slliw	a6,a6,0x8
    80001840:	015d16bb          	sllw	a3,s10,s5
    80001844:	50fd                	li	ra,-1
    80001846:	9335a213          	slti	tp,a1,-1741
    8000184a:	717d                	addi	sp,sp,-16
    8000184c:	8e9d                	sub	a3,a3,a5
    8000184e:	0137d79b          	srliw	a5,a5,0x13
    80001852:	9ea5                	addw	a3,a3,s1
    80001854:	4168d29b          	sraiw	t0,a7,0x16
    80001858:	717d                	addi	sp,sp,-16
    8000185a:	717d                	addi	sp,sp,-16
    8000185c:	50fd                	li	ra,-1
    8000185e:	8c61                	and	s0,s0,s0
    80001860:	8e9d                	sub	a3,a3,a5
    80001862:	00acb4b3          	sltu	s1,s9,a0
    80001866:	9f99                	subw	a5,a5,a4
    80001868:	01efd0bb          	srlw	ra,t6,t5
    8000186c:	40755e3b          	sraw	t3,a0,t2
    80001870:	4168d29b          	sraiw	t0,a7,0x16
    80001874:	9335a213          	slti	tp,a1,-1741
    80001878:	19e8ba37          	lui	s4,0x19e8b
    8000187c:	01a3c333          	xor	t1,t2,s10
    80001880:	9ea5                	addw	a3,a3,s1
    80001882:	99fd                	andi	a1,a1,-1
    80001884:	42f85593          	srai	a1,a6,0x2f
    80001888:	9ea5                	addw	a3,a3,s1
    8000188a:	8271                	srli	a2,a2,0x1c
    8000188c:	00870f33          	add	t5,a4,s0
    80001890:	f747f813          	andi	a6,a5,-140
    80001894:	2d21                	addiw	s10,s10,8
    80001896:	0137d79b          	srliw	a5,a5,0x13
    8000189a:	6e8d                	lui	t4,0x3
    8000189c:	013fab33          	slt	s6,t6,s3
    800018a0:	013fab33          	slt	s6,t6,s3
    800018a4:	197d                	addi	s2,s2,-1 # 8065775f <_end+0x63add7>
    800018a6:	19e8ba37          	lui	s4,0x19e8b
    800018aa:	01f00c3b          	addw	s8,zero,t6
    800018ae:	197d                	addi	s2,s2,-1
    800018b0:	406f04b3          	sub	s1,t5,t1
    800018b4:	013fab33          	slt	s6,t6,s3
    800018b8:	03b39993          	slli	s3,t2,0x3b
    800018bc:	98b3089b          	addiw	a7,t1,-1653
    800018c0:	8271                	srli	a2,a2,0x1c
    800018c2:	01a3c333          	xor	t1,t2,s10
    800018c6:	00acb4b3          	sltu	s1,s9,a0
    800018ca:	406f04b3          	sub	s1,t5,t1
    800018ce:	cd268c13          	addi	s8,a3,-814
    800018d2:	9ea5                	addw	a3,a3,s1
    800018d4:	8ccd                	or	s1,s1,a1
    800018d6:	013fab33          	slt	s6,t6,s3
    800018da:	6e8d                	lui	t4,0x3
    800018dc:	0095ebb3          	or	s7,a1,s1
    800018e0:	01a3c333          	xor	t1,t2,s10
    800018e4:	42f85593          	srai	a1,a6,0x2f
    800018e8:	015d16bb          	sllw	a3,s10,s5
    800018ec:	015d16bb          	sllw	a3,s10,s5
    800018f0:	9335a213          	slti	tp,a1,-1741
    800018f4:	0001                	nop
    800018f6:	8271                	srli	a2,a2,0x1c
    800018f8:	0001                	nop
    800018fa:	8431                	srai	s0,s0,0xc
    800018fc:	01f00c3b          	addw	s8,zero,t6
    80001900:	8dad                	xor	a1,a1,a1
    80001902:	8ccd                	or	s1,s1,a1
    80001904:	01a3c333          	xor	t1,t2,s10
    80001908:	9ea5                	addw	a3,a3,s1
    8000190a:	4520e893          	ori	a7,ra,1106
    8000190e:	0095ebb3          	or	s7,a1,s1
    80001912:	98b3089b          	addiw	a7,t1,-1653
    80001916:	fff0041b          	addiw	s0,zero,-1
    8000191a:	147e                	slli	s0,s0,0x3f
    8000191c:	55fd                	li	a1,-1
    8000191e:	ff2461b7          	lui	gp,0xff246
    80001922:	2b71819b          	addiw	gp,gp,695 # ffffffffff2462b7 <_end+0xffffffff7f22992f>
    80001926:	01b2                	slli	gp,gp,0xc
    80001928:	caf18193          	addi	gp,gp,-849
    8000192c:	01b6                	slli	gp,gp,0xd
    8000192e:	14518193          	addi	gp,gp,325
    80001932:	01b2                	slli	gp,gp,0xc
    80001934:	9ce18193          	addi	gp,gp,-1586
    80001938:	fff00c9b          	addiw	s9,zero,-1
    8000193c:	1cfe                	slli	s9,s9,0x3f
    8000193e:	5dfd                	li	s11,-1
    80001940:	03c809b7          	lui	s3,0x3c80
    80001944:	c6f9899b          	addiw	s3,s3,-913 # 3c7fc6f <_start-0x7c380391>
    80001948:	09b2                	slli	s3,s3,0xc
    8000194a:	8c598993          	addi	s3,s3,-1851
    8000194e:	09b2                	slli	s3,s3,0xc
    80001950:	c0798993          	addi	s3,s3,-1017
    80001954:	09b6                	slli	s3,s3,0xd
    80001956:	f5598993          	addi	s3,s3,-171
    8000195a:	53fd                	li	t2,-1
    8000195c:	4301                	li	t1,0
    8000195e:	5a7d                	li	s4,-1
    80001960:	ffd7cc37          	lui	s8,0xffd7c
    80001964:	affc0c1b          	addiw	s8,s8,-1281 # ffffffffffd7baff <_end+0xffffffff7fd5f177>
    80001968:	0c32                	slli	s8,s8,0xc
    8000196a:	6d9c0c13          	addi	s8,s8,1753
    8000196e:	0c42                	slli	s8,s8,0x10
    80001970:	c7bc0c13          	addi	s8,s8,-901
    80001974:	0c32                	slli	s8,s8,0xc
    80001976:	df9c0c13          	addi	s8,s8,-519
    8000197a:	418c0dbb          	subw	s11,s8,s8
    8000197e:	99e6                	add	s3,s3,s9
    80001980:	98ba019b          	addiw	gp,s4,-1653 # 19e8a98b <_start-0x66175675>
    80001984:	418c0dbb          	subw	s11,s8,s8
    80001988:	cd238a13          	addi	s4,t2,-814
    8000198c:	19e8b437          	lui	s0,0x19e8b
    80001990:	19e8b437          	lui	s0,0x19e8b
    80001994:	19e8b437          	lui	s0,0x19e8b
    80001998:	00656317          	auipc	t1,0x656
    8000199c:	cd238a13          	addi	s4,t2,-814
    800019a0:	19e8b437          	lui	s0,0x19e8b
    800019a4:	98ba019b          	addiw	gp,s4,-1653
    800019a8:	0001                	nop
    800019aa:	418c0dbb          	subw	s11,s8,s8
    800019ae:	00656317          	auipc	t1,0x656
    800019b2:	418c0dbb          	subw	s11,s8,s8
    800019b6:	19e8b437          	lui	s0,0x19e8b
    800019ba:	cd238a13          	addi	s4,t2,-814
    800019be:	41458db3          	sub	s11,a1,s4
    800019c2:	99e6                	add	s3,s3,s9
    800019c4:	418c0dbb          	subw	s11,s8,s8
    800019c8:	99e6                	add	s3,s3,s9
    800019ca:	19e8b437          	lui	s0,0x19e8b
    800019ce:	0001                	nop
    800019d0:	01318a3b          	addw	s4,gp,s3
    800019d4:	98ba019b          	addiw	gp,s4,-1653
    800019d8:	99e6                	add	s3,s3,s9
    800019da:	00656317          	auipc	t1,0x656
    800019de:	cd238a13          	addi	s4,t2,-814
    800019e2:	99e6                	add	s3,s3,s9
    800019e4:	86be                	mv	a3,a5
    800019e6:	42f85593          	srai	a1,a6,0x2f
    800019ea:	0001                	nop
    800019ec:	86be                	mv	a3,a5
    800019ee:	ee38b993          	sltiu	s3,a7,-285
    800019f2:	0652                	slli	a2,a2,0x14
    800019f4:	6e8d                	lui	t4,0x3
    800019f6:	ee38b993          	sltiu	s3,a7,-285
    800019fa:	42f85593          	srai	a1,a6,0x2f
    800019fe:	42f85593          	srai	a1,a6,0x2f
    80001a02:	015d16bb          	sllw	a3,s10,s5
    80001a06:	4168d29b          	sraiw	t0,a7,0x16
    80001a0a:	0652                	slli	a2,a2,0x14
    80001a0c:	013fab33          	slt	s6,t6,s3
    80001a10:	00656917          	auipc	s2,0x656
    80001a14:	0001                	nop
    80001a16:	8dad                	xor	a1,a1,a1
    80001a18:	8431                	srai	s0,s0,0xc
    80001a1a:	406f04b3          	sub	s1,t5,t1
    80001a1e:	ee38b993          	sltiu	s3,a7,-285
    80001a22:	1018                	addi	a4,sp,32
    80001a24:	ee38b993          	sltiu	s3,a7,-285
    80001a28:	01efd0bb          	srlw	ra,t6,t5
    80001a2c:	1f6dce93          	xori	t4,s11,502
    80001a30:	9f99                	subw	a5,a5,a4
    80001a32:	407b84bb          	subw	s1,s7,t2
    80001a36:	9f99                	subw	a5,a5,a4
    80001a38:	8e9d                	sub	a3,a3,a5
    80001a3a:	42f85593          	srai	a1,a6,0x2f
    80001a3e:	01f00c3b          	addw	s8,zero,t6
    80001a42:	00acb4b3          	sltu	s1,s9,a0
    80001a46:	404f5833          	sra	a6,t5,tp
    80001a4a:	4168d29b          	sraiw	t0,a7,0x16
    80001a4e:	9335a213          	slti	tp,a1,-1741
    80001a52:	0001                	nop
    80001a54:	0095ebb3          	or	s7,a1,s1
    80001a58:	50fd                	li	ra,-1
    80001a5a:	4520e893          	ori	a7,ra,1106
    80001a5e:	197d                	addi	s2,s2,-1 # 80657a0f <_end+0x63b087>
    80001a60:	01209933          	sll	s2,ra,s2
    80001a64:	406f04b3          	sub	s1,t5,t1
    80001a68:	8dad                	xor	a1,a1,a1
    80001a6a:	0088181b          	slliw	a6,a6,0x8
    80001a6e:	0137d79b          	srliw	a5,a5,0x13
    80001a72:	407b84bb          	subw	s1,s7,t2
    80001a76:	19e8ba37          	lui	s4,0x19e8b
    80001a7a:	00065a33          	srl	s4,a2,zero
    80001a7e:	406f04b3          	sub	s1,t5,t1
    80001a82:	50fd                	li	ra,-1
    80001a84:	00870f33          	add	t5,a4,s0
    80001a88:	0095ebb3          	or	s7,a1,s1
    80001a8c:	9335a213          	slti	tp,a1,-1741
    80001a90:	4168d29b          	sraiw	t0,a7,0x16
    80001a94:	197d                	addi	s2,s2,-1
    80001a96:	00656917          	auipc	s2,0x656
    80001a9a:	50fd                	li	ra,-1
    80001a9c:	1018                	addi	a4,sp,32
    80001a9e:	9b8e                	add	s7,s7,gp
    80001aa0:	8ccd                	or	s1,s1,a1
    80001aa2:	cd268c13          	addi	s8,a3,-814
    80001aa6:	00656917          	auipc	s2,0x656
    80001aaa:	0095ebb3          	or	s7,a1,s1
    80001aae:	42f85593          	srai	a1,a6,0x2f
    80001ab2:	00065a33          	srl	s4,a2,zero
    80001ab6:	40755e3b          	sraw	t3,a0,t2
    80001aba:	00870f33          	add	t5,a4,s0
    80001abe:	013fab33          	slt	s6,t6,s3
    80001ac2:	8ccd                	or	s1,s1,a1
    80001ac4:	01209933          	sll	s2,ra,s2
    80001ac8:	407b84bb          	subw	s1,s7,t2
    80001acc:	9335a213          	slti	tp,a1,-1741
    80001ad0:	717d                	addi	sp,sp,-16
    80001ad2:	013fab33          	slt	s6,t6,s3
    80001ad6:	0001                	nop
    80001ad8:	8ccd                	or	s1,s1,a1
    80001ada:	015d16bb          	sllw	a3,s10,s5
    80001ade:	98b3089b          	addiw	a7,t1,-1653 # ffffffff80657365 <_end+0xffffffff0063a9dd>
    80001ae2:	9f99                	subw	a5,a5,a4
    80001ae4:	00065a33          	srl	s4,a2,zero
    80001ae8:	9ea5                	addw	a3,a3,s1
    80001aea:	00065a33          	srl	s4,a2,zero
    80001aee:	8ccd                	or	s1,s1,a1
    80001af0:	0095ebb3          	or	s7,a1,s1
    80001af4:	50fd                	li	ra,-1
    80001af6:	f747f813          	andi	a6,a5,-140
    80001afa:	01209933          	sll	s2,ra,s2
    80001afe:	8431                	srai	s0,s0,0xc
    80001b00:	406f04b3          	sub	s1,t5,t1
    80001b04:	40755e3b          	sraw	t3,a0,t2
    80001b08:	9ea5                	addw	a3,a3,s1
    80001b0a:	013fab33          	slt	s6,t6,s3
    80001b0e:	9ea5                	addw	a3,a3,s1
    80001b10:	8ccd                	or	s1,s1,a1
    80001b12:	01efd0bb          	srlw	ra,t6,t5
    80001b16:	013fab33          	slt	s6,t6,s3
    80001b1a:	40755e3b          	sraw	t3,a0,t2
    80001b1e:	86be                	mv	a3,a5
    80001b20:	0095ebb3          	or	s7,a1,s1
    80001b24:	9f99                	subw	a5,a5,a4
    80001b26:	407b84bb          	subw	s1,s7,t2
    80001b2a:	f747f813          	andi	a6,a5,-140
    80001b2e:	50fd                	li	ra,-1
    80001b30:	9335a213          	slti	tp,a1,-1741
    80001b34:	0095ebb3          	or	s7,a1,s1
    80001b38:	717d                	addi	sp,sp,-16
    80001b3a:	9ea5                	addw	a3,a3,s1
    80001b3c:	8e9d                	sub	a3,a3,a5
    80001b3e:	f747f813          	andi	a6,a5,-140
    80001b42:	9ea5                	addw	a3,a3,s1
    80001b44:	00f45293          	srli	t0,s0,0xf
    80001b48:	f747f813          	andi	a6,a5,-140
    80001b4c:	0001                	nop
    80001b4e:	0001                	nop
    80001b50:	99fd                	andi	a1,a1,-1
    80001b52:	015d16bb          	sllw	a3,s10,s5
    80001b56:	01a3c333          	xor	t1,t2,s10
    80001b5a:	4168d29b          	sraiw	t0,a7,0x16
    80001b5e:	00fdf133          	and	sp,s11,a5
    80001b62:	cd268c13          	addi	s8,a3,-814
    80001b66:	00acb4b3          	sltu	s1,s9,a0
    80001b6a:	40755e3b          	sraw	t3,a0,t2
    80001b6e:	00fdf133          	and	sp,s11,a5
    80001b72:	ee38b993          	sltiu	s3,a7,-285
    80001b76:	0137d79b          	srliw	a5,a5,0x13
    80001b7a:	015d16bb          	sllw	a3,s10,s5
    80001b7e:	0088181b          	slliw	a6,a6,0x8
    80001b82:	8e9d                	sub	a3,a3,a5
    80001b84:	1f6dce93          	xori	t4,s11,502
    80001b88:	407b84bb          	subw	s1,s7,t2
    80001b8c:	4168d29b          	sraiw	t0,a7,0x16
    80001b90:	0001                	nop
    80001b92:	00fdf133          	and	sp,s11,a5
    80001b96:	0652                	slli	a2,a2,0x14
    80001b98:	ee38b993          	sltiu	s3,a7,-285
    80001b9c:	0652                	slli	a2,a2,0x14
    80001b9e:	00065a33          	srl	s4,a2,zero
    80001ba2:	00870f33          	add	t5,a4,s0
    80001ba6:	03b39993          	slli	s3,t2,0x3b
    80001baa:	0137d79b          	srliw	a5,a5,0x13
    80001bae:	197d                	addi	s2,s2,-1 # 80657aa5 <_end+0x63b11d>
    80001bb0:	00f45293          	srli	t0,s0,0xf
    80001bb4:	406f04b3          	sub	s1,t5,t1
    80001bb8:	1018                	addi	a4,sp,32
    80001bba:	9335a213          	slti	tp,a1,-1741
    80001bbe:	8dad                	xor	a1,a1,a1
    80001bc0:	0001                	nop
    80001bc2:	8c61                	and	s0,s0,s0
    80001bc4:	9b8e                	add	s7,s7,gp
    80001bc6:	00fdf133          	and	sp,s11,a5
    80001bca:	8431                	srai	s0,s0,0xc
    80001bcc:	9f99                	subw	a5,a5,a4
    80001bce:	ee38b993          	sltiu	s3,a7,-285
    80001bd2:	404f5833          	sra	a6,t5,tp
    80001bd6:	717d                	addi	sp,sp,-16
    80001bd8:	00870f33          	add	t5,a4,s0
    80001bdc:	407b84bb          	subw	s1,s7,t2
    80001be0:	015d16bb          	sllw	a3,s10,s5
    80001be4:	407b84bb          	subw	s1,s7,t2
    80001be8:	00f45293          	srli	t0,s0,0xf
    80001bec:	99fd                	andi	a1,a1,-1
    80001bee:	0137d79b          	srliw	a5,a5,0x13
    80001bf2:	8dad                	xor	a1,a1,a1
    80001bf4:	00fdf133          	and	sp,s11,a5
    80001bf8:	0652                	slli	a2,a2,0x14
    80001bfa:	01209933          	sll	s2,ra,s2
    80001bfe:	013fab33          	slt	s6,t6,s3
    80001c02:	00f45293          	srli	t0,s0,0xf
    80001c06:	01209933          	sll	s2,ra,s2
    80001c0a:	01a3c333          	xor	t1,t2,s10
    80001c0e:	1018                	addi	a4,sp,32
    80001c10:	2d21                	addiw	s10,s10,8
    80001c12:	013fab33          	slt	s6,t6,s3
    80001c16:	4520e893          	ori	a7,ra,1106
    80001c1a:	8c61                	and	s0,s0,s0
    80001c1c:	9335a213          	slti	tp,a1,-1741
    80001c20:	8e9d                	sub	a3,a3,a5
    80001c22:	cd268c13          	addi	s8,a3,-814
    80001c26:	015d16bb          	sllw	a3,s10,s5
    80001c2a:	42f85593          	srai	a1,a6,0x2f
    80001c2e:	ee38b993          	sltiu	s3,a7,-285
    80001c32:	00fdf133          	and	sp,s11,a5
    80001c36:	00870f33          	add	t5,a4,s0
    80001c3a:	0001                	nop
    80001c3c:	0137d79b          	srliw	a5,a5,0x13
    80001c40:	0001                	nop
    80001c42:	00fdf133          	and	sp,s11,a5
    80001c46:	0095ebb3          	or	s7,a1,s1
    80001c4a:	9f99                	subw	a5,a5,a4
    80001c4c:	f747f813          	andi	a6,a5,-140
    80001c50:	0088181b          	slliw	a6,a6,0x8
    80001c54:	8ccd                	or	s1,s1,a1
    80001c56:	99fd                	andi	a1,a1,-1
    80001c58:	99fd                	andi	a1,a1,-1
    80001c5a:	01a3c333          	xor	t1,t2,s10
    80001c5e:	03b39993          	slli	s3,t2,0x3b
    80001c62:	01efd0bb          	srlw	ra,t6,t5
    80001c66:	9f99                	subw	a5,a5,a4
    80001c68:	0088181b          	slliw	a6,a6,0x8
    80001c6c:	1018                	addi	a4,sp,32
    80001c6e:	9f99                	subw	a5,a5,a4
    80001c70:	0652                	slli	a2,a2,0x14
    80001c72:	013fab33          	slt	s6,t6,s3
    80001c76:	6e8d                	lui	t4,0x3
    80001c78:	00acb4b3          	sltu	s1,s9,a0
    80001c7c:	f747f813          	andi	a6,a5,-140
    80001c80:	1f6dce93          	xori	t4,s11,502
    80001c84:	717d                	addi	sp,sp,-16
    80001c86:	0001                	nop
    80001c88:	0652                	slli	a2,a2,0x14
    80001c8a:	0652                	slli	a2,a2,0x14
    80001c8c:	86be                	mv	a3,a5
    80001c8e:	8ccd                	or	s1,s1,a1
    80001c90:	1f6dce93          	xori	t4,s11,502
    80001c94:	00656917          	auipc	s2,0x656
    80001c98:	8e9d                	sub	a3,a3,a5
    80001c9a:	86be                	mv	a3,a5
    80001c9c:	98b3089b          	addiw	a7,t1,-1653
    80001ca0:	00065a33          	srl	s4,a2,zero
    80001ca4:	1018                	addi	a4,sp,32
    80001ca6:	99fd                	andi	a1,a1,-1
    80001ca8:	01a3c333          	xor	t1,t2,s10
    80001cac:	8e9d                	sub	a3,a3,a5
    80001cae:	50fd                	li	ra,-1
    80001cb0:	03b39993          	slli	s3,t2,0x3b
    80001cb4:	01f00c3b          	addw	s8,zero,t6
    80001cb8:	9b8e                	add	s7,s7,gp
    80001cba:	0095ebb3          	or	s7,a1,s1
    80001cbe:	cd268c13          	addi	s8,a3,-814
    80001cc2:	8271                	srli	a2,a2,0x1c
    80001cc4:	717d                	addi	sp,sp,-16
    80001cc6:	99fd                	andi	a1,a1,-1
    80001cc8:	01efd0bb          	srlw	ra,t6,t5
    80001ccc:	0095ebb3          	or	s7,a1,s1
    80001cd0:	0137d79b          	srliw	a5,a5,0x13
    80001cd4:	8dad                	xor	a1,a1,a1
    80001cd6:	cd268c13          	addi	s8,a3,-814
    80001cda:	99fd                	andi	a1,a1,-1
    80001cdc:	6e8d                	lui	t4,0x3
    80001cde:	00f45293          	srli	t0,s0,0xf
    80001ce2:	9f99                	subw	a5,a5,a4
    80001ce4:	9f99                	subw	a5,a5,a4
    80001ce6:	40755e3b          	sraw	t3,a0,t2
    80001cea:	0095ebb3          	or	s7,a1,s1
    80001cee:	01efd0bb          	srlw	ra,t6,t5
    80001cf2:	197d                	addi	s2,s2,-1 # 80657c93 <_end+0x63b30b>
    80001cf4:	01a3c333          	xor	t1,t2,s10
    80001cf8:	0001                	nop
    80001cfa:	407b84bb          	subw	s1,s7,t2
    80001cfe:	01efd0bb          	srlw	ra,t6,t5
    80001d02:	9ea5                	addw	a3,a3,s1
    80001d04:	013fab33          	slt	s6,t6,s3
    80001d08:	407b84bb          	subw	s1,s7,t2
    80001d0c:	9f99                	subw	a5,a5,a4
    80001d0e:	00fdf133          	and	sp,s11,a5
    80001d12:	404f5833          	sra	a6,t5,tp
    80001d16:	f747f813          	andi	a6,a5,-140
    80001d1a:	40755e3b          	sraw	t3,a0,t2
    80001d1e:	1018                	addi	a4,sp,32
    80001d20:	00870f33          	add	t5,a4,s0
    80001d24:	42f85593          	srai	a1,a6,0x2f
    80001d28:	f747f813          	andi	a6,a5,-140
    80001d2c:	8ccd                	or	s1,s1,a1
    80001d2e:	8c61                	and	s0,s0,s0
    80001d30:	9f99                	subw	a5,a5,a4
    80001d32:	404f5833          	sra	a6,t5,tp
    80001d36:	00f45293          	srli	t0,s0,0xf
    80001d3a:	6e8d                	lui	t4,0x3
    80001d3c:	0088181b          	slliw	a6,a6,0x8
    80001d40:	8ccd                	or	s1,s1,a1
    80001d42:	19e8ba37          	lui	s4,0x19e8b
    80001d46:	2d21                	addiw	s10,s10,8
    80001d48:	00f45293          	srli	t0,s0,0xf
    80001d4c:	40755e3b          	sraw	t3,a0,t2
    80001d50:	cd268c13          	addi	s8,a3,-814
    80001d54:	00656917          	auipc	s2,0x656
    80001d58:	404f5833          	sra	a6,t5,tp
    80001d5c:	1018                	addi	a4,sp,32
    80001d5e:	98b3089b          	addiw	a7,t1,-1653
    80001d62:	9335a213          	slti	tp,a1,-1741
    80001d66:	50fd                	li	ra,-1
    80001d68:	1018                	addi	a4,sp,32
    80001d6a:	404f5833          	sra	a6,t5,tp
    80001d6e:	f747f813          	andi	a6,a5,-140
    80001d72:	f747f813          	andi	a6,a5,-140
    80001d76:	42f85593          	srai	a1,a6,0x2f
    80001d7a:	86be                	mv	a3,a5
    80001d7c:	8c61                	and	s0,s0,s0
    80001d7e:	00656917          	auipc	s2,0x656
    80001d82:	f747f813          	andi	a6,a5,-140
    80001d86:	98b3089b          	addiw	a7,t1,-1653
    80001d8a:	f747f813          	andi	a6,a5,-140
    80001d8e:	00065a33          	srl	s4,a2,zero
    80001d92:	8ccd                	or	s1,s1,a1
    80001d94:	4520e893          	ori	a7,ra,1106
    80001d98:	00f45293          	srli	t0,s0,0xf
    80001d9c:	99fd                	andi	a1,a1,-1
    80001d9e:	8e9d                	sub	a3,a3,a5
    80001da0:	00656917          	auipc	s2,0x656
    80001da4:	0095ebb3          	or	s7,a1,s1
    80001da8:	1f6dce93          	xori	t4,s11,502
    80001dac:	4168d29b          	sraiw	t0,a7,0x16
    80001db0:	8e9d                	sub	a3,a3,a5
    80001db2:	406f04b3          	sub	s1,t5,t1
    80001db6:	1f6dce93          	xori	t4,s11,502
    80001dba:	8dad                	xor	a1,a1,a1
    80001dbc:	00acb4b3          	sltu	s1,s9,a0
    80001dc0:	8ccd                	or	s1,s1,a1
    80001dc2:	00fdf133          	and	sp,s11,a5
    80001dc6:	01efd0bb          	srlw	ra,t6,t5
    80001dca:	9b8e                	add	s7,s7,gp
    80001dcc:	00656917          	auipc	s2,0x656
    80001dd0:	6e8d                	lui	t4,0x3
    80001dd2:	cd268c13          	addi	s8,a3,-814
    80001dd6:	8e9d                	sub	a3,a3,a5
    80001dd8:	42f85593          	srai	a1,a6,0x2f
    80001ddc:	9b8e                	add	s7,s7,gp
    80001dde:	01f00c3b          	addw	s8,zero,t6
    80001de2:	0652                	slli	a2,a2,0x14
    80001de4:	00656917          	auipc	s2,0x656
    80001de8:	99fd                	andi	a1,a1,-1
    80001dea:	f747f813          	andi	a6,a5,-140
    80001dee:	50fd                	li	ra,-1
    80001df0:	00870f33          	add	t5,a4,s0
    80001df4:	00f45293          	srli	t0,s0,0xf
    80001df8:	404f5833          	sra	a6,t5,tp
    80001dfc:	8ccd                	or	s1,s1,a1
    80001dfe:	98b3089b          	addiw	a7,t1,-1653
    80001e02:	99fd                	andi	a1,a1,-1
    80001e04:	407b84bb          	subw	s1,s7,t2
    80001e08:	00f45293          	srli	t0,s0,0xf
    80001e0c:	2d21                	addiw	s10,s10,8
    80001e0e:	717d                	addi	sp,sp,-16
    80001e10:	42f85593          	srai	a1,a6,0x2f
    80001e14:	9335a213          	slti	tp,a1,-1741
    80001e18:	0137d79b          	srliw	a5,a5,0x13
    80001e1c:	01f00c3b          	addw	s8,zero,t6
    80001e20:	00870f33          	add	t5,a4,s0
    80001e24:	8e9d                	sub	a3,a3,a5
    80001e26:	0652                	slli	a2,a2,0x14
    80001e28:	50fd                	li	ra,-1
    80001e2a:	1018                	addi	a4,sp,32
    80001e2c:	015d16bb          	sllw	a3,s10,s5
    80001e30:	015d16bb          	sllw	a3,s10,s5
    80001e34:	00f45293          	srli	t0,s0,0xf
    80001e38:	0088181b          	slliw	a6,a6,0x8
    80001e3c:	f747f813          	andi	a6,a5,-140
    80001e40:	4168d29b          	sraiw	t0,a7,0x16
    80001e44:	2d21                	addiw	s10,s10,8
    80001e46:	f747f813          	andi	a6,a5,-140
    80001e4a:	015d16bb          	sllw	a3,s10,s5
    80001e4e:	9335a213          	slti	tp,a1,-1741
    80001e52:	6e8d                	lui	t4,0x3
    80001e54:	2d21                	addiw	s10,s10,8
    80001e56:	8ccd                	or	s1,s1,a1
    80001e58:	1f6dce93          	xori	t4,s11,502
    80001e5c:	42f85593          	srai	a1,a6,0x2f
    80001e60:	01f00c3b          	addw	s8,zero,t6
    80001e64:	9b8e                	add	s7,s7,gp
    80001e66:	4168d29b          	sraiw	t0,a7,0x16
    80001e6a:	9f99                	subw	a5,a5,a4
    80001e6c:	86be                	mv	a3,a5
    80001e6e:	1f6dce93          	xori	t4,s11,502
    80001e72:	404f5833          	sra	a6,t5,tp
    80001e76:	01efd0bb          	srlw	ra,t6,t5
    80001e7a:	0088181b          	slliw	a6,a6,0x8
    80001e7e:	40755e3b          	sraw	t3,a0,t2
    80001e82:	42f85593          	srai	a1,a6,0x2f
    80001e86:	8431                	srai	s0,s0,0xc
    80001e88:	99fd                	andi	a1,a1,-1
    80001e8a:	1018                	addi	a4,sp,32
    80001e8c:	013fab33          	slt	s6,t6,s3
    80001e90:	8e9d                	sub	a3,a3,a5
    80001e92:	00656917          	auipc	s2,0x656
    80001e96:	406f04b3          	sub	s1,t5,t1
    80001e9a:	cd268c13          	addi	s8,a3,-814
    80001e9e:	01f00c3b          	addw	s8,zero,t6
    80001ea2:	8271                	srli	a2,a2,0x1c
    80001ea4:	197d                	addi	s2,s2,-1 # 80657e91 <_end+0x63b509>
    80001ea6:	f747f813          	andi	a6,a5,-140
    80001eaa:	0001                	nop
    80001eac:	40755e3b          	sraw	t3,a0,t2
    80001eb0:	9b8e                	add	s7,s7,gp
    80001eb2:	717d                	addi	sp,sp,-16
    80001eb4:	00fdf133          	and	sp,s11,a5
    80001eb8:	99fd                	andi	a1,a1,-1
    80001eba:	0001                	nop
    80001ebc:	01209933          	sll	s2,ra,s2
    80001ec0:	8e9d                	sub	a3,a3,a5
    80001ec2:	404f5833          	sra	a6,t5,tp
    80001ec6:	4520e893          	ori	a7,ra,1106
    80001eca:	42f85593          	srai	a1,a6,0x2f
    80001ece:	0001                	nop
    80001ed0:	407b84bb          	subw	s1,s7,t2
    80001ed4:	0652                	slli	a2,a2,0x14
    80001ed6:	42f85593          	srai	a1,a6,0x2f
    80001eda:	42f85593          	srai	a1,a6,0x2f
    80001ede:	0088181b          	slliw	a6,a6,0x8
    80001ee2:	0652                	slli	a2,a2,0x14
    80001ee4:	50fd                	li	ra,-1
    80001ee6:	40755e3b          	sraw	t3,a0,t2
    80001eea:	42f85593          	srai	a1,a6,0x2f
    80001eee:	197d                	addi	s2,s2,-1
    80001ef0:	407b84bb          	subw	s1,s7,t2
    80001ef4:	0001                	nop
    80001ef6:	0652                	slli	a2,a2,0x14
    80001ef8:	01209933          	sll	s2,ra,s2
    80001efc:	01efd0bb          	srlw	ra,t6,t5
    80001f00:	717d                	addi	sp,sp,-16
    80001f02:	01a3c333          	xor	t1,t2,s10
    80001f06:	9f99                	subw	a5,a5,a4
    80001f08:	01209933          	sll	s2,ra,s2
    80001f0c:	00f45293          	srli	t0,s0,0xf
    80001f10:	0652                	slli	a2,a2,0x14
    80001f12:	03b39993          	slli	s3,t2,0x3b
    80001f16:	0137d79b          	srliw	a5,a5,0x13
    80001f1a:	0001                	nop
    80001f1c:	8431                	srai	s0,s0,0xc
    80001f1e:	1018                	addi	a4,sp,32
    80001f20:	01efd0bb          	srlw	ra,t6,t5
    80001f24:	9335a213          	slti	tp,a1,-1741
    80001f28:	1f6dce93          	xori	t4,s11,502
    80001f2c:	4168d29b          	sraiw	t0,a7,0x16
    80001f30:	8431                	srai	s0,s0,0xc
    80001f32:	cd268c13          	addi	s8,a3,-814
    80001f36:	cd268c13          	addi	s8,a3,-814
    80001f3a:	00656917          	auipc	s2,0x656
    80001f3e:	19e8ba37          	lui	s4,0x19e8b
    80001f42:	8dad                	xor	a1,a1,a1
    80001f44:	4520e893          	ori	a7,ra,1106
    80001f48:	ee38b993          	sltiu	s3,a7,-285
    80001f4c:	00fdf133          	and	sp,s11,a5
    80001f50:	98b3089b          	addiw	a7,t1,-1653
    80001f54:	8dad                	xor	a1,a1,a1
    80001f56:	01efd0bb          	srlw	ra,t6,t5
    80001f5a:	86be                	mv	a3,a5
    80001f5c:	01f00c3b          	addw	s8,zero,t6
    80001f60:	0652                	slli	a2,a2,0x14
    80001f62:	f747f813          	andi	a6,a5,-140
    80001f66:	00f45293          	srli	t0,s0,0xf
    80001f6a:	00acb4b3          	sltu	s1,s9,a0
    80001f6e:	8271                	srli	a2,a2,0x1c
    80001f70:	404f5833          	sra	a6,t5,tp
    80001f74:	03b39993          	slli	s3,t2,0x3b
    80001f78:	8ccd                	or	s1,s1,a1
    80001f7a:	404f5833          	sra	a6,t5,tp
    80001f7e:	2d21                	addiw	s10,s10,8
    80001f80:	0088181b          	slliw	a6,a6,0x8
    80001f84:	01209933          	sll	s2,ra,s2
    80001f88:	6e8d                	lui	t4,0x3
    80001f8a:	1f6dce93          	xori	t4,s11,502
    80001f8e:	0001                	nop
    80001f90:	9ea5                	addw	a3,a3,s1
    80001f92:	8c61                	and	s0,s0,s0
    80001f94:	8ccd                	or	s1,s1,a1
    80001f96:	f747f813          	andi	a6,a5,-140
    80001f9a:	407b84bb          	subw	s1,s7,t2
    80001f9e:	9f99                	subw	a5,a5,a4
    80001fa0:	98b3089b          	addiw	a7,t1,-1653
    80001fa4:	0652                	slli	a2,a2,0x14
    80001fa6:	0652                	slli	a2,a2,0x14
    80001fa8:	9f99                	subw	a5,a5,a4
    80001faa:	19e8ba37          	lui	s4,0x19e8b
    80001fae:	0001                	nop
    80001fb0:	197d                	addi	s2,s2,-1 # 80657f39 <_end+0x63b5b1>
    80001fb2:	19e8ba37          	lui	s4,0x19e8b
    80001fb6:	013fab33          	slt	s6,t6,s3
    80001fba:	404f5833          	sra	a6,t5,tp
    80001fbe:	8e9d                	sub	a3,a3,a5
    80001fc0:	40755e3b          	sraw	t3,a0,t2
    80001fc4:	9ea5                	addw	a3,a3,s1
    80001fc6:	4520e893          	ori	a7,ra,1106
    80001fca:	9ea5                	addw	a3,a3,s1
    80001fcc:	1018                	addi	a4,sp,32
    80001fce:	0137d79b          	srliw	a5,a5,0x13
    80001fd2:	00656917          	auipc	s2,0x656
    80001fd6:	99fd                	andi	a1,a1,-1
    80001fd8:	0001                	nop
    80001fda:	0095ebb3          	or	s7,a1,s1
    80001fde:	2d21                	addiw	s10,s10,8
    80001fe0:	0001                	nop
    80001fe2:	01f00c3b          	addw	s8,zero,t6
    80001fe6:	ee38b993          	sltiu	s3,a7,-285
    80001fea:	015d16bb          	sllw	a3,s10,s5
    80001fee:	0095ebb3          	or	s7,a1,s1
    80001ff2:	42f85593          	srai	a1,a6,0x2f
    80001ff6:	40755e3b          	sraw	t3,a0,t2
    80001ffa:	013fab33          	slt	s6,t6,s3
    80001ffe:	406f04b3          	sub	s1,t5,t1
    80002002:	00870f33          	add	t5,a4,s0
    80002006:	0001                	nop
    80002008:	00656917          	auipc	s2,0x656
    8000200c:	015d16bb          	sllw	a3,s10,s5
    80002010:	98b3089b          	addiw	a7,t1,-1653
    80002014:	0088181b          	slliw	a6,a6,0x8
    80002018:	9ea5                	addw	a3,a3,s1
    8000201a:	2d21                	addiw	s10,s10,8
    8000201c:	03b39993          	slli	s3,t2,0x3b
    80002020:	197d                	addi	s2,s2,-1 # 80658007 <_end+0x63b67f>
    80002022:	00fdf133          	and	sp,s11,a5
    80002026:	98b3089b          	addiw	a7,t1,-1653
    8000202a:	50fd                	li	ra,-1
    8000202c:	01efd0bb          	srlw	ra,t6,t5
    80002030:	4520e893          	ori	a7,ra,1106
    80002034:	cd268c13          	addi	s8,a3,-814
    80002038:	01a3c333          	xor	t1,t2,s10
    8000203c:	98b3089b          	addiw	a7,t1,-1653
    80002040:	8431                	srai	s0,s0,0xc
    80002042:	8c61                	and	s0,s0,s0
    80002044:	00065a33          	srl	s4,a2,zero
    80002048:	f747f813          	andi	a6,a5,-140
    8000204c:	00870f33          	add	t5,a4,s0
    80002050:	40755e3b          	sraw	t3,a0,t2
    80002054:	4520e893          	ori	a7,ra,1106
    80002058:	00065a33          	srl	s4,a2,zero
    8000205c:	0137d79b          	srliw	a5,a5,0x13
    80002060:	01209933          	sll	s2,ra,s2
    80002064:	8ccd                	or	s1,s1,a1
    80002066:	8c61                	and	s0,s0,s0
    80002068:	40755e3b          	sraw	t3,a0,t2
    8000206c:	00fdf133          	and	sp,s11,a5
    80002070:	1f6dce93          	xori	t4,s11,502
    80002074:	015d16bb          	sllw	a3,s10,s5
    80002078:	8431                	srai	s0,s0,0xc
    8000207a:	98b3089b          	addiw	a7,t1,-1653
    8000207e:	0001                	nop
    80002080:	0652                	slli	a2,a2,0x14
    80002082:	013fab33          	slt	s6,t6,s3
    80002086:	406f04b3          	sub	s1,t5,t1
    8000208a:	0001                	nop
    8000208c:	013fab33          	slt	s6,t6,s3
    80002090:	717d                	addi	sp,sp,-16
    80002092:	0001                	nop
    80002094:	0001                	nop
    80002096:	f747f813          	andi	a6,a5,-140
    8000209a:	407b84bb          	subw	s1,s7,t2
    8000209e:	8431                	srai	s0,s0,0xc
    800020a0:	8e9d                	sub	a3,a3,a5
    800020a2:	404f5833          	sra	a6,t5,tp
    800020a6:	0001                	nop
    800020a8:	f747f813          	andi	a6,a5,-140
    800020ac:	197d                	addi	s2,s2,-1
    800020ae:	717d                	addi	sp,sp,-16
    800020b0:	00acb4b3          	sltu	s1,s9,a0
    800020b4:	404f5833          	sra	a6,t5,tp
    800020b8:	8271                	srli	a2,a2,0x1c
    800020ba:	0652                	slli	a2,a2,0x14
    800020bc:	406f04b3          	sub	s1,t5,t1
    800020c0:	00f45293          	srli	t0,s0,0xf
    800020c4:	013fab33          	slt	s6,t6,s3
    800020c8:	00f45293          	srli	t0,s0,0xf
    800020cc:	9b8e                	add	s7,s7,gp
    800020ce:	2d21                	addiw	s10,s10,8
    800020d0:	0652                	slli	a2,a2,0x14
    800020d2:	01efd0bb          	srlw	ra,t6,t5
    800020d6:	406f04b3          	sub	s1,t5,t1
    800020da:	406f04b3          	sub	s1,t5,t1
    800020de:	9335a213          	slti	tp,a1,-1741
    800020e2:	9f99                	subw	a5,a5,a4
    800020e4:	19e8ba37          	lui	s4,0x19e8b
    800020e8:	f747f813          	andi	a6,a5,-140
    800020ec:	0001                	nop
    800020ee:	0137d79b          	srliw	a5,a5,0x13
    800020f2:	0095ebb3          	or	s7,a1,s1
    800020f6:	404f5833          	sra	a6,t5,tp
    800020fa:	407b84bb          	subw	s1,s7,t2
    800020fe:	1f6dce93          	xori	t4,s11,502
    80002102:	197d                	addi	s2,s2,-1
    80002104:	015d16bb          	sllw	a3,s10,s5
    80002108:	40755e3b          	sraw	t3,a0,t2
    8000210c:	99fd                	andi	a1,a1,-1
    8000210e:	2d21                	addiw	s10,s10,8
    80002110:	9ea5                	addw	a3,a3,s1
    80002112:	00f45293          	srli	t0,s0,0xf
    80002116:	cd268c13          	addi	s8,a3,-814
    8000211a:	0652                	slli	a2,a2,0x14
    8000211c:	cd268c13          	addi	s8,a3,-814
    80002120:	01f00c3b          	addw	s8,zero,t6
    80002124:	8c61                	and	s0,s0,s0
    80002126:	407b84bb          	subw	s1,s7,t2
    8000212a:	015d16bb          	sllw	a3,s10,s5
    8000212e:	0137d79b          	srliw	a5,a5,0x13
    80002132:	406f04b3          	sub	s1,t5,t1
    80002136:	0001                	nop
    80002138:	404f5833          	sra	a6,t5,tp
    8000213c:	1018                	addi	a4,sp,32
    8000213e:	1018                	addi	a4,sp,32
    80002140:	406f04b3          	sub	s1,t5,t1
    80002144:	717d                	addi	sp,sp,-16
    80002146:	2d21                	addiw	s10,s10,8
    80002148:	00fdf133          	and	sp,s11,a5
    8000214c:	404f5833          	sra	a6,t5,tp
    80002150:	013fab33          	slt	s6,t6,s3
    80002154:	00656917          	auipc	s2,0x656
    80002158:	4520e893          	ori	a7,ra,1106
    8000215c:	9ea5                	addw	a3,a3,s1
    8000215e:	cd268c13          	addi	s8,a3,-814
    80002162:	8271                	srli	a2,a2,0x1c
    80002164:	8e9d                	sub	a3,a3,a5
    80002166:	9f99                	subw	a5,a5,a4
    80002168:	0095ebb3          	or	s7,a1,s1
    8000216c:	50fd                	li	ra,-1
    8000216e:	9b8e                	add	s7,s7,gp
    80002170:	03b39993          	slli	s3,t2,0x3b
    80002174:	4520e893          	ori	a7,ra,1106
    80002178:	50fd                	li	ra,-1
    8000217a:	00f45293          	srli	t0,s0,0xf
    8000217e:	8c61                	and	s0,s0,s0
    80002180:	0137d79b          	srliw	a5,a5,0x13
    80002184:	99fd                	andi	a1,a1,-1
    80002186:	0652                	slli	a2,a2,0x14
    80002188:	01f00c3b          	addw	s8,zero,t6
    8000218c:	cd268c13          	addi	s8,a3,-814
    80002190:	99fd                	andi	a1,a1,-1
    80002192:	404f5833          	sra	a6,t5,tp
    80002196:	406f04b3          	sub	s1,t5,t1
    8000219a:	01209933          	sll	s2,ra,s2
    8000219e:	8ccd                	or	s1,s1,a1
    800021a0:	1f6dce93          	xori	t4,s11,502
    800021a4:	98b3089b          	addiw	a7,t1,-1653
    800021a8:	98b3089b          	addiw	a7,t1,-1653
    800021ac:	03b39993          	slli	s3,t2,0x3b
    800021b0:	0001                	nop
    800021b2:	8ccd                	or	s1,s1,a1
    800021b4:	404f5833          	sra	a6,t5,tp
    800021b8:	00acb4b3          	sltu	s1,s9,a0
    800021bc:	8e9d                	sub	a3,a3,a5
    800021be:	00065a33          	srl	s4,a2,zero
    800021c2:	2d21                	addiw	s10,s10,8
    800021c4:	03b39993          	slli	s3,t2,0x3b
    800021c8:	0095ebb3          	or	s7,a1,s1
    800021cc:	8dad                	xor	a1,a1,a1
    800021ce:	9f99                	subw	a5,a5,a4
    800021d0:	19e8ba37          	lui	s4,0x19e8b
    800021d4:	01f00c3b          	addw	s8,zero,t6
    800021d8:	2d21                	addiw	s10,s10,8
    800021da:	9b8e                	add	s7,s7,gp
    800021dc:	4168d29b          	sraiw	t0,a7,0x16
    800021e0:	5d7d                	li	s10,-1
    800021e2:	4601                	li	a2,0
    800021e4:	597d                	li	s2,-1
    800021e6:	4101                	li	sp,0
    800021e8:	fff0069b          	addiw	a3,zero,-1
    800021ec:	16fe                	slli	a3,a3,0x3f
    800021ee:	5cfd                	li	s9,-1
    800021f0:	01217437          	lui	s0,0x1217
    800021f4:	e394041b          	addiw	s0,s0,-455 # 1216e39 <_start-0x7ede91c7>
    800021f8:	0432                	slli	s0,s0,0xc
    800021fa:	65940413          	addi	s0,s0,1625
    800021fe:	0432                	slli	s0,s0,0xc
    80002200:	b9b40413          	addi	s0,s0,-1125
    80002204:	0432                	slli	s0,s0,0xc
    80002206:	62d40413          	addi	s0,s0,1581
    8000220a:	4e81                	li	t4,0
    8000220c:	fff0039b          	addiw	t2,zero,-1
    80002210:	13fe                	slli	t2,t2,0x3f
    80002212:	fa38f0b7          	lui	ra,0xfa38f
    80002216:	68f0809b          	addiw	ra,ra,1679 # fffffffffa38f68f <_end+0xffffffff7a372d07>
    8000221a:	00b2                	slli	ra,ra,0xc
    8000221c:	00bd                	addi	ra,ra,15
    8000221e:	00b2                	slli	ra,ra,0xc
    80002220:	b5508093          	addi	ra,ra,-1195
    80002224:	00b2                	slli	ra,ra,0xc
    80002226:	5a108093          	addi	ra,ra,1441
    8000222a:	00656117          	auipc	sp,0x656
    8000222e:	cd238913          	addi	s2,t2,-814
    80002232:	41260eb3          	sub	t4,a2,s2
    80002236:	419c8ebb          	subw	t4,s9,s9
    8000223a:	0001                	nop
    8000223c:	419c8ebb          	subw	t4,s9,s9
    80002240:	98b9009b          	addiw	ra,s2,-1653 # ffffffff80657adf <_end+0xffffffff0063b157>
    80002244:	cd238913          	addi	s2,t2,-814
    80002248:	cd238913          	addi	s2,t2,-814
    8000224c:	98b9009b          	addiw	ra,s2,-1653
    80002250:	00d0893b          	addw	s2,ra,a3
    80002254:	00d0893b          	addw	s2,ra,a3
    80002258:	00656117          	auipc	sp,0x656
    8000225c:	19e8b437          	lui	s0,0x19e8b
    80002260:	cd238913          	addi	s2,t2,-814
    80002264:	96ea                	add	a3,a3,s10
    80002266:	0001                	nop
    80002268:	00656117          	auipc	sp,0x656
    8000226c:	0001                	nop
    8000226e:	0001                	nop
    80002270:	41260eb3          	sub	t4,a2,s2
    80002274:	19e8b437          	lui	s0,0x19e8b
    80002278:	19e8b437          	lui	s0,0x19e8b
    8000227c:	19e8b437          	lui	s0,0x19e8b
    80002280:	00656117          	auipc	sp,0x656
    80002284:	8431                	srai	s0,s0,0xc
    80002286:	717d                	addi	sp,sp,-16
    80002288:	6e8d                	lui	t4,0x3
    8000228a:	0088181b          	slliw	a6,a6,0x8
    8000228e:	00fdf133          	and	sp,s11,a5
    80002292:	8271                	srli	a2,a2,0x1c
    80002294:	0137d79b          	srliw	a5,a5,0x13
    80002298:	6e8d                	lui	t4,0x3
    8000229a:	8431                	srai	s0,s0,0xc
    8000229c:	8ccd                	or	s1,s1,a1
    8000229e:	0095ebb3          	or	s7,a1,s1
    800022a2:	0001                	nop
    800022a4:	f747f813          	andi	a6,a5,-140
    800022a8:	40755e3b          	sraw	t3,a0,t2
    800022ac:	00870f33          	add	t5,a4,s0
    800022b0:	1f6dce93          	xori	t4,s11,502
    800022b4:	8e9d                	sub	a3,a3,a5
    800022b6:	0137d79b          	srliw	a5,a5,0x13
    800022ba:	99fd                	andi	a1,a1,-1
    800022bc:	0652                	slli	a2,a2,0x14
    800022be:	40755e3b          	sraw	t3,a0,t2
    800022c2:	4520e893          	ori	a7,ra,1106
    800022c6:	98b3089b          	addiw	a7,t1,-1653
    800022ca:	015d16bb          	sllw	a3,s10,s5
    800022ce:	8271                	srli	a2,a2,0x1c
    800022d0:	0001                	nop
    800022d2:	4a01                	li	s4,0
    800022d4:	4e01                	li	t3,0
    800022d6:	4701                	li	a4,0
    800022d8:	4081                	li	ra,0
    800022da:	4b01                	li	s6,0
    800022dc:	4d01                	li	s10,0
    800022de:	00aa55b7          	lui	a1,0xaa5
    800022e2:	1ab5859b          	addiw	a1,a1,427 # aa51ab <_start-0x7f55ae55>
    800022e6:	05b2                	slli	a1,a1,0xc
    800022e8:	21158593          	addi	a1,a1,529
    800022ec:	05b2                	slli	a1,a1,0xc
    800022ee:	f3358593          	addi	a1,a1,-205
    800022f2:	05b2                	slli	a1,a1,0xc
    800022f4:	c4a58593          	addi	a1,a1,-950
    800022f8:	fff00c9b          	addiw	s9,zero,-1
    800022fc:	1cfe                	slli	s9,s9,0x3f
    800022fe:	5c7d                	li	s8,-1
    80002300:	4d81                	li	s11,0
    80002302:	0001                	nop
    80002304:	cd270c93          	addi	s9,a4,-814
    80002308:	419b0e33          	sub	t3,s6,s9
    8000230c:	0001                	nop
    8000230e:	9c6e                	add	s8,s8,s11
    80002310:	00656597          	auipc	a1,0x656
    80002314:	41ad0e3b          	subw	t3,s10,s10
    80002318:	98bc809b          	addiw	ra,s9,-1653
    8000231c:	00656597          	auipc	a1,0x656
    80002320:	00656597          	auipc	a1,0x656
    80002324:	01808cbb          	addw	s9,ra,s8
    80002328:	19e8ba37          	lui	s4,0x19e8b
    8000232c:	00656597          	auipc	a1,0x656
    80002330:	0001                	nop
    80002332:	419b0e33          	sub	t3,s6,s9
    80002336:	98bc809b          	addiw	ra,s9,-1653
    8000233a:	41ad0e3b          	subw	t3,s10,s10
    8000233e:	41ad0e3b          	subw	t3,s10,s10
    80002342:	9c6e                	add	s8,s8,s11
    80002344:	419b0e33          	sub	t3,s6,s9
    80002348:	98bc809b          	addiw	ra,s9,-1653
    8000234c:	19e8ba37          	lui	s4,0x19e8b
    80002350:	98bc809b          	addiw	ra,s9,-1653
    80002354:	717d                	addi	sp,sp,-16
    80002356:	03b39993          	slli	s3,t2,0x3b
    8000235a:	8ccd                	or	s1,s1,a1
    8000235c:	00870f33          	add	t5,a4,s0
    80002360:	8431                	srai	s0,s0,0xc
    80002362:	9b8e                	add	s7,s7,gp
    80002364:	50fd                	li	ra,-1
    80002366:	0095ebb3          	or	s7,a1,s1
    8000236a:	8dad                	xor	a1,a1,a1
    8000236c:	19e8ba37          	lui	s4,0x19e8b
    80002370:	50fd                	li	ra,-1
    80002372:	404f5833          	sra	a6,t5,tp
    80002376:	f747f813          	andi	a6,a5,-140
    8000237a:	98b3089b          	addiw	a7,t1,-1653
    8000237e:	4520e893          	ori	a7,ra,1106
    80002382:	0001                	nop
    80002384:	8dad                	xor	a1,a1,a1
    80002386:	1f6dce93          	xori	t4,s11,502
    8000238a:	406f04b3          	sub	s1,t5,t1
    8000238e:	9ea5                	addw	a3,a3,s1
    80002390:	407b84bb          	subw	s1,s7,t2
    80002394:	1018                	addi	a4,sp,32
    80002396:	98b3089b          	addiw	a7,t1,-1653
    8000239a:	01a3c333          	xor	t1,t2,s10
    8000239e:	8dad                	xor	a1,a1,a1
    800023a0:	42f85593          	srai	a1,a6,0x2f
    800023a4:	00656917          	auipc	s2,0x656
    800023a8:	015d16bb          	sllw	a3,s10,s5
    800023ac:	015d16bb          	sllw	a3,s10,s5
    800023b0:	00065a33          	srl	s4,a2,zero
    800023b4:	9335a213          	slti	tp,a1,-1741
    800023b8:	0001                	nop
    800023ba:	8271                	srli	a2,a2,0x1c
    800023bc:	0088181b          	slliw	a6,a6,0x8
    800023c0:	013fab33          	slt	s6,t6,s3
    800023c4:	40755e3b          	sraw	t3,a0,t2
    800023c8:	01efd0bb          	srlw	ra,t6,t5
    800023cc:	404f5833          	sra	a6,t5,tp
    800023d0:	00acb4b3          	sltu	s1,s9,a0
    800023d4:	0001                	nop
    800023d6:	01a3c333          	xor	t1,t2,s10
    800023da:	86be                	mv	a3,a5
    800023dc:	98b3089b          	addiw	a7,t1,-1653
    800023e0:	0652                	slli	a2,a2,0x14
    800023e2:	197d                	addi	s2,s2,-1 # 806583a3 <_end+0x63ba1b>
    800023e4:	86be                	mv	a3,a5
    800023e6:	99fd                	andi	a1,a1,-1
    800023e8:	00fdf133          	and	sp,s11,a5
    800023ec:	0137d79b          	srliw	a5,a5,0x13
    800023f0:	013fab33          	slt	s6,t6,s3
    800023f4:	00065a33          	srl	s4,a2,zero
    800023f8:	0001                	nop
    800023fa:	8c61                	and	s0,s0,s0
    800023fc:	0088181b          	slliw	a6,a6,0x8
    80002400:	0001                	nop
    80002402:	8c61                	and	s0,s0,s0
    80002404:	98b3089b          	addiw	a7,t1,-1653
    80002408:	407b84bb          	subw	s1,s7,t2
    8000240c:	404f5833          	sra	a6,t5,tp
    80002410:	0137d79b          	srliw	a5,a5,0x13
    80002414:	8ccd                	or	s1,s1,a1
    80002416:	2d21                	addiw	s10,s10,8
    80002418:	00acb4b3          	sltu	s1,s9,a0
    8000241c:	8dad                	xor	a1,a1,a1
    8000241e:	00656917          	auipc	s2,0x656
    80002422:	0095ebb3          	or	s7,a1,s1
    80002426:	2d21                	addiw	s10,s10,8
    80002428:	00f45293          	srli	t0,s0,0xf
    8000242c:	0001                	nop
    8000242e:	cd268c13          	addi	s8,a3,-814
    80002432:	8c61                	and	s0,s0,s0
    80002434:	4168d29b          	sraiw	t0,a7,0x16
    80002438:	0088181b          	slliw	a6,a6,0x8
    8000243c:	406f04b3          	sub	s1,t5,t1
    80002440:	99fd                	andi	a1,a1,-1
    80002442:	6e8d                	lui	t4,0x3
    80002444:	01f00c3b          	addw	s8,zero,t6
    80002448:	2d21                	addiw	s10,s10,8
    8000244a:	00f45293          	srli	t0,s0,0xf
    8000244e:	ee38b993          	sltiu	s3,a7,-285
    80002452:	01a3c333          	xor	t1,t2,s10
    80002456:	01a3c333          	xor	t1,t2,s10
    8000245a:	9f99                	subw	a5,a5,a4
    8000245c:	717d                	addi	sp,sp,-16
    8000245e:	f747f813          	andi	a6,a5,-140
    80002462:	8431                	srai	s0,s0,0xc
    80002464:	013fab33          	slt	s6,t6,s3
    80002468:	f747f813          	andi	a6,a5,-140
    8000246c:	f747f813          	andi	a6,a5,-140
    80002470:	00fdf133          	and	sp,s11,a5
    80002474:	6e8d                	lui	t4,0x3
    80002476:	50fd                	li	ra,-1
    80002478:	00acb4b3          	sltu	s1,s9,a0
    8000247c:	8dad                	xor	a1,a1,a1
    8000247e:	8431                	srai	s0,s0,0xc
    80002480:	ee38b993          	sltiu	s3,a7,-285
    80002484:	00065a33          	srl	s4,a2,zero
    80002488:	19e8ba37          	lui	s4,0x19e8b
    8000248c:	0001                	nop
    8000248e:	00065a33          	srl	s4,a2,zero
    80002492:	8c61                	and	s0,s0,s0
    80002494:	9b8e                	add	s7,s7,gp
    80002496:	00f45293          	srli	t0,s0,0xf
    8000249a:	42f85593          	srai	a1,a6,0x2f
    8000249e:	4168d29b          	sraiw	t0,a7,0x16
    800024a2:	03b39993          	slli	s3,t2,0x3b
    800024a6:	f747f813          	andi	a6,a5,-140
    800024aa:	86be                	mv	a3,a5
    800024ac:	03b39993          	slli	s3,t2,0x3b
    800024b0:	404f5833          	sra	a6,t5,tp
    800024b4:	0137d79b          	srliw	a5,a5,0x13
    800024b8:	99fd                	andi	a1,a1,-1
    800024ba:	00fdf133          	and	sp,s11,a5
    800024be:	1018                	addi	a4,sp,32
    800024c0:	0088181b          	slliw	a6,a6,0x8
    800024c4:	6e8d                	lui	t4,0x3
    800024c6:	00acb4b3          	sltu	s1,s9,a0
    800024ca:	8c61                	and	s0,s0,s0
    800024cc:	8431                	srai	s0,s0,0xc
    800024ce:	8c61                	and	s0,s0,s0
    800024d0:	9ea5                	addw	a3,a3,s1
    800024d2:	2d21                	addiw	s10,s10,8
    800024d4:	1f6dce93          	xori	t4,s11,502
    800024d8:	1f6dce93          	xori	t4,s11,502
    800024dc:	0001                	nop
    800024de:	0652                	slli	a2,a2,0x14
    800024e0:	8c61                	and	s0,s0,s0
    800024e2:	8271                	srli	a2,a2,0x1c
    800024e4:	013fab33          	slt	s6,t6,s3
    800024e8:	013fab33          	slt	s6,t6,s3
    800024ec:	01209933          	sll	s2,ra,s2
    800024f0:	406f04b3          	sub	s1,t5,t1
    800024f4:	1f6dce93          	xori	t4,s11,502
    800024f8:	8271                	srli	a2,a2,0x1c
    800024fa:	9b8e                	add	s7,s7,gp
    800024fc:	2d21                	addiw	s10,s10,8
    800024fe:	00656917          	auipc	s2,0x656
    80002502:	015d16bb          	sllw	a3,s10,s5
    80002506:	0652                	slli	a2,a2,0x14
    80002508:	01f00c3b          	addw	s8,zero,t6
    8000250c:	ee38b993          	sltiu	s3,a7,-285
    80002510:	00870f33          	add	t5,a4,s0
    80002514:	1018                	addi	a4,sp,32
    80002516:	01efd0bb          	srlw	ra,t6,t5
    8000251a:	99fd                	andi	a1,a1,-1
    8000251c:	01209933          	sll	s2,ra,s2
    80002520:	0095ebb3          	or	s7,a1,s1
    80002524:	0095ebb3          	or	s7,a1,s1
    80002528:	01a3c333          	xor	t1,t2,s10
    8000252c:	01efd0bb          	srlw	ra,t6,t5
    80002530:	01209933          	sll	s2,ra,s2
    80002534:	00fdf133          	and	sp,s11,a5
    80002538:	0652                	slli	a2,a2,0x14
    8000253a:	0088181b          	slliw	a6,a6,0x8
    8000253e:	01209933          	sll	s2,ra,s2
    80002542:	1f6dce93          	xori	t4,s11,502
    80002546:	03b39993          	slli	s3,t2,0x3b
    8000254a:	6e8d                	lui	t4,0x3
    8000254c:	8ccd                	or	s1,s1,a1
    8000254e:	197d                	addi	s2,s2,-1 # 806584fd <_end+0x63bb75>
    80002550:	00acb4b3          	sltu	s1,s9,a0
    80002554:	8c61                	and	s0,s0,s0
    80002556:	86be                	mv	a3,a5
    80002558:	01a3c333          	xor	t1,t2,s10
    8000255c:	50fd                	li	ra,-1
    8000255e:	0652                	slli	a2,a2,0x14
    80002560:	2d21                	addiw	s10,s10,8
    80002562:	9b8e                	add	s7,s7,gp
    80002564:	99fd                	andi	a1,a1,-1
    80002566:	03b39993          	slli	s3,t2,0x3b
    8000256a:	404f5833          	sra	a6,t5,tp
    8000256e:	01f00c3b          	addw	s8,zero,t6
    80002572:	01a3c333          	xor	t1,t2,s10
    80002576:	0095ebb3          	or	s7,a1,s1
    8000257a:	03b39993          	slli	s3,t2,0x3b
    8000257e:	00065a33          	srl	s4,a2,zero
    80002582:	01a3c333          	xor	t1,t2,s10
    80002586:	00870f33          	add	t5,a4,s0
    8000258a:	4168d29b          	sraiw	t0,a7,0x16
    8000258e:	cd268c13          	addi	s8,a3,-814
    80002592:	01209933          	sll	s2,ra,s2
    80002596:	8ccd                	or	s1,s1,a1
    80002598:	1018                	addi	a4,sp,32
    8000259a:	01f00c3b          	addw	s8,zero,t6
    8000259e:	4168d29b          	sraiw	t0,a7,0x16
    800025a2:	99fd                	andi	a1,a1,-1
    800025a4:	1f6dce93          	xori	t4,s11,502
    800025a8:	00870f33          	add	t5,a4,s0
    800025ac:	8431                	srai	s0,s0,0xc
    800025ae:	8e9d                	sub	a3,a3,a5
    800025b0:	40755e3b          	sraw	t3,a0,t2
    800025b4:	0652                	slli	a2,a2,0x14
    800025b6:	015d16bb          	sllw	a3,s10,s5
    800025ba:	2d21                	addiw	s10,s10,8
    800025bc:	0001                	nop
    800025be:	00870f33          	add	t5,a4,s0
    800025c2:	00fdf133          	and	sp,s11,a5
    800025c6:	03b39993          	slli	s3,t2,0x3b
    800025ca:	8dad                	xor	a1,a1,a1
    800025cc:	406f04b3          	sub	s1,t5,t1
    800025d0:	4520e893          	ori	a7,ra,1106
    800025d4:	98b3089b          	addiw	a7,t1,-1653
    800025d8:	ee38b993          	sltiu	s3,a7,-285
    800025dc:	00fdf133          	and	sp,s11,a5
    800025e0:	8c61                	and	s0,s0,s0
    800025e2:	86be                	mv	a3,a5
    800025e4:	0001                	nop
    800025e6:	1f6dce93          	xori	t4,s11,502
    800025ea:	407b84bb          	subw	s1,s7,t2
    800025ee:	00870f33          	add	t5,a4,s0
    800025f2:	6e8d                	lui	t4,0x3
    800025f4:	0088181b          	slliw	a6,a6,0x8
    800025f8:	1018                	addi	a4,sp,32
    800025fa:	0095ebb3          	or	s7,a1,s1
    800025fe:	9b8e                	add	s7,s7,gp
    80002600:	8dad                	xor	a1,a1,a1
    80002602:	cd268c13          	addi	s8,a3,-814
    80002606:	407b84bb          	subw	s1,s7,t2
    8000260a:	0001                	nop
    8000260c:	6e8d                	lui	t4,0x3
    8000260e:	9b8e                	add	s7,s7,gp
    80002610:	0137d79b          	srliw	a5,a5,0x13
    80002614:	404f5833          	sra	a6,t5,tp
    80002618:	2d21                	addiw	s10,s10,8
    8000261a:	406f04b3          	sub	s1,t5,t1
    8000261e:	9f99                	subw	a5,a5,a4
    80002620:	0095ebb3          	or	s7,a1,s1
    80002624:	8271                	srli	a2,a2,0x1c
    80002626:	00065a33          	srl	s4,a2,zero
    8000262a:	ee38b993          	sltiu	s3,a7,-285
    8000262e:	0652                	slli	a2,a2,0x14
    80002630:	8271                	srli	a2,a2,0x1c
    80002632:	1018                	addi	a4,sp,32
    80002634:	8ccd                	or	s1,s1,a1
    80002636:	8e9d                	sub	a3,a3,a5
    80002638:	01a3c333          	xor	t1,t2,s10
    8000263c:	40755e3b          	sraw	t3,a0,t2
    80002640:	00656917          	auipc	s2,0x656
    80002644:	407b84bb          	subw	s1,s7,t2
    80002648:	01f00c3b          	addw	s8,zero,t6
    8000264c:	404f5833          	sra	a6,t5,tp
    80002650:	40755e3b          	sraw	t3,a0,t2
    80002654:	6e8d                	lui	t4,0x3
    80002656:	8c61                	and	s0,s0,s0
    80002658:	2d21                	addiw	s10,s10,8
    8000265a:	19e8ba37          	lui	s4,0x19e8b
    8000265e:	01a3c333          	xor	t1,t2,s10
    80002662:	0088181b          	slliw	a6,a6,0x8
    80002666:	01f00c3b          	addw	s8,zero,t6
    8000266a:	01f00c3b          	addw	s8,zero,t6
    8000266e:	01efd0bb          	srlw	ra,t6,t5
    80002672:	2d21                	addiw	s10,s10,8
    80002674:	8431                	srai	s0,s0,0xc
    80002676:	2d21                	addiw	s10,s10,8
    80002678:	50fd                	li	ra,-1
    8000267a:	8dad                	xor	a1,a1,a1
    8000267c:	0095ebb3          	or	s7,a1,s1
    80002680:	42f85593          	srai	a1,a6,0x2f
    80002684:	8271                	srli	a2,a2,0x1c
    80002686:	407b84bb          	subw	s1,s7,t2
    8000268a:	6e8d                	lui	t4,0x3
    8000268c:	4520e893          	ori	a7,ra,1106
    80002690:	1018                	addi	a4,sp,32
    80002692:	9f99                	subw	a5,a5,a4
    80002694:	013fab33          	slt	s6,t6,s3
    80002698:	01a3c333          	xor	t1,t2,s10
    8000269c:	8ccd                	or	s1,s1,a1
    8000269e:	197d                	addi	s2,s2,-1 # 8065863f <_end+0x63bcb7>
    800026a0:	50fd                	li	ra,-1
    800026a2:	4520e893          	ori	a7,ra,1106
    800026a6:	013fab33          	slt	s6,t6,s3
    800026aa:	01209933          	sll	s2,ra,s2
    800026ae:	01209933          	sll	s2,ra,s2
    800026b2:	99fd                	andi	a1,a1,-1
    800026b4:	013fab33          	slt	s6,t6,s3
    800026b8:	8431                	srai	s0,s0,0xc
    800026ba:	01efd0bb          	srlw	ra,t6,t5
    800026be:	2d21                	addiw	s10,s10,8
    800026c0:	9b8e                	add	s7,s7,gp
    800026c2:	01f00c3b          	addw	s8,zero,t6
    800026c6:	0137d79b          	srliw	a5,a5,0x13
    800026ca:	86be                	mv	a3,a5
    800026cc:	03b39993          	slli	s3,t2,0x3b
    800026d0:	717d                	addi	sp,sp,-16
    800026d2:	19e8ba37          	lui	s4,0x19e8b
    800026d6:	6e8d                	lui	t4,0x3
    800026d8:	00fdf133          	and	sp,s11,a5
    800026dc:	6e8d                	lui	t4,0x3
    800026de:	00acb4b3          	sltu	s1,s9,a0
    800026e2:	98b3089b          	addiw	a7,t1,-1653
    800026e6:	01efd0bb          	srlw	ra,t6,t5
    800026ea:	40755e3b          	sraw	t3,a0,t2
    800026ee:	9335a213          	slti	tp,a1,-1741
    800026f2:	00065a33          	srl	s4,a2,zero
    800026f6:	8271                	srli	a2,a2,0x1c
    800026f8:	50fd                	li	ra,-1
    800026fa:	8431                	srai	s0,s0,0xc
    800026fc:	01efd0bb          	srlw	ra,t6,t5
    80002700:	0001                	nop
    80002702:	4168d29b          	sraiw	t0,a7,0x16
    80002706:	98b3089b          	addiw	a7,t1,-1653
    8000270a:	0095ebb3          	or	s7,a1,s1
    8000270e:	00656917          	auipc	s2,0x656
    80002712:	01209933          	sll	s2,ra,s2
    80002716:	ee38b993          	sltiu	s3,a7,-285
    8000271a:	fff0079b          	addiw	a5,zero,-1
    8000271e:	17fe                	slli	a5,a5,0x3f
    80002720:	fff0039b          	addiw	t2,zero,-1
    80002724:	13fe                	slli	t2,t2,0x3f
    80002726:	01fe25b7          	lui	a1,0x1fe2
    8000272a:	fd35859b          	addiw	a1,a1,-45 # 1fe1fd3 <_start-0x7e01e02d>
    8000272e:	05b2                	slli	a1,a1,0xc
    80002730:	bb758593          	addi	a1,a1,-1097
    80002734:	05ba                	slli	a1,a1,0xe
    80002736:	f4758593          	addi	a1,a1,-185
    8000273a:	05b2                	slli	a1,a1,0xc
    8000273c:	4e258593          	addi	a1,a1,1250
    80002740:	5efd                	li	t4,-1
    80002742:	4481                	li	s1,0
    80002744:	4401                	li	s0,0
    80002746:	4981                	li	s3,0
    80002748:	4881                	li	a7,0
    8000274a:	ffe9cf37          	lui	t5,0xffe9c
    8000274e:	70bf0f1b          	addiw	t5,t5,1803 # ffffffffffe9c70b <_end+0xffffffff7fe7fd83>
    80002752:	0f42                	slli	t5,t5,0x10
    80002754:	f99f0f13          	addi	t5,t5,-103
    80002758:	0f32                	slli	t5,t5,0xc
    8000275a:	e39f0f13          	addi	t5,t5,-455
    8000275e:	0f32                	slli	t5,t5,0xc
    80002760:	609f0f13          	addi	t5,t5,1545
    80002764:	52fd                	li	t0,-1
    80002766:	41158f33          	sub	t5,a1,a7
    8000276a:	0001                	nop
    8000276c:	00656397          	auipc	t2,0x656
    80002770:	00f288bb          	addw	a7,t0,a5
    80002774:	00656397          	auipc	t2,0x656
    80002778:	97f6                	add	a5,a5,t4
    8000277a:	41158f33          	sub	t5,a1,a7
    8000277e:	0001                	nop
    80002780:	0001                	nop
    80002782:	97f6                	add	a5,a5,t4
    80002784:	cd240893          	addi	a7,s0,-814 # 19e8acd2 <_start-0x6617532e>
    80002788:	00656397          	auipc	t2,0x656
    8000278c:	41158f33          	sub	t5,a1,a7
    80002790:	41158f33          	sub	t5,a1,a7
    80002794:	00f288bb          	addw	a7,t0,a5
    80002798:	41158f33          	sub	t5,a1,a7
    8000279c:	19e8b4b7          	lui	s1,0x19e8b
    800027a0:	97f6                	add	a5,a5,t4
    800027a2:	00f288bb          	addw	a7,t0,a5
    800027a6:	cd240893          	addi	a7,s0,-814
    800027aa:	41398f3b          	subw	t5,s3,s3
    800027ae:	97f6                	add	a5,a5,t4
    800027b0:	cd240893          	addi	a7,s0,-814
    800027b4:	98b8829b          	addiw	t0,a7,-1653
    800027b8:	00f288bb          	addw	a7,t0,a5
    800027bc:	0001                	nop
    800027be:	00f288bb          	addw	a7,t0,a5
    800027c2:	013fab33          	slt	s6,t6,s3
    800027c6:	00656917          	auipc	s2,0x656
    800027ca:	717d                	addi	sp,sp,-16
    800027cc:	407b84bb          	subw	s1,s7,t2
    800027d0:	9b8e                	add	s7,s7,gp
    800027d2:	1f6dce93          	xori	t4,s11,502
    800027d6:	ee38b993          	sltiu	s3,a7,-285
    800027da:	407b84bb          	subw	s1,s7,t2
    800027de:	013fab33          	slt	s6,t6,s3
    800027e2:	9335a213          	slti	tp,a1,-1741
    800027e6:	00656917          	auipc	s2,0x656
    800027ea:	cd268c13          	addi	s8,a3,-814
    800027ee:	0652                	slli	a2,a2,0x14
    800027f0:	42f85593          	srai	a1,a6,0x2f
    800027f4:	ee38b993          	sltiu	s3,a7,-285
    800027f8:	9b8e                	add	s7,s7,gp
    800027fa:	99fd                	andi	a1,a1,-1
    800027fc:	86be                	mv	a3,a5
    800027fe:	8431                	srai	s0,s0,0xc
    80002800:	03b39993          	slli	s3,t2,0x3b
    80002804:	00065a33          	srl	s4,a2,zero
    80002808:	717d                	addi	sp,sp,-16
    8000280a:	8c61                	and	s0,s0,s0
    8000280c:	99fd                	andi	a1,a1,-1
    8000280e:	ee38b993          	sltiu	s3,a7,-285
    80002812:	015d16bb          	sllw	a3,s10,s5
    80002816:	01209933          	sll	s2,ra,s2
    8000281a:	50fd                	li	ra,-1
    8000281c:	40755e3b          	sraw	t3,a0,t2
    80002820:	ee38b993          	sltiu	s3,a7,-285
    80002824:	00656917          	auipc	s2,0x656
    80002828:	0652                	slli	a2,a2,0x14
    8000282a:	01efd0bb          	srlw	ra,t6,t5
    8000282e:	407b84bb          	subw	s1,s7,t2
    80002832:	cd268c13          	addi	s8,a3,-814
    80002836:	9b8e                	add	s7,s7,gp
    80002838:	50fd                	li	ra,-1
    8000283a:	99fd                	andi	a1,a1,-1
    8000283c:	0652                	slli	a2,a2,0x14
    8000283e:	404f5833          	sra	a6,t5,tp
    80002842:	9ea5                	addw	a3,a3,s1
    80002844:	01a3c333          	xor	t1,t2,s10
    80002848:	00065a33          	srl	s4,a2,zero
    8000284c:	cd268c13          	addi	s8,a3,-814
    80002850:	99fd                	andi	a1,a1,-1
    80002852:	98b3089b          	addiw	a7,t1,-1653
    80002856:	cd268c13          	addi	s8,a3,-814
    8000285a:	8dad                	xor	a1,a1,a1
    8000285c:	0095ebb3          	or	s7,a1,s1
    80002860:	0137d79b          	srliw	a5,a5,0x13
    80002864:	717d                	addi	sp,sp,-16
    80002866:	2d21                	addiw	s10,s10,8
    80002868:	9f99                	subw	a5,a5,a4
    8000286a:	8431                	srai	s0,s0,0xc
    8000286c:	197d                	addi	s2,s2,-1 # 80658823 <_end+0x63be9b>
    8000286e:	8271                	srli	a2,a2,0x1c
    80002870:	6e8d                	lui	t4,0x3
    80002872:	015d16bb          	sllw	a3,s10,s5
    80002876:	00065a33          	srl	s4,a2,zero
    8000287a:	01f00c3b          	addw	s8,zero,t6
    8000287e:	40755e3b          	sraw	t3,a0,t2
    80002882:	8431                	srai	s0,s0,0xc
    80002884:	00f45293          	srli	t0,s0,0xf
    80002888:	0001                	nop
    8000288a:	8ccd                	or	s1,s1,a1
    8000288c:	0095ebb3          	or	s7,a1,s1
    80002890:	404f5833          	sra	a6,t5,tp
    80002894:	01a3c333          	xor	t1,t2,s10
    80002898:	00f45293          	srli	t0,s0,0xf
    8000289c:	717d                	addi	sp,sp,-16
    8000289e:	015d16bb          	sllw	a3,s10,s5
    800028a2:	00acb4b3          	sltu	s1,s9,a0
    800028a6:	f747f813          	andi	a6,a5,-140
    800028aa:	407b84bb          	subw	s1,s7,t2
    800028ae:	9335a213          	slti	tp,a1,-1741
    800028b2:	0652                	slli	a2,a2,0x14
    800028b4:	9ea5                	addw	a3,a3,s1
    800028b6:	98b3089b          	addiw	a7,t1,-1653
    800028ba:	2d21                	addiw	s10,s10,8
    800028bc:	407b84bb          	subw	s1,s7,t2
    800028c0:	8e9d                	sub	a3,a3,a5
    800028c2:	9b8e                	add	s7,s7,gp
    800028c4:	42f85593          	srai	a1,a6,0x2f
    800028c8:	4168d29b          	sraiw	t0,a7,0x16
    800028cc:	9b8e                	add	s7,s7,gp
    800028ce:	9335a213          	slti	tp,a1,-1741
    800028d2:	404f5833          	sra	a6,t5,tp
    800028d6:	1f6dce93          	xori	t4,s11,502
    800028da:	00065a33          	srl	s4,a2,zero
    800028de:	9ea5                	addw	a3,a3,s1
    800028e0:	9f99                	subw	a5,a5,a4
    800028e2:	9b8e                	add	s7,s7,gp
    800028e4:	8c61                	and	s0,s0,s0
    800028e6:	01209933          	sll	s2,ra,s2
    800028ea:	8e9d                	sub	a3,a3,a5
    800028ec:	1f6dce93          	xori	t4,s11,502
    800028f0:	404f5833          	sra	a6,t5,tp
    800028f4:	00f45293          	srli	t0,s0,0xf
    800028f8:	015d16bb          	sllw	a3,s10,s5
    800028fc:	00656917          	auipc	s2,0x656
    80002900:	8e9d                	sub	a3,a3,a5
    80002902:	9b8e                	add	s7,s7,gp
    80002904:	406f04b3          	sub	s1,t5,t1
    80002908:	9ea5                	addw	a3,a3,s1
    8000290a:	01209933          	sll	s2,ra,s2
    8000290e:	9f99                	subw	a5,a5,a4
    80002910:	8e9d                	sub	a3,a3,a5
    80002912:	404f5833          	sra	a6,t5,tp
    80002916:	00f45293          	srli	t0,s0,0xf
    8000291a:	8ccd                	or	s1,s1,a1
    8000291c:	1018                	addi	a4,sp,32
    8000291e:	f747f813          	andi	a6,a5,-140
    80002922:	197d                	addi	s2,s2,-1 # 806588fb <_end+0x63bf73>
    80002924:	4168d29b          	sraiw	t0,a7,0x16
    80002928:	9b8e                	add	s7,s7,gp
    8000292a:	0001                	nop
    8000292c:	4168d29b          	sraiw	t0,a7,0x16
    80002930:	407b84bb          	subw	s1,s7,t2
    80002934:	9ea5                	addw	a3,a3,s1
    80002936:	99fd                	andi	a1,a1,-1
    80002938:	00acb4b3          	sltu	s1,s9,a0
    8000293c:	cd268c13          	addi	s8,a3,-814
    80002940:	01efd0bb          	srlw	ra,t6,t5
    80002944:	86be                	mv	a3,a5
    80002946:	013fab33          	slt	s6,t6,s3
    8000294a:	0137d79b          	srliw	a5,a5,0x13
    8000294e:	00fdf133          	and	sp,s11,a5
    80002952:	404f5833          	sra	a6,t5,tp
    80002956:	98b3089b          	addiw	a7,t1,-1653
    8000295a:	00acb4b3          	sltu	s1,s9,a0
    8000295e:	19e8ba37          	lui	s4,0x19e8b
    80002962:	0137d79b          	srliw	a5,a5,0x13
    80002966:	01a3c333          	xor	t1,t2,s10
    8000296a:	8431                	srai	s0,s0,0xc
    8000296c:	0652                	slli	a2,a2,0x14
    8000296e:	9b8e                	add	s7,s7,gp
    80002970:	6e8d                	lui	t4,0x3
    80002972:	00065a33          	srl	s4,a2,zero
    80002976:	0001                	nop
    80002978:	42f85593          	srai	a1,a6,0x2f
    8000297c:	01efd0bb          	srlw	ra,t6,t5
    80002980:	00656917          	auipc	s2,0x656
    80002984:	00f45293          	srli	t0,s0,0xf
    80002988:	4520e893          	ori	a7,ra,1106
    8000298c:	406f04b3          	sub	s1,t5,t1
    80002990:	0137d79b          	srliw	a5,a5,0x13
    80002994:	4520e893          	ori	a7,ra,1106
    80002998:	4168d29b          	sraiw	t0,a7,0x16
    8000299c:	00f45293          	srli	t0,s0,0xf
    800029a0:	8dad                	xor	a1,a1,a1
    800029a2:	00870f33          	add	t5,a4,s0
    800029a6:	01f00c3b          	addw	s8,zero,t6
    800029aa:	03b39993          	slli	s3,t2,0x3b
    800029ae:	cd268c13          	addi	s8,a3,-814
    800029b2:	00656917          	auipc	s2,0x656
    800029b6:	9f99                	subw	a5,a5,a4
    800029b8:	407b84bb          	subw	s1,s7,t2
    800029bc:	f747f813          	andi	a6,a5,-140
    800029c0:	8ccd                	or	s1,s1,a1
    800029c2:	00656917          	auipc	s2,0x656
    800029c6:	9b8e                	add	s7,s7,gp
    800029c8:	0088181b          	slliw	a6,a6,0x8
    800029cc:	9b8e                	add	s7,s7,gp
    800029ce:	40755e3b          	sraw	t3,a0,t2
    800029d2:	015d16bb          	sllw	a3,s10,s5
    800029d6:	01209933          	sll	s2,ra,s2
    800029da:	00656917          	auipc	s2,0x656
    800029de:	01a3c333          	xor	t1,t2,s10
    800029e2:	9f99                	subw	a5,a5,a4
    800029e4:	0137d79b          	srliw	a5,a5,0x13
    800029e8:	19e8ba37          	lui	s4,0x19e8b
    800029ec:	717d                	addi	sp,sp,-16
    800029ee:	01f00c3b          	addw	s8,zero,t6
    800029f2:	cd268c13          	addi	s8,a3,-814
    800029f6:	86be                	mv	a3,a5
    800029f8:	00acb4b3          	sltu	s1,s9,a0
    800029fc:	01209933          	sll	s2,ra,s2
    80002a00:	01a3c333          	xor	t1,t2,s10
    80002a04:	cd268c13          	addi	s8,a3,-814
    80002a08:	8431                	srai	s0,s0,0xc
    80002a0a:	0001                	nop
    80002a0c:	0137d79b          	srliw	a5,a5,0x13
    80002a10:	717d                	addi	sp,sp,-16
    80002a12:	9ea5                	addw	a3,a3,s1
    80002a14:	40755e3b          	sraw	t3,a0,t2
    80002a18:	0137d79b          	srliw	a5,a5,0x13
    80002a1c:	015d16bb          	sllw	a3,s10,s5
    80002a20:	8ccd                	or	s1,s1,a1
    80002a22:	0137d79b          	srliw	a5,a5,0x13
    80002a26:	42f85593          	srai	a1,a6,0x2f
    80002a2a:	99fd                	andi	a1,a1,-1
    80002a2c:	ee38b993          	sltiu	s3,a7,-285
    80002a30:	2d21                	addiw	s10,s10,8
    80002a32:	013fab33          	slt	s6,t6,s3
    80002a36:	197d                	addi	s2,s2,-1 # 806589d9 <_end+0x63c051>
    80002a38:	9335a213          	slti	tp,a1,-1741
    80002a3c:	00acb4b3          	sltu	s1,s9,a0
    80002a40:	50fd                	li	ra,-1
    80002a42:	0095ebb3          	or	s7,a1,s1
    80002a46:	6e8d                	lui	t4,0x3
    80002a48:	98b3089b          	addiw	a7,t1,-1653
    80002a4c:	01efd0bb          	srlw	ra,t6,t5
    80002a50:	4168d29b          	sraiw	t0,a7,0x16
    80002a54:	9b8e                	add	s7,s7,gp
    80002a56:	404f5833          	sra	a6,t5,tp
    80002a5a:	00656917          	auipc	s2,0x656
    80002a5e:	015d16bb          	sllw	a3,s10,s5
    80002a62:	407b84bb          	subw	s1,s7,t2
    80002a66:	19e8ba37          	lui	s4,0x19e8b
    80002a6a:	2d21                	addiw	s10,s10,8
    80002a6c:	00656917          	auipc	s2,0x656
    80002a70:	01209933          	sll	s2,ra,s2
    80002a74:	8431                	srai	s0,s0,0xc
    80002a76:	0137d79b          	srliw	a5,a5,0x13
    80002a7a:	00656917          	auipc	s2,0x656
    80002a7e:	8dad                	xor	a1,a1,a1
    80002a80:	00acb4b3          	sltu	s1,s9,a0
    80002a84:	01a3c333          	xor	t1,t2,s10
    80002a88:	8dad                	xor	a1,a1,a1
    80002a8a:	8ccd                	or	s1,s1,a1
    80002a8c:	01efd0bb          	srlw	ra,t6,t5
    80002a90:	98b3089b          	addiw	a7,t1,-1653
    80002a94:	98b3089b          	addiw	a7,t1,-1653
    80002a98:	9b8e                	add	s7,s7,gp
    80002a9a:	f747f813          	andi	a6,a5,-140
    80002a9e:	00fdf133          	and	sp,s11,a5
    80002aa2:	01f00c3b          	addw	s8,zero,t6
    80002aa6:	4520e893          	ori	a7,ra,1106
    80002aaa:	00870f33          	add	t5,a4,s0
    80002aae:	8dad                	xor	a1,a1,a1
    80002ab0:	98b3089b          	addiw	a7,t1,-1653
    80002ab4:	8dad                	xor	a1,a1,a1
    80002ab6:	406f04b3          	sub	s1,t5,t1
    80002aba:	cd268c13          	addi	s8,a3,-814
    80002abe:	404f5833          	sra	a6,t5,tp
    80002ac2:	9335a213          	slti	tp,a1,-1741
    80002ac6:	0001                	nop
    80002ac8:	00656917          	auipc	s2,0x656
    80002acc:	8271                	srli	a2,a2,0x1c
    80002ace:	0095ebb3          	or	s7,a1,s1
    80002ad2:	00acb4b3          	sltu	s1,s9,a0
    80002ad6:	f747f813          	andi	a6,a5,-140
    80002ada:	00fdf133          	and	sp,s11,a5
    80002ade:	00870f33          	add	t5,a4,s0
    80002ae2:	98b3089b          	addiw	a7,t1,-1653
    80002ae6:	1f6dce93          	xori	t4,s11,502
    80002aea:	0095ebb3          	or	s7,a1,s1
    80002aee:	ee38b993          	sltiu	s3,a7,-285
    80002af2:	0652                	slli	a2,a2,0x14
    80002af4:	01a3c333          	xor	t1,t2,s10
    80002af8:	407b84bb          	subw	s1,s7,t2
    80002afc:	01f00c3b          	addw	s8,zero,t6
    80002b00:	0137d79b          	srliw	a5,a5,0x13
    80002b04:	00656917          	auipc	s2,0x656
    80002b08:	8c61                	and	s0,s0,s0
    80002b0a:	cd268c13          	addi	s8,a3,-814
    80002b0e:	f747f813          	andi	a6,a5,-140
    80002b12:	0137d79b          	srliw	a5,a5,0x13
    80002b16:	00acb4b3          	sltu	s1,s9,a0
    80002b1a:	00f45293          	srli	t0,s0,0xf
    80002b1e:	50fd                	li	ra,-1
    80002b20:	8c61                	and	s0,s0,s0
    80002b22:	86be                	mv	a3,a5
    80002b24:	407b84bb          	subw	s1,s7,t2
    80002b28:	50fd                	li	ra,-1
    80002b2a:	00870f33          	add	t5,a4,s0
    80002b2e:	8271                	srli	a2,a2,0x1c
    80002b30:	8431                	srai	s0,s0,0xc
    80002b32:	8c61                	and	s0,s0,s0
    80002b34:	00fdf133          	and	sp,s11,a5
    80002b38:	8431                	srai	s0,s0,0xc
    80002b3a:	01209933          	sll	s2,ra,s2
    80002b3e:	1018                	addi	a4,sp,32
    80002b40:	407b84bb          	subw	s1,s7,t2
    80002b44:	01a3c333          	xor	t1,t2,s10
    80002b48:	01efd0bb          	srlw	ra,t6,t5
    80002b4c:	01efd0bb          	srlw	ra,t6,t5
    80002b50:	f747f813          	andi	a6,a5,-140
    80002b54:	015d16bb          	sllw	a3,s10,s5
    80002b58:	197d                	addi	s2,s2,-1 # 80658b03 <_end+0x63c17b>
    80002b5a:	8e9d                	sub	a3,a3,a5
    80002b5c:	8dad                	xor	a1,a1,a1
    80002b5e:	01209933          	sll	s2,ra,s2
    80002b62:	01a3c333          	xor	t1,t2,s10
    80002b66:	98b3089b          	addiw	a7,t1,-1653
    80002b6a:	50fd                	li	ra,-1
    80002b6c:	00065a33          	srl	s4,a2,zero
    80002b70:	6e8d                	lui	t4,0x3
    80002b72:	86be                	mv	a3,a5
    80002b74:	00870f33          	add	t5,a4,s0
    80002b78:	8ccd                	or	s1,s1,a1
    80002b7a:	40755e3b          	sraw	t3,a0,t2
    80002b7e:	8ccd                	or	s1,s1,a1
    80002b80:	9b8e                	add	s7,s7,gp
    80002b82:	99fd                	andi	a1,a1,-1
    80002b84:	4520e893          	ori	a7,ra,1106
    80002b88:	0095ebb3          	or	s7,a1,s1
    80002b8c:	98b3089b          	addiw	a7,t1,-1653
    80002b90:	00870f33          	add	t5,a4,s0
    80002b94:	00656917          	auipc	s2,0x656
    80002b98:	00656917          	auipc	s2,0x656
    80002b9c:	0088181b          	slliw	a6,a6,0x8
    80002ba0:	00f45293          	srli	t0,s0,0xf
    80002ba4:	015d16bb          	sllw	a3,s10,s5
    80002ba8:	8271                	srli	a2,a2,0x1c
    80002baa:	99fd                	andi	a1,a1,-1
    80002bac:	50fd                	li	ra,-1
    80002bae:	717d                	addi	sp,sp,-16
    80002bb0:	0088181b          	slliw	a6,a6,0x8
    80002bb4:	01209933          	sll	s2,ra,s2
    80002bb8:	19e8ba37          	lui	s4,0x19e8b
    80002bbc:	00656917          	auipc	s2,0x656
    80002bc0:	19e8ba37          	lui	s4,0x19e8b
    80002bc4:	01efd0bb          	srlw	ra,t6,t5
    80002bc8:	0001                	nop
    80002bca:	0088181b          	slliw	a6,a6,0x8
    80002bce:	0088181b          	slliw	a6,a6,0x8
    80002bd2:	407b84bb          	subw	s1,s7,t2
    80002bd6:	99fd                	andi	a1,a1,-1
    80002bd8:	01a3c333          	xor	t1,t2,s10
    80002bdc:	00acb4b3          	sltu	s1,s9,a0
    80002be0:	8431                	srai	s0,s0,0xc
    80002be2:	717d                	addi	sp,sp,-16
    80002be4:	717d                	addi	sp,sp,-16
    80002be6:	9335a213          	slti	tp,a1,-1741
    80002bea:	00656917          	auipc	s2,0x656
    80002bee:	99fd                	andi	a1,a1,-1
    80002bf0:	00870f33          	add	t5,a4,s0
    80002bf4:	8c61                	and	s0,s0,s0
    80002bf6:	1f6dce93          	xori	t4,s11,502
    80002bfa:	015d16bb          	sllw	a3,s10,s5
    80002bfe:	0652                	slli	a2,a2,0x14
    80002c00:	01f00c3b          	addw	s8,zero,t6
    80002c04:	8271                	srli	a2,a2,0x1c
    80002c06:	9ea5                	addw	a3,a3,s1
    80002c08:	00fdf133          	and	sp,s11,a5
    80002c0c:	197d                	addi	s2,s2,-1 # 80658be9 <_end+0x63c261>
    80002c0e:	00acb4b3          	sltu	s1,s9,a0
    80002c12:	406f04b3          	sub	s1,t5,t1
    80002c16:	4168d29b          	sraiw	t0,a7,0x16
    80002c1a:	03b39993          	slli	s3,t2,0x3b
    80002c1e:	ee38b993          	sltiu	s3,a7,-285
    80002c22:	03b39993          	slli	s3,t2,0x3b
    80002c26:	00f45293          	srli	t0,s0,0xf
    80002c2a:	0001                	nop
    80002c2c:	ee38b993          	sltiu	s3,a7,-285
    80002c30:	0652                	slli	a2,a2,0x14
    80002c32:	01efd0bb          	srlw	ra,t6,t5
    80002c36:	50fd                	li	ra,-1
    80002c38:	00065a33          	srl	s4,a2,zero
    80002c3c:	013fab33          	slt	s6,t6,s3
    80002c40:	2d21                	addiw	s10,s10,8
    80002c42:	0088181b          	slliw	a6,a6,0x8
    80002c46:	4168d29b          	sraiw	t0,a7,0x16
    80002c4a:	86be                	mv	a3,a5
    80002c4c:	00065a33          	srl	s4,a2,zero
    80002c50:	407b84bb          	subw	s1,s7,t2
    80002c54:	0088181b          	slliw	a6,a6,0x8
    80002c58:	cd268c13          	addi	s8,a3,-814
    80002c5c:	0088181b          	slliw	a6,a6,0x8
    80002c60:	1018                	addi	a4,sp,32
    80002c62:	98b3089b          	addiw	a7,t1,-1653
    80002c66:	4520e893          	ori	a7,ra,1106
    80002c6a:	86be                	mv	a3,a5
    80002c6c:	0001                	nop
    80002c6e:	0001                	nop
    80002c70:	00fdf133          	and	sp,s11,a5
    80002c74:	00870f33          	add	t5,a4,s0
    80002c78:	50fd                	li	ra,-1
    80002c7a:	0001                	nop
    80002c7c:	86be                	mv	a3,a5
    80002c7e:	ee38b993          	sltiu	s3,a7,-285
    80002c82:	01a3c333          	xor	t1,t2,s10
    80002c86:	9335a213          	slti	tp,a1,-1741
    80002c8a:	cd268c13          	addi	s8,a3,-814
    80002c8e:	50fd                	li	ra,-1
    80002c90:	03b39993          	slli	s3,t2,0x3b
    80002c94:	4520e893          	ori	a7,ra,1106
    80002c98:	013fab33          	slt	s6,t6,s3
    80002c9c:	03b39993          	slli	s3,t2,0x3b
    80002ca0:	9ea5                	addw	a3,a3,s1
    80002ca2:	86be                	mv	a3,a5
    80002ca4:	00870f33          	add	t5,a4,s0
    80002ca8:	9b8e                	add	s7,s7,gp
    80002caa:	01209933          	sll	s2,ra,s2
    80002cae:	86be                	mv	a3,a5
    80002cb0:	8c61                	and	s0,s0,s0
    80002cb2:	50fd                	li	ra,-1
    80002cb4:	8dad                	xor	a1,a1,a1
    80002cb6:	19e8ba37          	lui	s4,0x19e8b
    80002cba:	8ccd                	or	s1,s1,a1
    80002cbc:	0088181b          	slliw	a6,a6,0x8
    80002cc0:	0001                	nop
    80002cc2:	8271                	srli	a2,a2,0x1c
    80002cc4:	9b8e                	add	s7,s7,gp
    80002cc6:	8431                	srai	s0,s0,0xc
    80002cc8:	86be                	mv	a3,a5
    80002cca:	406f04b3          	sub	s1,t5,t1
    80002cce:	0095ebb3          	or	s7,a1,s1
    80002cd2:	42f85593          	srai	a1,a6,0x2f
    80002cd6:	19e8ba37          	lui	s4,0x19e8b
    80002cda:	00656917          	auipc	s2,0x656
    80002cde:	0095ebb3          	or	s7,a1,s1
    80002ce2:	1018                	addi	a4,sp,32
    80002ce4:	4168d29b          	sraiw	t0,a7,0x16
    80002ce8:	ee38b993          	sltiu	s3,a7,-285
    80002cec:	013fab33          	slt	s6,t6,s3
    80002cf0:	4168d29b          	sraiw	t0,a7,0x16
    80002cf4:	9335a213          	slti	tp,a1,-1741
    80002cf8:	2d21                	addiw	s10,s10,8
    80002cfa:	03b39993          	slli	s3,t2,0x3b
    80002cfe:	86be                	mv	a3,a5
    80002d00:	03b39993          	slli	s3,t2,0x3b
    80002d04:	6e8d                	lui	t4,0x3
    80002d06:	015d16bb          	sllw	a3,s10,s5
    80002d0a:	00870f33          	add	t5,a4,s0
    80002d0e:	0137d79b          	srliw	a5,a5,0x13
    80002d12:	01efd0bb          	srlw	ra,t6,t5
    80002d16:	00f45293          	srli	t0,s0,0xf
    80002d1a:	9ea5                	addw	a3,a3,s1
    80002d1c:	40755e3b          	sraw	t3,a0,t2
    80002d20:	406f04b3          	sub	s1,t5,t1
    80002d24:	0001                	nop
    80002d26:	4168d29b          	sraiw	t0,a7,0x16
    80002d2a:	8271                	srli	a2,a2,0x1c
    80002d2c:	86be                	mv	a3,a5
    80002d2e:	00fdf133          	and	sp,s11,a5
    80002d32:	f747f813          	andi	a6,a5,-140
    80002d36:	01efd0bb          	srlw	ra,t6,t5
    80002d3a:	f747f813          	andi	a6,a5,-140
    80002d3e:	cd268c13          	addi	s8,a3,-814
    80002d42:	00fdf133          	and	sp,s11,a5
    80002d46:	407b84bb          	subw	s1,s7,t2
    80002d4a:	0652                	slli	a2,a2,0x14
    80002d4c:	00acb4b3          	sltu	s1,s9,a0
    80002d50:	9ea5                	addw	a3,a3,s1
    80002d52:	406f04b3          	sub	s1,t5,t1
    80002d56:	0088181b          	slliw	a6,a6,0x8
    80002d5a:	8c61                	and	s0,s0,s0
    80002d5c:	99fd                	andi	a1,a1,-1
    80002d5e:	8431                	srai	s0,s0,0xc
    80002d60:	f747f813          	andi	a6,a5,-140
    80002d64:	8431                	srai	s0,s0,0xc
    80002d66:	99fd                	andi	a1,a1,-1
    80002d68:	4168d29b          	sraiw	t0,a7,0x16
    80002d6c:	0001                	nop
    80002d6e:	013fab33          	slt	s6,t6,s3
    80002d72:	4168d29b          	sraiw	t0,a7,0x16
    80002d76:	99fd                	andi	a1,a1,-1
    80002d78:	2d21                	addiw	s10,s10,8
    80002d7a:	1018                	addi	a4,sp,32
    80002d7c:	19e8ba37          	lui	s4,0x19e8b
    80002d80:	8431                	srai	s0,s0,0xc
    80002d82:	01efd0bb          	srlw	ra,t6,t5
    80002d86:	717d                	addi	sp,sp,-16
    80002d88:	40755e3b          	sraw	t3,a0,t2
    80002d8c:	013fab33          	slt	s6,t6,s3
    80002d90:	42f85593          	srai	a1,a6,0x2f
    80002d94:	98b3089b          	addiw	a7,t1,-1653
    80002d98:	1f6dce93          	xori	t4,s11,502
    80002d9c:	00065a33          	srl	s4,a2,zero
    80002da0:	9b8e                	add	s7,s7,gp
    80002da2:	00fdf133          	and	sp,s11,a5
    80002da6:	9335a213          	slti	tp,a1,-1741
    80002daa:	6e8d                	lui	t4,0x3
    80002dac:	8e9d                	sub	a3,a3,a5
    80002dae:	8c61                	and	s0,s0,s0
    80002db0:	0095ebb3          	or	s7,a1,s1
    80002db4:	8dad                	xor	a1,a1,a1
    80002db6:	ee38b993          	sltiu	s3,a7,-285
    80002dba:	2d21                	addiw	s10,s10,8
    80002dbc:	98b3089b          	addiw	a7,t1,-1653
    80002dc0:	00acb4b3          	sltu	s1,s9,a0
    80002dc4:	00f45293          	srli	t0,s0,0xf
    80002dc8:	2d21                	addiw	s10,s10,8
    80002dca:	00065a33          	srl	s4,a2,zero
    80002dce:	98b3089b          	addiw	a7,t1,-1653
    80002dd2:	0095ebb3          	or	s7,a1,s1
    80002dd6:	8271                	srli	a2,a2,0x1c
    80002dd8:	0652                	slli	a2,a2,0x14
    80002dda:	013fab33          	slt	s6,t6,s3
    80002dde:	42f85593          	srai	a1,a6,0x2f
    80002de2:	2d21                	addiw	s10,s10,8
    80002de4:	8271                	srli	a2,a2,0x1c
    80002de6:	42f85593          	srai	a1,a6,0x2f
    80002dea:	8431                	srai	s0,s0,0xc
    80002dec:	f747f813          	andi	a6,a5,-140
    80002df0:	2d21                	addiw	s10,s10,8
    80002df2:	8ccd                	or	s1,s1,a1
    80002df4:	6e8d                	lui	t4,0x3
    80002df6:	9f99                	subw	a5,a5,a4
    80002df8:	404f5833          	sra	a6,t5,tp
    80002dfc:	8271                	srli	a2,a2,0x1c
    80002dfe:	1018                	addi	a4,sp,32
    80002e00:	8431                	srai	s0,s0,0xc
    80002e02:	197d                	addi	s2,s2,-1 # 80658cd9 <_end+0x63c351>
    80002e04:	00fdf133          	and	sp,s11,a5
    80002e08:	01a3c333          	xor	t1,t2,s10
    80002e0c:	ee38b993          	sltiu	s3,a7,-285
    80002e10:	98b3089b          	addiw	a7,t1,-1653
    80002e14:	8dad                	xor	a1,a1,a1
    80002e16:	f747f813          	andi	a6,a5,-140
    80002e1a:	8431                	srai	s0,s0,0xc
    80002e1c:	00656917          	auipc	s2,0x656
    80002e20:	0652                	slli	a2,a2,0x14
    80002e22:	0001                	nop
    80002e24:	406f04b3          	sub	s1,t5,t1
    80002e28:	4168d29b          	sraiw	t0,a7,0x16
    80002e2c:	00065a33          	srl	s4,a2,zero
    80002e30:	0001                	nop
    80002e32:	9ea5                	addw	a3,a3,s1
    80002e34:	00870f33          	add	t5,a4,s0
    80002e38:	98b3089b          	addiw	a7,t1,-1653
    80002e3c:	717d                	addi	sp,sp,-16
    80002e3e:	2d21                	addiw	s10,s10,8
    80002e40:	01efd0bb          	srlw	ra,t6,t5
    80002e44:	50fd                	li	ra,-1
    80002e46:	00acb4b3          	sltu	s1,s9,a0
    80002e4a:	f747f813          	andi	a6,a5,-140
    80002e4e:	9ea5                	addw	a3,a3,s1
    80002e50:	f747f813          	andi	a6,a5,-140
    80002e54:	717d                	addi	sp,sp,-16
    80002e56:	4168d29b          	sraiw	t0,a7,0x16
    80002e5a:	00f45293          	srli	t0,s0,0xf
    80002e5e:	717d                	addi	sp,sp,-16
    80002e60:	0652                	slli	a2,a2,0x14
    80002e62:	1018                	addi	a4,sp,32
    80002e64:	8e9d                	sub	a3,a3,a5
    80002e66:	cd268c13          	addi	s8,a3,-814
    80002e6a:	42f85593          	srai	a1,a6,0x2f
    80002e6e:	0652                	slli	a2,a2,0x14
    80002e70:	4520e893          	ori	a7,ra,1106
    80002e74:	19e8ba37          	lui	s4,0x19e8b
    80002e78:	8431                	srai	s0,s0,0xc
    80002e7a:	8c61                	and	s0,s0,s0
    80002e7c:	0088181b          	slliw	a6,a6,0x8
    80002e80:	404f5833          	sra	a6,t5,tp
    80002e84:	00acb4b3          	sltu	s1,s9,a0
    80002e88:	00870f33          	add	t5,a4,s0
    80002e8c:	01209933          	sll	s2,ra,s2
    80002e90:	19e8ba37          	lui	s4,0x19e8b
    80002e94:	42f85593          	srai	a1,a6,0x2f
    80002e98:	19e8ba37          	lui	s4,0x19e8b
    80002e9c:	00fdf133          	and	sp,s11,a5
    80002ea0:	00acb4b3          	sltu	s1,s9,a0
    80002ea4:	8c61                	and	s0,s0,s0
    80002ea6:	99fd                	andi	a1,a1,-1
    80002ea8:	9335a213          	slti	tp,a1,-1741
    80002eac:	8c61                	and	s0,s0,s0
    80002eae:	00fdf133          	and	sp,s11,a5
    80002eb2:	42f85593          	srai	a1,a6,0x2f
    80002eb6:	0652                	slli	a2,a2,0x14
    80002eb8:	0001                	nop
    80002eba:	2d21                	addiw	s10,s10,8
    80002ebc:	404f5833          	sra	a6,t5,tp
    80002ec0:	86be                	mv	a3,a5
    80002ec2:	00f45293          	srli	t0,s0,0xf
    80002ec6:	6e8d                	lui	t4,0x3
    80002ec8:	00656917          	auipc	s2,0x656
    80002ecc:	1018                	addi	a4,sp,32
    80002ece:	00acb4b3          	sltu	s1,s9,a0
    80002ed2:	406f04b3          	sub	s1,t5,t1
    80002ed6:	8271                	srli	a2,a2,0x1c
    80002ed8:	0137d79b          	srliw	a5,a5,0x13
    80002edc:	0095ebb3          	or	s7,a1,s1
    80002ee0:	015d16bb          	sllw	a3,s10,s5
    80002ee4:	6e8d                	lui	t4,0x3
    80002ee6:	6e8d                	lui	t4,0x3
    80002ee8:	ee38b993          	sltiu	s3,a7,-285
    80002eec:	9ea5                	addw	a3,a3,s1
    80002eee:	0652                	slli	a2,a2,0x14
    80002ef0:	8e9d                	sub	a3,a3,a5
    80002ef2:	00acb4b3          	sltu	s1,s9,a0
    80002ef6:	03b39993          	slli	s3,t2,0x3b
    80002efa:	0001                	nop
    80002efc:	1018                	addi	a4,sp,32
    80002efe:	ee38b993          	sltiu	s3,a7,-285
    80002f02:	f747f813          	andi	a6,a5,-140
    80002f06:	ee38b993          	sltiu	s3,a7,-285
    80002f0a:	0652                	slli	a2,a2,0x14
    80002f0c:	406f04b3          	sub	s1,t5,t1
    80002f10:	0652                	slli	a2,a2,0x14
    80002f12:	19e8ba37          	lui	s4,0x19e8b
    80002f16:	717d                	addi	sp,sp,-16
    80002f18:	717d                	addi	sp,sp,-16
    80002f1a:	99fd                	andi	a1,a1,-1
    80002f1c:	013fab33          	slt	s6,t6,s3
    80002f20:	50fd                	li	ra,-1
    80002f22:	01efd0bb          	srlw	ra,t6,t5
    80002f26:	0001                	nop
    80002f28:	9335a213          	slti	tp,a1,-1741
    80002f2c:	99fd                	andi	a1,a1,-1
    80002f2e:	8e9d                	sub	a3,a3,a5
    80002f30:	0001                	nop
    80002f32:	98b3089b          	addiw	a7,t1,-1653
    80002f36:	0001                	nop
    80002f38:	01efd0bb          	srlw	ra,t6,t5
    80002f3c:	00fdf133          	and	sp,s11,a5
    80002f40:	42f85593          	srai	a1,a6,0x2f
    80002f44:	00acb4b3          	sltu	s1,s9,a0
    80002f48:	8431                	srai	s0,s0,0xc
    80002f4a:	01efd0bb          	srlw	ra,t6,t5
    80002f4e:	86be                	mv	a3,a5
    80002f50:	00656917          	auipc	s2,0x656
    80002f54:	9335a213          	slti	tp,a1,-1741
    80002f58:	0088181b          	slliw	a6,a6,0x8
    80002f5c:	407b84bb          	subw	s1,s7,t2
    80002f60:	2d21                	addiw	s10,s10,8
    80002f62:	1f6dce93          	xori	t4,s11,502
    80002f66:	0001                	nop
    80002f68:	00656917          	auipc	s2,0x656
    80002f6c:	197d                	addi	s2,s2,-1 # 80658f67 <_end+0x63c5df>
    80002f6e:	406f04b3          	sub	s1,t5,t1
    80002f72:	717d                	addi	sp,sp,-16
    80002f74:	4520e893          	ori	a7,ra,1106
    80002f78:	19e8ba37          	lui	s4,0x19e8b
    80002f7c:	1018                	addi	a4,sp,32
    80002f7e:	407b84bb          	subw	s1,s7,t2
    80002f82:	98b3089b          	addiw	a7,t1,-1653
    80002f86:	8431                	srai	s0,s0,0xc
    80002f88:	00870f33          	add	t5,a4,s0
    80002f8c:	8431                	srai	s0,s0,0xc
    80002f8e:	0088181b          	slliw	a6,a6,0x8
    80002f92:	00fdf133          	and	sp,s11,a5
    80002f96:	19e8ba37          	lui	s4,0x19e8b
    80002f9a:	8ccd                	or	s1,s1,a1
    80002f9c:	00acb4b3          	sltu	s1,s9,a0
    80002fa0:	01a3c333          	xor	t1,t2,s10
    80002fa4:	00f45293          	srli	t0,s0,0xf
    80002fa8:	42f85593          	srai	a1,a6,0x2f
    80002fac:	99fd                	andi	a1,a1,-1
    80002fae:	013fab33          	slt	s6,t6,s3
    80002fb2:	404f5833          	sra	a6,t5,tp
    80002fb6:	50fd                	li	ra,-1
    80002fb8:	00fdf133          	and	sp,s11,a5
    80002fbc:	9ea5                	addw	a3,a3,s1
    80002fbe:	2d21                	addiw	s10,s10,8
    80002fc0:	717d                	addi	sp,sp,-16
    80002fc2:	8271                	srli	a2,a2,0x1c
    80002fc4:	4520e893          	ori	a7,ra,1106
    80002fc8:	404f5833          	sra	a6,t5,tp
    80002fcc:	9335a213          	slti	tp,a1,-1741
    80002fd0:	03b39993          	slli	s3,t2,0x3b
    80002fd4:	00acb4b3          	sltu	s1,s9,a0
    80002fd8:	50fd                	li	ra,-1
    80002fda:	1f6dce93          	xori	t4,s11,502
    80002fde:	1f6dce93          	xori	t4,s11,502
    80002fe2:	4168d29b          	sraiw	t0,a7,0x16
    80002fe6:	40755e3b          	sraw	t3,a0,t2
    80002fea:	42f85593          	srai	a1,a6,0x2f
    80002fee:	0001                	nop
    80002ff0:	50fd                	li	ra,-1
    80002ff2:	98b3089b          	addiw	a7,t1,-1653
    80002ff6:	00f45293          	srli	t0,s0,0xf
    80002ffa:	0001                	nop
    80002ffc:	cd268c13          	addi	s8,a3,-814
    80003000:	cd268c13          	addi	s8,a3,-814
    80003004:	0652                	slli	a2,a2,0x14
    80003006:	717d                	addi	sp,sp,-16
    80003008:	98b3089b          	addiw	a7,t1,-1653
    8000300c:	00870f33          	add	t5,a4,s0
    80003010:	2d21                	addiw	s10,s10,8
    80003012:	0088181b          	slliw	a6,a6,0x8
    80003016:	01209933          	sll	s2,ra,s2
    8000301a:	01209933          	sll	s2,ra,s2
    8000301e:	00065a33          	srl	s4,a2,zero
    80003022:	9ea5                	addw	a3,a3,s1
    80003024:	8dad                	xor	a1,a1,a1
    80003026:	404f5833          	sra	a6,t5,tp
    8000302a:	86be                	mv	a3,a5
    8000302c:	8c61                	and	s0,s0,s0
    8000302e:	015d16bb          	sllw	a3,s10,s5
    80003032:	8ccd                	or	s1,s1,a1
    80003034:	ee38b993          	sltiu	s3,a7,-285
    80003038:	01f00c3b          	addw	s8,zero,t6
    8000303c:	42f85593          	srai	a1,a6,0x2f
    80003040:	00870f33          	add	t5,a4,s0
    80003044:	8e9d                	sub	a3,a3,a5
    80003046:	404f5833          	sra	a6,t5,tp
    8000304a:	00acb4b3          	sltu	s1,s9,a0
    8000304e:	8431                	srai	s0,s0,0xc
    80003050:	00656917          	auipc	s2,0x656
    80003054:	404f5833          	sra	a6,t5,tp
    80003058:	1f6dce93          	xori	t4,s11,502
    8000305c:	00065a33          	srl	s4,a2,zero
    80003060:	99fd                	andi	a1,a1,-1
    80003062:	8c61                	and	s0,s0,s0
    80003064:	8e9d                	sub	a3,a3,a5
    80003066:	1018                	addi	a4,sp,32
    80003068:	00870f33          	add	t5,a4,s0
    8000306c:	015d16bb          	sllw	a3,s10,s5
    80003070:	f747f813          	andi	a6,a5,-140
    80003074:	99fd                	andi	a1,a1,-1
    80003076:	8271                	srli	a2,a2,0x1c
    80003078:	99fd                	andi	a1,a1,-1
    8000307a:	00656917          	auipc	s2,0x656
    8000307e:	404f5833          	sra	a6,t5,tp
    80003082:	8271                	srli	a2,a2,0x1c
    80003084:	404f5833          	sra	a6,t5,tp
    80003088:	8c61                	and	s0,s0,s0
    8000308a:	9f99                	subw	a5,a5,a4
    8000308c:	ee38b993          	sltiu	s3,a7,-285
    80003090:	6e8d                	lui	t4,0x3
    80003092:	8ccd                	or	s1,s1,a1
    80003094:	86be                	mv	a3,a5
    80003096:	8e9d                	sub	a3,a3,a5
    80003098:	40755e3b          	sraw	t3,a0,t2
    8000309c:	8271                	srli	a2,a2,0x1c
    8000309e:	01209933          	sll	s2,ra,s2
    800030a2:	8431                	srai	s0,s0,0xc
    800030a4:	8431                	srai	s0,s0,0xc
    800030a6:	0088181b          	slliw	a6,a6,0x8
    800030aa:	013fab33          	slt	s6,t6,s3
    800030ae:	01f00c3b          	addw	s8,zero,t6
    800030b2:	42f85593          	srai	a1,a6,0x2f
    800030b6:	00870f33          	add	t5,a4,s0
    800030ba:	6e8d                	lui	t4,0x3
    800030bc:	40755e3b          	sraw	t3,a0,t2
    800030c0:	8271                	srli	a2,a2,0x1c
    800030c2:	4168d29b          	sraiw	t0,a7,0x16
    800030c6:	cd268c13          	addi	s8,a3,-814
    800030ca:	01209933          	sll	s2,ra,s2
    800030ce:	f747f813          	andi	a6,a5,-140
    800030d2:	6e8d                	lui	t4,0x3
    800030d4:	86be                	mv	a3,a5
    800030d6:	00065a33          	srl	s4,a2,zero
    800030da:	717d                	addi	sp,sp,-16
    800030dc:	8271                	srli	a2,a2,0x1c
    800030de:	8e9d                	sub	a3,a3,a5
    800030e0:	1f6dce93          	xori	t4,s11,502
    800030e4:	01209933          	sll	s2,ra,s2
    800030e8:	0095ebb3          	or	s7,a1,s1
    800030ec:	9b8e                	add	s7,s7,gp
    800030ee:	8dad                	xor	a1,a1,a1
    800030f0:	404f5833          	sra	a6,t5,tp
    800030f4:	8271                	srli	a2,a2,0x1c
    800030f6:	4168d29b          	sraiw	t0,a7,0x16
    800030fa:	00656917          	auipc	s2,0x656
    800030fe:	50fd                	li	ra,-1
    80003100:	9335a213          	slti	tp,a1,-1741
    80003104:	40755e3b          	sraw	t3,a0,t2
    80003108:	404f5833          	sra	a6,t5,tp
    8000310c:	98b3089b          	addiw	a7,t1,-1653
    80003110:	00870f33          	add	t5,a4,s0
    80003114:	0652                	slli	a2,a2,0x14
    80003116:	9b8e                	add	s7,s7,gp
    80003118:	01efd0bb          	srlw	ra,t6,t5
    8000311c:	19e8ba37          	lui	s4,0x19e8b
    80003120:	717d                	addi	sp,sp,-16
    80003122:	4520e893          	ori	a7,ra,1106
    80003126:	197d                	addi	s2,s2,-1 # 806590f9 <_end+0x63c771>
    80003128:	0001                	nop
    8000312a:	99fd                	andi	a1,a1,-1
    8000312c:	19e8ba37          	lui	s4,0x19e8b
    80003130:	86be                	mv	a3,a5
    80003132:	1018                	addi	a4,sp,32
    80003134:	0001                	nop
    80003136:	19e8ba37          	lui	s4,0x19e8b
    8000313a:	03b39993          	slli	s3,t2,0x3b
    8000313e:	00fdf133          	and	sp,s11,a5
    80003142:	50fd                	li	ra,-1
    80003144:	717d                	addi	sp,sp,-16
    80003146:	cd268c13          	addi	s8,a3,-814
    8000314a:	03b39993          	slli	s3,t2,0x3b
    8000314e:	00f45293          	srli	t0,s0,0xf
    80003152:	717d                	addi	sp,sp,-16
    80003154:	ee38b993          	sltiu	s3,a7,-285
    80003158:	cd268c13          	addi	s8,a3,-814
    8000315c:	8431                	srai	s0,s0,0xc
    8000315e:	00065a33          	srl	s4,a2,zero
    80003162:	404f5833          	sra	a6,t5,tp
    80003166:	00f45293          	srli	t0,s0,0xf
    8000316a:	19e8ba37          	lui	s4,0x19e8b
    8000316e:	98b3089b          	addiw	a7,t1,-1653
    80003172:	8ccd                	or	s1,s1,a1
    80003174:	0137d79b          	srliw	a5,a5,0x13
    80003178:	42f85593          	srai	a1,a6,0x2f
    8000317c:	1f6dce93          	xori	t4,s11,502
    80003180:	01209933          	sll	s2,ra,s2
    80003184:	8271                	srli	a2,a2,0x1c
    80003186:	717d                	addi	sp,sp,-16
    80003188:	717d                	addi	sp,sp,-16
    8000318a:	40755e3b          	sraw	t3,a0,t2
    8000318e:	01209933          	sll	s2,ra,s2
    80003192:	2d21                	addiw	s10,s10,8
    80003194:	9335a213          	slti	tp,a1,-1741
    80003198:	015d16bb          	sllw	a3,s10,s5
    8000319c:	1f6dce93          	xori	t4,s11,502
    800031a0:	9f99                	subw	a5,a5,a4
    800031a2:	42f85593          	srai	a1,a6,0x2f
    800031a6:	03b39993          	slli	s3,t2,0x3b
    800031aa:	015d16bb          	sllw	a3,s10,s5
    800031ae:	42f85593          	srai	a1,a6,0x2f
    800031b2:	407b84bb          	subw	s1,s7,t2
    800031b6:	98b3089b          	addiw	a7,t1,-1653
    800031ba:	0137d79b          	srliw	a5,a5,0x13
    800031be:	8271                	srli	a2,a2,0x1c
    800031c0:	98b3089b          	addiw	a7,t1,-1653
    800031c4:	cd268c13          	addi	s8,a3,-814
    800031c8:	0088181b          	slliw	a6,a6,0x8
    800031cc:	00065a33          	srl	s4,a2,zero
    800031d0:	015d16bb          	sllw	a3,s10,s5
    800031d4:	406f04b3          	sub	s1,t5,t1
    800031d8:	8431                	srai	s0,s0,0xc
    800031da:	9b8e                	add	s7,s7,gp
    800031dc:	8431                	srai	s0,s0,0xc
    800031de:	407b84bb          	subw	s1,s7,t2
    800031e2:	6e8d                	lui	t4,0x3
    800031e4:	9335a213          	slti	tp,a1,-1741
    800031e8:	00f45293          	srli	t0,s0,0xf
    800031ec:	0001                	nop
    800031ee:	197d                	addi	s2,s2,-1
    800031f0:	8dad                	xor	a1,a1,a1
    800031f2:	2d21                	addiw	s10,s10,8
    800031f4:	0001                	nop
    800031f6:	8dad                	xor	a1,a1,a1
    800031f8:	197d                	addi	s2,s2,-1
    800031fa:	42f85593          	srai	a1,a6,0x2f
    800031fe:	9335a213          	slti	tp,a1,-1741
    80003202:	98b3089b          	addiw	a7,t1,-1653
    80003206:	406f04b3          	sub	s1,t5,t1
    8000320a:	013fab33          	slt	s6,t6,s3
    8000320e:	99fd                	andi	a1,a1,-1
    80003210:	404f5833          	sra	a6,t5,tp
    80003214:	8271                	srli	a2,a2,0x1c
    80003216:	9f99                	subw	a5,a5,a4
    80003218:	8dad                	xor	a1,a1,a1
    8000321a:	2d21                	addiw	s10,s10,8
    8000321c:	8dad                	xor	a1,a1,a1
    8000321e:	86be                	mv	a3,a5
    80003220:	f747f813          	andi	a6,a5,-140
    80003224:	8ccd                	or	s1,s1,a1
    80003226:	cd268c13          	addi	s8,a3,-814
    8000322a:	9f99                	subw	a5,a5,a4
    8000322c:	0095ebb3          	or	s7,a1,s1
    80003230:	50fd                	li	ra,-1
    80003232:	2d21                	addiw	s10,s10,8
    80003234:	0001                	nop
    80003236:	8431                	srai	s0,s0,0xc
    80003238:	01efd0bb          	srlw	ra,t6,t5
    8000323c:	4520e893          	ori	a7,ra,1106
    80003240:	8431                	srai	s0,s0,0xc
    80003242:	00870f33          	add	t5,a4,s0
    80003246:	406f04b3          	sub	s1,t5,t1
    8000324a:	50fd                	li	ra,-1
    8000324c:	406f04b3          	sub	s1,t5,t1
    80003250:	8c61                	and	s0,s0,s0
    80003252:	42f85593          	srai	a1,a6,0x2f
    80003256:	01efd0bb          	srlw	ra,t6,t5
    8000325a:	407b84bb          	subw	s1,s7,t2
    8000325e:	19e8ba37          	lui	s4,0x19e8b
    80003262:	01f00c3b          	addw	s8,zero,t6
    80003266:	03b39993          	slli	s3,t2,0x3b
    8000326a:	f747f813          	andi	a6,a5,-140
    8000326e:	19e8ba37          	lui	s4,0x19e8b
    80003272:	99fd                	andi	a1,a1,-1
    80003274:	8dad                	xor	a1,a1,a1
    80003276:	00656917          	auipc	s2,0x656
    8000327a:	8e9d                	sub	a3,a3,a5
    8000327c:	013fab33          	slt	s6,t6,s3
    80003280:	00065a33          	srl	s4,a2,zero
    80003284:	00acb4b3          	sltu	s1,s9,a0
    80003288:	01a3c333          	xor	t1,t2,s10
    8000328c:	015d16bb          	sllw	a3,s10,s5
    80003290:	00f45293          	srli	t0,s0,0xf
    80003294:	0137d79b          	srliw	a5,a5,0x13
    80003298:	42f85593          	srai	a1,a6,0x2f
    8000329c:	98b3089b          	addiw	a7,t1,-1653
    800032a0:	cd268c13          	addi	s8,a3,-814
    800032a4:	0088181b          	slliw	a6,a6,0x8
    800032a8:	00065a33          	srl	s4,a2,zero
    800032ac:	00656917          	auipc	s2,0x656
    800032b0:	8dad                	xor	a1,a1,a1
    800032b2:	0088181b          	slliw	a6,a6,0x8
    800032b6:	00065a33          	srl	s4,a2,zero
    800032ba:	1f6dce93          	xori	t4,s11,502
    800032be:	f747f813          	andi	a6,a5,-140
    800032c2:	4168d29b          	sraiw	t0,a7,0x16
    800032c6:	01209933          	sll	s2,ra,s2
    800032ca:	4168d29b          	sraiw	t0,a7,0x16
    800032ce:	0095ebb3          	or	s7,a1,s1
    800032d2:	86be                	mv	a3,a5
    800032d4:	00870f33          	add	t5,a4,s0
    800032d8:	197d                	addi	s2,s2,-1 # 806592ab <_end+0x63c923>
    800032da:	99fd                	andi	a1,a1,-1
    800032dc:	01a3c333          	xor	t1,t2,s10
    800032e0:	8271                	srli	a2,a2,0x1c
    800032e2:	0001                	nop
    800032e4:	197d                	addi	s2,s2,-1
    800032e6:	00656917          	auipc	s2,0x656
    800032ea:	0095ebb3          	or	s7,a1,s1
    800032ee:	0001                	nop
    800032f0:	01f00c3b          	addw	s8,zero,t6
    800032f4:	8ccd                	or	s1,s1,a1
    800032f6:	ee38b993          	sltiu	s3,a7,-285
    800032fa:	9f99                	subw	a5,a5,a4
    800032fc:	4168d29b          	sraiw	t0,a7,0x16
    80003300:	8431                	srai	s0,s0,0xc
    80003302:	9ea5                	addw	a3,a3,s1
    80003304:	9b8e                	add	s7,s7,gp
    80003306:	717d                	addi	sp,sp,-16
    80003308:	8431                	srai	s0,s0,0xc
    8000330a:	8c61                	and	s0,s0,s0
    8000330c:	00870f33          	add	t5,a4,s0
    80003310:	9ea5                	addw	a3,a3,s1
    80003312:	8c61                	and	s0,s0,s0
    80003314:	407b84bb          	subw	s1,s7,t2
    80003318:	404f5833          	sra	a6,t5,tp
    8000331c:	01209933          	sll	s2,ra,s2
    80003320:	01209933          	sll	s2,ra,s2
    80003324:	8c61                	and	s0,s0,s0
    80003326:	1f6dce93          	xori	t4,s11,502
    8000332a:	013fab33          	slt	s6,t6,s3
    8000332e:	8c61                	and	s0,s0,s0
    80003330:	4520e893          	ori	a7,ra,1106
    80003334:	01f00c3b          	addw	s8,zero,t6
    80003338:	9b8e                	add	s7,s7,gp
    8000333a:	01209933          	sll	s2,ra,s2
    8000333e:	03b39993          	slli	s3,t2,0x3b
    80003342:	01efd0bb          	srlw	ra,t6,t5
    80003346:	0001                	nop
    80003348:	717d                	addi	sp,sp,-16
    8000334a:	015d16bb          	sllw	a3,s10,s5
    8000334e:	8431                	srai	s0,s0,0xc
    80003350:	ee38b993          	sltiu	s3,a7,-285
    80003354:	8dad                	xor	a1,a1,a1
    80003356:	00f45293          	srli	t0,s0,0xf
    8000335a:	01a3c333          	xor	t1,t2,s10
    8000335e:	9b8e                	add	s7,s7,gp
    80003360:	4520e893          	ori	a7,ra,1106
    80003364:	42f85593          	srai	a1,a6,0x2f
    80003368:	197d                	addi	s2,s2,-1 # 806592e5 <_end+0x63c95d>
    8000336a:	19e8ba37          	lui	s4,0x19e8b
    8000336e:	01a3c333          	xor	t1,t2,s10
    80003372:	19e8ba37          	lui	s4,0x19e8b
    80003376:	8271                	srli	a2,a2,0x1c
    80003378:	f747f813          	andi	a6,a5,-140
    8000337c:	0652                	slli	a2,a2,0x14
    8000337e:	404f5833          	sra	a6,t5,tp
    80003382:	03b39993          	slli	s3,t2,0x3b
    80003386:	407b84bb          	subw	s1,s7,t2
    8000338a:	01a3c333          	xor	t1,t2,s10
    8000338e:	00656917          	auipc	s2,0x656
    80003392:	86be                	mv	a3,a5
    80003394:	00870f33          	add	t5,a4,s0
    80003398:	00acb4b3          	sltu	s1,s9,a0
    8000339c:	cd268c13          	addi	s8,a3,-814
    800033a0:	01209933          	sll	s2,ra,s2
    800033a4:	50fd                	li	ra,-1
    800033a6:	00065a33          	srl	s4,a2,zero
    800033aa:	8ccd                	or	s1,s1,a1
    800033ac:	9f99                	subw	a5,a5,a4
    800033ae:	407b84bb          	subw	s1,s7,t2
    800033b2:	ee38b993          	sltiu	s3,a7,-285
    800033b6:	01efd0bb          	srlw	ra,t6,t5
    800033ba:	8dad                	xor	a1,a1,a1
    800033bc:	407b84bb          	subw	s1,s7,t2
    800033c0:	2d21                	addiw	s10,s10,8
    800033c2:	9b8e                	add	s7,s7,gp
    800033c4:	0137d79b          	srliw	a5,a5,0x13
    800033c8:	197d                	addi	s2,s2,-1 # 8065938d <_end+0x63ca05>
    800033ca:	86be                	mv	a3,a5
    800033cc:	8431                	srai	s0,s0,0xc
    800033ce:	0001                	nop
    800033d0:	4520e893          	ori	a7,ra,1106
    800033d4:	0652                	slli	a2,a2,0x14
    800033d6:	015d16bb          	sllw	a3,s10,s5
    800033da:	9b8e                	add	s7,s7,gp
    800033dc:	ee38b993          	sltiu	s3,a7,-285
    800033e0:	98b3089b          	addiw	a7,t1,-1653
    800033e4:	9f99                	subw	a5,a5,a4
    800033e6:	0088181b          	slliw	a6,a6,0x8
    800033ea:	03b39993          	slli	s3,t2,0x3b
    800033ee:	98b3089b          	addiw	a7,t1,-1653
    800033f2:	03b39993          	slli	s3,t2,0x3b
    800033f6:	00870f33          	add	t5,a4,s0
    800033fa:	86be                	mv	a3,a5
    800033fc:	8c61                	and	s0,s0,s0
    800033fe:	9f99                	subw	a5,a5,a4
    80003400:	00fdf133          	and	sp,s11,a5
    80003404:	50fd                	li	ra,-1
    80003406:	00065a33          	srl	s4,a2,zero
    8000340a:	8e9d                	sub	a3,a3,a5
    8000340c:	ee38b993          	sltiu	s3,a7,-285
    80003410:	50fd                	li	ra,-1
    80003412:	407b84bb          	subw	s1,s7,t2
    80003416:	2d21                	addiw	s10,s10,8
    80003418:	8271                	srli	a2,a2,0x1c
    8000341a:	0001                	nop
    8000341c:	406f04b3          	sub	s1,t5,t1
    80003420:	0095ebb3          	or	s7,a1,s1
    80003424:	1f6dce93          	xori	t4,s11,502
    80003428:	0095ebb3          	or	s7,a1,s1
    8000342c:	8ccd                	or	s1,s1,a1
    8000342e:	197d                	addi	s2,s2,-1
    80003430:	9f99                	subw	a5,a5,a4
    80003432:	01a3c333          	xor	t1,t2,s10
    80003436:	86be                	mv	a3,a5
    80003438:	0001                	nop
    8000343a:	6e8d                	lui	t4,0x3
    8000343c:	0088181b          	slliw	a6,a6,0x8
    80003440:	8dad                	xor	a1,a1,a1
    80003442:	98b3089b          	addiw	a7,t1,-1653
    80003446:	00fdf133          	and	sp,s11,a5
    8000344a:	0095ebb3          	or	s7,a1,s1
    8000344e:	50fd                	li	ra,-1
    80003450:	0001                	nop
    80003452:	2d21                	addiw	s10,s10,8
    80003454:	0095ebb3          	or	s7,a1,s1
    80003458:	99fd                	andi	a1,a1,-1
    8000345a:	9f99                	subw	a5,a5,a4
    8000345c:	8431                	srai	s0,s0,0xc
    8000345e:	4168d29b          	sraiw	t0,a7,0x16
    80003462:	013fab33          	slt	s6,t6,s3
    80003466:	0137d79b          	srliw	a5,a5,0x13
    8000346a:	98b3089b          	addiw	a7,t1,-1653
    8000346e:	9b8e                	add	s7,s7,gp
    80003470:	01209933          	sll	s2,ra,s2
    80003474:	0001                	nop
    80003476:	01efd0bb          	srlw	ra,t6,t5
    8000347a:	407b84bb          	subw	s1,s7,t2
    8000347e:	9b8e                	add	s7,s7,gp
    80003480:	86be                	mv	a3,a5
    80003482:	9ea5                	addw	a3,a3,s1
    80003484:	8ccd                	or	s1,s1,a1
    80003486:	03b39993          	slli	s3,t2,0x3b
    8000348a:	8271                	srli	a2,a2,0x1c
    8000348c:	0652                	slli	a2,a2,0x14
    8000348e:	406f04b3          	sub	s1,t5,t1
    80003492:	4168d29b          	sraiw	t0,a7,0x16
    80003496:	00870f33          	add	t5,a4,s0
    8000349a:	01f00c3b          	addw	s8,zero,t6
    8000349e:	00acb4b3          	sltu	s1,s9,a0
    800034a2:	9335a213          	slti	tp,a1,-1741
    800034a6:	407b84bb          	subw	s1,s7,t2
    800034aa:	00870f33          	add	t5,a4,s0
    800034ae:	00065a33          	srl	s4,a2,zero
    800034b2:	42f85593          	srai	a1,a6,0x2f
    800034b6:	8431                	srai	s0,s0,0xc
    800034b8:	50fd                	li	ra,-1
    800034ba:	01efd0bb          	srlw	ra,t6,t5
    800034be:	03b39993          	slli	s3,t2,0x3b
    800034c2:	1f6dce93          	xori	t4,s11,502
    800034c6:	8c61                	and	s0,s0,s0
    800034c8:	8e9d                	sub	a3,a3,a5
    800034ca:	00f45293          	srli	t0,s0,0xf
    800034ce:	197d                	addi	s2,s2,-1
    800034d0:	8431                	srai	s0,s0,0xc
    800034d2:	8431                	srai	s0,s0,0xc
    800034d4:	00fdf133          	and	sp,s11,a5
    800034d8:	00656917          	auipc	s2,0x656
    800034dc:	717d                	addi	sp,sp,-16
    800034de:	50fd                	li	ra,-1
    800034e0:	86be                	mv	a3,a5
    800034e2:	8431                	srai	s0,s0,0xc
    800034e4:	407b84bb          	subw	s1,s7,t2
    800034e8:	0001                	nop
    800034ea:	98b3089b          	addiw	a7,t1,-1653
    800034ee:	86be                	mv	a3,a5
    800034f0:	00065a33          	srl	s4,a2,zero
    800034f4:	01a3c333          	xor	t1,t2,s10
    800034f8:	01a3c333          	xor	t1,t2,s10
    800034fc:	4520e893          	ori	a7,ra,1106
    80003500:	00870f33          	add	t5,a4,s0
    80003504:	86be                	mv	a3,a5
    80003506:	4168d29b          	sraiw	t0,a7,0x16
    8000350a:	9f99                	subw	a5,a5,a4
    8000350c:	98b3089b          	addiw	a7,t1,-1653
    80003510:	9ea5                	addw	a3,a3,s1
    80003512:	8ccd                	or	s1,s1,a1
    80003514:	717d                	addi	sp,sp,-16
    80003516:	717d                	addi	sp,sp,-16
    80003518:	6e8d                	lui	t4,0x3
    8000351a:	8e9d                	sub	a3,a3,a5
    8000351c:	4520e893          	ori	a7,ra,1106
    80003520:	4168d29b          	sraiw	t0,a7,0x16
    80003524:	0652                	slli	a2,a2,0x14
    80003526:	00f45293          	srli	t0,s0,0xf
    8000352a:	03b39993          	slli	s3,t2,0x3b
    8000352e:	01efd0bb          	srlw	ra,t6,t5
    80003532:	01efd0bb          	srlw	ra,t6,t5
    80003536:	406f04b3          	sub	s1,t5,t1
    8000353a:	ee38b993          	sltiu	s3,a7,-285
    8000353e:	9335a213          	slti	tp,a1,-1741
    80003542:	86be                	mv	a3,a5
    80003544:	407b84bb          	subw	s1,s7,t2
    80003548:	50fd                	li	ra,-1
    8000354a:	9ea5                	addw	a3,a3,s1
    8000354c:	01209933          	sll	s2,ra,s2
    80003550:	00656917          	auipc	s2,0x656
    80003554:	0088181b          	slliw	a6,a6,0x8
    80003558:	42f85593          	srai	a1,a6,0x2f
    8000355c:	1018                	addi	a4,sp,32
    8000355e:	8dad                	xor	a1,a1,a1
    80003560:	00065a33          	srl	s4,a2,zero
    80003564:	717d                	addi	sp,sp,-16
    80003566:	98b3089b          	addiw	a7,t1,-1653
    8000356a:	42f85593          	srai	a1,a6,0x2f
    8000356e:	2d21                	addiw	s10,s10,8
    80003570:	01a3c333          	xor	t1,t2,s10
    80003574:	4520e893          	ori	a7,ra,1106
    80003578:	8dad                	xor	a1,a1,a1
    8000357a:	86be                	mv	a3,a5
    8000357c:	00acb4b3          	sltu	s1,s9,a0
    80003580:	01f00c3b          	addw	s8,zero,t6
    80003584:	00fdf133          	and	sp,s11,a5
    80003588:	0088181b          	slliw	a6,a6,0x8
    8000358c:	197d                	addi	s2,s2,-1 # 8065954f <_end+0x63cbc7>
    8000358e:	015d16bb          	sllw	a3,s10,s5
    80003592:	01efd0bb          	srlw	ra,t6,t5
    80003596:	8ccd                	or	s1,s1,a1
    80003598:	0088181b          	slliw	a6,a6,0x8
    8000359c:	0137d79b          	srliw	a5,a5,0x13
    800035a0:	50fd                	li	ra,-1
    800035a2:	40755e3b          	sraw	t3,a0,t2
    800035a6:	407b84bb          	subw	s1,s7,t2
    800035aa:	2d21                	addiw	s10,s10,8
    800035ac:	9f99                	subw	a5,a5,a4
    800035ae:	9335a213          	slti	tp,a1,-1741
    800035b2:	8e9d                	sub	a3,a3,a5
    800035b4:	01d5d9b7          	lui	s3,0x1d5d
    800035b8:	3579899b          	addiw	s3,s3,855 # 1d5d357 <_start-0x7e2a2ca9>
    800035bc:	09b6                	slli	s3,s3,0xd
    800035be:	d9598993          	addi	s3,s3,-619
    800035c2:	09b6                	slli	s3,s3,0xd
    800035c4:	b5998993          	addi	s3,s3,-1191
    800035c8:	09b2                	slli	s3,s3,0xc
    800035ca:	9a398993          	addi	s3,s3,-1629
    800035ce:	4581                	li	a1,0
    800035d0:	4e01                	li	t3,0
    800035d2:	00567337          	lui	t1,0x567
    800035d6:	bf73031b          	addiw	t1,t1,-1033 # 566bf7 <_start-0x7fa99409>
    800035da:	0336                	slli	t1,t1,0xd
    800035dc:	42330313          	addi	t1,t1,1059
    800035e0:	0332                	slli	t1,t1,0xc
    800035e2:	46530313          	addi	t1,t1,1125
    800035e6:	0332                	slli	t1,t1,0xc
    800035e8:	fa230313          	addi	t1,t1,-94
    800035ec:	5f7d                	li	t5,-1
    800035ee:	fff0019b          	addiw	gp,zero,-1
    800035f2:	11fe                	slli	gp,gp,0x3f
    800035f4:	4901                	li	s2,0
    800035f6:	fff0061b          	addiw	a2,zero,-1
    800035fa:	167e                	slli	a2,a2,0x3f
    800035fc:	fff00a1b          	addiw	s4,zero,-1
    80003600:	1a7e                	slli	s4,s4,0x3f
    80003602:	4881                	li	a7,0
    80003604:	00656317          	auipc	t1,0x656
    80003608:	012189bb          	addw	s3,gp,s2
    8000360c:	19e8b637          	lui	a2,0x19e8b
    80003610:	19e8b637          	lui	a2,0x19e8b
    80003614:	00656317          	auipc	t1,0x656
    80003618:	98b9819b          	addiw	gp,s3,-1653
    8000361c:	19e8b637          	lui	a2,0x19e8b
    80003620:	0001                	nop
    80003622:	41388f33          	sub	t5,a7,s3
    80003626:	9972                	add	s2,s2,t3
    80003628:	41388f33          	sub	t5,a7,s3
    8000362c:	0001                	nop
    8000362e:	98b9819b          	addiw	gp,s3,-1653
    80003632:	00656317          	auipc	t1,0x656
    80003636:	414a0f3b          	subw	t5,s4,s4
    8000363a:	012189bb          	addw	s3,gp,s2
    8000363e:	41388f33          	sub	t5,a7,s3
    80003642:	98b9819b          	addiw	gp,s3,-1653
    80003646:	41388f33          	sub	t5,a7,s3
    8000364a:	00656317          	auipc	t1,0x656
    8000364e:	0088181b          	slliw	a6,a6,0x8
    80003652:	1f6dce93          	xori	t4,s11,502
    80003656:	4520e893          	ori	a7,ra,1106
    8000365a:	6e8d                	lui	t4,0x3
    8000365c:	40755e3b          	sraw	t3,a0,t2
    80003660:	0001                	nop
    80003662:	8271                	srli	a2,a2,0x1c
    80003664:	40755e3b          	sraw	t3,a0,t2
    80003668:	8e9d                	sub	a3,a3,a5
    8000366a:	0088181b          	slliw	a6,a6,0x8
    8000366e:	99fd                	andi	a1,a1,-1
    80003670:	9ea5                	addw	a3,a3,s1
    80003672:	404f5833          	sra	a6,t5,tp
    80003676:	50fd                	li	ra,-1
    80003678:	9335a213          	slti	tp,a1,-1741
    8000367c:	8431                	srai	s0,s0,0xc
    8000367e:	99fd                	andi	a1,a1,-1
    80003680:	0137d79b          	srliw	a5,a5,0x13
    80003684:	01efd0bb          	srlw	ra,t6,t5
    80003688:	8dad                	xor	a1,a1,a1
    8000368a:	406f04b3          	sub	s1,t5,t1
    8000368e:	00870f33          	add	t5,a4,s0
    80003692:	0137d79b          	srliw	a5,a5,0x13
    80003696:	00065a33          	srl	s4,a2,zero
    8000369a:	01efd0bb          	srlw	ra,t6,t5
    8000369e:	0652                	slli	a2,a2,0x14
    800036a0:	9335a213          	slti	tp,a1,-1741
    800036a4:	ee38b993          	sltiu	s3,a7,-285
    800036a8:	9f99                	subw	a5,a5,a4
    800036aa:	00acb4b3          	sltu	s1,s9,a0
    800036ae:	0095ebb3          	or	s7,a1,s1
    800036b2:	197d                	addi	s2,s2,-1
    800036b4:	01efd0bb          	srlw	ra,t6,t5
    800036b8:	0001                	nop
    800036ba:	406f04b3          	sub	s1,t5,t1
    800036be:	03b39993          	slli	s3,t2,0x3b
    800036c2:	cd268c13          	addi	s8,a3,-814
    800036c6:	01f00c3b          	addw	s8,zero,t6
    800036ca:	8e9d                	sub	a3,a3,a5
    800036cc:	01209933          	sll	s2,ra,s2
    800036d0:	40755e3b          	sraw	t3,a0,t2
    800036d4:	ee38b993          	sltiu	s3,a7,-285
    800036d8:	01a3c333          	xor	t1,t2,s10
    800036dc:	2d21                	addiw	s10,s10,8
    800036de:	f747f813          	andi	a6,a5,-140
    800036e2:	6e8d                	lui	t4,0x3
    800036e4:	4168d29b          	sraiw	t0,a7,0x16
    800036e8:	99fd                	andi	a1,a1,-1
    800036ea:	01a3c333          	xor	t1,t2,s10
    800036ee:	0095ebb3          	or	s7,a1,s1
    800036f2:	8c61                	and	s0,s0,s0
    800036f4:	013fab33          	slt	s6,t6,s3
    800036f8:	0088181b          	slliw	a6,a6,0x8
    800036fc:	00870f33          	add	t5,a4,s0
    80003700:	40755e3b          	sraw	t3,a0,t2
    80003704:	8dad                	xor	a1,a1,a1
    80003706:	0001                	nop
    80003708:	03b39993          	slli	s3,t2,0x3b
    8000370c:	013fab33          	slt	s6,t6,s3
    80003710:	01a3c333          	xor	t1,t2,s10
    80003714:	0652                	slli	a2,a2,0x14
    80003716:	cd268c13          	addi	s8,a3,-814
    8000371a:	00fdf133          	and	sp,s11,a5
    8000371e:	0088181b          	slliw	a6,a6,0x8
    80003722:	00656917          	auipc	s2,0x656
    80003726:	4520e893          	ori	a7,ra,1106
    8000372a:	19e8ba37          	lui	s4,0x19e8b
    8000372e:	6e8d                	lui	t4,0x3
    80003730:	0001                	nop
    80003732:	01f00c3b          	addw	s8,zero,t6
    80003736:	8271                	srli	a2,a2,0x1c
    80003738:	1f6dce93          	xori	t4,s11,502
    8000373c:	717d                	addi	sp,sp,-16
    8000373e:	8271                	srli	a2,a2,0x1c
    80003740:	0095ebb3          	or	s7,a1,s1
    80003744:	01209933          	sll	s2,ra,s2
    80003748:	00656917          	auipc	s2,0x656
    8000374c:	00f45293          	srli	t0,s0,0xf
    80003750:	9ea5                	addw	a3,a3,s1
    80003752:	0095ebb3          	or	s7,a1,s1
    80003756:	40755e3b          	sraw	t3,a0,t2
    8000375a:	00f45293          	srli	t0,s0,0xf
    8000375e:	4520e893          	ori	a7,ra,1106
    80003762:	015d16bb          	sllw	a3,s10,s5
    80003766:	00870f33          	add	t5,a4,s0
    8000376a:	0088181b          	slliw	a6,a6,0x8
    8000376e:	00f45293          	srli	t0,s0,0xf
    80003772:	9b8e                	add	s7,s7,gp
    80003774:	cd268c13          	addi	s8,a3,-814
    80003778:	015d16bb          	sllw	a3,s10,s5
    8000377c:	40755e3b          	sraw	t3,a0,t2
    80003780:	01f00c3b          	addw	s8,zero,t6
    80003784:	0095ebb3          	or	s7,a1,s1
    80003788:	8271                	srli	a2,a2,0x1c
    8000378a:	cd268c13          	addi	s8,a3,-814
    8000378e:	cd268c13          	addi	s8,a3,-814
    80003792:	42f85593          	srai	a1,a6,0x2f
    80003796:	99fd                	andi	a1,a1,-1
    80003798:	0652                	slli	a2,a2,0x14
    8000379a:	717d                	addi	sp,sp,-16
    8000379c:	f747f813          	andi	a6,a5,-140
    800037a0:	197d                	addi	s2,s2,-1 # 80659747 <_end+0x63cdbf>
    800037a2:	4520e893          	ori	a7,ra,1106
    800037a6:	42f85593          	srai	a1,a6,0x2f
    800037aa:	f747f813          	andi	a6,a5,-140
    800037ae:	8271                	srli	a2,a2,0x1c
    800037b0:	cd268c13          	addi	s8,a3,-814
    800037b4:	00fdf133          	and	sp,s11,a5
    800037b8:	03b39993          	slli	s3,t2,0x3b
    800037bc:	8ccd                	or	s1,s1,a1
    800037be:	01efd0bb          	srlw	ra,t6,t5
    800037c2:	0095ebb3          	or	s7,a1,s1
    800037c6:	f747f813          	andi	a6,a5,-140
    800037ca:	717d                	addi	sp,sp,-16
    800037cc:	8431                	srai	s0,s0,0xc
    800037ce:	8c61                	and	s0,s0,s0
    800037d0:	015d16bb          	sllw	a3,s10,s5
    800037d4:	40755e3b          	sraw	t3,a0,t2
    800037d8:	1f6dce93          	xori	t4,s11,502
    800037dc:	99fd                	andi	a1,a1,-1
    800037de:	00fdf133          	and	sp,s11,a5
    800037e2:	01f00c3b          	addw	s8,zero,t6
    800037e6:	99fd                	andi	a1,a1,-1
    800037e8:	00065a33          	srl	s4,a2,zero
    800037ec:	0137d79b          	srliw	a5,a5,0x13
    800037f0:	99fd                	andi	a1,a1,-1
    800037f2:	99fd                	andi	a1,a1,-1
    800037f4:	00fdf133          	and	sp,s11,a5
    800037f8:	0001                	nop
    800037fa:	0001                	nop
    800037fc:	00065a33          	srl	s4,a2,zero
    80003800:	406f04b3          	sub	s1,t5,t1
    80003804:	0652                	slli	a2,a2,0x14
    80003806:	406f04b3          	sub	s1,t5,t1
    8000380a:	1f6dce93          	xori	t4,s11,502
    8000380e:	f747f813          	andi	a6,a5,-140
    80003812:	8ccd                	or	s1,s1,a1
    80003814:	717d                	addi	sp,sp,-16
    80003816:	f747f813          	andi	a6,a5,-140
    8000381a:	8e9d                	sub	a3,a3,a5
    8000381c:	015d16bb          	sllw	a3,s10,s5
    80003820:	0137d79b          	srliw	a5,a5,0x13
    80003824:	00f45293          	srli	t0,s0,0xf
    80003828:	8ccd                	or	s1,s1,a1
    8000382a:	8ccd                	or	s1,s1,a1
    8000382c:	01a3c333          	xor	t1,t2,s10
    80003830:	40755e3b          	sraw	t3,a0,t2
    80003834:	9f99                	subw	a5,a5,a4
    80003836:	50fd                	li	ra,-1
    80003838:	8ccd                	or	s1,s1,a1
    8000383a:	99fd                	andi	a1,a1,-1
    8000383c:	f747f813          	andi	a6,a5,-140
    80003840:	00f45293          	srli	t0,s0,0xf
    80003844:	9ea5                	addw	a3,a3,s1
    80003846:	01209933          	sll	s2,ra,s2
    8000384a:	197d                	addi	s2,s2,-1
    8000384c:	f747f813          	andi	a6,a5,-140
    80003850:	00065a33          	srl	s4,a2,zero
    80003854:	01209933          	sll	s2,ra,s2
    80003858:	4520e893          	ori	a7,ra,1106
    8000385c:	406f04b3          	sub	s1,t5,t1
    80003860:	0088181b          	slliw	a6,a6,0x8
    80003864:	0001                	nop
    80003866:	50fd                	li	ra,-1
    80003868:	01f00c3b          	addw	s8,zero,t6
    8000386c:	01a3c333          	xor	t1,t2,s10
    80003870:	0095ebb3          	or	s7,a1,s1
    80003874:	4520e893          	ori	a7,ra,1106
    80003878:	4168d29b          	sraiw	t0,a7,0x16
    8000387c:	015d16bb          	sllw	a3,s10,s5
    80003880:	8c61                	and	s0,s0,s0
    80003882:	01f00c3b          	addw	s8,zero,t6
    80003886:	01efd0bb          	srlw	ra,t6,t5
    8000388a:	0001                	nop
    8000388c:	ee38b993          	sltiu	s3,a7,-285
    80003890:	00065a33          	srl	s4,a2,zero
    80003894:	1018                	addi	a4,sp,32
    80003896:	42f85593          	srai	a1,a6,0x2f
    8000389a:	1018                	addi	a4,sp,32
    8000389c:	197d                	addi	s2,s2,-1
    8000389e:	013fab33          	slt	s6,t6,s3
    800038a2:	0137d79b          	srliw	a5,a5,0x13
    800038a6:	8dad                	xor	a1,a1,a1
    800038a8:	03b39993          	slli	s3,t2,0x3b
    800038ac:	00065a33          	srl	s4,a2,zero
    800038b0:	9ea5                	addw	a3,a3,s1
    800038b2:	9ea5                	addw	a3,a3,s1
    800038b4:	015d16bb          	sllw	a3,s10,s5
    800038b8:	00870f33          	add	t5,a4,s0
    800038bc:	86be                	mv	a3,a5
    800038be:	01a3c333          	xor	t1,t2,s10
    800038c2:	98b3089b          	addiw	a7,t1,-1653 # ffffffff80658fd5 <_end+0xffffffff0063c64d>
    800038c6:	9f99                	subw	a5,a5,a4
    800038c8:	197d                	addi	s2,s2,-1
    800038ca:	f747f813          	andi	a6,a5,-140
    800038ce:	0137d79b          	srliw	a5,a5,0x13
    800038d2:	86be                	mv	a3,a5
    800038d4:	8dad                	xor	a1,a1,a1
    800038d6:	9ea5                	addw	a3,a3,s1
    800038d8:	00f45293          	srli	t0,s0,0xf
    800038dc:	0652                	slli	a2,a2,0x14
    800038de:	00f45293          	srli	t0,s0,0xf
    800038e2:	404f5833          	sra	a6,t5,tp
    800038e6:	00870f33          	add	t5,a4,s0
    800038ea:	00fdf133          	and	sp,s11,a5
    800038ee:	0001                	nop
    800038f0:	01efd0bb          	srlw	ra,t6,t5
    800038f4:	1f6dce93          	xori	t4,s11,502
    800038f8:	00acb4b3          	sltu	s1,s9,a0
    800038fc:	98b3089b          	addiw	a7,t1,-1653
    80003900:	40755e3b          	sraw	t3,a0,t2
    80003904:	0652                	slli	a2,a2,0x14
    80003906:	03b39993          	slli	s3,t2,0x3b
    8000390a:	407b84bb          	subw	s1,s7,t2
    8000390e:	98b3089b          	addiw	a7,t1,-1653
    80003912:	03b39993          	slli	s3,t2,0x3b
    80003916:	8431                	srai	s0,s0,0xc
    80003918:	42f85593          	srai	a1,a6,0x2f
    8000391c:	4520e893          	ori	a7,ra,1106
    80003920:	99fd                	andi	a1,a1,-1
    80003922:	00656917          	auipc	s2,0x656
    80003926:	8e9d                	sub	a3,a3,a5
    80003928:	00f45293          	srli	t0,s0,0xf
    8000392c:	407b84bb          	subw	s1,s7,t2
    80003930:	00065a33          	srl	s4,a2,zero
    80003934:	0001                	nop
    80003936:	404f5833          	sra	a6,t5,tp
    8000393a:	0137d79b          	srliw	a5,a5,0x13
    8000393e:	8dad                	xor	a1,a1,a1
    80003940:	8ccd                	or	s1,s1,a1
    80003942:	0095ebb3          	or	s7,a1,s1
    80003946:	9ea5                	addw	a3,a3,s1
    80003948:	9335a213          	slti	tp,a1,-1741
    8000394c:	0088181b          	slliw	a6,a6,0x8
    80003950:	50fd                	li	ra,-1
    80003952:	0652                	slli	a2,a2,0x14
    80003954:	0001                	nop
    80003956:	01f00c3b          	addw	s8,zero,t6
    8000395a:	01a3c333          	xor	t1,t2,s10
    8000395e:	86be                	mv	a3,a5
    80003960:	407b84bb          	subw	s1,s7,t2
    80003964:	00f45293          	srli	t0,s0,0xf
    80003968:	9335a213          	slti	tp,a1,-1741
    8000396c:	03b39993          	slli	s3,t2,0x3b
    80003970:	013fab33          	slt	s6,t6,s3
    80003974:	015d16bb          	sllw	a3,s10,s5
    80003978:	9f99                	subw	a5,a5,a4
    8000397a:	406f04b3          	sub	s1,t5,t1
    8000397e:	03b39993          	slli	s3,t2,0x3b
    80003982:	015d16bb          	sllw	a3,s10,s5
    80003986:	0137d79b          	srliw	a5,a5,0x13
    8000398a:	00870f33          	add	t5,a4,s0
    8000398e:	8c61                	and	s0,s0,s0
    80003990:	03b39993          	slli	s3,t2,0x3b
    80003994:	0137d79b          	srliw	a5,a5,0x13
    80003998:	00065a33          	srl	s4,a2,zero
    8000399c:	00acb4b3          	sltu	s1,s9,a0
    800039a0:	8431                	srai	s0,s0,0xc
    800039a2:	0652                	slli	a2,a2,0x14
    800039a4:	4520e893          	ori	a7,ra,1106
    800039a8:	03b39993          	slli	s3,t2,0x3b
    800039ac:	00870f33          	add	t5,a4,s0
    800039b0:	40755e3b          	sraw	t3,a0,t2
    800039b4:	013fab33          	slt	s6,t6,s3
    800039b8:	0137d79b          	srliw	a5,a5,0x13
    800039bc:	2d21                	addiw	s10,s10,8
    800039be:	86be                	mv	a3,a5
    800039c0:	4168d29b          	sraiw	t0,a7,0x16
    800039c4:	0095ebb3          	or	s7,a1,s1
    800039c8:	00f45293          	srli	t0,s0,0xf
    800039cc:	ee38b993          	sltiu	s3,a7,-285
    800039d0:	717d                	addi	sp,sp,-16
    800039d2:	99fd                	andi	a1,a1,-1
    800039d4:	fff0039b          	addiw	t2,zero,-1
    800039d8:	13fe                	slli	t2,t2,0x3f
    800039da:	4e01                	li	t3,0
    800039dc:	5dfd                	li	s11,-1
    800039de:	547d                	li	s0,-1
    800039e0:	fff0029b          	addiw	t0,zero,-1
    800039e4:	12fe                	slli	t0,t0,0x3f
    800039e6:	51fd                	li	gp,-1
    800039e8:	5b7d                	li	s6,-1
    800039ea:	fff0031b          	addiw	t1,zero,-1
    800039ee:	137e                	slli	t1,t1,0x3f
    800039f0:	4a01                	li	s4,0
    800039f2:	54fd                	li	s1,-1
    800039f4:	0001                	nop
    800039f6:	0001                	nop
    800039f8:	00918a3b          	addw	s4,gp,s1
    800039fc:	416b0e3b          	subw	t3,s6,s6
    80003a00:	00918a3b          	addw	s4,gp,s1
    80003a04:	41440e33          	sub	t3,s0,s4
    80003a08:	00918a3b          	addw	s4,gp,s1
    80003a0c:	0001                	nop
    80003a0e:	00656297          	auipc	t0,0x656
    80003a12:	0001                	nop
    80003a14:	00656297          	auipc	t0,0x656
    80003a18:	0001                	nop
    80003a1a:	94ee                	add	s1,s1,s11
    80003a1c:	0001                	nop
    80003a1e:	98ba019b          	addiw	gp,s4,-1653 # 19e8a98b <_start-0x66175675>
    80003a22:	00918a3b          	addw	s4,gp,s1
    80003a26:	41440e33          	sub	t3,s0,s4
    80003a2a:	19e8b3b7          	lui	t2,0x19e8b
    80003a2e:	41440e33          	sub	t3,s0,s4
    80003a32:	0001                	nop
    80003a34:	cd230a13          	addi	s4,t1,-814
    80003a38:	416b0e3b          	subw	t3,s6,s6
    80003a3c:	41440e33          	sub	t3,s0,s4
    80003a40:	0001                	nop
    80003a42:	98ba019b          	addiw	gp,s4,-1653
    80003a46:	0001                	nop
    80003a48:	00656297          	auipc	t0,0x656
    80003a4c:	cd268c13          	addi	s8,a3,-814
    80003a50:	4520e893          	ori	a7,ra,1106
    80003a54:	8ccd                	or	s1,s1,a1
    80003a56:	00656917          	auipc	s2,0x656
    80003a5a:	03b39993          	slli	s3,t2,0x3b
    80003a5e:	197d                	addi	s2,s2,-1 # 80659a55 <_end+0x63d0cd>
    80003a60:	0001                	nop
    80003a62:	99fd                	andi	a1,a1,-1
    80003a64:	99fd                	andi	a1,a1,-1
    80003a66:	86be                	mv	a3,a5
    80003a68:	197d                	addi	s2,s2,-1
    80003a6a:	01209933          	sll	s2,ra,s2
    80003a6e:	406f04b3          	sub	s1,t5,t1
    80003a72:	99fd                	andi	a1,a1,-1
    80003a74:	40755e3b          	sraw	t3,a0,t2
    80003a78:	00656917          	auipc	s2,0x656
    80003a7c:	4520e893          	ori	a7,ra,1106
    80003a80:	0001                	nop
    80003a82:	8c61                	and	s0,s0,s0
    80003a84:	40755e3b          	sraw	t3,a0,t2
    80003a88:	8431                	srai	s0,s0,0xc
    80003a8a:	00870f33          	add	t5,a4,s0
    80003a8e:	6e8d                	lui	t4,0x3
    80003a90:	407b84bb          	subw	s1,s7,t2
    80003a94:	404f5833          	sra	a6,t5,tp
    80003a98:	40755e3b          	sraw	t3,a0,t2
    80003a9c:	50fd                	li	ra,-1
    80003a9e:	197d                	addi	s2,s2,-1 # 80659a77 <_end+0x63d0ef>
    80003aa0:	0001                	nop
    80003aa2:	2d21                	addiw	s10,s10,8
    80003aa4:	8271                	srli	a2,a2,0x1c
    80003aa6:	ee38b993          	sltiu	s3,a7,-285
    80003aaa:	00656917          	auipc	s2,0x656
    80003aae:	99fd                	andi	a1,a1,-1
    80003ab0:	8431                	srai	s0,s0,0xc
    80003ab2:	9335a213          	slti	tp,a1,-1741
    80003ab6:	cd268c13          	addi	s8,a3,-814
    80003aba:	19e8ba37          	lui	s4,0x19e8b
    80003abe:	2d21                	addiw	s10,s10,8
    80003ac0:	01a3c333          	xor	t1,t2,s10
    80003ac4:	cd268c13          	addi	s8,a3,-814
    80003ac8:	86be                	mv	a3,a5
    80003aca:	9f99                	subw	a5,a5,a4
    80003acc:	86be                	mv	a3,a5
    80003ace:	8ccd                	or	s1,s1,a1
    80003ad0:	4168d29b          	sraiw	t0,a7,0x16
    80003ad4:	6e8d                	lui	t4,0x3
    80003ad6:	03b39993          	slli	s3,t2,0x3b
    80003ada:	9335a213          	slti	tp,a1,-1741
    80003ade:	8271                	srli	a2,a2,0x1c
    80003ae0:	2d21                	addiw	s10,s10,8
    80003ae2:	ee38b993          	sltiu	s3,a7,-285
    80003ae6:	8ccd                	or	s1,s1,a1
    80003ae8:	01f00c3b          	addw	s8,zero,t6
    80003aec:	404f5833          	sra	a6,t5,tp
    80003af0:	717d                	addi	sp,sp,-16
    80003af2:	8dad                	xor	a1,a1,a1
    80003af4:	0001                	nop
    80003af6:	42f85593          	srai	a1,a6,0x2f
    80003afa:	1018                	addi	a4,sp,32
    80003afc:	8431                	srai	s0,s0,0xc
    80003afe:	717d                	addi	sp,sp,-16
    80003b00:	98b3089b          	addiw	a7,t1,-1653
    80003b04:	00065a33          	srl	s4,a2,zero
    80003b08:	6e8d                	lui	t4,0x3
    80003b0a:	8dad                	xor	a1,a1,a1
    80003b0c:	01209933          	sll	s2,ra,s2
    80003b10:	01209933          	sll	s2,ra,s2
    80003b14:	f747f813          	andi	a6,a5,-140
    80003b18:	00f45293          	srli	t0,s0,0xf
    80003b1c:	f747f813          	andi	a6,a5,-140
    80003b20:	8e9d                	sub	a3,a3,a5
    80003b22:	03b39993          	slli	s3,t2,0x3b
    80003b26:	98b3089b          	addiw	a7,t1,-1653
    80003b2a:	cd268c13          	addi	s8,a3,-814
    80003b2e:	9335a213          	slti	tp,a1,-1741
    80003b32:	00f45293          	srli	t0,s0,0xf
    80003b36:	013fab33          	slt	s6,t6,s3
    80003b3a:	50fd                	li	ra,-1
    80003b3c:	404f5833          	sra	a6,t5,tp
    80003b40:	8e9d                	sub	a3,a3,a5
    80003b42:	8271                	srli	a2,a2,0x1c
    80003b44:	00f45293          	srli	t0,s0,0xf
    80003b48:	00656917          	auipc	s2,0x656
    80003b4c:	9ea5                	addw	a3,a3,s1
    80003b4e:	86be                	mv	a3,a5
    80003b50:	1018                	addi	a4,sp,32
    80003b52:	99fd                	andi	a1,a1,-1
    80003b54:	9ea5                	addw	a3,a3,s1
    80003b56:	00f45293          	srli	t0,s0,0xf
    80003b5a:	01efd0bb          	srlw	ra,t6,t5
    80003b5e:	00065a33          	srl	s4,a2,zero
    80003b62:	01209933          	sll	s2,ra,s2
    80003b66:	03b39993          	slli	s3,t2,0x3b
    80003b6a:	01209933          	sll	s2,ra,s2
    80003b6e:	1f6dce93          	xori	t4,s11,502
    80003b72:	8dad                	xor	a1,a1,a1
    80003b74:	0652                	slli	a2,a2,0x14
    80003b76:	6e8d                	lui	t4,0x3
    80003b78:	8dad                	xor	a1,a1,a1
    80003b7a:	0095ebb3          	or	s7,a1,s1
    80003b7e:	00fdf133          	and	sp,s11,a5
    80003b82:	f747f813          	andi	a6,a5,-140
    80003b86:	98b3089b          	addiw	a7,t1,-1653
    80003b8a:	0001                	nop
    80003b8c:	01f00c3b          	addw	s8,zero,t6
    80003b90:	00acb4b3          	sltu	s1,s9,a0
    80003b94:	01efd0bb          	srlw	ra,t6,t5
    80003b98:	9335a213          	slti	tp,a1,-1741
    80003b9c:	8c61                	and	s0,s0,s0
    80003b9e:	0137d79b          	srliw	a5,a5,0x13
    80003ba2:	8dad                	xor	a1,a1,a1
    80003ba4:	99fd                	andi	a1,a1,-1
    80003ba6:	1f6dce93          	xori	t4,s11,502
    80003baa:	01a3c333          	xor	t1,t2,s10
    80003bae:	717d                	addi	sp,sp,-16
    80003bb0:	8dad                	xor	a1,a1,a1
    80003bb2:	86be                	mv	a3,a5
    80003bb4:	ee38b993          	sltiu	s3,a7,-285
    80003bb8:	01a3c333          	xor	t1,t2,s10
    80003bbc:	197d                	addi	s2,s2,-1 # 80659b47 <_end+0x63d1bf>
    80003bbe:	6e8d                	lui	t4,0x3
    80003bc0:	ee38b993          	sltiu	s3,a7,-285
    80003bc4:	98b3089b          	addiw	a7,t1,-1653
    80003bc8:	2d21                	addiw	s10,s10,8
    80003bca:	00870f33          	add	t5,a4,s0
    80003bce:	42f85593          	srai	a1,a6,0x2f
    80003bd2:	717d                	addi	sp,sp,-16
    80003bd4:	9ea5                	addw	a3,a3,s1
    80003bd6:	00656917          	auipc	s2,0x656
    80003bda:	01a3c333          	xor	t1,t2,s10
    80003bde:	00870f33          	add	t5,a4,s0
    80003be2:	1018                	addi	a4,sp,32
    80003be4:	4168d29b          	sraiw	t0,a7,0x16
    80003be8:	fff0099b          	addiw	s3,zero,-1
    80003bec:	19fe                	slli	s3,s3,0x3f
    80003bee:	4a01                	li	s4,0
    80003bf0:	4701                	li	a4,0
    80003bf2:	4f01                	li	t5,0
    80003bf4:	4d81                	li	s11,0
    80003bf6:	4e01                	li	t3,0
    80003bf8:	fff00c1b          	addiw	s8,zero,-1
    80003bfc:	1c7e                	slli	s8,s8,0x3f
    80003bfe:	50fd                	li	ra,-1
    80003c00:	58fd                	li	a7,-1
    80003c02:	587d                	li	a6,-1
    80003c04:	98bc009b          	addiw	ra,s8,-1653
    80003c08:	01408c3b          	addw	s8,ra,s4
    80003c0c:	9a72                	add	s4,s4,t3
    80003c0e:	41bd8f3b          	subw	t5,s11,s11
    80003c12:	19e8b8b7          	lui	a7,0x19e8b
    80003c16:	41898f33          	sub	t5,s3,s8
    80003c1a:	cd280c13          	addi	s8,a6,-814 # 19e8acd2 <_start-0x6617532e>
    80003c1e:	00656717          	auipc	a4,0x656
    80003c22:	41bd8f3b          	subw	t5,s11,s11
    80003c26:	01408c3b          	addw	s8,ra,s4
    80003c2a:	9a72                	add	s4,s4,t3
    80003c2c:	00656717          	auipc	a4,0x656
    80003c30:	41898f33          	sub	t5,s3,s8
    80003c34:	00656717          	auipc	a4,0x656
    80003c38:	98bc009b          	addiw	ra,s8,-1653
    80003c3c:	98bc009b          	addiw	ra,s8,-1653
    80003c40:	19e8b8b7          	lui	a7,0x19e8b
    80003c44:	98bc009b          	addiw	ra,s8,-1653
    80003c48:	01408c3b          	addw	s8,ra,s4
    80003c4c:	9a72                	add	s4,s4,t3
    80003c4e:	41898f33          	sub	t5,s3,s8
    80003c52:	41898f33          	sub	t5,s3,s8
    80003c56:	41898f33          	sub	t5,s3,s8
    80003c5a:	cd280c13          	addi	s8,a6,-814
    80003c5e:	00656717          	auipc	a4,0x656
    80003c62:	41bd8f3b          	subw	t5,s11,s11
    80003c66:	0001                	nop
    80003c68:	01408c3b          	addw	s8,ra,s4
    80003c6c:	01408c3b          	addw	s8,ra,s4
    80003c70:	8dad                	xor	a1,a1,a1
    80003c72:	00656917          	auipc	s2,0x656
    80003c76:	0095ebb3          	or	s7,a1,s1
    80003c7a:	01f00c3b          	addw	s8,zero,t6
    80003c7e:	99fd                	andi	a1,a1,-1
    80003c80:	404f5833          	sra	a6,t5,tp
    80003c84:	0652                	slli	a2,a2,0x14
    80003c86:	0001                	nop
    80003c88:	00acb4b3          	sltu	s1,s9,a0
    80003c8c:	cd268c13          	addi	s8,a3,-814
    80003c90:	00acb4b3          	sltu	s1,s9,a0
    80003c94:	00f45293          	srli	t0,s0,0xf
    80003c98:	42f85593          	srai	a1,a6,0x2f
    80003c9c:	cd268c13          	addi	s8,a3,-814
    80003ca0:	01209933          	sll	s2,ra,s2
    80003ca4:	013fab33          	slt	s6,t6,s3
    80003ca8:	19e8ba37          	lui	s4,0x19e8b
    80003cac:	9335a213          	slti	tp,a1,-1741
    80003cb0:	f747f813          	andi	a6,a5,-140
    80003cb4:	00fdf133          	and	sp,s11,a5
    80003cb8:	42f85593          	srai	a1,a6,0x2f
    80003cbc:	00acb4b3          	sltu	s1,s9,a0
    80003cc0:	42f85593          	srai	a1,a6,0x2f
    80003cc4:	01f00c3b          	addw	s8,zero,t6
    80003cc8:	00fdf133          	and	sp,s11,a5
    80003ccc:	01a3c333          	xor	t1,t2,s10
    80003cd0:	8431                	srai	s0,s0,0xc
    80003cd2:	00acb4b3          	sltu	s1,s9,a0
    80003cd6:	f747f813          	andi	a6,a5,-140
    80003cda:	1f6dce93          	xori	t4,s11,502
    80003cde:	00065a33          	srl	s4,a2,zero
    80003ce2:	1018                	addi	a4,sp,32
    80003ce4:	0088181b          	slliw	a6,a6,0x8
    80003ce8:	50fd                	li	ra,-1
    80003cea:	01efd0bb          	srlw	ra,t6,t5
    80003cee:	406f04b3          	sub	s1,t5,t1
    80003cf2:	98b3089b          	addiw	a7,t1,-1653
    80003cf6:	98b3089b          	addiw	a7,t1,-1653
    80003cfa:	0095ebb3          	or	s7,a1,s1
    80003cfe:	01a3c333          	xor	t1,t2,s10
    80003d02:	6e8d                	lui	t4,0x3
    80003d04:	4520e893          	ori	a7,ra,1106
    80003d08:	01209933          	sll	s2,ra,s2
    80003d0c:	19e8ba37          	lui	s4,0x19e8b
    80003d10:	8271                	srli	a2,a2,0x1c
    80003d12:	4520e893          	ori	a7,ra,1106
    80003d16:	01f00c3b          	addw	s8,zero,t6
    80003d1a:	cd268c13          	addi	s8,a3,-814
    80003d1e:	406f04b3          	sub	s1,t5,t1
    80003d22:	0001                	nop
    80003d24:	6e8d                	lui	t4,0x3
    80003d26:	8ccd                	or	s1,s1,a1
    80003d28:	00f45293          	srli	t0,s0,0xf
    80003d2c:	8ccd                	or	s1,s1,a1
    80003d2e:	00870f33          	add	t5,a4,s0
    80003d32:	8e9d                	sub	a3,a3,a5
    80003d34:	99fd                	andi	a1,a1,-1
    80003d36:	9b8e                	add	s7,s7,gp
    80003d38:	0088181b          	slliw	a6,a6,0x8
    80003d3c:	9b8e                	add	s7,s7,gp
    80003d3e:	2d21                	addiw	s10,s10,8
    80003d40:	00acb4b3          	sltu	s1,s9,a0
    80003d44:	00065a33          	srl	s4,a2,zero
    80003d48:	4520e893          	ori	a7,ra,1106
    80003d4c:	00065a33          	srl	s4,a2,zero
    80003d50:	01efd0bb          	srlw	ra,t6,t5
    80003d54:	8431                	srai	s0,s0,0xc
    80003d56:	9ea5                	addw	a3,a3,s1
    80003d58:	0088181b          	slliw	a6,a6,0x8
    80003d5c:	40755e3b          	sraw	t3,a0,t2
    80003d60:	01f00c3b          	addw	s8,zero,t6
    80003d64:	9335a213          	slti	tp,a1,-1741
    80003d68:	8e9d                	sub	a3,a3,a5
    80003d6a:	1f6dce93          	xori	t4,s11,502
    80003d6e:	00656917          	auipc	s2,0x656
    80003d72:	40755e3b          	sraw	t3,a0,t2
    80003d76:	015d16bb          	sllw	a3,s10,s5
    80003d7a:	0095ebb3          	or	s7,a1,s1
    80003d7e:	9335a213          	slti	tp,a1,-1741
    80003d82:	8e9d                	sub	a3,a3,a5
    80003d84:	01f00c3b          	addw	s8,zero,t6
    80003d88:	717d                	addi	sp,sp,-16
    80003d8a:	86be                	mv	a3,a5
    80003d8c:	8ccd                	or	s1,s1,a1
    80003d8e:	19e8ba37          	lui	s4,0x19e8b
    80003d92:	8e9d                	sub	a3,a3,a5
    80003d94:	cd268c13          	addi	s8,a3,-814
    80003d98:	197d                	addi	s2,s2,-1 # 80659d6d <_end+0x63d3e5>
    80003d9a:	03b39993          	slli	s3,t2,0x3b
    80003d9e:	01efd0bb          	srlw	ra,t6,t5
    80003da2:	42f85593          	srai	a1,a6,0x2f
    80003da6:	8431                	srai	s0,s0,0xc
    80003da8:	01a3c333          	xor	t1,t2,s10
    80003dac:	8c61                	and	s0,s0,s0
    80003dae:	8271                	srli	a2,a2,0x1c
    80003db0:	2d21                	addiw	s10,s10,8
    80003db2:	8c61                	and	s0,s0,s0
    80003db4:	99fd                	andi	a1,a1,-1
    80003db6:	404f5833          	sra	a6,t5,tp
    80003dba:	407b84bb          	subw	s1,s7,t2
    80003dbe:	00065a33          	srl	s4,a2,zero
    80003dc2:	00acb4b3          	sltu	s1,s9,a0
    80003dc6:	42f85593          	srai	a1,a6,0x2f
    80003dca:	9f99                	subw	a5,a5,a4
    80003dcc:	1f6dce93          	xori	t4,s11,502
    80003dd0:	013fab33          	slt	s6,t6,s3
    80003dd4:	01efd0bb          	srlw	ra,t6,t5
    80003dd8:	86be                	mv	a3,a5
    80003dda:	cd268c13          	addi	s8,a3,-814
    80003dde:	19e8ba37          	lui	s4,0x19e8b
    80003de2:	6e8d                	lui	t4,0x3
    80003de4:	01209933          	sll	s2,ra,s2
    80003de8:	00656917          	auipc	s2,0x656
    80003dec:	9335a213          	slti	tp,a1,-1741
    80003df0:	19e8ba37          	lui	s4,0x19e8b
    80003df4:	4520e893          	ori	a7,ra,1106
    80003df8:	404f5833          	sra	a6,t5,tp
    80003dfc:	9f99                	subw	a5,a5,a4
    80003dfe:	2d21                	addiw	s10,s10,8
    80003e00:	00065a33          	srl	s4,a2,zero
    80003e04:	197d                	addi	s2,s2,-1 # 80659de7 <_end+0x63d45f>
    80003e06:	1f6dce93          	xori	t4,s11,502
    80003e0a:	8dad                	xor	a1,a1,a1
    80003e0c:	0137d79b          	srliw	a5,a5,0x13
    80003e10:	8c61                	and	s0,s0,s0
    80003e12:	01f00c3b          	addw	s8,zero,t6
    80003e16:	00fdf133          	and	sp,s11,a5
    80003e1a:	013fab33          	slt	s6,t6,s3
    80003e1e:	0137d79b          	srliw	a5,a5,0x13
    80003e22:	2d21                	addiw	s10,s10,8
    80003e24:	406f04b3          	sub	s1,t5,t1
    80003e28:	2d21                	addiw	s10,s10,8
    80003e2a:	197d                	addi	s2,s2,-1
    80003e2c:	40755e3b          	sraw	t3,a0,t2
    80003e30:	8e9d                	sub	a3,a3,a5
    80003e32:	cd268c13          	addi	s8,a3,-814
    80003e36:	9ea5                	addw	a3,a3,s1
    80003e38:	4168d29b          	sraiw	t0,a7,0x16
    80003e3c:	9b8e                	add	s7,s7,gp
    80003e3e:	0652                	slli	a2,a2,0x14
    80003e40:	0001                	nop
    80003e42:	406f04b3          	sub	s1,t5,t1
    80003e46:	015d16bb          	sllw	a3,s10,s5
    80003e4a:	8271                	srli	a2,a2,0x1c
    80003e4c:	40755e3b          	sraw	t3,a0,t2
    80003e50:	407b84bb          	subw	s1,s7,t2
    80003e54:	0137d79b          	srliw	a5,a5,0x13
    80003e58:	01efd0bb          	srlw	ra,t6,t5
    80003e5c:	86be                	mv	a3,a5
    80003e5e:	01f00c3b          	addw	s8,zero,t6
    80003e62:	404f5833          	sra	a6,t5,tp
    80003e66:	98b3089b          	addiw	a7,t1,-1653
    80003e6a:	6e8d                	lui	t4,0x3
    80003e6c:	42f85593          	srai	a1,a6,0x2f
    80003e70:	9ea5                	addw	a3,a3,s1
    80003e72:	406f04b3          	sub	s1,t5,t1
    80003e76:	01efd0bb          	srlw	ra,t6,t5
    80003e7a:	8431                	srai	s0,s0,0xc
    80003e7c:	717d                	addi	sp,sp,-16
    80003e7e:	00acb4b3          	sltu	s1,s9,a0
    80003e82:	8431                	srai	s0,s0,0xc
    80003e84:	015d16bb          	sllw	a3,s10,s5
    80003e88:	f747f813          	andi	a6,a5,-140
    80003e8c:	01f00c3b          	addw	s8,zero,t6
    80003e90:	0137d79b          	srliw	a5,a5,0x13
    80003e94:	1018                	addi	a4,sp,32
    80003e96:	4520e893          	ori	a7,ra,1106
    80003e9a:	8e9d                	sub	a3,a3,a5
    80003e9c:	197d                	addi	s2,s2,-1
    80003e9e:	1f6dce93          	xori	t4,s11,502
    80003ea2:	8c61                	and	s0,s0,s0
    80003ea4:	00870f33          	add	t5,a4,s0
    80003ea8:	0652                	slli	a2,a2,0x14
    80003eaa:	013fab33          	slt	s6,t6,s3
    80003eae:	717d                	addi	sp,sp,-16
    80003eb0:	1f6dce93          	xori	t4,s11,502
    80003eb4:	00065a33          	srl	s4,a2,zero
    80003eb8:	00fdf133          	and	sp,s11,a5
    80003ebc:	f747f813          	andi	a6,a5,-140
    80003ec0:	406f04b3          	sub	s1,t5,t1
    80003ec4:	0088181b          	slliw	a6,a6,0x8
    80003ec8:	ee38b993          	sltiu	s3,a7,-285
    80003ecc:	8dad                	xor	a1,a1,a1
    80003ece:	1f6dce93          	xori	t4,s11,502
    80003ed2:	01f00c3b          	addw	s8,zero,t6
    80003ed6:	00065a33          	srl	s4,a2,zero
    80003eda:	6e8d                	lui	t4,0x3
    80003edc:	8ccd                	or	s1,s1,a1
    80003ede:	01a3c333          	xor	t1,t2,s10
    80003ee2:	42f85593          	srai	a1,a6,0x2f
    80003ee6:	6e8d                	lui	t4,0x3
    80003ee8:	00fdf133          	and	sp,s11,a5
    80003eec:	0001                	nop
    80003eee:	00656917          	auipc	s2,0x656
    80003ef2:	9335a213          	slti	tp,a1,-1741
    80003ef6:	9f99                	subw	a5,a5,a4
    80003ef8:	8dad                	xor	a1,a1,a1
    80003efa:	0088181b          	slliw	a6,a6,0x8
    80003efe:	42f85593          	srai	a1,a6,0x2f
    80003f02:	4520e893          	ori	a7,ra,1106
    80003f06:	9ea5                	addw	a3,a3,s1
    80003f08:	8dad                	xor	a1,a1,a1
    80003f0a:	50fd                	li	ra,-1
    80003f0c:	2d21                	addiw	s10,s10,8
    80003f0e:	2d21                	addiw	s10,s10,8
    80003f10:	0652                	slli	a2,a2,0x14
    80003f12:	f747f813          	andi	a6,a5,-140
    80003f16:	404f5833          	sra	a6,t5,tp
    80003f1a:	00f45293          	srli	t0,s0,0xf
    80003f1e:	0137d79b          	srliw	a5,a5,0x13
    80003f22:	0137d79b          	srliw	a5,a5,0x13
    80003f26:	00acb4b3          	sltu	s1,s9,a0
    80003f2a:	9b8e                	add	s7,s7,gp
    80003f2c:	8c61                	and	s0,s0,s0
    80003f2e:	404f5833          	sra	a6,t5,tp
    80003f32:	00065a33          	srl	s4,a2,zero
    80003f36:	00870f33          	add	t5,a4,s0
    80003f3a:	015d16bb          	sllw	a3,s10,s5
    80003f3e:	197d                	addi	s2,s2,-1 # 80659eed <_end+0x63d565>
    80003f40:	99fd                	andi	a1,a1,-1
    80003f42:	00656917          	auipc	s2,0x656
    80003f46:	717d                	addi	sp,sp,-16
    80003f48:	8431                	srai	s0,s0,0xc
    80003f4a:	0652                	slli	a2,a2,0x14
    80003f4c:	00656917          	auipc	s2,0x656
    80003f50:	8c61                	and	s0,s0,s0
    80003f52:	404f5833          	sra	a6,t5,tp
    80003f56:	4168d29b          	sraiw	t0,a7,0x16
    80003f5a:	00656917          	auipc	s2,0x656
    80003f5e:	9b8e                	add	s7,s7,gp
    80003f60:	1f6dce93          	xori	t4,s11,502
    80003f64:	00f45293          	srli	t0,s0,0xf
    80003f68:	00f45293          	srli	t0,s0,0xf
    80003f6c:	50fd                	li	ra,-1
    80003f6e:	50fd                	li	ra,-1
    80003f70:	0095ebb3          	or	s7,a1,s1
    80003f74:	01209933          	sll	s2,ra,s2
    80003f78:	197d                	addi	s2,s2,-1 # 80659f59 <_end+0x63d5d1>
    80003f7a:	717d                	addi	sp,sp,-16
    80003f7c:	0001                	nop
    80003f7e:	8c61                	and	s0,s0,s0
    80003f80:	8ccd                	or	s1,s1,a1
    80003f82:	1f6dce93          	xori	t4,s11,502
    80003f86:	50fd                	li	ra,-1
    80003f88:	9b8e                	add	s7,s7,gp
    80003f8a:	015d16bb          	sllw	a3,s10,s5
    80003f8e:	98b3089b          	addiw	a7,t1,-1653
    80003f92:	407b84bb          	subw	s1,s7,t2
    80003f96:	01efd0bb          	srlw	ra,t6,t5
    80003f9a:	9335a213          	slti	tp,a1,-1741
    80003f9e:	01f00c3b          	addw	s8,zero,t6
    80003fa2:	98b3089b          	addiw	a7,t1,-1653
    80003fa6:	9335a213          	slti	tp,a1,-1741
    80003faa:	407b84bb          	subw	s1,s7,t2
    80003fae:	9b8e                	add	s7,s7,gp
    80003fb0:	00065a33          	srl	s4,a2,zero
    80003fb4:	ee38b993          	sltiu	s3,a7,-285
    80003fb8:	0001                	nop
    80003fba:	03b39993          	slli	s3,t2,0x3b
    80003fbe:	01a3c333          	xor	t1,t2,s10
    80003fc2:	8e9d                	sub	a3,a3,a5
    80003fc4:	0137d79b          	srliw	a5,a5,0x13
    80003fc8:	42f85593          	srai	a1,a6,0x2f
    80003fcc:	86be                	mv	a3,a5
    80003fce:	0095ebb3          	or	s7,a1,s1
    80003fd2:	8dad                	xor	a1,a1,a1
    80003fd4:	197d                	addi	s2,s2,-1
    80003fd6:	1018                	addi	a4,sp,32
    80003fd8:	0088181b          	slliw	a6,a6,0x8
    80003fdc:	6e8d                	lui	t4,0x3
    80003fde:	8dad                	xor	a1,a1,a1
    80003fe0:	2d21                	addiw	s10,s10,8
    80003fe2:	8ccd                	or	s1,s1,a1
    80003fe4:	00fdf133          	and	sp,s11,a5
    80003fe8:	8e9d                	sub	a3,a3,a5
    80003fea:	86be                	mv	a3,a5
    80003fec:	86be                	mv	a3,a5
    80003fee:	50fd                	li	ra,-1
    80003ff0:	98b3089b          	addiw	a7,t1,-1653
    80003ff4:	00f45293          	srli	t0,s0,0xf
    80003ff8:	406f04b3          	sub	s1,t5,t1
    80003ffc:	00f45293          	srli	t0,s0,0xf
    80004000:	40755e3b          	sraw	t3,a0,t2
    80004004:	8271                	srli	a2,a2,0x1c
    80004006:	197d                	addi	s2,s2,-1
    80004008:	0001                	nop
    8000400a:	cd268c13          	addi	s8,a3,-814
    8000400e:	9ea5                	addw	a3,a3,s1
    80004010:	0001                	nop
    80004012:	40755e3b          	sraw	t3,a0,t2
    80004016:	8431                	srai	s0,s0,0xc
    80004018:	cd268c13          	addi	s8,a3,-814
    8000401c:	0088181b          	slliw	a6,a6,0x8
    80004020:	197d                	addi	s2,s2,-1
    80004022:	2d21                	addiw	s10,s10,8
    80004024:	0095ebb3          	or	s7,a1,s1
    80004028:	01efd0bb          	srlw	ra,t6,t5
