
riscv_arithmetic_basic_test_0.o:     file format elf64-littleriscv


Disassembly of section .text:

0000000080000000 <_start>:
    80000000:	f14022f3          	csrr	t0,mhartid
    80000004:	00000313          	li	t1,0
    80000008:	00628263          	beq	t0,t1,8000000c <_start+0xc>
    8000000c:	00000f17          	auipc	t5,0x0
    80000010:	00cf0f13          	addi	t5,t5,12 # 80000018 <h0_start>
    80000014:	000f0067          	jr	t5

0000000080000018 <h0_start>:
    80000018:	fff00d1b          	addiw	s10,zero,-1
    8000001c:	033d1d13          	slli	s10,s10,0x33
    80000020:	001d0d13          	addi	s10,s10,1
    80000024:	00cd1d13          	slli	s10,s10,0xc
    80000028:	100d0d13          	addi	s10,s10,256
    8000002c:	301d1073          	csrw	misa,s10

0000000080000030 <kernel_sp>:
    80000030:	0001f897          	auipc	a7,0x1f
    80000034:	95088893          	addi	a7,a7,-1712 # 8001e980 <kernel_stack_end>

0000000080000038 <trap_vec_init>:
    80000038:	0000dd17          	auipc	s10,0xd
    8000003c:	828d0d13          	addi	s10,s10,-2008 # 8000c860 <mtvec_handler>
    80000040:	001d6d13          	ori	s10,s10,1
    80000044:	305d1073          	csrw	mtvec,s10

0000000080000048 <mepc_setup>:
    80000048:	00000d17          	auipc	s10,0x0
    8000004c:	028d0d13          	addi	s10,s10,40 # 80000070 <init>
    80000050:	341d1073          	csrw	mepc,s10

0000000080000054 <custom_csr_setup>:
    80000054:	00000013          	nop

0000000080000058 <init_machine_mode>:
    80000058:	00002d37          	lui	s10,0x2
    8000005c:	800d0d1b          	addiw	s10,s10,-2048 # 1800 <_start-0x7fffe800>
    80000060:	300d1073          	csrw	mstatus,s10
    80000064:	00000d13          	li	s10,0
    80000068:	304d1073          	csrw	mie,s10
    8000006c:	30200073          	mret

0000000080000070 <init>:
    80000070:	0010001b          	addiw	zero,zero,1
    80000074:	01f01013          	slli	zero,zero,0x1f
    80000078:	00f00093          	li	ra,15
    8000007c:	0010011b          	addiw	sp,zero,1
    80000080:	01f11113          	slli	sp,sp,0x1f
    80000084:	0010019b          	addiw	gp,zero,1
    80000088:	01f19193          	slli	gp,gp,0x1f
    8000008c:	0010021b          	addiw	tp,zero,1
    80000090:	01f21213          	slli	tp,tp,0x1f
    80000094:	00000293          	li	t0,0
    80000098:	000fc337          	lui	t1,0xfc
    8000009c:	9853031b          	addiw	t1,t1,-1659 # fb985 <_start-0x7ff0467b>
    800000a0:	00c31313          	slli	t1,t1,0xc
    800000a4:	56130313          	addi	t1,t1,1377
    800000a8:	00500393          	li	t2,5
    800000ac:	000fa437          	lui	s0,0xfa
    800000b0:	ddf4041b          	addiw	s0,s0,-545 # f9ddf <_start-0x7ff06221>
    800000b4:	00c41413          	slli	s0,s0,0xc
    800000b8:	f3a40413          	addi	s0,s0,-198
    800000bc:	00700493          	li	s1,7
    800000c0:	0003f537          	lui	a0,0x3f
    800000c4:	d435051b          	addiw	a0,a0,-701 # 3ed43 <_start-0x7ffc12bd>
    800000c8:	00e51513          	slli	a0,a0,0xe
    800000cc:	7de50513          	addi	a0,a0,2014
    800000d0:	000105b7          	lui	a1,0x10
    800000d4:	c9d5859b          	addiw	a1,a1,-867 # fc9d <_start-0x7fff0363>
    800000d8:	01059593          	slli	a1,a1,0x10
    800000dc:	d0058593          	addi	a1,a1,-768
    800000e0:	0000f637          	lui	a2,0xf
    800000e4:	5836061b          	addiw	a2,a2,1411 # f583 <_start-0x7fff0a7d>
    800000e8:	01061613          	slli	a2,a2,0x10
    800000ec:	4ef60613          	addi	a2,a2,1263
    800000f0:	000f66b7          	lui	a3,0xf6
    800000f4:	a8d6869b          	addiw	a3,a3,-1395 # f5a8d <_start-0x7ff0a573>
    800000f8:	00c69693          	slli	a3,a3,0xc
    800000fc:	76e68693          	addi	a3,a3,1902
    80000100:	00a00713          	li	a4,10
    80000104:	0010079b          	addiw	a5,zero,1
    80000108:	01f79793          	slli	a5,a5,0x1f
    8000010c:	00000813          	li	a6,0
    80000110:	0010091b          	addiw	s2,zero,1
    80000114:	01f91913          	slli	s2,s2,0x1f
    80000118:	03d369b7          	lui	s3,0x3d36
    8000011c:	3bf9899b          	addiw	s3,s3,959 # 3d363bf <_start-0x7c2c9c41>
    80000120:	00200a13          	li	s4,2
    80000124:	000f9ab7          	lui	s5,0xf9
    80000128:	46fa8a9b          	addiw	s5,s5,1135 # f946f <_start-0x7ff06b91>
    8000012c:	00ca9a93          	slli	s5,s5,0xc
    80000130:	234a8a93          	addi	s5,s5,564
    80000134:	00084bb7          	lui	s7,0x84
    80000138:	387b8b9b          	addiw	s7,s7,903 # 84387 <_start-0x7ff7bc79>
    8000013c:	00cb9b93          	slli	s7,s7,0xc
    80000140:	4c1b8b93          	addi	s7,s7,1217
    80000144:	51d0bc37          	lui	s8,0x51d0b
    80000148:	336c0c1b          	addiw	s8,s8,822 # 51d0b336 <_start-0x2e2f4cca>
    8000014c:	00000c93          	li	s9,0
    80000150:	00100d13          	li	s10,1
    80000154:	000c3db7          	lui	s11,0xc3
    80000158:	555d8d9b          	addiw	s11,s11,1365 # c3555 <_start-0x7ff3caab>
    8000015c:	00cd9d93          	slli	s11,s11,0xc
    80000160:	630d8d93          	addi	s11,s11,1584
    80000164:	00000e13          	li	t3,0
    80000168:	00000e93          	li	t4,0
    8000016c:	00000f13          	li	t5,0
    80000170:	00018fb7          	lui	t6,0x18
    80000174:	22df8f9b          	addiw	t6,t6,557 # 1822d <_start-0x7ffe7dd3>
    80000178:	00ff9f93          	slli	t6,t6,0xf
    8000017c:	2f7f8f93          	addi	t6,t6,759
    80000180:	00017b17          	auipc	s6,0x17
    80000184:	b00b0b13          	addi	s6,s6,-1280 # 80016c80 <user_stack_end>

0000000080000188 <main>:
    80000188:	fff00913          	li	s2,-1
    8000018c:	fff0069b          	addiw	a3,zero,-1
    80000190:	03f69693          	slli	a3,a3,0x3f
    80000194:	000a5d37          	lui	s10,0xa5
    80000198:	689d0d1b          	addiw	s10,s10,1673 # a5689 <_start-0x7ff5a977>
    8000019c:	00dd1d13          	slli	s10,s10,0xd
    800001a0:	839d0d13          	addi	s10,s10,-1991
    800001a4:	00cd1d13          	slli	s10,s10,0xc
    800001a8:	929d0d13          	addi	s10,s10,-1751
    800001ac:	00fd1d13          	slli	s10,s10,0xf
    800001b0:	8bbd0d13          	addi	s10,s10,-1861
    800001b4:	00000713          	li	a4,0
    800001b8:	ffe324b7          	lui	s1,0xffe32
    800001bc:	69b4849b          	addiw	s1,s1,1691 # ffffffffffe3269b <_end+0xffffffff7fe13d13>
    800001c0:	00e49493          	slli	s1,s1,0xe
    800001c4:	64748493          	addi	s1,s1,1607
    800001c8:	00c49493          	slli	s1,s1,0xc
    800001cc:	49148493          	addi	s1,s1,1169
    800001d0:	00e49493          	slli	s1,s1,0xe
    800001d4:	6de48493          	addi	s1,s1,1758
    800001d8:	012e1fb7          	lui	t6,0x12e1
    800001dc:	a71f8f9b          	addiw	t6,t6,-1423 # 12e0a71 <_start-0x7ed1f58f>
    800001e0:	00cf9f93          	slli	t6,t6,0xc
    800001e4:	03ff8f93          	addi	t6,t6,63
    800001e8:	00cf9f93          	slli	t6,t6,0xc
    800001ec:	39bf8f93          	addi	t6,t6,923
    800001f0:	00cf9f93          	slli	t6,t6,0xc
    800001f4:	94cf8f93          	addi	t6,t6,-1716
    800001f8:	fff0051b          	addiw	a0,zero,-1
    800001fc:	03f51513          	slli	a0,a0,0x3f
    80000200:	fff00993          	li	s3,-1
    80000204:	76876cb7          	lui	s9,0x76876
    80000208:	227c8c9b          	addiw	s9,s9,551 # 76876227 <_start-0x9789dd9>
    8000020c:	00dc9c93          	slli	s9,s9,0xd
    80000210:	a9fc8c93          	addi	s9,s9,-1377
    80000214:	00cc9c93          	slli	s9,s9,0xc
    80000218:	931c8c93          	addi	s9,s9,-1743
    8000021c:	00000113          	li	sp,0
    80000220:	029d34b3          	mulhu	s1,s10,s1
    80000224:	40998d33          	sub	s10,s3,s1
    80000228:	12c9099b          	addiw	s3,s2,300
    8000022c:	029d34b3          	mulhu	s1,s10,s1
    80000230:	022144b3          	div	s1,sp,sp
    80000234:	029d34b3          	mulhu	s1,s10,s1
    80000238:	0226d13b          	divuw	sp,a3,sp
    8000023c:	03a6d133          	divu	sp,a3,s10
    80000240:	029c84b3          	mul	s1,s9,s1
    80000244:	022f96b3          	mulh	a3,t6,sp
    80000248:	00000013          	nop
    8000024c:	022144b3          	div	s1,sp,sp
    80000250:	0324f4b3          	remu	s1,s1,s2
    80000254:	01a50733          	add	a4,a0,s10
    80000258:	02ecccbb          	divw	s9,s9,a4
    8000025c:	022144b3          	div	s1,sp,sp
    80000260:	00000013          	nop
    80000264:	12c9099b          	addiw	s3,s2,300
    80000268:	01a50733          	add	a4,a0,s10
    8000026c:	02e964b3          	rem	s1,s2,a4
    80000270:	fff0021b          	addiw	tp,zero,-1
    80000274:	03f21213          	slli	tp,tp,0x3f
    80000278:	ffde1637          	lui	a2,0xffde1
    8000027c:	16f6061b          	addiw	a2,a2,367 # ffffffffffde116f <_end+0xffffffff7fdc27e7>
    80000280:	01161613          	slli	a2,a2,0x11
    80000284:	e0d60613          	addi	a2,a2,-499
    80000288:	00c61613          	slli	a2,a2,0xc
    8000028c:	45760613          	addi	a2,a2,1111
    80000290:	00c61613          	slli	a2,a2,0xc
    80000294:	55160613          	addi	a2,a2,1361
    80000298:	00000c93          	li	s9,0
    8000029c:	fff0049b          	addiw	s1,zero,-1
    800002a0:	03f49493          	slli	s1,s1,0x3f
    800002a4:	fff00693          	li	a3,-1
    800002a8:	00000a13          	li	s4,0
    800002ac:	fff00113          	li	sp,-1
    800002b0:	00000c13          	li	s8,0
    800002b4:	fff00d13          	li	s10,-1
    800002b8:	004e70b7          	lui	ra,0x4e7
    800002bc:	6730809b          	addiw	ra,ra,1651 # 4e7673 <_start-0x7fb1898d>
    800002c0:	01009093          	slli	ra,ra,0x10
    800002c4:	acb08093          	addi	ra,ra,-1333
    800002c8:	00c09093          	slli	ra,ra,0xc
    800002cc:	72308093          	addi	ra,ra,1827
    800002d0:	00c09093          	slli	ra,ra,0xc
    800002d4:	9b708093          	addi	ra,ra,-1609
    800002d8:	c94dc0b7          	lui	ra,0xc94dc
    800002dc:	002684bb          	addw	s1,a3,sp
    800002e0:	201de497          	auipc	s1,0x201de
    800002e4:	02d17133          	remu	sp,sp,a3
    800002e8:	002684bb          	addw	s1,a3,sp
    800002ec:	02cc4c3b          	divw	s8,s8,a2
    800002f0:	021d14b3          	mulh	s1,s10,ra
    800002f4:	02c6e133          	rem	sp,a3,a2
    800002f8:	402a0cb3          	sub	s9,s4,sp
    800002fc:	419d023b          	subw	tp,s10,s9
    80000300:	c94dc0b7          	lui	ra,0xc94dc
    80000304:	02c100bb          	mulw	ra,sp,a2
    80000308:	038cfa3b          	remuw	s4,s9,s8
    8000030c:	201de497          	auipc	s1,0x201de
    80000310:	038cfa3b          	remuw	s4,s9,s8
    80000314:	419d023b          	subw	tp,s10,s9
    80000318:	aed60493          	addi	s1,a2,-1299
    8000031c:	12c68a1b          	addiw	s4,a3,300
    80000320:	038cfa3b          	remuw	s4,s9,s8
    80000324:	402a0cb3          	sub	s9,s4,sp
    80000328:	c94dc0b7          	lui	ra,0xc94dc
    8000032c:	201de497          	auipc	s1,0x201de
    80000330:	fff0081b          	addiw	a6,zero,-1
    80000334:	03f81813          	slli	a6,a6,0x3f
    80000338:	fdfd1cb7          	lui	s9,0xfdfd1
    8000033c:	6cbc8c9b          	addiw	s9,s9,1739 # fffffffffdfd16cb <_end+0xffffffff7dfb2d43>
    80000340:	00cc9c93          	slli	s9,s9,0xc
    80000344:	cd1c8c93          	addi	s9,s9,-815
    80000348:	00cc9c93          	slli	s9,s9,0xc
    8000034c:	1b5c8c93          	addi	s9,s9,437
    80000350:	00cc9c93          	slli	s9,s9,0xc
    80000354:	8a2c8c93          	addi	s9,s9,-1886
    80000358:	00000293          	li	t0,0
    8000035c:	0041b637          	lui	a2,0x41b
    80000360:	de56061b          	addiw	a2,a2,-539 # 41ade5 <_start-0x7fbe521b>
    80000364:	00c61613          	slli	a2,a2,0xc
    80000368:	4c560613          	addi	a2,a2,1221
    8000036c:	00d61613          	slli	a2,a2,0xd
    80000370:	dd760613          	addi	a2,a2,-553
    80000374:	00d61613          	slli	a2,a2,0xd
    80000378:	08760613          	addi	a2,a2,135
    8000037c:	000271b7          	lui	gp,0x27
    80000380:	d8d1819b          	addiw	gp,gp,-627 # 26d8d <_start-0x7ffd9273>
    80000384:	01119193          	slli	gp,gp,0x11
    80000388:	28918193          	addi	gp,gp,649
    8000038c:	00d19193          	slli	gp,gp,0xd
    80000390:	e1518193          	addi	gp,gp,-491
    80000394:	00c19193          	slli	gp,gp,0xc
    80000398:	60618193          	addi	gp,gp,1542
    8000039c:	fff00d13          	li	s10,-1
    800003a0:	fff00993          	li	s3,-1
    800003a4:	03ae0537          	lui	a0,0x3ae0
    800003a8:	3e75051b          	addiw	a0,a0,999 # 3ae03e7 <_start-0x7c51fc19>
    800003ac:	00c51513          	slli	a0,a0,0xc
    800003b0:	1ef50513          	addi	a0,a0,495
    800003b4:	00c51513          	slli	a0,a0,0xc
    800003b8:	87550513          	addi	a0,a0,-1931
    800003bc:	00d51513          	slli	a0,a0,0xd
    800003c0:	5f550513          	addi	a0,a0,1525
    800003c4:	00000913          	li	s2,0
    800003c8:	00000393          	li	t2,0
    800003cc:	0339683b          	remw	a6,s2,s3
    800003d0:	03352633          	mulhsu	a2,a0,s3
    800003d4:	023551bb          	divuw	gp,a0,gp
    800003d8:	aed60513          	addi	a0,a2,-1299
    800003dc:	419d03bb          	subw	t2,s10,s9
    800003e0:	c94dc1b7          	lui	gp,0xc94dc
    800003e4:	0231c2b3          	div	t0,gp,gp
    800003e8:	0339683b          	remw	a6,s2,s3
    800003ec:	0231c2b3          	div	t0,gp,gp
    800003f0:	02c281bb          	mulw	gp,t0,a2
    800003f4:	03352633          	mulhsu	a2,a0,s3
    800003f8:	0058053b          	addw	a0,a6,t0
    800003fc:	00000013          	nop
    80000400:	0339683b          	remw	a6,s2,s3
    80000404:	201de517          	auipc	a0,0x201de
    80000408:	02c9c9bb          	divw	s3,s3,a2
    8000040c:	02c281bb          	mulw	gp,t0,a2
    80000410:	40590cb3          	sub	s9,s2,t0
    80000414:	00000013          	nop
    80000418:	0231c2b3          	div	t0,gp,gp
    8000041c:	201de517          	auipc	a0,0x201de
    80000420:	0302f2b3          	remu	t0,t0,a6
    80000424:	12c8091b          	addiw	s2,a6,300
    80000428:	00000693          	li	a3,0
    8000042c:	00000d93          	li	s11,0
    80000430:	fff00c93          	li	s9,-1
    80000434:	00c79737          	lui	a4,0xc79
    80000438:	f237071b          	addiw	a4,a4,-221 # c78f23 <_start-0x7f3870dd>
    8000043c:	00e71713          	slli	a4,a4,0xe
    80000440:	6cb70713          	addi	a4,a4,1739
    80000444:	00c71713          	slli	a4,a4,0xc
    80000448:	edf70713          	addi	a4,a4,-289
    8000044c:	00d71713          	slli	a4,a4,0xd
    80000450:	0a770713          	addi	a4,a4,167
    80000454:	fff0031b          	addiw	t1,zero,-1
    80000458:	03f31313          	slli	t1,t1,0x3f
    8000045c:	fff00193          	li	gp,-1
    80000460:	fff0079b          	addiw	a5,zero,-1
    80000464:	03f79793          	slli	a5,a5,0x3f
    80000468:	fff00593          	li	a1,-1
    8000046c:	00000513          	li	a0,0
    80000470:	fff00b9b          	addiw	s7,zero,-1
    80000474:	03fb9b93          	slli	s7,s7,0x3f
    80000478:	023d95b3          	mulh	a1,s11,gp
    8000047c:	02d301bb          	mulw	gp,t1,a3
    80000480:	02d76333          	rem	t1,a4,a3
    80000484:	201de597          	auipc	a1,0x201de
    80000488:	02dbcbbb          	divw	s7,s7,a3
    8000048c:	0377e73b          	remw	a4,a5,s7
    80000490:	023d95b3          	mulh	a1,s11,gp
    80000494:	006705bb          	addw	a1,a4,t1
    80000498:	aed68593          	addi	a1,a3,-1299
    8000049c:	00000013          	nop
    800004a0:	006705bb          	addw	a1,a4,t1
    800004a4:	023d95b3          	mulh	a1,s11,gp
    800004a8:	019506b3          	add	a3,a0,s9
    800004ac:	0395d1b3          	divu	gp,a1,s9
    800004b0:	0375a6b3          	mulhsu	a3,a1,s7
    800004b4:	201de597          	auipc	a1,0x201de
    800004b8:	c94dc1b7          	lui	gp,0xc94dc
    800004bc:	12c7079b          	addiw	a5,a4,300
    800004c0:	201de597          	auipc	a1,0x201de
    800004c4:	023d95b3          	mulh	a1,s11,gp
    800004c8:	fff0069b          	addiw	a3,zero,-1
    800004cc:	03f69693          	slli	a3,a3,0x3f
    800004d0:	fff00513          	li	a0,-1
    800004d4:	fff0099b          	addiw	s3,zero,-1
    800004d8:	03f99993          	slli	s3,s3,0x3f
    800004dc:	fff0009b          	addiw	ra,zero,-1
    800004e0:	03f09093          	slli	ra,ra,0x3f
    800004e4:	fff00293          	li	t0,-1
    800004e8:	fff00d1b          	addiw	s10,zero,-1
    800004ec:	03fd1d13          	slli	s10,s10,0x3f
    800004f0:	fc4ae637          	lui	a2,0xfc4ae
    800004f4:	01d6061b          	addiw	a2,a2,29 # fffffffffc4ae01d <_end+0xffffffff7c48f695>
    800004f8:	00d61613          	slli	a2,a2,0xd
    800004fc:	65d60613          	addi	a2,a2,1629
    80000500:	00c61613          	slli	a2,a2,0xc
    80000504:	ea960613          	addi	a2,a2,-343
    80000508:	00c61613          	slli	a2,a2,0xc
    8000050c:	6c460613          	addi	a2,a2,1732
    80000510:	fff00d93          	li	s11,-1
    80000514:	fff0011b          	addiw	sp,zero,-1
    80000518:	03f11113          	slli	sp,sp,0x3f
    8000051c:	fff0091b          	addiw	s2,zero,-1
    80000520:	03f91913          	slli	s2,s2,0x3f
    80000524:	02c6e133          	rem	sp,a3,a2
    80000528:	41ad82bb          	subw	t0,s11,s10
    8000052c:	40290d33          	sub	s10,s2,sp
    80000530:	03a550b3          	divu	ra,a0,s10
    80000534:	41ad82bb          	subw	t0,s11,s10
    80000538:	02c9c9bb          	divw	s3,s3,a2
    8000053c:	02c9c9bb          	divw	s3,s3,a2
    80000540:	02c9c9bb          	divw	s3,s3,a2
    80000544:	40290d33          	sub	s10,s2,sp
    80000548:	00000013          	nop
    8000054c:	00000013          	nop
    80000550:	02c100bb          	mulw	ra,sp,a2
    80000554:	022d3133          	mulhu	sp,s10,sp
    80000558:	021550bb          	divuw	ra,a0,ra
    8000055c:	01a28633          	add	a2,t0,s10
    80000560:	033d793b          	remuw	s2,s10,s3
    80000564:	12c6891b          	addiw	s2,a3,300
    80000568:	022d3133          	mulhu	sp,s10,sp
    8000056c:	0026853b          	addw	a0,a3,sp
    80000570:	02c100bb          	mulw	ra,sp,a2
    80000574:	41ad82bb          	subw	t0,s11,s10
    80000578:	aed60513          	addi	a0,a2,-1299
    8000057c:	fe0634b7          	lui	s1,0xfe063
    80000580:	a3f4849b          	addiw	s1,s1,-1473 # fffffffffe062a3f <_end+0xffffffff7e0440b7>
    80000584:	00c49493          	slli	s1,s1,0xc
    80000588:	51348493          	addi	s1,s1,1299
    8000058c:	00c49493          	slli	s1,s1,0xc
    80000590:	21148493          	addi	s1,s1,529
    80000594:	00e49493          	slli	s1,s1,0xe
    80000598:	71a48493          	addi	s1,s1,1818
    8000059c:	00000c93          	li	s9,0
    800005a0:	fff0059b          	addiw	a1,zero,-1
    800005a4:	03f59593          	slli	a1,a1,0x3f
    800005a8:	00000f93          	li	t6,0
    800005ac:	fff00913          	li	s2,-1
    800005b0:	fff00613          	li	a2,-1
    800005b4:	fff00a13          	li	s4,-1
    800005b8:	00000393          	li	t2,0
    800005bc:	000999b7          	lui	s3,0x99
    800005c0:	8339899b          	addiw	s3,s3,-1997 # 98833 <_start-0x7ff677cd>
    800005c4:	00c99993          	slli	s3,s3,0xc
    800005c8:	bb998993          	addi	s3,s3,-1095
    800005cc:	00c99993          	slli	s3,s3,0xc
    800005d0:	cbb98993          	addi	s3,s3,-837
    800005d4:	00c99993          	slli	s3,s3,0xc
    800005d8:	daf98993          	addi	s3,s3,-593
    800005dc:	d1dd8eb7          	lui	t4,0xd1dd8
    800005e0:	9f7e8e9b          	addiw	t4,t4,-1545 # ffffffffd1dd79f7 <_end+0xffffffff51db906f>
    800005e4:	00ce9e93          	slli	t4,t4,0xc
    800005e8:	c85e8e93          	addi	t4,t4,-891
    800005ec:	00ee9e93          	slli	t4,t4,0xe
    800005f0:	c80e8e93          	addi	t4,t4,-896
    800005f4:	aed90613          	addi	a2,s2,-1299
    800005f8:	0273c4b3          	div	s1,t2,t2
    800005fc:	029eb4b3          	mulhu	s1,t4,s1
    80000600:	029c84b3          	mul	s1,s9,s1
    80000604:	027f9633          	mulh	a2,t6,t2
    80000608:	00000013          	nop
    8000060c:	409a0eb3          	sub	t4,s4,s1
    80000610:	12c98a1b          	addiw	s4,s3,300
    80000614:	c94dc3b7          	lui	t2,0xc94dc
    80000618:	0099863b          	addw	a2,s3,s1
    8000061c:	0099863b          	addw	a2,s3,s1
    80000620:	0334f4b3          	remu	s1,s1,s3
    80000624:	12c98a1b          	addiw	s4,s3,300
    80000628:	029eb4b3          	mulhu	s1,t4,s1
    8000062c:	00000013          	nop
    80000630:	fffe04b7          	lui	s1,0xfffe0
    80000634:	4074849b          	addiw	s1,s1,1031 # fffffffffffe0407 <_end+0xffffffff7ffc1a7f>
    80000638:	01249493          	slli	s1,s1,0x12
    8000063c:	37348493          	addi	s1,s1,883
    80000640:	00c49493          	slli	s1,s1,0xc
    80000644:	7b548493          	addi	s1,s1,1973
    80000648:	00c49493          	slli	s1,s1,0xc
    8000064c:	f3e48493          	addi	s1,s1,-194
    80000650:	fff00a13          	li	s4,-1
    80000654:	00000313          	li	t1,0
    80000658:	00000c13          	li	s8,0
    8000065c:	fff0071b          	addiw	a4,zero,-1
    80000660:	03f71713          	slli	a4,a4,0x3f
    80000664:	fff00613          	li	a2,-1
    80000668:	ffe895b7          	lui	a1,0xffe89
    8000066c:	3735859b          	addiw	a1,a1,883 # ffffffffffe89373 <_end+0xffffffff7fe6a9eb>
    80000670:	00e59593          	slli	a1,a1,0xe
    80000674:	ac158593          	addi	a1,a1,-1343
    80000678:	00c59593          	slli	a1,a1,0xc
    8000067c:	4d758593          	addi	a1,a1,1239
    80000680:	00d59593          	slli	a1,a1,0xd
    80000684:	47e58593          	addi	a1,a1,1150
    80000688:	fff0079b          	addiw	a5,zero,-1
    8000068c:	03f79793          	slli	a5,a5,0x3f
    80000690:	fff00293          	li	t0,-1
    80000694:	fff0051b          	addiw	a0,zero,-1
    80000698:	03f51513          	slli	a0,a0,0x3f
    8000069c:	02b7c7bb          	divw	a5,a5,a1
    800006a0:	014485b3          	add	a1,s1,s4
    800006a4:	025552bb          	divuw	t0,a0,t0
    800006a8:	02f525b3          	mulhsu	a1,a0,a5
    800006ac:	0252c333          	div	t1,t0,t0
    800006b0:	414c04bb          	subw	s1,s8,s4
    800006b4:	414c04bb          	subw	s1,s8,s4
    800006b8:	02fa773b          	remuw	a4,s4,a5
    800006bc:	02f7663b          	remw	a2,a4,a5
    800006c0:	034552b3          	divu	t0,a0,s4
    800006c4:	c94dc2b7          	lui	t0,0xc94dc
    800006c8:	02f7663b          	remw	a2,a4,a5
    800006cc:	02c37333          	remu	t1,t1,a2
    800006d0:	12c6071b          	addiw	a4,a2,300
    800006d4:	40670a33          	sub	s4,a4,t1
    800006d8:	02fa773b          	remuw	a4,s4,a5
    800006dc:	025552bb          	divuw	t0,a0,t0
    800006e0:	414c04bb          	subw	s1,s8,s4
    800006e4:	025c1533          	mulh	a0,s8,t0
    800006e8:	026a3333          	mulhu	t1,s4,t1
    800006ec:	02fa773b          	remuw	a4,s4,a5
    800006f0:	40670a33          	sub	s4,a4,t1
    800006f4:	02b7c7bb          	divw	a5,a5,a1
    800006f8:	026a3333          	mulhu	t1,s4,t1
    800006fc:	40670a33          	sub	s4,a4,t1
    80000700:	ffc8a9b7          	lui	s3,0xffc8a
    80000704:	b919899b          	addiw	s3,s3,-1135 # ffffffffffc89b91 <_end+0xffffffff7fc6b209>
    80000708:	00d99993          	slli	s3,s3,0xd
    8000070c:	2d998993          	addi	s3,s3,729
    80000710:	00e99993          	slli	s3,s3,0xe
    80000714:	49998993          	addi	s3,s3,1177
    80000718:	00c99993          	slli	s3,s3,0xc
    8000071c:	baa98993          	addi	s3,s3,-1110
    80000720:	fff0011b          	addiw	sp,zero,-1
    80000724:	03f11113          	slli	sp,sp,0x3f
    80000728:	fff00793          	li	a5,-1
    8000072c:	ffc2cdb7          	lui	s11,0xffc2c
    80000730:	777d8d9b          	addiw	s11,s11,1911 # ffffffffffc2c777 <_end+0xffffffff7fc0ddef>
    80000734:	00ed9d93          	slli	s11,s11,0xe
    80000738:	a9bd8d93          	addi	s11,s11,-1381
    8000073c:	00ed9d93          	slli	s11,s11,0xe
    80000740:	0e9d8d93          	addi	s11,s11,233
    80000744:	00dd9d93          	slli	s11,s11,0xd
    80000748:	8b9d8d93          	addi	s11,s11,-1863
    8000074c:	00000393          	li	t2,0
    80000750:	ff344637          	lui	a2,0xff344
    80000754:	8796061b          	addiw	a2,a2,-1927 # ffffffffff343879 <_end+0xffffffff7f324ef1>
    80000758:	00c61613          	slli	a2,a2,0xc
    8000075c:	14b60613          	addi	a2,a2,331
    80000760:	00d61613          	slli	a2,a2,0xd
    80000764:	0b360613          	addi	a2,a2,179
    80000768:	00d61613          	slli	a2,a2,0xd
    8000076c:	69060613          	addi	a2,a2,1680
    80000770:	fff0049b          	addiw	s1,zero,-1
    80000774:	03f49493          	slli	s1,s1,0x3f
    80000778:	fff00193          	li	gp,-1
    8000077c:	00000a93          	li	s5,0
    80000780:	00000713          	li	a4,0
    80000784:	0337e73b          	remw	a4,a5,s3
    80000788:	023ab1b3          	mulhu	gp,s5,gp
    8000078c:	00000013          	nop
    80000790:	02c1813b          	mulw	sp,gp,a2
    80000794:	022141b3          	div	gp,sp,sp
    80000798:	02e1f1b3          	remu	gp,gp,a4
    8000079c:	c94dc137          	lui	sp,0xc94dc
    800007a0:	00000013          	nop
    800007a4:	02c9c9bb          	divw	s3,s3,a2
    800007a8:	40378ab3          	sub	s5,a5,gp
    800007ac:	023981b3          	mul	gp,s3,gp
    800007b0:	023ab1b3          	mulhu	gp,s5,gp
    800007b4:	02c1813b          	mulw	sp,gp,a2
    800007b8:	c94dc137          	lui	sp,0xc94dc
    800007bc:	c94dc137          	lui	sp,0xc94dc
    800007c0:	003704bb          	addw	s1,a4,gp
    800007c4:	01538633          	add	a2,t2,s5
    800007c8:	022141b3          	div	gp,sp,sp
    800007cc:	00000013          	nop
    800007d0:	0334a633          	mulhsu	a2,s1,s3
    800007d4:	fff00493          	li	s1,-1
    800007d8:	000af237          	lui	tp,0xaf
    800007dc:	e4b2021b          	addiw	tp,tp,-437 # aee4b <_start-0x7ff511b5>
    800007e0:	01021213          	slli	tp,tp,0x10
    800007e4:	78320213          	addi	tp,tp,1923 # 783 <_start-0x7ffff87d>
    800007e8:	00c21213          	slli	tp,tp,0xc
    800007ec:	b1f20213          	addi	tp,tp,-1249 # fffffffffffffb1f <_end+0xffffffff7ffe1197>
    800007f0:	00e21213          	slli	tp,tp,0xe
    800007f4:	70120213          	addi	tp,tp,1793 # 701 <_start-0x7ffff8ff>
    800007f8:	fff0069b          	addiw	a3,zero,-1
    800007fc:	03f69693          	slli	a3,a3,0x3f
    80000800:	fff0029b          	addiw	t0,zero,-1
    80000804:	03f29293          	slli	t0,t0,0x3f
    80000808:	fff0079b          	addiw	a5,zero,-1
    8000080c:	03f79793          	slli	a5,a5,0x3f
    80000810:	ffa81537          	lui	a0,0xffa81
    80000814:	8c75051b          	addiw	a0,a0,-1849 # ffffffffffa808c7 <_end+0xffffffff7fa61f3f>
    80000818:	00f51513          	slli	a0,a0,0xf
    8000081c:	e4f50513          	addi	a0,a0,-433
    80000820:	00c51513          	slli	a0,a0,0xc
    80000824:	c3350513          	addi	a0,a0,-973
    80000828:	00d51513          	slli	a0,a0,0xd
    8000082c:	18b50513          	addi	a0,a0,395
    80000830:	00000d93          	li	s11,0
    80000834:	0056fc37          	lui	s8,0x56f
    80000838:	c21c0c1b          	addiw	s8,s8,-991 # 56ec21 <_start-0x7fa913df>
    8000083c:	00ec1c13          	slli	s8,s8,0xe
    80000840:	b27c0c13          	addi	s8,s8,-1241
    80000844:	00cc1c13          	slli	s8,s8,0xc
    80000848:	07dc0c13          	addi	s8,s8,125
    8000084c:	00ec1c13          	slli	s8,s8,0xe
    80000850:	f82c0c13          	addi	s8,s8,-126
    80000854:	fff00c9b          	addiw	s9,zero,-1
    80000858:	03fc9c93          	slli	s9,s9,0x3f
    8000085c:	00000a13          	li	s4,0
    80000860:	0245523b          	divuw	tp,a0,tp
    80000864:	405a0cb3          	sub	s9,s4,t0
    80000868:	038cfa3b          	remuw	s4,s9,s8
    8000086c:	201de517          	auipc	a0,0x201de
    80000870:	0057853b          	addw	a0,a5,t0
    80000874:	12c78a1b          	addiw	s4,a5,300
    80000878:	c94dc237          	lui	tp,0xc94dc
    8000087c:	02d2823b          	mulw	tp,t0,a3
    80000880:	025cb2b3          	mulhu	t0,s9,t0
    80000884:	00000013          	nop
    80000888:	038526b3          	mulhsu	a3,a0,s8
    8000088c:	201de517          	auipc	a0,0x201de
    80000890:	025c02b3          	mul	t0,s8,t0
    80000894:	12c78a1b          	addiw	s4,a5,300
    80000898:	405a0cb3          	sub	s9,s4,t0
    8000089c:	019486b3          	add	a3,s1,s9
    800008a0:	02f2f2b3          	remu	t0,t0,a5
    800008a4:	419d84bb          	subw	s1,s11,s9
    800008a8:	419d84bb          	subw	s1,s11,s9
    800008ac:	419d84bb          	subw	s1,s11,s9
    800008b0:	038cfa3b          	remuw	s4,s9,s8
    800008b4:	02f2f2b3          	remu	t0,t0,a5
    800008b8:	03955233          	divu	tp,a0,s9
    800008bc:	038526b3          	mulhsu	a3,a0,s8
    800008c0:	405a0cb3          	sub	s9,s4,t0
    800008c4:	03955233          	divu	tp,a0,s9
    800008c8:	025c02b3          	mul	t0,s8,t0
    800008cc:	419d84bb          	subw	s1,s11,s9
    800008d0:	fff00793          	li	a5,-1
    800008d4:	fff00f9b          	addiw	t6,zero,-1
    800008d8:	03ff9f93          	slli	t6,t6,0x3f
    800008dc:	fff0099b          	addiw	s3,zero,-1
    800008e0:	03f99993          	slli	s3,s3,0x3f
    800008e4:	fff00093          	li	ra,-1
    800008e8:	fff00d1b          	addiw	s10,zero,-1
    800008ec:	03fd1d13          	slli	s10,s10,0x3f
    800008f0:	ff0e8c37          	lui	s8,0xff0e8
    800008f4:	cebc0c1b          	addiw	s8,s8,-789 # ffffffffff0e7ceb <_end+0xffffffff7f0c9363>
    800008f8:	00cc1c13          	slli	s8,s8,0xc
    800008fc:	c17c0c13          	addi	s8,s8,-1001
    80000900:	00cc1c13          	slli	s8,s8,0xc
    80000904:	d35c0c13          	addi	s8,s8,-715
    80000908:	00dc1c13          	slli	s8,s8,0xd
    8000090c:	8d6c0c13          	addi	s8,s8,-1834
    80000910:	ff8936b7          	lui	a3,0xff893
    80000914:	4f56869b          	addiw	a3,a3,1269 # ffffffffff8934f5 <_end+0xffffffff7f874b6d>
    80000918:	01469693          	slli	a3,a3,0x14
    8000091c:	10768693          	addi	a3,a3,263
    80000920:	00e69693          	slli	a3,a3,0xe
    80000924:	74f68693          	addi	a3,a3,1871
    80000928:	ffc14237          	lui	tp,0xffc14
    8000092c:	9e32021b          	addiw	tp,tp,-1565 # ffffffffffc139e3 <_end+0xffffffff7fbf505b>
    80000930:	00c21213          	slli	tp,tp,0xc
    80000934:	1f520213          	addi	tp,tp,501 # 1f5 <_start-0x7ffffe0b>
    80000938:	00e21213          	slli	tp,tp,0xe
    8000093c:	08b20213          	addi	tp,tp,139 # 8b <_start-0x7fffff75>
    80000940:	00e21213          	slli	tp,tp,0xe
    80000944:	32c20213          	addi	tp,tp,812 # 32c <_start-0x7ffffcd4>
    80000948:	fff00913          	li	s2,-1
    8000094c:	00000813          	li	a6,0
    80000950:	0389e93b          	remw	s2,s3,s8
    80000954:	201de797          	auipc	a5,0x201de
    80000958:	0387a833          	mulhsu	a6,a5,s8
    8000095c:	021f97b3          	mulh	a5,t6,ra
    80000960:	12c9099b          	addiw	s3,s2,300
    80000964:	40498d33          	sub	s10,s3,tp
    80000968:	004907bb          	addw	a5,s2,tp
    8000096c:	03a7d0b3          	divu	ra,a5,s10
    80000970:	12c9099b          	addiw	s3,s2,300
    80000974:	0217d0bb          	divuw	ra,a5,ra
    80000978:	03a7d0b3          	divu	ra,a5,s10
    8000097c:	201de797          	auipc	a5,0x201de
    80000980:	40498d33          	sub	s10,s3,tp
    80000984:	c94dc0b7          	lui	ra,0xc94dc
    80000988:	0217d0bb          	divuw	ra,a5,ra
    8000098c:	c94dc0b7          	lui	ra,0xc94dc
    80000990:	03096233          	rem	tp,s2,a6
    80000994:	021f97b3          	mulh	a5,t6,ra
    80000998:	0210c233          	div	tp,ra,ra
    8000099c:	004907bb          	addw	a5,s2,tp
    800009a0:	038d79bb          	remuw	s3,s10,s8
    800009a4:	0210c233          	div	tp,ra,ra
    800009a8:	0217d0bb          	divuw	ra,a5,ra
    800009ac:	fff00e1b          	addiw	t3,zero,-1
    800009b0:	03fe1e13          	slli	t3,t3,0x3f
    800009b4:	fff0081b          	addiw	a6,zero,-1
    800009b8:	03f81813          	slli	a6,a6,0x3f
    800009bc:	fff00a93          	li	s5,-1
    800009c0:	fff0021b          	addiw	tp,zero,-1
    800009c4:	03f21213          	slli	tp,tp,0x3f
    800009c8:	fff0071b          	addiw	a4,zero,-1
    800009cc:	03f71713          	slli	a4,a4,0x3f
    800009d0:	fff00e93          	li	t4,-1
    800009d4:	fff0099b          	addiw	s3,zero,-1
    800009d8:	03f99993          	slli	s3,s3,0x3f
    800009dc:	ff0b4d37          	lui	s10,0xff0b4
    800009e0:	1add0d1b          	addiw	s10,s10,429 # ffffffffff0b41ad <_end+0xffffffff7f095825>
    800009e4:	00cd1d13          	slli	s10,s10,0xc
    800009e8:	f5fd0d13          	addi	s10,s10,-161
    800009ec:	00dd1d13          	slli	s10,s10,0xd
    800009f0:	b69d0d13          	addi	s10,s10,-1175
    800009f4:	00dd1d13          	slli	s10,s10,0xd
    800009f8:	aa9d0d13          	addi	s10,s10,-1367
    800009fc:	ffe1e6b7          	lui	a3,0xffe1e
    80000a00:	bd96869b          	addiw	a3,a3,-1063 # ffffffffffe1dbd9 <_end+0xffffffff7fdff251>
    80000a04:	01069693          	slli	a3,a3,0x10
    80000a08:	6a168693          	addi	a3,a3,1697
    80000a0c:	00e69693          	slli	a3,a3,0xe
    80000a10:	d4f68693          	addi	a3,a3,-689
    80000a14:	00c69693          	slli	a3,a3,0xc
    80000a18:	dd068693          	addi	a3,a3,-560
    80000a1c:	fff317b7          	lui	a5,0xfff31
    80000a20:	a257879b          	addiw	a5,a5,-1499 # fffffffffff30a25 <_end+0xffffffff7ff1209d>
    80000a24:	00c79793          	slli	a5,a5,0xc
    80000a28:	42778793          	addi	a5,a5,1063
    80000a2c:	00c79793          	slli	a5,a5,0xc
    80000a30:	d7578793          	addi	a5,a5,-651
    80000a34:	00f79793          	slli	a5,a5,0xf
    80000a38:	18578793          	addi	a5,a5,389
    80000a3c:	0247d23b          	divuw	tp,a5,tp
    80000a40:	0306823b          	mulw	tp,a3,a6
    80000a44:	03ae7abb          	remuw	s5,t3,s10
    80000a48:	03aae9bb          	remw	s3,s5,s10
    80000a4c:	0309e6b3          	rem	a3,s3,a6
    80000a50:	024246b3          	div	a3,tp,tp
    80000a54:	03a7a833          	mulhsu	a6,a5,s10
    80000a58:	03a7a833          	mulhsu	a6,a5,s10
    80000a5c:	0306823b          	mulw	tp,a3,a6
    80000a60:	00000013          	nop
    80000a64:	024246b3          	div	a3,tp,tp
    80000a68:	c94dc237          	lui	tp,0xc94dc
    80000a6c:	40da8e33          	sub	t3,s5,a3
    80000a70:	40da8e33          	sub	t3,s5,a3
    80000a74:	03a7a833          	mulhsu	a6,a5,s10
    80000a78:	fff0059b          	addiw	a1,zero,-1
    80000a7c:	03f59593          	slli	a1,a1,0x3f
    80000a80:	00000413          	li	s0,0
    80000a84:	fff00693          	li	a3,-1
    80000a88:	ff37fbb7          	lui	s7,0xff37f
    80000a8c:	e43b8b9b          	addiw	s7,s7,-445 # ffffffffff37ee43 <_end+0xffffffff7f3604bb>
    80000a90:	00eb9b93          	slli	s7,s7,0xe
    80000a94:	1b5b8b93          	addi	s7,s7,437
    80000a98:	00cb9b93          	slli	s7,s7,0xc
    80000a9c:	401b8b93          	addi	s7,s7,1025
    80000aa0:	00cb9b93          	slli	s7,s7,0xc
    80000aa4:	762b8b93          	addi	s7,s7,1890
    80000aa8:	00228837          	lui	a6,0x228
    80000aac:	c218081b          	addiw	a6,a6,-991 # 227c21 <_start-0x7fdd83df>
    80000ab0:	00c81813          	slli	a6,a6,0xc
    80000ab4:	f1380813          	addi	a6,a6,-237
    80000ab8:	00d81813          	slli	a6,a6,0xd
    80000abc:	30780813          	addi	a6,a6,775
    80000ac0:	01081813          	slli	a6,a6,0x10
    80000ac4:	72280813          	addi	a6,a6,1826
    80000ac8:	ffd8e637          	lui	a2,0xffd8e
    80000acc:	e356061b          	addiw	a2,a2,-459 # ffffffffffd8de35 <_end+0xffffffff7fd6f4ad>
    80000ad0:	00c61613          	slli	a2,a2,0xc
    80000ad4:	03360613          	addi	a2,a2,51
    80000ad8:	00c61613          	slli	a2,a2,0xc
    80000adc:	4d760613          	addi	a2,a2,1239
    80000ae0:	00d61613          	slli	a2,a2,0xd
    80000ae4:	f1160613          	addi	a2,a2,-239
    80000ae8:	00602d37          	lui	s10,0x602
    80000aec:	577d0d1b          	addiw	s10,s10,1399 # 602577 <_start-0x7f9fda89>
    80000af0:	00ed1d13          	slli	s10,s10,0xe
    80000af4:	f2dd0d13          	addi	s10,s10,-211
    80000af8:	00cd1d13          	slli	s10,s10,0xc
    80000afc:	6a1d0d13          	addi	s10,s10,1697
    80000b00:	00ed1d13          	slli	s10,s10,0xe
    80000b04:	ab9d0d13          	addi	s10,s10,-1351
    80000b08:	fff00e9b          	addiw	t4,zero,-1
    80000b0c:	03fe9e93          	slli	t4,t4,0x3f
    80000b10:	fff00e1b          	addiw	t3,zero,-1
    80000b14:	03fe1e13          	slli	t3,t3,0x3f
    80000b18:	fff00993          	li	s3,-1
    80000b1c:	03ae7bbb          	remuw	s7,t3,s10
    80000b20:	aed80693          	addi	a3,a6,-1299
    80000b24:	028445b3          	div	a1,s0,s0
    80000b28:	0305843b          	mulw	s0,a1,a6
    80000b2c:	aed80693          	addi	a3,a6,-1299
    80000b30:	00b986bb          	addw	a3,s3,a1
    80000b34:	030d4d3b          	divw	s10,s10,a6
    80000b38:	0335f5b3          	remu	a1,a1,s3
    80000b3c:	030d4d3b          	divw	s10,s10,a6
    80000b40:	12c98b9b          	addiw	s7,s3,300
    80000b44:	0309e5b3          	rem	a1,s3,a6
    80000b48:	0305843b          	mulw	s0,a1,a6
    80000b4c:	41ce863b          	subw	a2,t4,t3
    80000b50:	0309e5b3          	rem	a1,s3,a6
    80000b54:	00000013          	nop
    80000b58:	028445b3          	div	a1,s0,s0
    80000b5c:	0335f5b3          	remu	a1,a1,s3
    80000b60:	00b986bb          	addw	a3,s3,a1
    80000b64:	03c6d433          	divu	s0,a3,t3
    80000b68:	028e96b3          	mulh	a3,t4,s0
    80000b6c:	12c98b9b          	addiw	s7,s3,300
    80000b70:	0309e5b3          	rem	a1,s3,a6
    80000b74:	03ae7bbb          	remuw	s7,t3,s10
    80000b78:	03a6a833          	mulhsu	a6,a3,s10
    80000b7c:	00000093          	li	ra,0
    80000b80:	f9084c37          	lui	s8,0xf9084
    80000b84:	d5fc0c1b          	addiw	s8,s8,-673 # fffffffff9083d5f <_end+0xffffffff790653d7>
    80000b88:	010c1c13          	slli	s8,s8,0x10
    80000b8c:	a81c0c13          	addi	s8,s8,-1407
    80000b90:	010c1c13          	slli	s8,s8,0x10
    80000b94:	a9bc0c13          	addi	s8,s8,-1381
    80000b98:	fff0079b          	addiw	a5,zero,-1
    80000b9c:	03f79793          	slli	a5,a5,0x3f
    80000ba0:	fff00513          	li	a0,-1
    80000ba4:	fff0081b          	addiw	a6,zero,-1
    80000ba8:	03f81813          	slli	a6,a6,0x3f
    80000bac:	00000913          	li	s2,0
    80000bb0:	00000193          	li	gp,0
    80000bb4:	001194b7          	lui	s1,0x119
    80000bb8:	6f34849b          	addiw	s1,s1,1779 # 1196f3 <_start-0x7fee690d>
    80000bbc:	00e49493          	slli	s1,s1,0xe
    80000bc0:	62d48493          	addi	s1,s1,1581
    80000bc4:	01049493          	slli	s1,s1,0x10
    80000bc8:	b5348493          	addi	s1,s1,-1197
    80000bcc:	00c49493          	slli	s1,s1,0xc
    80000bd0:	cd948493          	addi	s1,s1,-807
    80000bd4:	fff00613          	li	a2,-1
    80000bd8:	00000393          	li	t2,0
    80000bdc:	0307e63b          	remw	a2,a5,a6
    80000be0:	01238533          	add	a0,t2,s2
    80000be4:	201de497          	auipc	s1,0x201de
    80000be8:	023931b3          	mulhu	gp,s2,gp
    80000bec:	02c1f1b3          	remu	gp,gp,a2
    80000bf0:	02a180bb          	mulw	ra,gp,a0
    80000bf4:	021c14b3          	mulh	s1,s8,ra
    80000bf8:	023931b3          	mulhu	gp,s2,gp
    80000bfc:	02a180bb          	mulw	ra,gp,a0
    80000c00:	030977bb          	remuw	a5,s2,a6
    80000c04:	02a661b3          	rem	gp,a2,a0
    80000c08:	201de497          	auipc	s1,0x201de
    80000c0c:	02a8483b          	divw	a6,a6,a0
    80000c10:	40378933          	sub	s2,a5,gp
    80000c14:	0304a533          	mulhsu	a0,s1,a6
    80000c18:	c94dc0b7          	lui	ra,0xc94dc
    80000c1c:	021c14b3          	mulh	s1,s8,ra
    80000c20:	01238533          	add	a0,t2,s2
    80000c24:	0214d0bb          	divuw	ra,s1,ra
    80000c28:	0214d0bb          	divuw	ra,s1,ra
    80000c2c:	0307e63b          	remw	a2,a5,a6
    80000c30:	0304a533          	mulhsu	a0,s1,a6
    80000c34:	03d040b3          	div	ra,zero,t4
    80000c38:	53d76393          	ori	t2,a4,1341
    80000c3c:	52af7d13          	andi	s10,t5,1322
    80000c40:	01dc2fb3          	slt	t6,s8,t4
    80000c44:	03143933          	mulhu	s2,s0,a7
    80000c48:	daec3a13          	sltiu	s4,s8,-594
    80000c4c:	027b6e3b          	remw	t3,s6,t2
    80000c50:	aed68193          	addi	gp,a3,-1299
    80000c54:	513faf93          	slti	t6,t6,1299
    80000c58:	9e8ec093          	xori	ra,t4,-1560
    80000c5c:	c94dc837          	lui	a6,0xc94dc
    80000c60:	010a5a33          	srl	s4,s4,a6
    80000c64:	00bd0233          	add	tp,s10,a1
    80000c68:	0242ee33          	rem	t3,t0,tp
    80000c6c:	53d76393          	ori	t2,a4,1341
    80000c70:	201de597          	auipc	a1,0x201de
    80000c74:	027b6e3b          	remw	t3,s6,t2
    80000c78:	4028d81b          	sraiw	a6,a7,0x2
    80000c7c:	024c1113          	slli	sp,s8,0x24
    80000c80:	01227033          	and	zero,tp,s2
    80000c84:	0207d83b          	divuw	a6,a5,zero
    80000c88:	0242ee33          	rem	t3,t0,tp
    80000c8c:	00c59d9b          	slliw	s11,a1,0xc
    80000c90:	01dc2fb3          	slt	t6,s8,t4
    80000c94:	03d040b3          	div	ra,zero,t4
    80000c98:	41b1d293          	srai	t0,gp,0x1b
    80000c9c:	40db0e33          	sub	t3,s6,a3
    80000ca0:	41b1d293          	srai	t0,gp,0x1b
    80000ca4:	01aa8a3b          	addw	s4,s5,s10
    80000ca8:	00000013          	nop
    80000cac:	0242ee33          	rem	t3,t0,tp
    80000cb0:	40db0e33          	sub	t3,s6,a3
    80000cb4:	40db0e33          	sub	t3,s6,a3
    80000cb8:	41acd23b          	sraw	tp,s9,s10
    80000cbc:	031b8fb3          	mul	t6,s7,a7
    80000cc0:	01dc2fb3          	slt	t6,s8,t4
    80000cc4:	020c9733          	mulh	a4,s9,zero
    80000cc8:	201de597          	auipc	a1,0x201de
    80000ccc:	010a5a33          	srl	s4,s4,a6
    80000cd0:	12cd059b          	addiw	a1,s10,300
    80000cd4:	41acd23b          	sraw	tp,s9,s10
    80000cd8:	01aa8a3b          	addw	s4,s5,s10
    80000cdc:	4182ddb3          	sra	s11,t0,s8
    80000ce0:	418489bb          	subw	s3,s1,s8
    80000ce4:	0097de3b          	srlw	t3,a5,s1
    80000ce8:	52af7d13          	andi	s10,t5,1322
    80000cec:	031b8fb3          	mul	t6,s7,a7
    80000cf0:	aed68193          	addi	gp,a3,-1299
    80000cf4:	01e06c33          	or	s8,zero,t5
    80000cf8:	00000013          	nop
    80000cfc:	020c9733          	mulh	a4,s9,zero
    80000d00:	4182ddb3          	sra	s11,t0,s8
    80000d04:	02dc733b          	remuw	t1,s8,a3
    80000d08:	4182ddb3          	sra	s11,t0,s8
    80000d0c:	01dc2fb3          	slt	t6,s8,t4
    80000d10:	40db0e33          	sub	t3,s6,a3
    80000d14:	020c9733          	mulh	a4,s9,zero
    80000d18:	03b1deb3          	divu	t4,gp,s11
    80000d1c:	201de597          	auipc	a1,0x201de
    80000d20:	aed68193          	addi	gp,a3,-1299
    80000d24:	9e8ec093          	xori	ra,t4,-1560
    80000d28:	40db0e33          	sub	t3,s6,a3
    80000d2c:	027b6e3b          	remw	t3,s6,t2
    80000d30:	010a5a33          	srl	s4,s4,a6
    80000d34:	0168b0b3          	sltu	ra,a7,s6
    80000d38:	001a9433          	sll	s0,s5,ra
    80000d3c:	52af7d13          	andi	s10,t5,1322
    80000d40:	53d76393          	ori	t2,a4,1341
    80000d44:	01aa8a3b          	addw	s4,s5,s10
    80000d48:	aed68193          	addi	gp,a3,-1299
    80000d4c:	00bd0233          	add	tp,s10,a1
    80000d50:	034bccbb          	divw	s9,s7,s4
    80000d54:	513faf93          	slti	t6,t6,1299
    80000d58:	001a9433          	sll	s0,s5,ra
    80000d5c:	01f8d41b          	srliw	s0,a7,0x1f
    80000d60:	027b6e3b          	remw	t3,s6,t2
    80000d64:	0207d83b          	divuw	a6,a5,zero
    80000d68:	03d040b3          	div	ra,zero,t4
    80000d6c:	00c59d9b          	slliw	s11,a1,0xc
    80000d70:	03b1deb3          	divu	t4,gp,s11
    80000d74:	0350f0b3          	remu	ra,ra,s5
    80000d78:	0242ee33          	rem	t3,t0,tp
    80000d7c:	001a9433          	sll	s0,s5,ra
    80000d80:	024d883b          	mulw	a6,s11,tp
    80000d84:	0242ee33          	rem	t3,t0,tp
    80000d88:	0350f0b3          	remu	ra,ra,s5
    80000d8c:	03143933          	mulhu	s2,s0,a7
    80000d90:	01dc2fb3          	slt	t6,s8,t4
    80000d94:	03b1deb3          	divu	t4,gp,s11
    80000d98:	0207d83b          	divuw	a6,a5,zero
    80000d9c:	53d76393          	ori	t2,a4,1341
    80000da0:	02dc733b          	remuw	t1,s8,a3
    80000da4:	aed68193          	addi	gp,a3,-1299
    80000da8:	0097de3b          	srlw	t3,a5,s1
    80000dac:	53d76393          	ori	t2,a4,1341
    80000db0:	020c9733          	mulh	a4,s9,zero
    80000db4:	c94dc837          	lui	a6,0xc94dc
    80000db8:	0097de3b          	srlw	t3,a5,s1
    80000dbc:	024d883b          	mulw	a6,s11,tp
    80000dc0:	52af7d13          	andi	s10,t5,1322
    80000dc4:	01227033          	and	zero,tp,s2
    80000dc8:	4182ddb3          	sra	s11,t0,s8
    80000dcc:	01227033          	and	zero,tp,s2
    80000dd0:	0207d83b          	divuw	a6,a5,zero
    80000dd4:	03b1deb3          	divu	t4,gp,s11
    80000dd8:	01dc2fb3          	slt	t6,s8,t4
    80000ddc:	031b8fb3          	mul	t6,s7,a7
    80000de0:	53d76393          	ori	t2,a4,1341
    80000de4:	0350f0b3          	remu	ra,ra,s5
    80000de8:	03d040b3          	div	ra,zero,t4
    80000dec:	52af7d13          	andi	s10,t5,1322
    80000df0:	0168b0b3          	sltu	ra,a7,s6
    80000df4:	12cd059b          	addiw	a1,s10,300
    80000df8:	00bd0233          	add	tp,s10,a1
    80000dfc:	01f8d41b          	srliw	s0,a7,0x1f
    80000e00:	c94dc837          	lui	a6,0xc94dc
    80000e04:	024d883b          	mulw	a6,s11,tp
    80000e08:	4028d81b          	sraiw	a6,a7,0x2
    80000e0c:	41acd23b          	sraw	tp,s9,s10
    80000e10:	aed68193          	addi	gp,a3,-1299
    80000e14:	c94dc837          	lui	a6,0xc94dc
    80000e18:	00c59d9b          	slliw	s11,a1,0xc
    80000e1c:	41acd23b          	sraw	tp,s9,s10
    80000e20:	024c1113          	slli	sp,s8,0x24
    80000e24:	004294bb          	sllw	s1,t0,tp
    80000e28:	00e443b3          	xor	t2,s0,a4
    80000e2c:	03b1deb3          	divu	t4,gp,s11
    80000e30:	00bd0233          	add	tp,s10,a1
    80000e34:	201de597          	auipc	a1,0x201de
    80000e38:	41acd23b          	sraw	tp,s9,s10
    80000e3c:	418489bb          	subw	s3,s1,s8
    80000e40:	0242ee33          	rem	t3,t0,tp
    80000e44:	03d040b3          	div	ra,zero,t4
    80000e48:	513faf93          	slti	t6,t6,1299
    80000e4c:	00c59d9b          	slliw	s11,a1,0xc
    80000e50:	0271aab3          	mulhsu	s5,gp,t2
    80000e54:	0242ee33          	rem	t3,t0,tp
    80000e58:	0207d83b          	divuw	a6,a5,zero
    80000e5c:	daec3a13          	sltiu	s4,s8,-594
    80000e60:	40db0e33          	sub	t3,s6,a3
    80000e64:	0207d83b          	divuw	a6,a5,zero
    80000e68:	aed68193          	addi	gp,a3,-1299
    80000e6c:	513faf93          	slti	t6,t6,1299
    80000e70:	01f8d41b          	srliw	s0,a7,0x1f
    80000e74:	03143933          	mulhu	s2,s0,a7
    80000e78:	024d883b          	mulw	a6,s11,tp
    80000e7c:	00e443b3          	xor	t2,s0,a4
    80000e80:	00000013          	nop
    80000e84:	41b1d293          	srai	t0,gp,0x1b
    80000e88:	004294bb          	sllw	s1,t0,tp
    80000e8c:	03b1deb3          	divu	t4,gp,s11
    80000e90:	0168b0b3          	sltu	ra,a7,s6
    80000e94:	0350f0b3          	remu	ra,ra,s5
    80000e98:	027b6e3b          	remw	t3,s6,t2
    80000e9c:	40db0e33          	sub	t3,s6,a3
    80000ea0:	00e443b3          	xor	t2,s0,a4
    80000ea4:	52af7d13          	andi	s10,t5,1322
    80000ea8:	01dc2fb3          	slt	t6,s8,t4
    80000eac:	01e06c33          	or	s8,zero,t5
    80000eb0:	201de597          	auipc	a1,0x201de
    80000eb4:	4182ddb3          	sra	s11,t0,s8
    80000eb8:	418489bb          	subw	s3,s1,s8
    80000ebc:	daec3a13          	sltiu	s4,s8,-594
    80000ec0:	01f8d41b          	srliw	s0,a7,0x1f
    80000ec4:	201de597          	auipc	a1,0x201de
    80000ec8:	01e06c33          	or	s8,zero,t5
    80000ecc:	00e443b3          	xor	t2,s0,a4
    80000ed0:	020c9733          	mulh	a4,s9,zero
    80000ed4:	aed68193          	addi	gp,a3,-1299
    80000ed8:	40db0e33          	sub	t3,s6,a3
    80000edc:	00000013          	nop
    80000ee0:	513faf93          	slti	t6,t6,1299
    80000ee4:	024d883b          	mulw	a6,s11,tp
    80000ee8:	53d76393          	ori	t2,a4,1341
    80000eec:	00bd0233          	add	tp,s10,a1
    80000ef0:	031b8fb3          	mul	t6,s7,a7
    80000ef4:	0207d83b          	divuw	a6,a5,zero
    80000ef8:	034bccbb          	divw	s9,s7,s4
    80000efc:	53d76393          	ori	t2,a4,1341
    80000f00:	40db0e33          	sub	t3,s6,a3
    80000f04:	41acd23b          	sraw	tp,s9,s10
    80000f08:	aed68193          	addi	gp,a3,-1299
    80000f0c:	41acd23b          	sraw	tp,s9,s10
    80000f10:	03e65013          	srli	zero,a2,0x3e
    80000f14:	00000013          	nop
    80000f18:	03e65013          	srli	zero,a2,0x3e
    80000f1c:	12cd059b          	addiw	a1,s10,300
    80000f20:	41acd23b          	sraw	tp,s9,s10
    80000f24:	00000013          	nop
    80000f28:	03e65013          	srli	zero,a2,0x3e
    80000f2c:	004294bb          	sllw	s1,t0,tp
    80000f30:	020c9733          	mulh	a4,s9,zero
    80000f34:	01227033          	and	zero,tp,s2
    80000f38:	41acd23b          	sraw	tp,s9,s10
    80000f3c:	01e06c33          	or	s8,zero,t5
    80000f40:	00e443b3          	xor	t2,s0,a4
    80000f44:	0271aab3          	mulhsu	s5,gp,t2
    80000f48:	41b1d293          	srai	t0,gp,0x1b
    80000f4c:	aed68193          	addi	gp,a3,-1299
    80000f50:	010a5a33          	srl	s4,s4,a6
    80000f54:	020c9733          	mulh	a4,s9,zero
    80000f58:	027b6e3b          	remw	t3,s6,t2
    80000f5c:	01227033          	and	zero,tp,s2
    80000f60:	40db0e33          	sub	t3,s6,a3
    80000f64:	41b1d293          	srai	t0,gp,0x1b
    80000f68:	0271aab3          	mulhsu	s5,gp,t2
    80000f6c:	0207d83b          	divuw	a6,a5,zero
    80000f70:	41acd23b          	sraw	tp,s9,s10
    80000f74:	418489bb          	subw	s3,s1,s8
    80000f78:	0271aab3          	mulhsu	s5,gp,t2
    80000f7c:	034bccbb          	divw	s9,s7,s4
    80000f80:	010a5a33          	srl	s4,s4,a6
    80000f84:	52af7d13          	andi	s10,t5,1322
    80000f88:	01aa8a3b          	addw	s4,s5,s10
    80000f8c:	00e443b3          	xor	t2,s0,a4
    80000f90:	00bd0233          	add	tp,s10,a1
    80000f94:	4182ddb3          	sra	s11,t0,s8
    80000f98:	4028d81b          	sraiw	a6,a7,0x2
    80000f9c:	53d76393          	ori	t2,a4,1341
    80000fa0:	00000013          	nop
    80000fa4:	41b1d293          	srai	t0,gp,0x1b
    80000fa8:	aed68193          	addi	gp,a3,-1299
    80000fac:	03143933          	mulhu	s2,s0,a7
    80000fb0:	004294bb          	sllw	s1,t0,tp
    80000fb4:	513faf93          	slti	t6,t6,1299
    80000fb8:	201de597          	auipc	a1,0x201de
    80000fbc:	0168b0b3          	sltu	ra,a7,s6
    80000fc0:	03e65013          	srli	zero,a2,0x3e
    80000fc4:	00e443b3          	xor	t2,s0,a4
    80000fc8:	00e443b3          	xor	t2,s0,a4
    80000fcc:	12cd059b          	addiw	a1,s10,300
    80000fd0:	53d76393          	ori	t2,a4,1341
    80000fd4:	daec3a13          	sltiu	s4,s8,-594
    80000fd8:	0350f0b3          	remu	ra,ra,s5
    80000fdc:	00bd0233          	add	tp,s10,a1
    80000fe0:	031b8fb3          	mul	t6,s7,a7
    80000fe4:	aed68193          	addi	gp,a3,-1299
    80000fe8:	004294bb          	sllw	s1,t0,tp
    80000fec:	418489bb          	subw	s3,s1,s8
    80000ff0:	4028d81b          	sraiw	a6,a7,0x2
    80000ff4:	01e06c33          	or	s8,zero,t5
    80000ff8:	daec3a13          	sltiu	s4,s8,-594
    80000ffc:	01227033          	and	zero,tp,s2
    80001000:	00c59d9b          	slliw	s11,a1,0xc
    80001004:	03d040b3          	div	ra,zero,t4
    80001008:	0271aab3          	mulhsu	s5,gp,t2
    8000100c:	03b1deb3          	divu	t4,gp,s11
    80001010:	00c59d9b          	slliw	s11,a1,0xc
    80001014:	4182ddb3          	sra	s11,t0,s8
    80001018:	0242ee33          	rem	t3,t0,tp
    8000101c:	001a9433          	sll	s0,s5,ra
    80001020:	4028d81b          	sraiw	a6,a7,0x2
    80001024:	03e65013          	srli	zero,a2,0x3e
    80001028:	010a5a33          	srl	s4,s4,a6
    8000102c:	9e8ec093          	xori	ra,t4,-1560
    80001030:	020c9733          	mulh	a4,s9,zero
    80001034:	daec3a13          	sltiu	s4,s8,-594
    80001038:	024c1113          	slli	sp,s8,0x24
    8000103c:	0242ee33          	rem	t3,t0,tp
    80001040:	001a9433          	sll	s0,s5,ra
    80001044:	41acd23b          	sraw	tp,s9,s10
    80001048:	01dc2fb3          	slt	t6,s8,t4
    8000104c:	0271aab3          	mulhsu	s5,gp,t2
    80001050:	40db0e33          	sub	t3,s6,a3
    80001054:	0207d83b          	divuw	a6,a5,zero
    80001058:	418489bb          	subw	s3,s1,s8
    8000105c:	01dc2fb3          	slt	t6,s8,t4
    80001060:	02dc733b          	remuw	t1,s8,a3
    80001064:	024d883b          	mulw	a6,s11,tp
    80001068:	41acd23b          	sraw	tp,s9,s10
    8000106c:	41acd23b          	sraw	tp,s9,s10
    80001070:	02dc733b          	remuw	t1,s8,a3
    80001074:	41b1d293          	srai	t0,gp,0x1b
    80001078:	027b6e3b          	remw	t3,s6,t2
    8000107c:	c94dc837          	lui	a6,0xc94dc
    80001080:	0350f0b3          	remu	ra,ra,s5
    80001084:	00c59d9b          	slliw	s11,a1,0xc
    80001088:	201de597          	auipc	a1,0x201de
    8000108c:	00c59d9b          	slliw	s11,a1,0xc
    80001090:	0207d83b          	divuw	a6,a5,zero
    80001094:	4182ddb3          	sra	s11,t0,s8
    80001098:	01dc2fb3          	slt	t6,s8,t4
    8000109c:	03d040b3          	div	ra,zero,t4
    800010a0:	004294bb          	sllw	s1,t0,tp
    800010a4:	031b8fb3          	mul	t6,s7,a7
    800010a8:	004294bb          	sllw	s1,t0,tp
    800010ac:	513faf93          	slti	t6,t6,1299
    800010b0:	aed68193          	addi	gp,a3,-1299
    800010b4:	031b8fb3          	mul	t6,s7,a7
    800010b8:	027b6e3b          	remw	t3,s6,t2
    800010bc:	41b1d293          	srai	t0,gp,0x1b
    800010c0:	201de597          	auipc	a1,0x201de
    800010c4:	41acd23b          	sraw	tp,s9,s10
    800010c8:	01f8d41b          	srliw	s0,a7,0x1f
    800010cc:	031b8fb3          	mul	t6,s7,a7
    800010d0:	418489bb          	subw	s3,s1,s8
    800010d4:	00e443b3          	xor	t2,s0,a4
    800010d8:	0168b0b3          	sltu	ra,a7,s6
    800010dc:	fff00913          	li	s2,-1
    800010e0:	fff0011b          	addiw	sp,zero,-1
    800010e4:	03f11113          	slli	sp,sp,0x3f
    800010e8:	fff0031b          	addiw	t1,zero,-1
    800010ec:	03f31313          	slli	t1,t1,0x3f
    800010f0:	00000513          	li	a0,0
    800010f4:	00000d93          	li	s11,0
    800010f8:	00000593          	li	a1,0
    800010fc:	fff00813          	li	a6,-1
    80001100:	00000c93          	li	s9,0
    80001104:	00000693          	li	a3,0
    80001108:	fc97afb7          	lui	t6,0xfc97a
    8000110c:	775f8f9b          	addiw	t6,t6,1909 # fffffffffc97a775 <_end+0xffffffff7c95bded>
    80001110:	00cf9f93          	slli	t6,t6,0xc
    80001114:	6a3f8f93          	addi	t6,t6,1699
    80001118:	00df9f93          	slli	t6,t6,0xd
    8000111c:	8b5f8f93          	addi	t6,t6,-1867
    80001120:	00cf9f93          	slli	t6,t6,0xc
    80001124:	63df8f93          	addi	t6,t6,1597
    80001128:	02dcccbb          	divw	s9,s9,a3
    8000112c:	01b506b3          	add	a3,a0,s11
    80001130:	c94dc137          	lui	sp,0xc94dc
    80001134:	01b506b3          	add	a3,a0,s11
    80001138:	039df93b          	remuw	s2,s11,s9
    8000113c:	03b5d133          	divu	sp,a1,s11
    80001140:	c94dc137          	lui	sp,0xc94dc
    80001144:	026db333          	mulhu	t1,s11,t1
    80001148:	12c8091b          	addiw	s2,a6,300 # ffffffffc94dc12c <_end+0xffffffff494bd7a4>
    8000114c:	40690db3          	sub	s11,s2,t1
    80001150:	026c8333          	mul	t1,s9,t1
    80001154:	0225d13b          	divuw	sp,a1,sp
    80001158:	02d86333          	rem	t1,a6,a3
    8000115c:	02d3013b          	mulw	sp,t1,a3
    80001160:	03b5d133          	divu	sp,a1,s11
    80001164:	02dcccbb          	divw	s9,s9,a3
    80001168:	02d3013b          	mulw	sp,t1,a3
    8000116c:	006805bb          	addw	a1,a6,t1
    80001170:	12c8091b          	addiw	s2,a6,300
    80001174:	026db333          	mulhu	t1,s11,t1
    80001178:	02214333          	div	t1,sp,sp
    8000117c:	201de597          	auipc	a1,0x201de
    80001180:	03b5d133          	divu	sp,a1,s11
    80001184:	02d3013b          	mulw	sp,t1,a3
    80001188:	01b506b3          	add	a3,a0,s11
    8000118c:	022f95b3          	mulh	a1,t6,sp
    80001190:	031b8fb3          	mul	t6,s7,a7
    80001194:	01aa8a3b          	addw	s4,s5,s10
    80001198:	0271aab3          	mulhsu	s5,gp,t2
    8000119c:	00bd0233          	add	tp,s10,a1
    800011a0:	201de597          	auipc	a1,0x201de
    800011a4:	027b6e3b          	remw	t3,s6,t2
    800011a8:	00e443b3          	xor	t2,s0,a4
    800011ac:	4182ddb3          	sra	s11,t0,s8
    800011b0:	0097de3b          	srlw	t3,a5,s1
    800011b4:	c94dc837          	lui	a6,0xc94dc
    800011b8:	03e65013          	srli	zero,a2,0x3e
    800011bc:	024d883b          	mulw	a6,s11,tp
    800011c0:	01227033          	and	zero,tp,s2
    800011c4:	0271aab3          	mulhsu	s5,gp,t2
    800011c8:	aed68193          	addi	gp,a3,-1299
    800011cc:	01dc2fb3          	slt	t6,s8,t4
    800011d0:	513faf93          	slti	t6,t6,1299
    800011d4:	4028d81b          	sraiw	a6,a7,0x2
    800011d8:	41acd23b          	sraw	tp,s9,s10
    800011dc:	9e8ec093          	xori	ra,t4,-1560
    800011e0:	0097de3b          	srlw	t3,a5,s1
    800011e4:	001a9433          	sll	s0,s5,ra
    800011e8:	01f8d41b          	srliw	s0,a7,0x1f
    800011ec:	daec3a13          	sltiu	s4,s8,-594
    800011f0:	03b1deb3          	divu	t4,gp,s11
    800011f4:	024d883b          	mulw	a6,s11,tp
    800011f8:	01f8d41b          	srliw	s0,a7,0x1f
    800011fc:	12cd059b          	addiw	a1,s10,300
    80001200:	01aa8a3b          	addw	s4,s5,s10
    80001204:	00c59d9b          	slliw	s11,a1,0xc
    80001208:	031b8fb3          	mul	t6,s7,a7
    8000120c:	201de597          	auipc	a1,0x201de
    80001210:	0168b0b3          	sltu	ra,a7,s6
    80001214:	0271aab3          	mulhsu	s5,gp,t2
    80001218:	52af7d13          	andi	s10,t5,1322
    8000121c:	4028d81b          	sraiw	a6,a7,0x2
    80001220:	0168b0b3          	sltu	ra,a7,s6
    80001224:	4028d81b          	sraiw	a6,a7,0x2
    80001228:	03d040b3          	div	ra,zero,t4
    8000122c:	4182ddb3          	sra	s11,t0,s8
    80001230:	004294bb          	sllw	s1,t0,tp
    80001234:	4028d81b          	sraiw	a6,a7,0x2
    80001238:	4028d81b          	sraiw	a6,a7,0x2
    8000123c:	02dc733b          	remuw	t1,s8,a3
    80001240:	004294bb          	sllw	s1,t0,tp
    80001244:	00000013          	nop
    80001248:	41acd23b          	sraw	tp,s9,s10
    8000124c:	010a5a33          	srl	s4,s4,a6
    80001250:	00e443b3          	xor	t2,s0,a4
    80001254:	daec3a13          	sltiu	s4,s8,-594
    80001258:	12cd059b          	addiw	a1,s10,300
    8000125c:	02dc733b          	remuw	t1,s8,a3
    80001260:	41acd23b          	sraw	tp,s9,s10
    80001264:	01f8d41b          	srliw	s0,a7,0x1f
    80001268:	00c59d9b          	slliw	s11,a1,0xc
    8000126c:	027b6e3b          	remw	t3,s6,t2
    80001270:	01f8d41b          	srliw	s0,a7,0x1f
    80001274:	00c59d9b          	slliw	s11,a1,0xc
    80001278:	0271aab3          	mulhsu	s5,gp,t2
    8000127c:	0097de3b          	srlw	t3,a5,s1
    80001280:	0168b0b3          	sltu	ra,a7,s6
    80001284:	01227033          	and	zero,tp,s2
    80001288:	02dc733b          	remuw	t1,s8,a3
    8000128c:	034bccbb          	divw	s9,s7,s4
    80001290:	12cd059b          	addiw	a1,s10,300
    80001294:	201de597          	auipc	a1,0x201de
    80001298:	03b1deb3          	divu	t4,gp,s11
    8000129c:	01f8d41b          	srliw	s0,a7,0x1f
    800012a0:	027b6e3b          	remw	t3,s6,t2
    800012a4:	52af7d13          	andi	s10,t5,1322
    800012a8:	027b6e3b          	remw	t3,s6,t2
    800012ac:	02dc733b          	remuw	t1,s8,a3
    800012b0:	0097de3b          	srlw	t3,a5,s1
    800012b4:	4028d81b          	sraiw	a6,a7,0x2
    800012b8:	4182ddb3          	sra	s11,t0,s8
    800012bc:	52af7d13          	andi	s10,t5,1322
    800012c0:	020c9733          	mulh	a4,s9,zero
    800012c4:	41b1d293          	srai	t0,gp,0x1b
    800012c8:	0271aab3          	mulhsu	s5,gp,t2
    800012cc:	01dc2fb3          	slt	t6,s8,t4
    800012d0:	418489bb          	subw	s3,s1,s8
    800012d4:	01227033          	and	zero,tp,s2
    800012d8:	03143933          	mulhu	s2,s0,a7
    800012dc:	024c1113          	slli	sp,s8,0x24
    800012e0:	03143933          	mulhu	s2,s0,a7
    800012e4:	c94dc837          	lui	a6,0xc94dc
    800012e8:	0207d83b          	divuw	a6,a5,zero
    800012ec:	0168b0b3          	sltu	ra,a7,s6
    800012f0:	0350f0b3          	remu	ra,ra,s5
    800012f4:	03d040b3          	div	ra,zero,t4
    800012f8:	52af7d13          	andi	s10,t5,1322
    800012fc:	01dc2fb3          	slt	t6,s8,t4
    80001300:	0350f0b3          	remu	ra,ra,s5
    80001304:	4182ddb3          	sra	s11,t0,s8
    80001308:	004294bb          	sllw	s1,t0,tp
    8000130c:	aed68193          	addi	gp,a3,-1299
    80001310:	daec3a13          	sltiu	s4,s8,-594
    80001314:	c94dc837          	lui	a6,0xc94dc
    80001318:	00bd0233          	add	tp,s10,a1
    8000131c:	0271aab3          	mulhsu	s5,gp,t2
    80001320:	00bd0233          	add	tp,s10,a1
    80001324:	010a5a33          	srl	s4,s4,a6
    80001328:	41b1d293          	srai	t0,gp,0x1b
    8000132c:	001a9433          	sll	s0,s5,ra
    80001330:	418489bb          	subw	s3,s1,s8
    80001334:	12cd059b          	addiw	a1,s10,300
    80001338:	aed68193          	addi	gp,a3,-1299
    8000133c:	12cd059b          	addiw	a1,s10,300
    80001340:	513faf93          	slti	t6,t6,1299
    80001344:	201de597          	auipc	a1,0x201de
    80001348:	201de597          	auipc	a1,0x201de
    8000134c:	010a5a33          	srl	s4,s4,a6
    80001350:	020c9733          	mulh	a4,s9,zero
    80001354:	01aa8a3b          	addw	s4,s5,s10
    80001358:	40db0e33          	sub	t3,s6,a3
    8000135c:	40db0e33          	sub	t3,s6,a3
    80001360:	40db0e33          	sub	t3,s6,a3
    80001364:	027b6e3b          	remw	t3,s6,t2
    80001368:	0350f0b3          	remu	ra,ra,s5
    8000136c:	03b1deb3          	divu	t4,gp,s11
    80001370:	0242ee33          	rem	t3,t0,tp
    80001374:	027b6e3b          	remw	t3,s6,t2
    80001378:	020c9733          	mulh	a4,s9,zero
    8000137c:	01dc2fb3          	slt	t6,s8,t4
    80001380:	0350f0b3          	remu	ra,ra,s5
    80001384:	c94dc837          	lui	a6,0xc94dc
    80001388:	aed68193          	addi	gp,a3,-1299
    8000138c:	01aa8a3b          	addw	s4,s5,s10
    80001390:	024d883b          	mulw	a6,s11,tp
    80001394:	01e06c33          	or	s8,zero,t5
    80001398:	001a9433          	sll	s0,s5,ra
    8000139c:	020c9733          	mulh	a4,s9,zero
    800013a0:	40db0e33          	sub	t3,s6,a3
    800013a4:	03e65013          	srli	zero,a2,0x3e
    800013a8:	0350f0b3          	remu	ra,ra,s5
    800013ac:	0207d83b          	divuw	a6,a5,zero
    800013b0:	034bccbb          	divw	s9,s7,s4
    800013b4:	00e443b3          	xor	t2,s0,a4
    800013b8:	0350f0b3          	remu	ra,ra,s5
    800013bc:	52af7d13          	andi	s10,t5,1322
    800013c0:	40db0e33          	sub	t3,s6,a3
    800013c4:	020c9733          	mulh	a4,s9,zero
    800013c8:	024d883b          	mulw	a6,s11,tp
    800013cc:	03b1deb3          	divu	t4,gp,s11
    800013d0:	031b8fb3          	mul	t6,s7,a7
    800013d4:	03b1deb3          	divu	t4,gp,s11
    800013d8:	027b6e3b          	remw	t3,s6,t2
    800013dc:	00e443b3          	xor	t2,s0,a4
    800013e0:	53d76393          	ori	t2,a4,1341
    800013e4:	03d040b3          	div	ra,zero,t4
    800013e8:	daec3a13          	sltiu	s4,s8,-594
    800013ec:	c94dc837          	lui	a6,0xc94dc
    800013f0:	41acd23b          	sraw	tp,s9,s10
    800013f4:	024d883b          	mulw	a6,s11,tp
    800013f8:	034bccbb          	divw	s9,s7,s4
    800013fc:	020c9733          	mulh	a4,s9,zero
    80001400:	0271aab3          	mulhsu	s5,gp,t2
    80001404:	aed68193          	addi	gp,a3,-1299
    80001408:	0242ee33          	rem	t3,t0,tp
    8000140c:	00bd0233          	add	tp,s10,a1
    80001410:	01227033          	and	zero,tp,s2
    80001414:	41b1d293          	srai	t0,gp,0x1b
    80001418:	4182ddb3          	sra	s11,t0,s8
    8000141c:	01e06c33          	or	s8,zero,t5
    80001420:	daec3a13          	sltiu	s4,s8,-594
    80001424:	004294bb          	sllw	s1,t0,tp
    80001428:	53d76393          	ori	t2,a4,1341
    8000142c:	010a5a33          	srl	s4,s4,a6
    80001430:	03b1deb3          	divu	t4,gp,s11
    80001434:	daec3a13          	sltiu	s4,s8,-594
    80001438:	01f8d41b          	srliw	s0,a7,0x1f
    8000143c:	0350f0b3          	remu	ra,ra,s5
    80001440:	03143933          	mulhu	s2,s0,a7
    80001444:	0271aab3          	mulhsu	s5,gp,t2
    80001448:	034bccbb          	divw	s9,s7,s4
    8000144c:	004294bb          	sllw	s1,t0,tp
    80001450:	418489bb          	subw	s3,s1,s8
    80001454:	024c1113          	slli	sp,s8,0x24
    80001458:	01e06c33          	or	s8,zero,t5
    8000145c:	03143933          	mulhu	s2,s0,a7
    80001460:	0350f0b3          	remu	ra,ra,s5
    80001464:	004294bb          	sllw	s1,t0,tp
    80001468:	03143933          	mulhu	s2,s0,a7
    8000146c:	001a9433          	sll	s0,s5,ra
    80001470:	0271aab3          	mulhsu	s5,gp,t2
    80001474:	4028d81b          	sraiw	a6,a7,0x2
    80001478:	02dc733b          	remuw	t1,s8,a3
    8000147c:	03e65013          	srli	zero,a2,0x3e
    80001480:	0097de3b          	srlw	t3,a5,s1
    80001484:	41acd23b          	sraw	tp,s9,s10
    80001488:	0168b0b3          	sltu	ra,a7,s6
    8000148c:	41b1d293          	srai	t0,gp,0x1b
    80001490:	03b1deb3          	divu	t4,gp,s11
    80001494:	52af7d13          	andi	s10,t5,1322
    80001498:	010a5a33          	srl	s4,s4,a6
    8000149c:	027b6e3b          	remw	t3,s6,t2
    800014a0:	024d883b          	mulw	a6,s11,tp
    800014a4:	c94dc837          	lui	a6,0xc94dc
    800014a8:	00000013          	nop
    800014ac:	aed68193          	addi	gp,a3,-1299
    800014b0:	41b1d293          	srai	t0,gp,0x1b
    800014b4:	9e8ec093          	xori	ra,t4,-1560
    800014b8:	9e8ec093          	xori	ra,t4,-1560
    800014bc:	52af7d13          	andi	s10,t5,1322
    800014c0:	001a9433          	sll	s0,s5,ra
    800014c4:	53d76393          	ori	t2,a4,1341
    800014c8:	03e65013          	srli	zero,a2,0x3e
    800014cc:	00e443b3          	xor	t2,s0,a4
    800014d0:	001a9433          	sll	s0,s5,ra
    800014d4:	0168b0b3          	sltu	ra,a7,s6
    800014d8:	40db0e33          	sub	t3,s6,a3
    800014dc:	02dc733b          	remuw	t1,s8,a3
    800014e0:	03b1deb3          	divu	t4,gp,s11
    800014e4:	001a9433          	sll	s0,s5,ra
    800014e8:	9e8ec093          	xori	ra,t4,-1560
    800014ec:	00c59d9b          	slliw	s11,a1,0xc
    800014f0:	034bccbb          	divw	s9,s7,s4
    800014f4:	418489bb          	subw	s3,s1,s8
    800014f8:	001a9433          	sll	s0,s5,ra
    800014fc:	00e443b3          	xor	t2,s0,a4
    80001500:	03e65013          	srli	zero,a2,0x3e
    80001504:	001a9433          	sll	s0,s5,ra
    80001508:	031b8fb3          	mul	t6,s7,a7
    8000150c:	01227033          	and	zero,tp,s2
    80001510:	0097de3b          	srlw	t3,a5,s1
    80001514:	53d76393          	ori	t2,a4,1341
    80001518:	027b6e3b          	remw	t3,s6,t2
    8000151c:	00000013          	nop
    80001520:	40db0e33          	sub	t3,s6,a3
    80001524:	9e8ec093          	xori	ra,t4,-1560
    80001528:	0207d83b          	divuw	a6,a5,zero
    8000152c:	12cd059b          	addiw	a1,s10,300
    80001530:	00000013          	nop
    80001534:	03e65013          	srli	zero,a2,0x3e
    80001538:	001a9433          	sll	s0,s5,ra
    8000153c:	01aa8a3b          	addw	s4,s5,s10
    80001540:	41acd23b          	sraw	tp,s9,s10
    80001544:	03b1deb3          	divu	t4,gp,s11
    80001548:	034bccbb          	divw	s9,s7,s4
    8000154c:	034bccbb          	divw	s9,s7,s4
    80001550:	41b1d293          	srai	t0,gp,0x1b
    80001554:	12cd059b          	addiw	a1,s10,300
    80001558:	0242ee33          	rem	t3,t0,tp
    8000155c:	aed68193          	addi	gp,a3,-1299
    80001560:	41acd23b          	sraw	tp,s9,s10
    80001564:	9e8ec093          	xori	ra,t4,-1560
    80001568:	034bccbb          	divw	s9,s7,s4
    8000156c:	0242ee33          	rem	t3,t0,tp
    80001570:	024d883b          	mulw	a6,s11,tp
    80001574:	52af7d13          	andi	s10,t5,1322
    80001578:	0242ee33          	rem	t3,t0,tp
    8000157c:	41b1d293          	srai	t0,gp,0x1b
    80001580:	0350f0b3          	remu	ra,ra,s5
    80001584:	daec3a13          	sltiu	s4,s8,-594
    80001588:	52af7d13          	andi	s10,t5,1322
    8000158c:	00c59d9b          	slliw	s11,a1,0xc
    80001590:	034bccbb          	divw	s9,s7,s4
    80001594:	01aa8a3b          	addw	s4,s5,s10
    80001598:	034bccbb          	divw	s9,s7,s4
    8000159c:	418489bb          	subw	s3,s1,s8
    800015a0:	00c59d9b          	slliw	s11,a1,0xc
    800015a4:	9e8ec093          	xori	ra,t4,-1560
    800015a8:	004294bb          	sllw	s1,t0,tp
    800015ac:	513faf93          	slti	t6,t6,1299
    800015b0:	02dc733b          	remuw	t1,s8,a3
    800015b4:	daec3a13          	sltiu	s4,s8,-594
    800015b8:	513faf93          	slti	t6,t6,1299
    800015bc:	00000013          	nop
    800015c0:	00bd0233          	add	tp,s10,a1
    800015c4:	01227033          	and	zero,tp,s2
    800015c8:	c94dc837          	lui	a6,0xc94dc
    800015cc:	41b1d293          	srai	t0,gp,0x1b
    800015d0:	01f8d41b          	srliw	s0,a7,0x1f
    800015d4:	aed68193          	addi	gp,a3,-1299
    800015d8:	034bccbb          	divw	s9,s7,s4
    800015dc:	03e65013          	srli	zero,a2,0x3e
    800015e0:	40db0e33          	sub	t3,s6,a3
    800015e4:	41acd23b          	sraw	tp,s9,s10
    800015e8:	53d76393          	ori	t2,a4,1341
    800015ec:	004294bb          	sllw	s1,t0,tp
    800015f0:	41b1d293          	srai	t0,gp,0x1b
    800015f4:	4182ddb3          	sra	s11,t0,s8
    800015f8:	00e443b3          	xor	t2,s0,a4
    800015fc:	513faf93          	slti	t6,t6,1299
    80001600:	01227033          	and	zero,tp,s2
    80001604:	0271aab3          	mulhsu	s5,gp,t2
    80001608:	02dc733b          	remuw	t1,s8,a3
    8000160c:	02dc733b          	remuw	t1,s8,a3
    80001610:	02dc733b          	remuw	t1,s8,a3
    80001614:	03b1deb3          	divu	t4,gp,s11
    80001618:	daec3a13          	sltiu	s4,s8,-594
    8000161c:	00c59d9b          	slliw	s11,a1,0xc
    80001620:	01e06c33          	or	s8,zero,t5
    80001624:	0207d83b          	divuw	a6,a5,zero
    80001628:	201de597          	auipc	a1,0x201de
    8000162c:	40db0e33          	sub	t3,s6,a3
    80001630:	aed68193          	addi	gp,a3,-1299
    80001634:	9e8ec093          	xori	ra,t4,-1560
    80001638:	01e06c33          	or	s8,zero,t5
    8000163c:	9e8ec093          	xori	ra,t4,-1560
    80001640:	031b8fb3          	mul	t6,s7,a7
    80001644:	034bccbb          	divw	s9,s7,s4
    80001648:	010a5a33          	srl	s4,s4,a6
    8000164c:	513faf93          	slti	t6,t6,1299
    80001650:	00000013          	nop
    80001654:	031b8fb3          	mul	t6,s7,a7
    80001658:	c94dc837          	lui	a6,0xc94dc
    8000165c:	00000013          	nop
    80001660:	418489bb          	subw	s3,s1,s8
    80001664:	034bccbb          	divw	s9,s7,s4
    80001668:	0097de3b          	srlw	t3,a5,s1
    8000166c:	201de597          	auipc	a1,0x201de
    80001670:	513faf93          	slti	t6,t6,1299
    80001674:	0168b0b3          	sltu	ra,a7,s6
    80001678:	03b1deb3          	divu	t4,gp,s11
    8000167c:	40db0e33          	sub	t3,s6,a3
    80001680:	0097de3b          	srlw	t3,a5,s1
    80001684:	02dc733b          	remuw	t1,s8,a3
    80001688:	001a9433          	sll	s0,s5,ra
    8000168c:	03b1deb3          	divu	t4,gp,s11
    80001690:	12cd059b          	addiw	a1,s10,300
    80001694:	00c59d9b          	slliw	s11,a1,0xc
    80001698:	0168b0b3          	sltu	ra,a7,s6
    8000169c:	03b1deb3          	divu	t4,gp,s11
    800016a0:	031b8fb3          	mul	t6,s7,a7
    800016a4:	00c59d9b          	slliw	s11,a1,0xc
    800016a8:	027b6e3b          	remw	t3,s6,t2
    800016ac:	40db0e33          	sub	t3,s6,a3
    800016b0:	027b6e3b          	remw	t3,s6,t2
    800016b4:	aed68193          	addi	gp,a3,-1299
    800016b8:	0350f0b3          	remu	ra,ra,s5
    800016bc:	41b1d293          	srai	t0,gp,0x1b
    800016c0:	01dc2fb3          	slt	t6,s8,t4
    800016c4:	0097de3b          	srlw	t3,a5,s1
    800016c8:	00c59d9b          	slliw	s11,a1,0xc
    800016cc:	513faf93          	slti	t6,t6,1299
    800016d0:	0097de3b          	srlw	t3,a5,s1
    800016d4:	03d040b3          	div	ra,zero,t4
    800016d8:	41b1d293          	srai	t0,gp,0x1b
    800016dc:	03b1deb3          	divu	t4,gp,s11
    800016e0:	027b6e3b          	remw	t3,s6,t2
    800016e4:	027b6e3b          	remw	t3,s6,t2
    800016e8:	00000013          	nop
    800016ec:	004294bb          	sllw	s1,t0,tp
    800016f0:	031b8fb3          	mul	t6,s7,a7
    800016f4:	001a9433          	sll	s0,s5,ra
    800016f8:	01e06c33          	or	s8,zero,t5
    800016fc:	024d883b          	mulw	a6,s11,tp
    80001700:	41b1d293          	srai	t0,gp,0x1b
    80001704:	c94dc837          	lui	a6,0xc94dc
    80001708:	024d883b          	mulw	a6,s11,tp
    8000170c:	c94dc837          	lui	a6,0xc94dc
    80001710:	0242ee33          	rem	t3,t0,tp
    80001714:	aed68193          	addi	gp,a3,-1299
    80001718:	027b6e3b          	remw	t3,s6,t2
    8000171c:	aed68193          	addi	gp,a3,-1299
    80001720:	c94dc837          	lui	a6,0xc94dc
    80001724:	01aa8a3b          	addw	s4,s5,s10
    80001728:	024d883b          	mulw	a6,s11,tp
    8000172c:	0168b0b3          	sltu	ra,a7,s6
    80001730:	4182ddb3          	sra	s11,t0,s8
    80001734:	0168b0b3          	sltu	ra,a7,s6
    80001738:	031b8fb3          	mul	t6,s7,a7
    8000173c:	c94dc837          	lui	a6,0xc94dc
    80001740:	00e443b3          	xor	t2,s0,a4
    80001744:	03143933          	mulhu	s2,s0,a7
    80001748:	daec3a13          	sltiu	s4,s8,-594
    8000174c:	41b1d293          	srai	t0,gp,0x1b
    80001750:	010a5a33          	srl	s4,s4,a6
    80001754:	034bccbb          	divw	s9,s7,s4
    80001758:	00000a93          	li	s5,0
    8000175c:	fff00093          	li	ra,-1
    80001760:	fff0031b          	addiw	t1,zero,-1
    80001764:	03f31313          	slli	t1,t1,0x3f
    80001768:	fff00993          	li	s3,-1
    8000176c:	fff00c93          	li	s9,-1
    80001770:	00000713          	li	a4,0
    80001774:	fff0069b          	addiw	a3,zero,-1
    80001778:	03f69693          	slli	a3,a3,0x3f
    8000177c:	ffdf8637          	lui	a2,0xffdf8
    80001780:	99f6061b          	addiw	a2,a2,-1633 # ffffffffffdf799f <_end+0xffffffff7fdd9017>
    80001784:	00d61613          	slli	a2,a2,0xd
    80001788:	84960613          	addi	a2,a2,-1975
    8000178c:	00e61613          	slli	a2,a2,0xe
    80001790:	f7560613          	addi	a2,a2,-139
    80001794:	00e61613          	slli	a2,a2,0xe
    80001798:	a9160613          	addi	a2,a2,-1391
    8000179c:	00000a13          	li	s4,0
    800017a0:	fff00913          	li	s2,-1
    800017a4:	0349e93b          	remw	s2,s3,s4
    800017a8:	0216d0bb          	divuw	ra,a3,ra
    800017ac:	03237333          	remu	t1,t1,s2
    800017b0:	026a0333          	mul	t1,s4,t1
    800017b4:	03237333          	remu	t1,t1,s2
    800017b8:	0356d0b3          	divu	ra,a3,s5
    800017bc:	0210c333          	div	t1,ra,ra
    800017c0:	c94dc0b7          	lui	ra,0xc94dc
    800017c4:	00000013          	nop
    800017c8:	02e96333          	rem	t1,s2,a4
    800017cc:	40698ab3          	sub	s5,s3,t1
    800017d0:	0216d0bb          	divuw	ra,a3,ra
    800017d4:	021c96b3          	mulh	a3,s9,ra
    800017d8:	00000013          	nop
    800017dc:	aed70693          	addi	a3,a4,-1299
    800017e0:	0356d0b3          	divu	ra,a3,s5
    800017e4:	00000013          	nop
    800017e8:	0346a733          	mulhsu	a4,a3,s4
    800017ec:	c94dc0b7          	lui	ra,0xc94dc
    800017f0:	03237333          	remu	t1,t1,s2
    800017f4:	02e300bb          	mulw	ra,t1,a4
    800017f8:	0216d0bb          	divuw	ra,a3,ra
    800017fc:	01560733          	add	a4,a2,s5
    80001800:	201de597          	auipc	a1,0x201de
    80001804:	aed68193          	addi	gp,a3,-1299
    80001808:	418489bb          	subw	s3,s1,s8
    8000180c:	0207d83b          	divuw	a6,a5,zero
    80001810:	03143933          	mulhu	s2,s0,a7
    80001814:	024d883b          	mulw	a6,s11,tp
    80001818:	00bd0233          	add	tp,s10,a1
    8000181c:	001a9433          	sll	s0,s5,ra
    80001820:	024d883b          	mulw	a6,s11,tp
    80001824:	0350f0b3          	remu	ra,ra,s5
    80001828:	12cd059b          	addiw	a1,s10,300
    8000182c:	00e443b3          	xor	t2,s0,a4
    80001830:	02dc733b          	remuw	t1,s8,a3
    80001834:	4028d81b          	sraiw	a6,a7,0x2
    80001838:	52af7d13          	andi	s10,t5,1322
    8000183c:	00e443b3          	xor	t2,s0,a4
    80001840:	00e443b3          	xor	t2,s0,a4
    80001844:	01dc2fb3          	slt	t6,s8,t4
    80001848:	0242ee33          	rem	t3,t0,tp
    8000184c:	513faf93          	slti	t6,t6,1299
    80001850:	031b8fb3          	mul	t6,s7,a7
    80001854:	41b1d293          	srai	t0,gp,0x1b
    80001858:	201de597          	auipc	a1,0x201de
    8000185c:	004294bb          	sllw	s1,t0,tp
    80001860:	027b6e3b          	remw	t3,s6,t2
    80001864:	418489bb          	subw	s3,s1,s8
    80001868:	024d883b          	mulw	a6,s11,tp
    8000186c:	0271aab3          	mulhsu	s5,gp,t2
    80001870:	027b6e3b          	remw	t3,s6,t2
    80001874:	034bccbb          	divw	s9,s7,s4
    80001878:	0207d83b          	divuw	a6,a5,zero
    8000187c:	02dc733b          	remuw	t1,s8,a3
    80001880:	004294bb          	sllw	s1,t0,tp
    80001884:	daec3a13          	sltiu	s4,s8,-594
    80001888:	513faf93          	slti	t6,t6,1299
    8000188c:	010a5a33          	srl	s4,s4,a6
    80001890:	418489bb          	subw	s3,s1,s8
    80001894:	41b1d293          	srai	t0,gp,0x1b
    80001898:	12cd059b          	addiw	a1,s10,300
    8000189c:	010a5a33          	srl	s4,s4,a6
    800018a0:	0271aab3          	mulhsu	s5,gp,t2
    800018a4:	00000013          	nop
    800018a8:	0207d83b          	divuw	a6,a5,zero
    800018ac:	0242ee33          	rem	t3,t0,tp
    800018b0:	41acd23b          	sraw	tp,s9,s10
    800018b4:	01dc2fb3          	slt	t6,s8,t4
    800018b8:	4028d81b          	sraiw	a6,a7,0x2
    800018bc:	03143933          	mulhu	s2,s0,a7
    800018c0:	004294bb          	sllw	s1,t0,tp
    800018c4:	020c9733          	mulh	a4,s9,zero
    800018c8:	01227033          	and	zero,tp,s2
    800018cc:	0242ee33          	rem	t3,t0,tp
    800018d0:	0271aab3          	mulhsu	s5,gp,t2
    800018d4:	01f8d41b          	srliw	s0,a7,0x1f
    800018d8:	daec3a13          	sltiu	s4,s8,-594
    800018dc:	0168b0b3          	sltu	ra,a7,s6
    800018e0:	010a5a33          	srl	s4,s4,a6
    800018e4:	53d76393          	ori	t2,a4,1341
    800018e8:	010a5a33          	srl	s4,s4,a6
    800018ec:	40db0e33          	sub	t3,s6,a3
    800018f0:	41acd23b          	sraw	tp,s9,s10
    800018f4:	01e06c33          	or	s8,zero,t5
    800018f8:	03143933          	mulhu	s2,s0,a7
    800018fc:	40db0e33          	sub	t3,s6,a3
    80001900:	4028d81b          	sraiw	a6,a7,0x2
    80001904:	00000013          	nop
    80001908:	513faf93          	slti	t6,t6,1299
    8000190c:	00e443b3          	xor	t2,s0,a4
    80001910:	01227033          	and	zero,tp,s2
    80001914:	9e8ec093          	xori	ra,t4,-1560
    80001918:	4028d81b          	sraiw	a6,a7,0x2
    8000191c:	02dc733b          	remuw	t1,s8,a3
    80001920:	024d883b          	mulw	a6,s11,tp
    80001924:	024d883b          	mulw	a6,s11,tp
    80001928:	9e8ec093          	xori	ra,t4,-1560
    8000192c:	00bd0233          	add	tp,s10,a1
    80001930:	03b1deb3          	divu	t4,gp,s11
    80001934:	020c9733          	mulh	a4,s9,zero
    80001938:	201de597          	auipc	a1,0x201de
    8000193c:	001a9433          	sll	s0,s5,ra
    80001940:	00c59d9b          	slliw	s11,a1,0xc
    80001944:	020c9733          	mulh	a4,s9,zero
    80001948:	53d76393          	ori	t2,a4,1341
    8000194c:	201de597          	auipc	a1,0x201de
    80001950:	00e443b3          	xor	t2,s0,a4
    80001954:	0097de3b          	srlw	t3,a5,s1
    80001958:	aed68193          	addi	gp,a3,-1299
    8000195c:	aed68193          	addi	gp,a3,-1299
    80001960:	52af7d13          	andi	s10,t5,1322
    80001964:	004294bb          	sllw	s1,t0,tp
    80001968:	01dc2fb3          	slt	t6,s8,t4
    8000196c:	0350f0b3          	remu	ra,ra,s5
    80001970:	00e443b3          	xor	t2,s0,a4
    80001974:	0242ee33          	rem	t3,t0,tp
    80001978:	024d883b          	mulw	a6,s11,tp
    8000197c:	01dc2fb3          	slt	t6,s8,t4
    80001980:	0271aab3          	mulhsu	s5,gp,t2
    80001984:	01aa8a3b          	addw	s4,s5,s10
    80001988:	40db0e33          	sub	t3,s6,a3
    8000198c:	02dc733b          	remuw	t1,s8,a3
    80001990:	52af7d13          	andi	s10,t5,1322
    80001994:	00bd0233          	add	tp,s10,a1
    80001998:	01e06c33          	or	s8,zero,t5
    8000199c:	01dc2fb3          	slt	t6,s8,t4
    800019a0:	4028d81b          	sraiw	a6,a7,0x2
    800019a4:	020c9733          	mulh	a4,s9,zero
    800019a8:	0207d83b          	divuw	a6,a5,zero
    800019ac:	01aa8a3b          	addw	s4,s5,s10
    800019b0:	020c9733          	mulh	a4,s9,zero
    800019b4:	0271aab3          	mulhsu	s5,gp,t2
    800019b8:	027b6e3b          	remw	t3,s6,t2
    800019bc:	0350f0b3          	remu	ra,ra,s5
    800019c0:	031b8fb3          	mul	t6,s7,a7
    800019c4:	0207d83b          	divuw	a6,a5,zero
    800019c8:	00bd0233          	add	tp,s10,a1
    800019cc:	024c1113          	slli	sp,s8,0x24
    800019d0:	010a5a33          	srl	s4,s4,a6
    800019d4:	0271aab3          	mulhsu	s5,gp,t2
    800019d8:	418489bb          	subw	s3,s1,s8
    800019dc:	02dc733b          	remuw	t1,s8,a3
    800019e0:	001a9433          	sll	s0,s5,ra
    800019e4:	00000013          	nop
    800019e8:	00e443b3          	xor	t2,s0,a4
    800019ec:	0097de3b          	srlw	t3,a5,s1
    800019f0:	020c9733          	mulh	a4,s9,zero
    800019f4:	01e06c33          	or	s8,zero,t5
    800019f8:	004294bb          	sllw	s1,t0,tp
    800019fc:	01e06c33          	or	s8,zero,t5
    80001a00:	004294bb          	sllw	s1,t0,tp
    80001a04:	40db0e33          	sub	t3,s6,a3
    80001a08:	9e8ec093          	xori	ra,t4,-1560
    80001a0c:	418489bb          	subw	s3,s1,s8
    80001a10:	031b8fb3          	mul	t6,s7,a7
    80001a14:	027b6e3b          	remw	t3,s6,t2
    80001a18:	41b1d293          	srai	t0,gp,0x1b
    80001a1c:	201de597          	auipc	a1,0x201de
    80001a20:	0168b0b3          	sltu	ra,a7,s6
    80001a24:	01f8d41b          	srliw	s0,a7,0x1f
    80001a28:	aed68193          	addi	gp,a3,-1299
    80001a2c:	024d883b          	mulw	a6,s11,tp
    80001a30:	01f8d41b          	srliw	s0,a7,0x1f
    80001a34:	4028d81b          	sraiw	a6,a7,0x2
    80001a38:	513faf93          	slti	t6,t6,1299
    80001a3c:	41b1d293          	srai	t0,gp,0x1b
    80001a40:	0207d83b          	divuw	a6,a5,zero
    80001a44:	00e443b3          	xor	t2,s0,a4
    80001a48:	03143933          	mulhu	s2,s0,a7
    80001a4c:	031b8fb3          	mul	t6,s7,a7
    80001a50:	01e06c33          	or	s8,zero,t5
    80001a54:	010a5a33          	srl	s4,s4,a6
    80001a58:	03b1deb3          	divu	t4,gp,s11
    80001a5c:	9e8ec093          	xori	ra,t4,-1560
    80001a60:	02dc733b          	remuw	t1,s8,a3
    80001a64:	513faf93          	slti	t6,t6,1299
    80001a68:	01e06c33          	or	s8,zero,t5
    80001a6c:	00000013          	nop
    80001a70:	0242ee33          	rem	t3,t0,tp
    80001a74:	027b6e3b          	remw	t3,s6,t2
    80001a78:	0207d83b          	divuw	a6,a5,zero
    80001a7c:	0271aab3          	mulhsu	s5,gp,t2
    80001a80:	aed68193          	addi	gp,a3,-1299
    80001a84:	024d883b          	mulw	a6,s11,tp
    80001a88:	52af7d13          	andi	s10,t5,1322
    80001a8c:	52af7d13          	andi	s10,t5,1322
    80001a90:	9e8ec093          	xori	ra,t4,-1560
    80001a94:	0242ee33          	rem	t3,t0,tp
    80001a98:	004294bb          	sllw	s1,t0,tp
    80001a9c:	418489bb          	subw	s3,s1,s8
    80001aa0:	034bccbb          	divw	s9,s7,s4
    80001aa4:	0168b0b3          	sltu	ra,a7,s6
    80001aa8:	01dc2fb3          	slt	t6,s8,t4
    80001aac:	201de597          	auipc	a1,0x201de
    80001ab0:	024c1113          	slli	sp,s8,0x24
    80001ab4:	01dc2fb3          	slt	t6,s8,t4
    80001ab8:	aed68193          	addi	gp,a3,-1299
    80001abc:	01e06c33          	or	s8,zero,t5
    80001ac0:	4028d81b          	sraiw	a6,a7,0x2
    80001ac4:	010a5a33          	srl	s4,s4,a6
    80001ac8:	41acd23b          	sraw	tp,s9,s10
    80001acc:	024d883b          	mulw	a6,s11,tp
    80001ad0:	c94dc837          	lui	a6,0xc94dc
    80001ad4:	03e65013          	srli	zero,a2,0x3e
    80001ad8:	03e65013          	srli	zero,a2,0x3e
    80001adc:	0168b0b3          	sltu	ra,a7,s6
    80001ae0:	001a9433          	sll	s0,s5,ra
    80001ae4:	53d76393          	ori	t2,a4,1341
    80001ae8:	53d76393          	ori	t2,a4,1341
    80001aec:	0207d83b          	divuw	a6,a5,zero
    80001af0:	01dc2fb3          	slt	t6,s8,t4
    80001af4:	004294bb          	sllw	s1,t0,tp
    80001af8:	40db0e33          	sub	t3,s6,a3
    80001afc:	001a9433          	sll	s0,s5,ra
    80001b00:	01dc2fb3          	slt	t6,s8,t4
    80001b04:	41b1d293          	srai	t0,gp,0x1b
    80001b08:	4028d81b          	sraiw	a6,a7,0x2
    80001b0c:	00bd0233          	add	tp,s10,a1
    80001b10:	01227033          	and	zero,tp,s2
    80001b14:	4182ddb3          	sra	s11,t0,s8
    80001b18:	031b8fb3          	mul	t6,s7,a7
    80001b1c:	03b1deb3          	divu	t4,gp,s11
    80001b20:	aed68193          	addi	gp,a3,-1299
    80001b24:	03d040b3          	div	ra,zero,t4
    80001b28:	004294bb          	sllw	s1,t0,tp
    80001b2c:	41b1d293          	srai	t0,gp,0x1b
    80001b30:	aed68193          	addi	gp,a3,-1299
    80001b34:	0207d83b          	divuw	a6,a5,zero
    80001b38:	0207d83b          	divuw	a6,a5,zero
    80001b3c:	027b6e3b          	remw	t3,s6,t2
    80001b40:	00bd0233          	add	tp,s10,a1
    80001b44:	4028d81b          	sraiw	a6,a7,0x2
    80001b48:	201de597          	auipc	a1,0x201de
    80001b4c:	004294bb          	sllw	s1,t0,tp
    80001b50:	4028d81b          	sraiw	a6,a7,0x2
    80001b54:	0207d83b          	divuw	a6,a5,zero
    80001b58:	01aa8a3b          	addw	s4,s5,s10
    80001b5c:	010a5a33          	srl	s4,s4,a6
    80001b60:	0350f0b3          	remu	ra,ra,s5
    80001b64:	0207d83b          	divuw	a6,a5,zero
    80001b68:	0207d83b          	divuw	a6,a5,zero
    80001b6c:	03b1deb3          	divu	t4,gp,s11
    80001b70:	0350f0b3          	remu	ra,ra,s5
    80001b74:	01f8d41b          	srliw	s0,a7,0x1f
    80001b78:	001a9433          	sll	s0,s5,ra
    80001b7c:	020c9733          	mulh	a4,s9,zero
    80001b80:	0271aab3          	mulhsu	s5,gp,t2
    80001b84:	031b8fb3          	mul	t6,s7,a7
    80001b88:	4028d81b          	sraiw	a6,a7,0x2
    80001b8c:	03e65013          	srli	zero,a2,0x3e
    80001b90:	02dc733b          	remuw	t1,s8,a3
    80001b94:	c94dc837          	lui	a6,0xc94dc
    80001b98:	01aa8a3b          	addw	s4,s5,s10
    80001b9c:	53d76393          	ori	t2,a4,1341
    80001ba0:	00e443b3          	xor	t2,s0,a4
    80001ba4:	53d76393          	ori	t2,a4,1341
    80001ba8:	9e8ec093          	xori	ra,t4,-1560
    80001bac:	c94dc837          	lui	a6,0xc94dc
    80001bb0:	00bd0233          	add	tp,s10,a1
    80001bb4:	4028d81b          	sraiw	a6,a7,0x2
    80001bb8:	0168b0b3          	sltu	ra,a7,s6
    80001bbc:	00bd0233          	add	tp,s10,a1
    80001bc0:	41acd23b          	sraw	tp,s9,s10
    80001bc4:	4028d81b          	sraiw	a6,a7,0x2
    80001bc8:	0350f0b3          	remu	ra,ra,s5
    80001bcc:	00000013          	nop
    80001bd0:	4028d81b          	sraiw	a6,a7,0x2
    80001bd4:	0168b0b3          	sltu	ra,a7,s6
    80001bd8:	00c59d9b          	slliw	s11,a1,0xc
    80001bdc:	513faf93          	slti	t6,t6,1299
    80001be0:	024c1113          	slli	sp,s8,0x24
    80001be4:	c94dc837          	lui	a6,0xc94dc
    80001be8:	001a9433          	sll	s0,s5,ra
    80001bec:	01aa8a3b          	addw	s4,s5,s10
    80001bf0:	03e65013          	srli	zero,a2,0x3e
    80001bf4:	201de597          	auipc	a1,0x201de
    80001bf8:	0207d83b          	divuw	a6,a5,zero
    80001bfc:	4028d81b          	sraiw	a6,a7,0x2
    80001c00:	daec3a13          	sltiu	s4,s8,-594
    80001c04:	01aa8a3b          	addw	s4,s5,s10
    80001c08:	00bd0233          	add	tp,s10,a1
    80001c0c:	12cd059b          	addiw	a1,s10,300
    80001c10:	03b1deb3          	divu	t4,gp,s11
    80001c14:	4182ddb3          	sra	s11,t0,s8
    80001c18:	41acd23b          	sraw	tp,s9,s10
    80001c1c:	52af7d13          	andi	s10,t5,1322
    80001c20:	41acd23b          	sraw	tp,s9,s10
    80001c24:	00c59d9b          	slliw	s11,a1,0xc
    80001c28:	daec3a13          	sltiu	s4,s8,-594
    80001c2c:	024d883b          	mulw	a6,s11,tp
    80001c30:	00bd0233          	add	tp,s10,a1
    80001c34:	12cd059b          	addiw	a1,s10,300
    80001c38:	0168b0b3          	sltu	ra,a7,s6
    80001c3c:	010a5a33          	srl	s4,s4,a6
    80001c40:	03d040b3          	div	ra,zero,t4
    80001c44:	12cd059b          	addiw	a1,s10,300
    80001c48:	40db0e33          	sub	t3,s6,a3
    80001c4c:	418489bb          	subw	s3,s1,s8
    80001c50:	031b8fb3          	mul	t6,s7,a7
    80001c54:	4028d81b          	sraiw	a6,a7,0x2
    80001c58:	00000013          	nop
    80001c5c:	034bccbb          	divw	s9,s7,s4
    80001c60:	03143933          	mulhu	s2,s0,a7
    80001c64:	01f8d41b          	srliw	s0,a7,0x1f
    80001c68:	024d883b          	mulw	a6,s11,tp
    80001c6c:	004294bb          	sllw	s1,t0,tp
    80001c70:	03e65013          	srli	zero,a2,0x3e
    80001c74:	01227033          	and	zero,tp,s2
    80001c78:	020c9733          	mulh	a4,s9,zero
    80001c7c:	010a5a33          	srl	s4,s4,a6
    80001c80:	52af7d13          	andi	s10,t5,1322
    80001c84:	010a5a33          	srl	s4,s4,a6
    80001c88:	0350f0b3          	remu	ra,ra,s5
    80001c8c:	53d76393          	ori	t2,a4,1341
    80001c90:	00bd0233          	add	tp,s10,a1
    80001c94:	0097de3b          	srlw	t3,a5,s1
    80001c98:	c94dc837          	lui	a6,0xc94dc
    80001c9c:	52af7d13          	andi	s10,t5,1322
    80001ca0:	4182ddb3          	sra	s11,t0,s8
    80001ca4:	0350f0b3          	remu	ra,ra,s5
    80001ca8:	03d040b3          	div	ra,zero,t4
    80001cac:	daec3a13          	sltiu	s4,s8,-594
    80001cb0:	201de597          	auipc	a1,0x201de
    80001cb4:	034bccbb          	divw	s9,s7,s4
    80001cb8:	aed68193          	addi	gp,a3,-1299
    80001cbc:	40db0e33          	sub	t3,s6,a3
    80001cc0:	03143933          	mulhu	s2,s0,a7
    80001cc4:	c94dc837          	lui	a6,0xc94dc
    80001cc8:	03d040b3          	div	ra,zero,t4
    80001ccc:	0207d83b          	divuw	a6,a5,zero
    80001cd0:	00000013          	nop
    80001cd4:	513faf93          	slti	t6,t6,1299
    80001cd8:	01f8d41b          	srliw	s0,a7,0x1f
    80001cdc:	02dc733b          	remuw	t1,s8,a3
    80001ce0:	0207d83b          	divuw	a6,a5,zero
    80001ce4:	0271aab3          	mulhsu	s5,gp,t2
    80001ce8:	00bd0233          	add	tp,s10,a1
    80001cec:	01dc2fb3          	slt	t6,s8,t4
    80001cf0:	4028d81b          	sraiw	a6,a7,0x2
    80001cf4:	02dc733b          	remuw	t1,s8,a3
    80001cf8:	c94dc837          	lui	a6,0xc94dc
    80001cfc:	12cd059b          	addiw	a1,s10,300
    80001d00:	027b6e3b          	remw	t3,s6,t2
    80001d04:	031b8fb3          	mul	t6,s7,a7
    80001d08:	020c9733          	mulh	a4,s9,zero
    80001d0c:	4028d81b          	sraiw	a6,a7,0x2
    80001d10:	03b1deb3          	divu	t4,gp,s11
    80001d14:	004294bb          	sllw	s1,t0,tp
    80001d18:	aed68193          	addi	gp,a3,-1299
    80001d1c:	0168b0b3          	sltu	ra,a7,s6
    80001d20:	01aa8a3b          	addw	s4,s5,s10
    80001d24:	4182ddb3          	sra	s11,t0,s8
    80001d28:	c94dc837          	lui	a6,0xc94dc
    80001d2c:	418489bb          	subw	s3,s1,s8
    80001d30:	41acd23b          	sraw	tp,s9,s10
    80001d34:	daec3a13          	sltiu	s4,s8,-594
    80001d38:	4182ddb3          	sra	s11,t0,s8
    80001d3c:	418489bb          	subw	s3,s1,s8
    80001d40:	034bccbb          	divw	s9,s7,s4
    80001d44:	41acd23b          	sraw	tp,s9,s10
    80001d48:	53d76393          	ori	t2,a4,1341
    80001d4c:	9e8ec093          	xori	ra,t4,-1560
    80001d50:	03d040b3          	div	ra,zero,t4
    80001d54:	41acd23b          	sraw	tp,s9,s10
    80001d58:	c94dc837          	lui	a6,0xc94dc
    80001d5c:	0207d83b          	divuw	a6,a5,zero
    80001d60:	01e06c33          	or	s8,zero,t5
    80001d64:	40db0e33          	sub	t3,s6,a3
    80001d68:	00000013          	nop
    80001d6c:	010a5a33          	srl	s4,s4,a6
    80001d70:	aed68193          	addi	gp,a3,-1299
    80001d74:	01aa8a3b          	addw	s4,s5,s10
    80001d78:	020c9733          	mulh	a4,s9,zero
    80001d7c:	418489bb          	subw	s3,s1,s8
    80001d80:	0350f0b3          	remu	ra,ra,s5
    80001d84:	01e06c33          	or	s8,zero,t5
    80001d88:	53d76393          	ori	t2,a4,1341
    80001d8c:	0271aab3          	mulhsu	s5,gp,t2
    80001d90:	004294bb          	sllw	s1,t0,tp
    80001d94:	031b8fb3          	mul	t6,s7,a7
    80001d98:	c94dc837          	lui	a6,0xc94dc
    80001d9c:	4182ddb3          	sra	s11,t0,s8
    80001da0:	41acd23b          	sraw	tp,s9,s10
    80001da4:	01f8d41b          	srliw	s0,a7,0x1f
    80001da8:	0207d83b          	divuw	a6,a5,zero
    80001dac:	12cd059b          	addiw	a1,s10,300
    80001db0:	020c9733          	mulh	a4,s9,zero
    80001db4:	024c1113          	slli	sp,s8,0x24
    80001db8:	03b1deb3          	divu	t4,gp,s11
    80001dbc:	03143933          	mulhu	s2,s0,a7
    80001dc0:	020c9733          	mulh	a4,s9,zero
    80001dc4:	00e443b3          	xor	t2,s0,a4
    80001dc8:	00000013          	nop
    80001dcc:	03143933          	mulhu	s2,s0,a7
    80001dd0:	0242ee33          	rem	t3,t0,tp
    80001dd4:	00c59d9b          	slliw	s11,a1,0xc
    80001dd8:	4182ddb3          	sra	s11,t0,s8
    80001ddc:	01dc2fb3          	slt	t6,s8,t4
    80001de0:	4182ddb3          	sra	s11,t0,s8
    80001de4:	0097de3b          	srlw	t3,a5,s1
    80001de8:	03d040b3          	div	ra,zero,t4
    80001dec:	010a5a33          	srl	s4,s4,a6
    80001df0:	41acd23b          	sraw	tp,s9,s10
    80001df4:	03d040b3          	div	ra,zero,t4
    80001df8:	40db0e33          	sub	t3,s6,a3
    80001dfc:	031b8fb3          	mul	t6,s7,a7
    80001e00:	40db0e33          	sub	t3,s6,a3
    80001e04:	01dc2fb3          	slt	t6,s8,t4
    80001e08:	52af7d13          	andi	s10,t5,1322
    80001e0c:	034bccbb          	divw	s9,s7,s4
    80001e10:	53d76393          	ori	t2,a4,1341
    80001e14:	004294bb          	sllw	s1,t0,tp
    80001e18:	01f8d41b          	srliw	s0,a7,0x1f
    80001e1c:	0097de3b          	srlw	t3,a5,s1
    80001e20:	00bd0233          	add	tp,s10,a1
    80001e24:	00000013          	nop
    80001e28:	0350f0b3          	remu	ra,ra,s5
    80001e2c:	031b8fb3          	mul	t6,s7,a7
    80001e30:	0097de3b          	srlw	t3,a5,s1
    80001e34:	41b1d293          	srai	t0,gp,0x1b
    80001e38:	01f8d41b          	srliw	s0,a7,0x1f
    80001e3c:	40db0e33          	sub	t3,s6,a3
    80001e40:	01e06c33          	or	s8,zero,t5
    80001e44:	0271aab3          	mulhsu	s5,gp,t2
    80001e48:	03b1deb3          	divu	t4,gp,s11
    80001e4c:	0207d83b          	divuw	a6,a5,zero
    80001e50:	01aa8a3b          	addw	s4,s5,s10
    80001e54:	c94dc837          	lui	a6,0xc94dc
    80001e58:	0350f0b3          	remu	ra,ra,s5
    80001e5c:	c94dc837          	lui	a6,0xc94dc
    80001e60:	027b6e3b          	remw	t3,s6,t2
    80001e64:	031b8fb3          	mul	t6,s7,a7
    80001e68:	41b1d293          	srai	t0,gp,0x1b
    80001e6c:	01aa8a3b          	addw	s4,s5,s10
    80001e70:	0097de3b          	srlw	t3,a5,s1
    80001e74:	02dc733b          	remuw	t1,s8,a3
    80001e78:	00bd0233          	add	tp,s10,a1
    80001e7c:	418489bb          	subw	s3,s1,s8
    80001e80:	4182ddb3          	sra	s11,t0,s8
    80001e84:	01f8d41b          	srliw	s0,a7,0x1f
    80001e88:	9e8ec093          	xori	ra,t4,-1560
    80001e8c:	daec3a13          	sltiu	s4,s8,-594
    80001e90:	027b6e3b          	remw	t3,s6,t2
    80001e94:	01e06c33          	or	s8,zero,t5
    80001e98:	031b8fb3          	mul	t6,s7,a7
    80001e9c:	010a5a33          	srl	s4,s4,a6
    80001ea0:	024d883b          	mulw	a6,s11,tp
    80001ea4:	00e443b3          	xor	t2,s0,a4
    80001ea8:	00000013          	nop
    80001eac:	0097de3b          	srlw	t3,a5,s1
    80001eb0:	00bd0233          	add	tp,s10,a1
    80001eb4:	9e8ec093          	xori	ra,t4,-1560
    80001eb8:	01dc2fb3          	slt	t6,s8,t4
    80001ebc:	034bccbb          	divw	s9,s7,s4
    80001ec0:	0207d83b          	divuw	a6,a5,zero
    80001ec4:	40db0e33          	sub	t3,s6,a3
    80001ec8:	41b1d293          	srai	t0,gp,0x1b
    80001ecc:	52af7d13          	andi	s10,t5,1322
    80001ed0:	01f8d41b          	srliw	s0,a7,0x1f
    80001ed4:	0271aab3          	mulhsu	s5,gp,t2
    80001ed8:	02dc733b          	remuw	t1,s8,a3
    80001edc:	024d883b          	mulw	a6,s11,tp
    80001ee0:	9e8ec093          	xori	ra,t4,-1560
    80001ee4:	03e65013          	srli	zero,a2,0x3e
    80001ee8:	027b6e3b          	remw	t3,s6,t2
    80001eec:	c94dc837          	lui	a6,0xc94dc
    80001ef0:	40db0e33          	sub	t3,s6,a3
    80001ef4:	03d040b3          	div	ra,zero,t4
    80001ef8:	0271aab3          	mulhsu	s5,gp,t2
    80001efc:	000ef5b7          	lui	a1,0xef
    80001f00:	bcb5859b          	addiw	a1,a1,-1077 # eebcb <_start-0x7ff11435>
    80001f04:	00c59593          	slli	a1,a1,0xc
    80001f08:	3b958593          	addi	a1,a1,953
    80001f0c:	00e59593          	slli	a1,a1,0xe
    80001f10:	58358593          	addi	a1,a1,1411
    80001f14:	00c59593          	slli	a1,a1,0xc
    80001f18:	abd58593          	addi	a1,a1,-1347
    80001f1c:	00000393          	li	t2,0
    80001f20:	fff0079b          	addiw	a5,zero,-1
    80001f24:	03f79793          	slli	a5,a5,0x3f
    80001f28:	fff00a93          	li	s5,-1
    80001f2c:	00a0fcb7          	lui	s9,0xa0f
    80001f30:	9b1c8c9b          	addiw	s9,s9,-1615 # a0e9b1 <_start-0x7f5f164f>
    80001f34:	00cc9c93          	slli	s9,s9,0xc
    80001f38:	df1c8c93          	addi	s9,s9,-527
    80001f3c:	00fc9c93          	slli	s9,s9,0xf
    80001f40:	69bc8c93          	addi	s9,s9,1691
    80001f44:	00cc9c93          	slli	s9,s9,0xc
    80001f48:	d9ec8c93          	addi	s9,s9,-610
    80001f4c:	fff00113          	li	sp,-1
    80001f50:	00000813          	li	a6,0
    80001f54:	fff00713          	li	a4,-1
    80001f58:	00000e93          	li	t4,0
    80001f5c:	fff00d9b          	addiw	s11,zero,-1
    80001f60:	03fd9d93          	slli	s11,s11,0x3f
    80001f64:	01b587b3          	add	a5,a1,s11
    80001f68:	027db3b3          	mulhu	t2,s11,t2
    80001f6c:	0303f3b3          	remu	t2,t2,a6
    80001f70:	027c83b3          	mul	t2,s9,t2
    80001f74:	039727b3          	mulhsu	a5,a4,s9
    80001f78:	407a8db3          	sub	s11,s5,t2
    80001f7c:	00000013          	nop
    80001f80:	aed78713          	addi	a4,a5,-1299
    80001f84:	407a8db3          	sub	s11,s5,t2
    80001f88:	00000013          	nop
    80001f8c:	c94dc137          	lui	sp,0xc94dc
    80001f90:	02f863b3          	rem	t2,a6,a5
    80001f94:	41be85bb          	subw	a1,t4,s11
    80001f98:	201de717          	auipc	a4,0x201de
    80001f9c:	12c80a9b          	addiw	s5,a6,300 # ffffffffc94dc12c <_end+0xffffffff494bd7a4>
    80001fa0:	022e9733          	mulh	a4,t4,sp
    80001fa4:	02f863b3          	rem	t2,a6,a5
    80001fa8:	027c83b3          	mul	t2,s9,t2
    80001fac:	039dfabb          	remuw	s5,s11,s9
    80001fb0:	027c83b3          	mul	t2,s9,t2
    80001fb4:	027c83b3          	mul	t2,s9,t2
    80001fb8:	201de717          	auipc	a4,0x201de
    80001fbc:	12c80a9b          	addiw	s5,a6,300
    80001fc0:	0303f3b3          	remu	t2,t2,a6
    80001fc4:	daec3a13          	sltiu	s4,s8,-594
    80001fc8:	0097de3b          	srlw	t3,a5,s1
    80001fcc:	52af7d13          	andi	s10,t5,1322
    80001fd0:	004294bb          	sllw	s1,t0,tp
    80001fd4:	daec3a13          	sltiu	s4,s8,-594
    80001fd8:	01dc2fb3          	slt	t6,s8,t4
    80001fdc:	034bccbb          	divw	s9,s7,s4
    80001fe0:	00bd0233          	add	tp,s10,a1
    80001fe4:	03b1deb3          	divu	t4,gp,s11
    80001fe8:	c94dc837          	lui	a6,0xc94dc
    80001fec:	03b1deb3          	divu	t4,gp,s11
    80001ff0:	03e65013          	srli	zero,a2,0x3e
    80001ff4:	010a5a33          	srl	s4,s4,a6
    80001ff8:	aed68193          	addi	gp,a3,-1299
    80001ffc:	03d040b3          	div	ra,zero,t4
    80002000:	024c1113          	slli	sp,s8,0x24
    80002004:	4028d81b          	sraiw	a6,a7,0x2
    80002008:	001a9433          	sll	s0,s5,ra
    8000200c:	024d883b          	mulw	a6,s11,tp
    80002010:	4028d81b          	sraiw	a6,a7,0x2
    80002014:	01f8d41b          	srliw	s0,a7,0x1f
    80002018:	52af7d13          	andi	s10,t5,1322
    8000201c:	024d883b          	mulw	a6,s11,tp
    80002020:	0271aab3          	mulhsu	s5,gp,t2
    80002024:	020c9733          	mulh	a4,s9,zero
    80002028:	00bd0233          	add	tp,s10,a1
    8000202c:	024c1113          	slli	sp,s8,0x24
    80002030:	01aa8a3b          	addw	s4,s5,s10
    80002034:	020c9733          	mulh	a4,s9,zero
    80002038:	daec3a13          	sltiu	s4,s8,-594
    8000203c:	0168b0b3          	sltu	ra,a7,s6
    80002040:	0242ee33          	rem	t3,t0,tp
    80002044:	001a9433          	sll	s0,s5,ra
    80002048:	03d040b3          	div	ra,zero,t4
    8000204c:	4182ddb3          	sra	s11,t0,s8
    80002050:	01e06c33          	or	s8,zero,t5
    80002054:	52af7d13          	andi	s10,t5,1322
    80002058:	031b8fb3          	mul	t6,s7,a7
    8000205c:	027b6e3b          	remw	t3,s6,t2
    80002060:	01f8d41b          	srliw	s0,a7,0x1f
    80002064:	00000013          	nop
    80002068:	41b1d293          	srai	t0,gp,0x1b
    8000206c:	00000013          	nop
    80002070:	41acd23b          	sraw	tp,s9,s10
    80002074:	031b8fb3          	mul	t6,s7,a7
    80002078:	53d76393          	ori	t2,a4,1341
    8000207c:	03b1deb3          	divu	t4,gp,s11
    80002080:	0271aab3          	mulhsu	s5,gp,t2
    80002084:	031b8fb3          	mul	t6,s7,a7
    80002088:	52af7d13          	andi	s10,t5,1322
    8000208c:	01227033          	and	zero,tp,s2
    80002090:	0350f0b3          	remu	ra,ra,s5
    80002094:	03e65013          	srli	zero,a2,0x3e
    80002098:	03b1deb3          	divu	t4,gp,s11
    8000209c:	0207d83b          	divuw	a6,a5,zero
    800020a0:	daec3a13          	sltiu	s4,s8,-594
    800020a4:	0350f0b3          	remu	ra,ra,s5
    800020a8:	03143933          	mulhu	s2,s0,a7
    800020ac:	0350f0b3          	remu	ra,ra,s5
    800020b0:	001a9433          	sll	s0,s5,ra
    800020b4:	12cd059b          	addiw	a1,s10,300
    800020b8:	024c1113          	slli	sp,s8,0x24
    800020bc:	010a5a33          	srl	s4,s4,a6
    800020c0:	004294bb          	sllw	s1,t0,tp
    800020c4:	513faf93          	slti	t6,t6,1299
    800020c8:	0271aab3          	mulhsu	s5,gp,t2
    800020cc:	01f8d41b          	srliw	s0,a7,0x1f
    800020d0:	00000013          	nop
    800020d4:	52af7d13          	andi	s10,t5,1322
    800020d8:	0242ee33          	rem	t3,t0,tp
    800020dc:	0242ee33          	rem	t3,t0,tp
    800020e0:	001a9433          	sll	s0,s5,ra
    800020e4:	03d040b3          	div	ra,zero,t4
    800020e8:	00000013          	nop
    800020ec:	513faf93          	slti	t6,t6,1299
    800020f0:	513faf93          	slti	t6,t6,1299
    800020f4:	0242ee33          	rem	t3,t0,tp
    800020f8:	03b1deb3          	divu	t4,gp,s11
    800020fc:	03143933          	mulhu	s2,s0,a7
    80002100:	03143933          	mulhu	s2,s0,a7
    80002104:	004294bb          	sllw	s1,t0,tp
    80002108:	01227033          	and	zero,tp,s2
    8000210c:	024c1113          	slli	sp,s8,0x24
    80002110:	00e443b3          	xor	t2,s0,a4
    80002114:	0168b0b3          	sltu	ra,a7,s6
    80002118:	01f8d41b          	srliw	s0,a7,0x1f
    8000211c:	0207d83b          	divuw	a6,a5,zero
    80002120:	0271aab3          	mulhsu	s5,gp,t2
    80002124:	01e06c33          	or	s8,zero,t5
    80002128:	0168b0b3          	sltu	ra,a7,s6
    8000212c:	00000013          	nop
    80002130:	0207d83b          	divuw	a6,a5,zero
    80002134:	024d883b          	mulw	a6,s11,tp
    80002138:	01e06c33          	or	s8,zero,t5
    8000213c:	01aa8a3b          	addw	s4,s5,s10
    80002140:	020c9733          	mulh	a4,s9,zero
    80002144:	c94dc837          	lui	a6,0xc94dc
    80002148:	024d883b          	mulw	a6,s11,tp
    8000214c:	0168b0b3          	sltu	ra,a7,s6
    80002150:	031b8fb3          	mul	t6,s7,a7
    80002154:	001a9433          	sll	s0,s5,ra
    80002158:	01e06c33          	or	s8,zero,t5
    8000215c:	aed68193          	addi	gp,a3,-1299
    80002160:	513faf93          	slti	t6,t6,1299
    80002164:	0097de3b          	srlw	t3,a5,s1
    80002168:	02dc733b          	remuw	t1,s8,a3
    8000216c:	00bd0233          	add	tp,s10,a1
    80002170:	01e06c33          	or	s8,zero,t5
    80002174:	00e443b3          	xor	t2,s0,a4
    80002178:	41b1d293          	srai	t0,gp,0x1b
    8000217c:	418489bb          	subw	s3,s1,s8
    80002180:	031b8fb3          	mul	t6,s7,a7
    80002184:	4028d81b          	sraiw	a6,a7,0x2
    80002188:	41b1d293          	srai	t0,gp,0x1b
    8000218c:	418489bb          	subw	s3,s1,s8
    80002190:	01227033          	and	zero,tp,s2
    80002194:	020c9733          	mulh	a4,s9,zero
    80002198:	00e443b3          	xor	t2,s0,a4
    8000219c:	00000013          	nop
    800021a0:	01227033          	and	zero,tp,s2
    800021a4:	0097de3b          	srlw	t3,a5,s1
    800021a8:	c94dc837          	lui	a6,0xc94dc
    800021ac:	0350f0b3          	remu	ra,ra,s5
    800021b0:	01e06c33          	or	s8,zero,t5
    800021b4:	c94dc837          	lui	a6,0xc94dc
    800021b8:	03e65013          	srli	zero,a2,0x3e
    800021bc:	aed68193          	addi	gp,a3,-1299
    800021c0:	01227033          	and	zero,tp,s2
    800021c4:	12cd059b          	addiw	a1,s10,300
    800021c8:	00e443b3          	xor	t2,s0,a4
    800021cc:	0350f0b3          	remu	ra,ra,s5
    800021d0:	00000013          	nop
    800021d4:	03143933          	mulhu	s2,s0,a7
    800021d8:	034bccbb          	divw	s9,s7,s4
    800021dc:	0168b0b3          	sltu	ra,a7,s6
    800021e0:	0350f0b3          	remu	ra,ra,s5
    800021e4:	004294bb          	sllw	s1,t0,tp
    800021e8:	52af7d13          	andi	s10,t5,1322
    800021ec:	41acd23b          	sraw	tp,s9,s10
    800021f0:	01e06c33          	or	s8,zero,t5
    800021f4:	4028d81b          	sraiw	a6,a7,0x2
    800021f8:	41b1d293          	srai	t0,gp,0x1b
    800021fc:	020c9733          	mulh	a4,s9,zero
    80002200:	c94dc837          	lui	a6,0xc94dc
    80002204:	0271aab3          	mulhsu	s5,gp,t2
    80002208:	034bccbb          	divw	s9,s7,s4
    8000220c:	12cd059b          	addiw	a1,s10,300
    80002210:	03b1deb3          	divu	t4,gp,s11
    80002214:	00e443b3          	xor	t2,s0,a4
    80002218:	020c9733          	mulh	a4,s9,zero
    8000221c:	4028d81b          	sraiw	a6,a7,0x2
    80002220:	40db0e33          	sub	t3,s6,a3
    80002224:	00000013          	nop
    80002228:	513faf93          	slti	t6,t6,1299
    8000222c:	020c9733          	mulh	a4,s9,zero
    80002230:	aed68193          	addi	gp,a3,-1299
    80002234:	01f8d41b          	srliw	s0,a7,0x1f
    80002238:	c94dc837          	lui	a6,0xc94dc
    8000223c:	00c59d9b          	slliw	s11,a1,0xc
    80002240:	40db0e33          	sub	t3,s6,a3
    80002244:	034bccbb          	divw	s9,s7,s4
    80002248:	41acd23b          	sraw	tp,s9,s10
    8000224c:	00c59d9b          	slliw	s11,a1,0xc
    80002250:	0350f0b3          	remu	ra,ra,s5
    80002254:	aed68193          	addi	gp,a3,-1299
    80002258:	513faf93          	slti	t6,t6,1299
    8000225c:	00bd0233          	add	tp,s10,a1
    80002260:	201de597          	auipc	a1,0x201de
    80002264:	41b1d293          	srai	t0,gp,0x1b
    80002268:	52af7d13          	andi	s10,t5,1322
    8000226c:	4028d81b          	sraiw	a6,a7,0x2
    80002270:	40db0e33          	sub	t3,s6,a3
    80002274:	52af7d13          	andi	s10,t5,1322
    80002278:	03e65013          	srli	zero,a2,0x3e
    8000227c:	024c1113          	slli	sp,s8,0x24
    80002280:	0242ee33          	rem	t3,t0,tp
    80002284:	9e8ec093          	xori	ra,t4,-1560
    80002288:	aed68193          	addi	gp,a3,-1299
    8000228c:	00c59d9b          	slliw	s11,a1,0xc
    80002290:	03b1deb3          	divu	t4,gp,s11
    80002294:	53d76393          	ori	t2,a4,1341
    80002298:	41b1d293          	srai	t0,gp,0x1b
    8000229c:	513faf93          	slti	t6,t6,1299
    800022a0:	01227033          	and	zero,tp,s2
    800022a4:	01dc2fb3          	slt	t6,s8,t4
    800022a8:	00bd0233          	add	tp,s10,a1
    800022ac:	00e443b3          	xor	t2,s0,a4
    800022b0:	40db0e33          	sub	t3,s6,a3
    800022b4:	024d883b          	mulw	a6,s11,tp
    800022b8:	daec3a13          	sltiu	s4,s8,-594
    800022bc:	4028d81b          	sraiw	a6,a7,0x2
    800022c0:	0271aab3          	mulhsu	s5,gp,t2
    800022c4:	418489bb          	subw	s3,s1,s8
    800022c8:	03143933          	mulhu	s2,s0,a7
    800022cc:	020c9733          	mulh	a4,s9,zero
    800022d0:	0350f0b3          	remu	ra,ra,s5
    800022d4:	41b1d293          	srai	t0,gp,0x1b
    800022d8:	201de597          	auipc	a1,0x201de
    800022dc:	aed68193          	addi	gp,a3,-1299
    800022e0:	031b8fb3          	mul	t6,s7,a7
    800022e4:	031b8fb3          	mul	t6,s7,a7
    800022e8:	00bd0233          	add	tp,s10,a1
    800022ec:	201de597          	auipc	a1,0x201de
    800022f0:	001a9433          	sll	s0,s5,ra
    800022f4:	010a5a33          	srl	s4,s4,a6
    800022f8:	02dc733b          	remuw	t1,s8,a3
    800022fc:	01f8d41b          	srliw	s0,a7,0x1f
    80002300:	03e65013          	srli	zero,a2,0x3e
    80002304:	52af7d13          	andi	s10,t5,1322
    80002308:	418489bb          	subw	s3,s1,s8
    8000230c:	53d76393          	ori	t2,a4,1341
    80002310:	01dc2fb3          	slt	t6,s8,t4
    80002314:	0168b0b3          	sltu	ra,a7,s6
    80002318:	034bccbb          	divw	s9,s7,s4
    8000231c:	0168b0b3          	sltu	ra,a7,s6
    80002320:	53d76393          	ori	t2,a4,1341
    80002324:	c94dc837          	lui	a6,0xc94dc
    80002328:	daec3a13          	sltiu	s4,s8,-594
    8000232c:	201de597          	auipc	a1,0x201de
    80002330:	41acd23b          	sraw	tp,s9,s10
    80002334:	9e8ec093          	xori	ra,t4,-1560
    80002338:	024c1113          	slli	sp,s8,0x24
    8000233c:	0242ee33          	rem	t3,t0,tp
    80002340:	9e8ec093          	xori	ra,t4,-1560
    80002344:	0242ee33          	rem	t3,t0,tp
    80002348:	02dc733b          	remuw	t1,s8,a3
    8000234c:	513faf93          	slti	t6,t6,1299
    80002350:	aed68193          	addi	gp,a3,-1299
    80002354:	024d883b          	mulw	a6,s11,tp
    80002358:	9e8ec093          	xori	ra,t4,-1560
    8000235c:	004294bb          	sllw	s1,t0,tp
    80002360:	024c1113          	slli	sp,s8,0x24
    80002364:	4182ddb3          	sra	s11,t0,s8
    80002368:	03b1deb3          	divu	t4,gp,s11
    8000236c:	020c9733          	mulh	a4,s9,zero
    80002370:	0207d83b          	divuw	a6,a5,zero
    80002374:	40db0e33          	sub	t3,s6,a3
    80002378:	01dc2fb3          	slt	t6,s8,t4
    8000237c:	02dc733b          	remuw	t1,s8,a3
    80002380:	027b6e3b          	remw	t3,s6,t2
    80002384:	00e443b3          	xor	t2,s0,a4
    80002388:	03143933          	mulhu	s2,s0,a7
    8000238c:	03d040b3          	div	ra,zero,t4
    80002390:	41b1d293          	srai	t0,gp,0x1b
    80002394:	41b1d293          	srai	t0,gp,0x1b
    80002398:	020c9733          	mulh	a4,s9,zero
    8000239c:	004294bb          	sllw	s1,t0,tp
    800023a0:	031b8fb3          	mul	t6,s7,a7
    800023a4:	aed68193          	addi	gp,a3,-1299
    800023a8:	00c59d9b          	slliw	s11,a1,0xc
    800023ac:	12cd059b          	addiw	a1,s10,300
    800023b0:	03b1deb3          	divu	t4,gp,s11
    800023b4:	12cd059b          	addiw	a1,s10,300
    800023b8:	0242ee33          	rem	t3,t0,tp
    800023bc:	01f8d41b          	srliw	s0,a7,0x1f
    800023c0:	4028d81b          	sraiw	a6,a7,0x2
    800023c4:	034bccbb          	divw	s9,s7,s4
    800023c8:	0207d83b          	divuw	a6,a5,zero
    800023cc:	027b6e3b          	remw	t3,s6,t2
    800023d0:	41b1d293          	srai	t0,gp,0x1b
    800023d4:	034bccbb          	divw	s9,s7,s4
    800023d8:	418489bb          	subw	s3,s1,s8
    800023dc:	01227033          	and	zero,tp,s2
    800023e0:	00e443b3          	xor	t2,s0,a4
    800023e4:	001a9433          	sll	s0,s5,ra
    800023e8:	0207d83b          	divuw	a6,a5,zero
    800023ec:	40db0e33          	sub	t3,s6,a3
    800023f0:	53d76393          	ori	t2,a4,1341
    800023f4:	00e443b3          	xor	t2,s0,a4
    800023f8:	41acd23b          	sraw	tp,s9,s10
    800023fc:	01f8d41b          	srliw	s0,a7,0x1f
    80002400:	53d76393          	ori	t2,a4,1341
    80002404:	004294bb          	sllw	s1,t0,tp
    80002408:	01e06c33          	or	s8,zero,t5
    8000240c:	0350f0b3          	remu	ra,ra,s5
    80002410:	12cd059b          	addiw	a1,s10,300
    80002414:	02dc733b          	remuw	t1,s8,a3
    80002418:	024d883b          	mulw	a6,s11,tp
    8000241c:	c94dc837          	lui	a6,0xc94dc
    80002420:	03143933          	mulhu	s2,s0,a7
    80002424:	52af7d13          	andi	s10,t5,1322
    80002428:	034bccbb          	divw	s9,s7,s4
    8000242c:	0242ee33          	rem	t3,t0,tp
    80002430:	513faf93          	slti	t6,t6,1299
    80002434:	4028d81b          	sraiw	a6,a7,0x2
    80002438:	024d883b          	mulw	a6,s11,tp
    8000243c:	0207d83b          	divuw	a6,a5,zero
    80002440:	daec3a13          	sltiu	s4,s8,-594
    80002444:	03b1deb3          	divu	t4,gp,s11
    80002448:	12cd059b          	addiw	a1,s10,300
    8000244c:	41acd23b          	sraw	tp,s9,s10
    80002450:	020c9733          	mulh	a4,s9,zero
    80002454:	00c59d9b          	slliw	s11,a1,0xc
    80002458:	4028d81b          	sraiw	a6,a7,0x2
    8000245c:	4182ddb3          	sra	s11,t0,s8
    80002460:	4028d81b          	sraiw	a6,a7,0x2
    80002464:	03e65013          	srli	zero,a2,0x3e
    80002468:	daec3a13          	sltiu	s4,s8,-594
    8000246c:	01aa8a3b          	addw	s4,s5,s10
    80002470:	daec3a13          	sltiu	s4,s8,-594
    80002474:	41b1d293          	srai	t0,gp,0x1b
    80002478:	0350f0b3          	remu	ra,ra,s5
    8000247c:	0097de3b          	srlw	t3,a5,s1
    80002480:	0242ee33          	rem	t3,t0,tp
    80002484:	01aa8a3b          	addw	s4,s5,s10
    80002488:	0242ee33          	rem	t3,t0,tp
    8000248c:	0271aab3          	mulhsu	s5,gp,t2
    80002490:	01dc2fb3          	slt	t6,s8,t4
    80002494:	03d040b3          	div	ra,zero,t4
    80002498:	00bd0233          	add	tp,s10,a1
    8000249c:	41acd23b          	sraw	tp,s9,s10
    800024a0:	03d040b3          	div	ra,zero,t4
    800024a4:	03e65013          	srli	zero,a2,0x3e
    800024a8:	024c1113          	slli	sp,s8,0x24
    800024ac:	c94dc837          	lui	a6,0xc94dc
    800024b0:	024c1113          	slli	sp,s8,0x24
    800024b4:	9e8ec093          	xori	ra,t4,-1560
    800024b8:	02dc733b          	remuw	t1,s8,a3
    800024bc:	001a9433          	sll	s0,s5,ra
    800024c0:	4028d81b          	sraiw	a6,a7,0x2
    800024c4:	024d883b          	mulw	a6,s11,tp
    800024c8:	c94dc837          	lui	a6,0xc94dc
    800024cc:	41b1d293          	srai	t0,gp,0x1b
    800024d0:	4182ddb3          	sra	s11,t0,s8
    800024d4:	024d883b          	mulw	a6,s11,tp
    800024d8:	01e06c33          	or	s8,zero,t5
    800024dc:	03b1deb3          	divu	t4,gp,s11
    800024e0:	01227033          	and	zero,tp,s2
    800024e4:	00e443b3          	xor	t2,s0,a4
    800024e8:	513faf93          	slti	t6,t6,1299
    800024ec:	0242ee33          	rem	t3,t0,tp
    800024f0:	41acd23b          	sraw	tp,s9,s10
    800024f4:	03e65013          	srli	zero,a2,0x3e
    800024f8:	53d76393          	ori	t2,a4,1341
    800024fc:	01227033          	and	zero,tp,s2
    80002500:	201de597          	auipc	a1,0x201de
    80002504:	01aa8a3b          	addw	s4,s5,s10
    80002508:	024c1113          	slli	sp,s8,0x24
    8000250c:	001a9433          	sll	s0,s5,ra
    80002510:	12cd059b          	addiw	a1,s10,300
    80002514:	01dc2fb3          	slt	t6,s8,t4
    80002518:	034bccbb          	divw	s9,s7,s4
    8000251c:	004294bb          	sllw	s1,t0,tp
    80002520:	00000013          	nop
    80002524:	0207d83b          	divuw	a6,a5,zero
    80002528:	41b1d293          	srai	t0,gp,0x1b
    8000252c:	027b6e3b          	remw	t3,s6,t2
    80002530:	004294bb          	sllw	s1,t0,tp
    80002534:	00e443b3          	xor	t2,s0,a4
    80002538:	03143933          	mulhu	s2,s0,a7
    8000253c:	03e65013          	srli	zero,a2,0x3e
    80002540:	01f8d41b          	srliw	s0,a7,0x1f
    80002544:	00bd0233          	add	tp,s10,a1
    80002548:	9e8ec093          	xori	ra,t4,-1560
    8000254c:	0097de3b          	srlw	t3,a5,s1
    80002550:	00e443b3          	xor	t2,s0,a4
    80002554:	513faf93          	slti	t6,t6,1299
    80002558:	024d883b          	mulw	a6,s11,tp
    8000255c:	40db0e33          	sub	t3,s6,a3
    80002560:	03b1deb3          	divu	t4,gp,s11
    80002564:	01e06c33          	or	s8,zero,t5
    80002568:	41acd23b          	sraw	tp,s9,s10
    8000256c:	00e443b3          	xor	t2,s0,a4
    80002570:	001a9433          	sll	s0,s5,ra
    80002574:	03d040b3          	div	ra,zero,t4
    80002578:	027b6e3b          	remw	t3,s6,t2
    8000257c:	0097de3b          	srlw	t3,a5,s1
    80002580:	0168b0b3          	sltu	ra,a7,s6
    80002584:	020c9733          	mulh	a4,s9,zero
    80002588:	40db0e33          	sub	t3,s6,a3
    8000258c:	418489bb          	subw	s3,s1,s8
    80002590:	00bd0233          	add	tp,s10,a1
    80002594:	4028d81b          	sraiw	a6,a7,0x2
    80002598:	024d883b          	mulw	a6,s11,tp
    8000259c:	00000013          	nop
    800025a0:	513faf93          	slti	t6,t6,1299
    800025a4:	004294bb          	sllw	s1,t0,tp
    800025a8:	418489bb          	subw	s3,s1,s8
    800025ac:	024c1113          	slli	sp,s8,0x24
    800025b0:	9e8ec093          	xori	ra,t4,-1560
    800025b4:	0350f0b3          	remu	ra,ra,s5
    800025b8:	12cd059b          	addiw	a1,s10,300
    800025bc:	01dc2fb3          	slt	t6,s8,t4
    800025c0:	53d76393          	ori	t2,a4,1341
    800025c4:	0097de3b          	srlw	t3,a5,s1
    800025c8:	010a5a33          	srl	s4,s4,a6
    800025cc:	0271aab3          	mulhsu	s5,gp,t2
    800025d0:	004294bb          	sllw	s1,t0,tp
    800025d4:	001a9433          	sll	s0,s5,ra
    800025d8:	01227033          	and	zero,tp,s2
    800025dc:	4028d81b          	sraiw	a6,a7,0x2
    800025e0:	52af7d13          	andi	s10,t5,1322
    800025e4:	03b1deb3          	divu	t4,gp,s11
    800025e8:	daec3a13          	sltiu	s4,s8,-594
    800025ec:	12cd059b          	addiw	a1,s10,300
    800025f0:	201de597          	auipc	a1,0x201de
    800025f4:	40db0e33          	sub	t3,s6,a3
    800025f8:	031b8fb3          	mul	t6,s7,a7
    800025fc:	020c9733          	mulh	a4,s9,zero
    80002600:	40db0e33          	sub	t3,s6,a3
    80002604:	02dc733b          	remuw	t1,s8,a3
    80002608:	020c9733          	mulh	a4,s9,zero
    8000260c:	024d883b          	mulw	a6,s11,tp
    80002610:	53d76393          	ori	t2,a4,1341
    80002614:	03143933          	mulhu	s2,s0,a7
    80002618:	52af7d13          	andi	s10,t5,1322
    8000261c:	01aa8a3b          	addw	s4,s5,s10
    80002620:	031b8fb3          	mul	t6,s7,a7
    80002624:	031b8fb3          	mul	t6,s7,a7
    80002628:	01227033          	and	zero,tp,s2
    8000262c:	01dc2fb3          	slt	t6,s8,t4
    80002630:	40db0e33          	sub	t3,s6,a3
    80002634:	0097de3b          	srlw	t3,a5,s1
    80002638:	03e65013          	srli	zero,a2,0x3e
    8000263c:	00e443b3          	xor	t2,s0,a4
    80002640:	513faf93          	slti	t6,t6,1299
    80002644:	513faf93          	slti	t6,t6,1299
    80002648:	01e06c33          	or	s8,zero,t5
    8000264c:	40db0e33          	sub	t3,s6,a3
    80002650:	00e443b3          	xor	t2,s0,a4
    80002654:	024c1113          	slli	sp,s8,0x24
    80002658:	03d040b3          	div	ra,zero,t4
    8000265c:	01227033          	and	zero,tp,s2
    80002660:	034bccbb          	divw	s9,s7,s4
    80002664:	513faf93          	slti	t6,t6,1299
    80002668:	c94dc837          	lui	a6,0xc94dc
    8000266c:	03e65013          	srli	zero,a2,0x3e
    80002670:	001a9433          	sll	s0,s5,ra
    80002674:	00c59d9b          	slliw	s11,a1,0xc
    80002678:	027b6e3b          	remw	t3,s6,t2
    8000267c:	01e06c33          	or	s8,zero,t5
    80002680:	41acd23b          	sraw	tp,s9,s10
    80002684:	00bd0233          	add	tp,s10,a1
    80002688:	4182ddb3          	sra	s11,t0,s8
    8000268c:	027b6e3b          	remw	t3,s6,t2
    80002690:	0242ee33          	rem	t3,t0,tp
    80002694:	00e443b3          	xor	t2,s0,a4
    80002698:	513faf93          	slti	t6,t6,1299
    8000269c:	aed68193          	addi	gp,a3,-1299
    800026a0:	aed68193          	addi	gp,a3,-1299
    800026a4:	0271aab3          	mulhsu	s5,gp,t2
    800026a8:	00bd0233          	add	tp,s10,a1
    800026ac:	41acd23b          	sraw	tp,s9,s10
    800026b0:	52af7d13          	andi	s10,t5,1322
    800026b4:	4182ddb3          	sra	s11,t0,s8
    800026b8:	418489bb          	subw	s3,s1,s8
    800026bc:	03143933          	mulhu	s2,s0,a7
    800026c0:	0168b0b3          	sltu	ra,a7,s6
    800026c4:	4028d81b          	sraiw	a6,a7,0x2
    800026c8:	00e443b3          	xor	t2,s0,a4
    800026cc:	0207d83b          	divuw	a6,a5,zero
    800026d0:	52af7d13          	andi	s10,t5,1322
    800026d4:	0271aab3          	mulhsu	s5,gp,t2
    800026d8:	0207d83b          	divuw	a6,a5,zero
    800026dc:	004294bb          	sllw	s1,t0,tp
    800026e0:	031b8fb3          	mul	t6,s7,a7
    800026e4:	03d040b3          	div	ra,zero,t4
    800026e8:	00bd0233          	add	tp,s10,a1
    800026ec:	0271aab3          	mulhsu	s5,gp,t2
    800026f0:	004294bb          	sllw	s1,t0,tp
    800026f4:	aed68193          	addi	gp,a3,-1299
    800026f8:	02dc733b          	remuw	t1,s8,a3
    800026fc:	0271aab3          	mulhsu	s5,gp,t2
    80002700:	024d883b          	mulw	a6,s11,tp
    80002704:	53d76393          	ori	t2,a4,1341
    80002708:	03e65013          	srli	zero,a2,0x3e
    8000270c:	03143933          	mulhu	s2,s0,a7
    80002710:	03143933          	mulhu	s2,s0,a7
    80002714:	0350f0b3          	remu	ra,ra,s5
    80002718:	0271aab3          	mulhsu	s5,gp,t2
    8000271c:	02dc733b          	remuw	t1,s8,a3
    80002720:	03d040b3          	div	ra,zero,t4
    80002724:	00e443b3          	xor	t2,s0,a4
    80002728:	c94dc837          	lui	a6,0xc94dc
    8000272c:	201de597          	auipc	a1,0x201de
    80002730:	00c59d9b          	slliw	s11,a1,0xc
    80002734:	01f8d41b          	srliw	s0,a7,0x1f
    80002738:	12cd059b          	addiw	a1,s10,300
    8000273c:	12cd059b          	addiw	a1,s10,300
    80002740:	01e06c33          	or	s8,zero,t5
    80002744:	aed68193          	addi	gp,a3,-1299
    80002748:	4028d81b          	sraiw	a6,a7,0x2
    8000274c:	52af7d13          	andi	s10,t5,1322
    80002750:	02dc733b          	remuw	t1,s8,a3
    80002754:	41b1d293          	srai	t0,gp,0x1b
    80002758:	034bccbb          	divw	s9,s7,s4
    8000275c:	01f8d41b          	srliw	s0,a7,0x1f
    80002760:	0271aab3          	mulhsu	s5,gp,t2
    80002764:	00000013          	nop
    80002768:	00e443b3          	xor	t2,s0,a4
    8000276c:	513faf93          	slti	t6,t6,1299
    80002770:	03143933          	mulhu	s2,s0,a7
    80002774:	01227033          	and	zero,tp,s2
    80002778:	034bccbb          	divw	s9,s7,s4
    8000277c:	53d76393          	ori	t2,a4,1341
    80002780:	0242ee33          	rem	t3,t0,tp
    80002784:	024d883b          	mulw	a6,s11,tp
    80002788:	027b6e3b          	remw	t3,s6,t2
    8000278c:	41acd23b          	sraw	tp,s9,s10
    80002790:	9e8ec093          	xori	ra,t4,-1560
    80002794:	01e06c33          	or	s8,zero,t5
    80002798:	00000013          	nop
    8000279c:	201de597          	auipc	a1,0x201de
    800027a0:	00bd0233          	add	tp,s10,a1
    800027a4:	031b8fb3          	mul	t6,s7,a7
    800027a8:	4182ddb3          	sra	s11,t0,s8
    800027ac:	52af7d13          	andi	s10,t5,1322
    800027b0:	01dc2fb3          	slt	t6,s8,t4
    800027b4:	01f8d41b          	srliw	s0,a7,0x1f
    800027b8:	4028d81b          	sraiw	a6,a7,0x2
    800027bc:	513faf93          	slti	t6,t6,1299
    800027c0:	004294bb          	sllw	s1,t0,tp
    800027c4:	4028d81b          	sraiw	a6,a7,0x2
    800027c8:	01aa8a3b          	addw	s4,s5,s10
    800027cc:	53d76393          	ori	t2,a4,1341
    800027d0:	0207d83b          	divuw	a6,a5,zero
    800027d4:	03143933          	mulhu	s2,s0,a7
    800027d8:	031b8fb3          	mul	t6,s7,a7
    800027dc:	0271aab3          	mulhsu	s5,gp,t2
    800027e0:	0350f0b3          	remu	ra,ra,s5
    800027e4:	03b1deb3          	divu	t4,gp,s11
    800027e8:	024c1113          	slli	sp,s8,0x24
    800027ec:	03d040b3          	div	ra,zero,t4
    800027f0:	024c1113          	slli	sp,s8,0x24
    800027f4:	001a9433          	sll	s0,s5,ra
    800027f8:	001a9433          	sll	s0,s5,ra
    800027fc:	41acd23b          	sraw	tp,s9,s10
    80002800:	03143933          	mulhu	s2,s0,a7
    80002804:	004294bb          	sllw	s1,t0,tp
    80002808:	024c1113          	slli	sp,s8,0x24
    8000280c:	01e06c33          	or	s8,zero,t5
    80002810:	0168b0b3          	sltu	ra,a7,s6
    80002814:	00c59d9b          	slliw	s11,a1,0xc
    80002818:	513faf93          	slti	t6,t6,1299
    8000281c:	fff00613          	li	a2,-1
    80002820:	01f6afb7          	lui	t6,0x1f6a
    80002824:	455f8f9b          	addiw	t6,t6,1109 # 1f6a455 <_start-0x7e095bab>
    80002828:	00cf9f93          	slli	t6,t6,0xc
    8000282c:	d0bf8f93          	addi	t6,t6,-757
    80002830:	00df9f93          	slli	t6,t6,0xd
    80002834:	af1f8f93          	addi	t6,t6,-1295
    80002838:	00cf9f93          	slli	t6,t6,0xc
    8000283c:	a66f8f93          	addi	t6,t6,-1434
    80002840:	fff00d93          	li	s11,-1
    80002844:	fff0041b          	addiw	s0,zero,-1
    80002848:	03f41413          	slli	s0,s0,0x3f
    8000284c:	00000213          	li	tp,0
    80002850:	ffe8dd37          	lui	s10,0xffe8d
    80002854:	775d0d1b          	addiw	s10,s10,1909 # ffffffffffe8d775 <_end+0xffffffff7fe6eded>
    80002858:	00dd1d13          	slli	s10,s10,0xd
    8000285c:	035d0d13          	addi	s10,s10,53
    80002860:	00cd1d13          	slli	s10,s10,0xc
    80002864:	14dd0d13          	addi	s10,s10,333
    80002868:	011d1d13          	slli	s10,s10,0x11
    8000286c:	d9ed0d13          	addi	s10,s10,-610
    80002870:	fff24eb7          	lui	t4,0xfff24
    80002874:	061e8e9b          	addiw	t4,t4,97 # fffffffffff24061 <_end+0xffffffff7ff056d9>
    80002878:	012e9e93          	slli	t4,t4,0x12
    8000287c:	4e7e8e93          	addi	t4,t4,1255
    80002880:	00ce9e93          	slli	t4,t4,0xc
    80002884:	cd3e8e93          	addi	t4,t4,-813
    80002888:	00ce9e93          	slli	t4,t4,0xc
    8000288c:	5f4e8e93          	addi	t4,t4,1524
    80002890:	00000793          	li	a5,0
    80002894:	fff00e13          	li	t3,-1
    80002898:	fff00093          	li	ra,-1
    8000289c:	201de617          	auipc	a2,0x201de
    800028a0:	02fe4e3b          	divw	t3,t3,a5
    800028a4:	c94dc0b7          	lui	ra,0xc94dc
    800028a8:	02f200bb          	mulw	ra,tp,a5
    800028ac:	41df843b          	subw	s0,t6,t4
    800028b0:	021f9633          	mulh	a2,t6,ra
    800028b4:	03cded3b          	remw	s10,s11,t3
    800028b8:	03a27233          	remu	tp,tp,s10
    800028bc:	aed78613          	addi	a2,a5,-1299
    800028c0:	01d407b3          	add	a5,s0,t4
    800028c4:	c94dc0b7          	lui	ra,0xc94dc
    800028c8:	02fe4e3b          	divw	t3,t3,a5
    800028cc:	201de617          	auipc	a2,0x201de
    800028d0:	41df843b          	subw	s0,t6,t4
    800028d4:	02fe4e3b          	divw	t3,t3,a5
    800028d8:	02fd6233          	rem	tp,s10,a5
    800028dc:	03c627b3          	mulhsu	a5,a2,t3
    800028e0:	03cded3b          	remw	s10,s11,t3
    800028e4:	12cd0d9b          	addiw	s11,s10,300
    800028e8:	024e0233          	mul	tp,t3,tp
    800028ec:	021650bb          	divuw	ra,a2,ra
    800028f0:	021650bb          	divuw	ra,a2,ra
    800028f4:	02fe4e3b          	divw	t3,t3,a5
    800028f8:	021650bb          	divuw	ra,a2,ra
    800028fc:	03e65013          	srli	zero,a2,0x3e
    80002900:	4182ddb3          	sra	s11,t0,s8
    80002904:	03e65013          	srli	zero,a2,0x3e
    80002908:	418489bb          	subw	s3,s1,s8
    8000290c:	00000013          	nop
    80002910:	034bccbb          	divw	s9,s7,s4
    80002914:	03e65013          	srli	zero,a2,0x3e
    80002918:	0271aab3          	mulhsu	s5,gp,t2
    8000291c:	52af7d13          	andi	s10,t5,1322
    80002920:	0168b0b3          	sltu	ra,a7,s6
    80002924:	0271aab3          	mulhsu	s5,gp,t2
    80002928:	03b1deb3          	divu	t4,gp,s11
    8000292c:	53d76393          	ori	t2,a4,1341
    80002930:	00bd0233          	add	tp,s10,a1
    80002934:	0242ee33          	rem	t3,t0,tp
    80002938:	020c9733          	mulh	a4,s9,zero
    8000293c:	4028d81b          	sraiw	a6,a7,0x2
    80002940:	00bd0233          	add	tp,s10,a1
    80002944:	01aa8a3b          	addw	s4,s5,s10
    80002948:	00e443b3          	xor	t2,s0,a4
    8000294c:	001a9433          	sll	s0,s5,ra
    80002950:	9e8ec093          	xori	ra,t4,-1560
    80002954:	03d040b3          	div	ra,zero,t4
    80002958:	c94dc837          	lui	a6,0xc94dc
    8000295c:	fff00e9b          	addiw	t4,zero,-1
    80002960:	03fe9e93          	slli	t4,t4,0x3f
    80002964:	fffd5e37          	lui	t3,0xfffd5
    80002968:	ac7e0e1b          	addiw	t3,t3,-1337 # fffffffffffd4ac7 <_end+0xffffffff7ffb613f>
    8000296c:	00ee1e13          	slli	t3,t3,0xe
    80002970:	5cde0e13          	addi	t3,t3,1485
    80002974:	00ce1e13          	slli	t3,t3,0xc
    80002978:	b65e0e13          	addi	t3,t3,-1179
    8000297c:	012e1e13          	slli	t3,t3,0x12
    80002980:	625e0e13          	addi	t3,t3,1573
    80002984:	0131c7b7          	lui	a5,0x131c
    80002988:	c997879b          	addiw	a5,a5,-871 # 131bc99 <_start-0x7ece4367>
    8000298c:	00c79793          	slli	a5,a5,0xc
    80002990:	7cf78793          	addi	a5,a5,1999
    80002994:	00d79793          	slli	a5,a5,0xd
    80002998:	42178793          	addi	a5,a5,1057
    8000299c:	00d79793          	slli	a5,a5,0xd
    800029a0:	3c678793          	addi	a5,a5,966
    800029a4:	fff0041b          	addiw	s0,zero,-1
    800029a8:	03f41413          	slli	s0,s0,0x3f
    800029ac:	fff00a93          	li	s5,-1
    800029b0:	ffed6137          	lui	sp,0xffed6
    800029b4:	f4d1011b          	addiw	sp,sp,-179 # ffffffffffed5f4d <_end+0xffffffff7feb75c5>
    800029b8:	00c11113          	slli	sp,sp,0xc
    800029bc:	bff10113          	addi	sp,sp,-1025
    800029c0:	00e11113          	slli	sp,sp,0xe
    800029c4:	42b10113          	addi	sp,sp,1067
    800029c8:	01011113          	slli	sp,sp,0x10
    800029cc:	c5f10113          	addi	sp,sp,-929
    800029d0:	fff0069b          	addiw	a3,zero,-1
    800029d4:	03f69693          	slli	a3,a3,0x3f
    800029d8:	ffe15337          	lui	t1,0xffe15
    800029dc:	6a53031b          	addiw	t1,t1,1701 # ffffffffffe156a5 <_end+0xffffffff7fdf6d1d>
    800029e0:	00d31313          	slli	t1,t1,0xd
    800029e4:	8d730313          	addi	t1,t1,-1833
    800029e8:	00e31313          	slli	t1,t1,0xe
    800029ec:	2f130313          	addi	t1,t1,753
    800029f0:	00f31313          	slli	t1,t1,0xf
    800029f4:	3d530313          	addi	t1,t1,981
    800029f8:	fff00213          	li	tp,-1
    800029fc:	1de373b7          	lui	t2,0x1de37
    80002a00:	67b3839b          	addiw	t2,t2,1659 # 1de3767b <_start-0x621c8985>
    80002a04:	00d39393          	slli	t2,t2,0xd
    80002a08:	e1d38393          	addi	t2,t2,-483
    80002a0c:	01439393          	slli	t2,t2,0x14
    80002a10:	b2c38393          	addi	t2,t2,-1236
    80002a14:	0353a433          	mulhsu	s0,t2,s5
    80002a18:	0282013b          	mulw	sp,tp,s0
    80002a1c:	201de397          	auipc	t2,0x201de
    80002a20:	40478e33          	sub	t3,a5,tp
    80002a24:	022e93b3          	mulh	t2,t4,sp
    80002a28:	0357e6bb          	remw	a3,a5,s5
    80002a2c:	03c3d133          	divu	sp,t2,t3
    80002a30:	024e3233          	mulhu	tp,t3,tp
    80002a34:	03c3d133          	divu	sp,t2,t3
    80002a38:	0282013b          	mulw	sp,tp,s0
    80002a3c:	c94dc137          	lui	sp,0xc94dc
    80002a40:	0353a433          	mulhsu	s0,t2,s5
    80002a44:	0282013b          	mulw	sp,tp,s0
    80002a48:	022e93b3          	mulh	t2,t4,sp
    80002a4c:	201de397          	auipc	t2,0x201de
    80002a50:	024a8233          	mul	tp,s5,tp
    80002a54:	40478e33          	sub	t3,a5,tp
    80002a58:	004683bb          	addw	t2,a3,tp
    80002a5c:	01c30433          	add	s0,t1,t3
    80002a60:	02214233          	div	tp,sp,sp
    80002a64:	0286e233          	rem	tp,a3,s0
    80002a68:	201de397          	auipc	t2,0x201de
    80002a6c:	aed40393          	addi	t2,s0,-1299
    80002a70:	c94dc137          	lui	sp,0xc94dc
    80002a74:	010a5a33          	srl	s4,s4,a6
    80002a78:	00e443b3          	xor	t2,s0,a4
    80002a7c:	12cd059b          	addiw	a1,s10,300
    80002a80:	c94dc837          	lui	a6,0xc94dc
    80002a84:	00e443b3          	xor	t2,s0,a4
    80002a88:	01aa8a3b          	addw	s4,s5,s10
    80002a8c:	010a5a33          	srl	s4,s4,a6
    80002a90:	03b1deb3          	divu	t4,gp,s11
    80002a94:	4028d81b          	sraiw	a6,a7,0x2
    80002a98:	01e06c33          	or	s8,zero,t5
    80002a9c:	027b6e3b          	remw	t3,s6,t2
    80002aa0:	0207d83b          	divuw	a6,a5,zero
    80002aa4:	024c1113          	slli	sp,s8,0x24
    80002aa8:	aed68193          	addi	gp,a3,-1299
    80002aac:	01f8d41b          	srliw	s0,a7,0x1f
    80002ab0:	02dc733b          	remuw	t1,s8,a3
    80002ab4:	00000013          	nop
    80002ab8:	01227033          	and	zero,tp,s2
    80002abc:	010a5a33          	srl	s4,s4,a6
    80002ac0:	53d76393          	ori	t2,a4,1341
    80002ac4:	00bd0233          	add	tp,s10,a1
    80002ac8:	024c1113          	slli	sp,s8,0x24
    80002acc:	010a5a33          	srl	s4,s4,a6
    80002ad0:	201de597          	auipc	a1,0x201de
    80002ad4:	024d883b          	mulw	a6,s11,tp
    80002ad8:	001a9433          	sll	s0,s5,ra
    80002adc:	004294bb          	sllw	s1,t0,tp
    80002ae0:	03e65013          	srli	zero,a2,0x3e
    80002ae4:	020c9733          	mulh	a4,s9,zero
    80002ae8:	01227033          	and	zero,tp,s2
    80002aec:	004294bb          	sllw	s1,t0,tp
    80002af0:	004294bb          	sllw	s1,t0,tp
    80002af4:	0207d83b          	divuw	a6,a5,zero
    80002af8:	0242ee33          	rem	t3,t0,tp
    80002afc:	c94dc837          	lui	a6,0xc94dc
    80002b00:	0242ee33          	rem	t3,t0,tp
    80002b04:	020c9733          	mulh	a4,s9,zero
    80002b08:	001a9433          	sll	s0,s5,ra
    80002b0c:	020c9733          	mulh	a4,s9,zero
    80002b10:	03e65013          	srli	zero,a2,0x3e
    80002b14:	0350f0b3          	remu	ra,ra,s5
    80002b18:	03b1deb3          	divu	t4,gp,s11
    80002b1c:	01aa8a3b          	addw	s4,s5,s10
    80002b20:	00c59d9b          	slliw	s11,a1,0xc
    80002b24:	034bccbb          	divw	s9,s7,s4
    80002b28:	daec3a13          	sltiu	s4,s8,-594
    80002b2c:	00bd0233          	add	tp,s10,a1
    80002b30:	024c1113          	slli	sp,s8,0x24
    80002b34:	00c59d9b          	slliw	s11,a1,0xc
    80002b38:	201de597          	auipc	a1,0x201de
    80002b3c:	03b1deb3          	divu	t4,gp,s11
    80002b40:	41b1d293          	srai	t0,gp,0x1b
    80002b44:	0271aab3          	mulhsu	s5,gp,t2
    80002b48:	03143933          	mulhu	s2,s0,a7
    80002b4c:	0350f0b3          	remu	ra,ra,s5
    80002b50:	0168b0b3          	sltu	ra,a7,s6
    80002b54:	4028d81b          	sraiw	a6,a7,0x2
    80002b58:	aed68193          	addi	gp,a3,-1299
    80002b5c:	01aa8a3b          	addw	s4,s5,s10
    80002b60:	0350f0b3          	remu	ra,ra,s5
    80002b64:	01dc2fb3          	slt	t6,s8,t4
    80002b68:	020c9733          	mulh	a4,s9,zero
    80002b6c:	0350f0b3          	remu	ra,ra,s5
    80002b70:	418489bb          	subw	s3,s1,s8
    80002b74:	01f8d41b          	srliw	s0,a7,0x1f
    80002b78:	0168b0b3          	sltu	ra,a7,s6
    80002b7c:	daec3a13          	sltiu	s4,s8,-594
    80002b80:	418489bb          	subw	s3,s1,s8
    80002b84:	41acd23b          	sraw	tp,s9,s10
    80002b88:	0168b0b3          	sltu	ra,a7,s6
    80002b8c:	c94dc837          	lui	a6,0xc94dc
    80002b90:	03143933          	mulhu	s2,s0,a7
    80002b94:	024d883b          	mulw	a6,s11,tp
    80002b98:	03e65013          	srli	zero,a2,0x3e
    80002b9c:	00000013          	nop
    80002ba0:	0168b0b3          	sltu	ra,a7,s6
    80002ba4:	201de597          	auipc	a1,0x201de
    80002ba8:	41acd23b          	sraw	tp,s9,s10
    80002bac:	9e8ec093          	xori	ra,t4,-1560
    80002bb0:	01aa8a3b          	addw	s4,s5,s10
    80002bb4:	01f8d41b          	srliw	s0,a7,0x1f
    80002bb8:	4028d81b          	sraiw	a6,a7,0x2
    80002bbc:	020c9733          	mulh	a4,s9,zero
    80002bc0:	02dc733b          	remuw	t1,s8,a3
    80002bc4:	0097de3b          	srlw	t3,a5,s1
    80002bc8:	0271aab3          	mulhsu	s5,gp,t2
    80002bcc:	01e06c33          	or	s8,zero,t5
    80002bd0:	12cd059b          	addiw	a1,s10,300
    80002bd4:	0271aab3          	mulhsu	s5,gp,t2
    80002bd8:	03b1deb3          	divu	t4,gp,s11
    80002bdc:	4182ddb3          	sra	s11,t0,s8
    80002be0:	00bd0233          	add	tp,s10,a1
    80002be4:	0207d83b          	divuw	a6,a5,zero
    80002be8:	0350f0b3          	remu	ra,ra,s5
    80002bec:	52af7d13          	andi	s10,t5,1322
    80002bf0:	004294bb          	sllw	s1,t0,tp
    80002bf4:	201de597          	auipc	a1,0x201de
    80002bf8:	41acd23b          	sraw	tp,s9,s10
    80002bfc:	031b8fb3          	mul	t6,s7,a7
    80002c00:	52af7d13          	andi	s10,t5,1322
    80002c04:	010a5a33          	srl	s4,s4,a6
    80002c08:	027b6e3b          	remw	t3,s6,t2
    80002c0c:	12cd059b          	addiw	a1,s10,300
    80002c10:	513faf93          	slti	t6,t6,1299
    80002c14:	0207d83b          	divuw	a6,a5,zero
    80002c18:	01aa8a3b          	addw	s4,s5,s10
    80002c1c:	031b8fb3          	mul	t6,s7,a7
    80002c20:	01e06c33          	or	s8,zero,t5
    80002c24:	201de597          	auipc	a1,0x201de
    80002c28:	004294bb          	sllw	s1,t0,tp
    80002c2c:	daec3a13          	sltiu	s4,s8,-594
    80002c30:	9e8ec093          	xori	ra,t4,-1560
    80002c34:	9e8ec093          	xori	ra,t4,-1560
    80002c38:	513faf93          	slti	t6,t6,1299
    80002c3c:	03d040b3          	div	ra,zero,t4
    80002c40:	024c1113          	slli	sp,s8,0x24
    80002c44:	4028d81b          	sraiw	a6,a7,0x2
    80002c48:	9e8ec093          	xori	ra,t4,-1560
    80002c4c:	0207d83b          	divuw	a6,a5,zero
    80002c50:	0242ee33          	rem	t3,t0,tp
    80002c54:	02dc733b          	remuw	t1,s8,a3
    80002c58:	00c59d9b          	slliw	s11,a1,0xc
    80002c5c:	00c59d9b          	slliw	s11,a1,0xc
    80002c60:	513faf93          	slti	t6,t6,1299
    80002c64:	034bccbb          	divw	s9,s7,s4
    80002c68:	02dc733b          	remuw	t1,s8,a3
    80002c6c:	0350f0b3          	remu	ra,ra,s5
    80002c70:	024c1113          	slli	sp,s8,0x24
    80002c74:	40db0e33          	sub	t3,s6,a3
    80002c78:	001a9433          	sll	s0,s5,ra
    80002c7c:	034bccbb          	divw	s9,s7,s4
    80002c80:	01dc2fb3          	slt	t6,s8,t4
    80002c84:	0242ee33          	rem	t3,t0,tp
    80002c88:	024c1113          	slli	sp,s8,0x24
    80002c8c:	034bccbb          	divw	s9,s7,s4
    80002c90:	024d883b          	mulw	a6,s11,tp
    80002c94:	41acd23b          	sraw	tp,s9,s10
    80002c98:	9e8ec093          	xori	ra,t4,-1560
    80002c9c:	01e06c33          	or	s8,zero,t5
    80002ca0:	03e65013          	srli	zero,a2,0x3e
    80002ca4:	020c9733          	mulh	a4,s9,zero
    80002ca8:	40db0e33          	sub	t3,s6,a3
    80002cac:	0350f0b3          	remu	ra,ra,s5
    80002cb0:	513faf93          	slti	t6,t6,1299
    80002cb4:	0207d83b          	divuw	a6,a5,zero
    80002cb8:	01dc2fb3          	slt	t6,s8,t4
    80002cbc:	034bccbb          	divw	s9,s7,s4
    80002cc0:	03d040b3          	div	ra,zero,t4
    80002cc4:	daec3a13          	sltiu	s4,s8,-594
    80002cc8:	03143933          	mulhu	s2,s0,a7
    80002ccc:	9e8ec093          	xori	ra,t4,-1560
    80002cd0:	010a5a33          	srl	s4,s4,a6
    80002cd4:	004294bb          	sllw	s1,t0,tp
    80002cd8:	c94dc837          	lui	a6,0xc94dc
    80002cdc:	52af7d13          	andi	s10,t5,1322
    80002ce0:	0350f0b3          	remu	ra,ra,s5
    80002ce4:	024d883b          	mulw	a6,s11,tp
    80002ce8:	0207d83b          	divuw	a6,a5,zero
    80002cec:	00000013          	nop
    80002cf0:	03e65013          	srli	zero,a2,0x3e
    80002cf4:	41b1d293          	srai	t0,gp,0x1b
    80002cf8:	0350f0b3          	remu	ra,ra,s5
    80002cfc:	201de597          	auipc	a1,0x201de
    80002d00:	0168b0b3          	sltu	ra,a7,s6
    80002d04:	53d76393          	ori	t2,a4,1341
    80002d08:	41b1d293          	srai	t0,gp,0x1b
    80002d0c:	00bd0233          	add	tp,s10,a1
    80002d10:	03b1deb3          	divu	t4,gp,s11
    80002d14:	4182ddb3          	sra	s11,t0,s8
    80002d18:	aed68193          	addi	gp,a3,-1299
    80002d1c:	01aa8a3b          	addw	s4,s5,s10
    80002d20:	01dc2fb3          	slt	t6,s8,t4
    80002d24:	03d040b3          	div	ra,zero,t4
    80002d28:	01e06c33          	or	s8,zero,t5
    80002d2c:	513faf93          	slti	t6,t6,1299
    80002d30:	0097de3b          	srlw	t3,a5,s1
    80002d34:	01aa8a3b          	addw	s4,s5,s10
    80002d38:	034bccbb          	divw	s9,s7,s4
    80002d3c:	9e8ec093          	xori	ra,t4,-1560
    80002d40:	aed68193          	addi	gp,a3,-1299
    80002d44:	201de597          	auipc	a1,0x201de
    80002d48:	01e06c33          	or	s8,zero,t5
    80002d4c:	201de597          	auipc	a1,0x201de
    80002d50:	00bd0233          	add	tp,s10,a1
    80002d54:	0207d83b          	divuw	a6,a5,zero
    80002d58:	41acd23b          	sraw	tp,s9,s10
    80002d5c:	00000013          	nop
    80002d60:	03d040b3          	div	ra,zero,t4
    80002d64:	0242ee33          	rem	t3,t0,tp
    80002d68:	0350f0b3          	remu	ra,ra,s5
    80002d6c:	03d040b3          	div	ra,zero,t4
    80002d70:	02dc733b          	remuw	t1,s8,a3
    80002d74:	0097de3b          	srlw	t3,a5,s1
    80002d78:	031b8fb3          	mul	t6,s7,a7
    80002d7c:	41acd23b          	sraw	tp,s9,s10
    80002d80:	020c9733          	mulh	a4,s9,zero
    80002d84:	c94dc837          	lui	a6,0xc94dc
    80002d88:	01aa8a3b          	addw	s4,s5,s10
    80002d8c:	00c59d9b          	slliw	s11,a1,0xc
    80002d90:	daec3a13          	sltiu	s4,s8,-594
    80002d94:	004294bb          	sllw	s1,t0,tp
    80002d98:	4182ddb3          	sra	s11,t0,s8
    80002d9c:	00bd0233          	add	tp,s10,a1
    80002da0:	0350f0b3          	remu	ra,ra,s5
    80002da4:	9e8ec093          	xori	ra,t4,-1560
    80002da8:	010a5a33          	srl	s4,s4,a6
    80002dac:	52af7d13          	andi	s10,t5,1322
    80002db0:	00e443b3          	xor	t2,s0,a4
    80002db4:	01aa8a3b          	addw	s4,s5,s10
    80002db8:	0271aab3          	mulhsu	s5,gp,t2
    80002dbc:	40db0e33          	sub	t3,s6,a3
    80002dc0:	010a5a33          	srl	s4,s4,a6
    80002dc4:	40db0e33          	sub	t3,s6,a3
    80002dc8:	daec3a13          	sltiu	s4,s8,-594
    80002dcc:	020c9733          	mulh	a4,s9,zero
    80002dd0:	01e06c33          	or	s8,zero,t5
    80002dd4:	0271aab3          	mulhsu	s5,gp,t2
    80002dd8:	0097de3b          	srlw	t3,a5,s1
    80002ddc:	02dc733b          	remuw	t1,s8,a3
    80002de0:	01227033          	and	zero,tp,s2
    80002de4:	513faf93          	slti	t6,t6,1299
    80002de8:	02dc733b          	remuw	t1,s8,a3
    80002dec:	01e06c33          	or	s8,zero,t5
    80002df0:	513faf93          	slti	t6,t6,1299
    80002df4:	418489bb          	subw	s3,s1,s8
    80002df8:	0271aab3          	mulhsu	s5,gp,t2
    80002dfc:	00c59d9b          	slliw	s11,a1,0xc
    80002e00:	c94dc837          	lui	a6,0xc94dc
    80002e04:	02dc733b          	remuw	t1,s8,a3
    80002e08:	01e06c33          	or	s8,zero,t5
    80002e0c:	0271aab3          	mulhsu	s5,gp,t2
    80002e10:	40db0e33          	sub	t3,s6,a3
    80002e14:	0271aab3          	mulhsu	s5,gp,t2
    80002e18:	034bccbb          	divw	s9,s7,s4
    80002e1c:	00e443b3          	xor	t2,s0,a4
    80002e20:	010a5a33          	srl	s4,s4,a6
    80002e24:	031b8fb3          	mul	t6,s7,a7
    80002e28:	12cd059b          	addiw	a1,s10,300
    80002e2c:	034bccbb          	divw	s9,s7,s4
    80002e30:	03e65013          	srli	zero,a2,0x3e
    80002e34:	00bd0233          	add	tp,s10,a1
    80002e38:	01e06c33          	or	s8,zero,t5
    80002e3c:	0350f0b3          	remu	ra,ra,s5
    80002e40:	020c9733          	mulh	a4,s9,zero
    80002e44:	0350f0b3          	remu	ra,ra,s5
    80002e48:	027b6e3b          	remw	t3,s6,t2
    80002e4c:	0350f0b3          	remu	ra,ra,s5
    80002e50:	418489bb          	subw	s3,s1,s8
    80002e54:	001a9433          	sll	s0,s5,ra
    80002e58:	4028d81b          	sraiw	a6,a7,0x2
    80002e5c:	034bccbb          	divw	s9,s7,s4
    80002e60:	03d040b3          	div	ra,zero,t4
    80002e64:	00bd0233          	add	tp,s10,a1
    80002e68:	0097de3b          	srlw	t3,a5,s1
    80002e6c:	52af7d13          	andi	s10,t5,1322
    80002e70:	4182ddb3          	sra	s11,t0,s8
    80002e74:	01e06c33          	or	s8,zero,t5
    80002e78:	001a9433          	sll	s0,s5,ra
    80002e7c:	418489bb          	subw	s3,s1,s8
    80002e80:	418489bb          	subw	s3,s1,s8
    80002e84:	02dc733b          	remuw	t1,s8,a3
    80002e88:	03d040b3          	div	ra,zero,t4
    80002e8c:	513faf93          	slti	t6,t6,1299
    80002e90:	00000013          	nop
    80002e94:	53d76393          	ori	t2,a4,1341
    80002e98:	418489bb          	subw	s3,s1,s8
    80002e9c:	001a9433          	sll	s0,s5,ra
    80002ea0:	020c9733          	mulh	a4,s9,zero
    80002ea4:	9e8ec093          	xori	ra,t4,-1560
    80002ea8:	031b8fb3          	mul	t6,s7,a7
    80002eac:	9e8ec093          	xori	ra,t4,-1560
    80002eb0:	daec3a13          	sltiu	s4,s8,-594
    80002eb4:	daec3a13          	sltiu	s4,s8,-594
    80002eb8:	00e443b3          	xor	t2,s0,a4
    80002ebc:	03d040b3          	div	ra,zero,t4
    80002ec0:	034bccbb          	divw	s9,s7,s4
    80002ec4:	c94dc837          	lui	a6,0xc94dc
    80002ec8:	001a9433          	sll	s0,s5,ra
    80002ecc:	01dc2fb3          	slt	t6,s8,t4
    80002ed0:	01227033          	and	zero,tp,s2
    80002ed4:	53d76393          	ori	t2,a4,1341
    80002ed8:	01dc2fb3          	slt	t6,s8,t4
    80002edc:	01f8d41b          	srliw	s0,a7,0x1f
    80002ee0:	034bccbb          	divw	s9,s7,s4
    80002ee4:	024c1113          	slli	sp,s8,0x24
    80002ee8:	0097de3b          	srlw	t3,a5,s1
    80002eec:	03143933          	mulhu	s2,s0,a7
    80002ef0:	52af7d13          	andi	s10,t5,1322
    80002ef4:	40db0e33          	sub	t3,s6,a3
    80002ef8:	00c59d9b          	slliw	s11,a1,0xc
    80002efc:	034bccbb          	divw	s9,s7,s4
    80002f00:	024d883b          	mulw	a6,s11,tp
    80002f04:	010a5a33          	srl	s4,s4,a6
    80002f08:	00bd0233          	add	tp,s10,a1
    80002f0c:	01e06c33          	or	s8,zero,t5
    80002f10:	daec3a13          	sltiu	s4,s8,-594
    80002f14:	01dc2fb3          	slt	t6,s8,t4
    80002f18:	034bccbb          	divw	s9,s7,s4
    80002f1c:	0242ee33          	rem	t3,t0,tp
    80002f20:	03d040b3          	div	ra,zero,t4
    80002f24:	4028d81b          	sraiw	a6,a7,0x2
    80002f28:	004294bb          	sllw	s1,t0,tp
    80002f2c:	0168b0b3          	sltu	ra,a7,s6
    80002f30:	01f8d41b          	srliw	s0,a7,0x1f
    80002f34:	01aa8a3b          	addw	s4,s5,s10
    80002f38:	03b1deb3          	divu	t4,gp,s11
    80002f3c:	4182ddb3          	sra	s11,t0,s8
    80002f40:	40db0e33          	sub	t3,s6,a3
    80002f44:	03d040b3          	div	ra,zero,t4
    80002f48:	02dc733b          	remuw	t1,s8,a3
    80002f4c:	027b6e3b          	remw	t3,s6,t2
    80002f50:	daec3a13          	sltiu	s4,s8,-594
    80002f54:	01f8d41b          	srliw	s0,a7,0x1f
    80002f58:	aed68193          	addi	gp,a3,-1299
    80002f5c:	52af7d13          	andi	s10,t5,1322
    80002f60:	0350f0b3          	remu	ra,ra,s5
    80002f64:	03e65013          	srli	zero,a2,0x3e
    80002f68:	418489bb          	subw	s3,s1,s8
    80002f6c:	01e06c33          	or	s8,zero,t5
    80002f70:	01aa8a3b          	addw	s4,s5,s10
    80002f74:	024c1113          	slli	sp,s8,0x24
    80002f78:	02dc733b          	remuw	t1,s8,a3
    80002f7c:	0271aab3          	mulhsu	s5,gp,t2
    80002f80:	03143933          	mulhu	s2,s0,a7
    80002f84:	aed68193          	addi	gp,a3,-1299
    80002f88:	513faf93          	slti	t6,t6,1299
    80002f8c:	004294bb          	sllw	s1,t0,tp
    80002f90:	01dc2fb3          	slt	t6,s8,t4
    80002f94:	53d76393          	ori	t2,a4,1341
    80002f98:	01f8d41b          	srliw	s0,a7,0x1f
    80002f9c:	41b1d293          	srai	t0,gp,0x1b
    80002fa0:	03143933          	mulhu	s2,s0,a7
    80002fa4:	418489bb          	subw	s3,s1,s8
    80002fa8:	031b8fb3          	mul	t6,s7,a7
    80002fac:	010a5a33          	srl	s4,s4,a6
    80002fb0:	0271aab3          	mulhsu	s5,gp,t2
    80002fb4:	004294bb          	sllw	s1,t0,tp
    80002fb8:	03143933          	mulhu	s2,s0,a7
    80002fbc:	027b6e3b          	remw	t3,s6,t2
    80002fc0:	daec3a13          	sltiu	s4,s8,-594
    80002fc4:	418489bb          	subw	s3,s1,s8
    80002fc8:	41acd23b          	sraw	tp,s9,s10
    80002fcc:	03e65013          	srli	zero,a2,0x3e
    80002fd0:	03d040b3          	div	ra,zero,t4
    80002fd4:	00000013          	nop
    80002fd8:	027b6e3b          	remw	t3,s6,t2
    80002fdc:	03143933          	mulhu	s2,s0,a7
    80002fe0:	40db0e33          	sub	t3,s6,a3
    80002fe4:	daec3a13          	sltiu	s4,s8,-594
    80002fe8:	001a9433          	sll	s0,s5,ra
    80002fec:	001a9433          	sll	s0,s5,ra
    80002ff0:	4182ddb3          	sra	s11,t0,s8
    80002ff4:	02dc733b          	remuw	t1,s8,a3
    80002ff8:	001a9433          	sll	s0,s5,ra
    80002ffc:	4182ddb3          	sra	s11,t0,s8
    80003000:	53d76393          	ori	t2,a4,1341
    80003004:	0242ee33          	rem	t3,t0,tp
    80003008:	01dc2fb3          	slt	t6,s8,t4
    8000300c:	03d040b3          	div	ra,zero,t4
    80003010:	201de597          	auipc	a1,0x201de
    80003014:	9e8ec093          	xori	ra,t4,-1560
    80003018:	027b6e3b          	remw	t3,s6,t2
    8000301c:	004294bb          	sllw	s1,t0,tp
    80003020:	c94dc837          	lui	a6,0xc94dc
    80003024:	41b1d293          	srai	t0,gp,0x1b
    80003028:	03143933          	mulhu	s2,s0,a7
    8000302c:	c94dc837          	lui	a6,0xc94dc
    80003030:	41acd23b          	sraw	tp,s9,s10
    80003034:	9e8ec093          	xori	ra,t4,-1560
    80003038:	01dc2fb3          	slt	t6,s8,t4
    8000303c:	01227033          	and	zero,tp,s2
    80003040:	03143933          	mulhu	s2,s0,a7
    80003044:	52af7d13          	andi	s10,t5,1322
    80003048:	0271aab3          	mulhsu	s5,gp,t2
    8000304c:	0350f0b3          	remu	ra,ra,s5
    80003050:	034bccbb          	divw	s9,s7,s4
    80003054:	53d76393          	ori	t2,a4,1341
    80003058:	027b6e3b          	remw	t3,s6,t2
    8000305c:	0242ee33          	rem	t3,t0,tp
    80003060:	513faf93          	slti	t6,t6,1299
    80003064:	020c9733          	mulh	a4,s9,zero
    80003068:	00c59d9b          	slliw	s11,a1,0xc
    8000306c:	0242ee33          	rem	t3,t0,tp
    80003070:	41acd23b          	sraw	tp,s9,s10
    80003074:	00bd0233          	add	tp,s10,a1
    80003078:	53d76393          	ori	t2,a4,1341
    8000307c:	53d76393          	ori	t2,a4,1341
    80003080:	0207d83b          	divuw	a6,a5,zero
    80003084:	010a5a33          	srl	s4,s4,a6
    80003088:	52af7d13          	andi	s10,t5,1322
    8000308c:	024d883b          	mulw	a6,s11,tp
    80003090:	00000013          	nop
    80003094:	53d76393          	ori	t2,a4,1341
    80003098:	0097de3b          	srlw	t3,a5,s1
    8000309c:	03143933          	mulhu	s2,s0,a7
    800030a0:	00bd0233          	add	tp,s10,a1
    800030a4:	004294bb          	sllw	s1,t0,tp
    800030a8:	02dc733b          	remuw	t1,s8,a3
    800030ac:	024d883b          	mulw	a6,s11,tp
    800030b0:	01227033          	and	zero,tp,s2
    800030b4:	00bd0233          	add	tp,s10,a1
    800030b8:	41acd23b          	sraw	tp,s9,s10
    800030bc:	41acd23b          	sraw	tp,s9,s10
    800030c0:	418489bb          	subw	s3,s1,s8
    800030c4:	01f8d41b          	srliw	s0,a7,0x1f
    800030c8:	0242ee33          	rem	t3,t0,tp
    800030cc:	010a5a33          	srl	s4,s4,a6
    800030d0:	41b1d293          	srai	t0,gp,0x1b
    800030d4:	4182ddb3          	sra	s11,t0,s8
    800030d8:	010a5a33          	srl	s4,s4,a6
    800030dc:	01aa8a3b          	addw	s4,s5,s10
    800030e0:	0207d83b          	divuw	a6,a5,zero
    800030e4:	03143933          	mulhu	s2,s0,a7
    800030e8:	52af7d13          	andi	s10,t5,1322
    800030ec:	0242ee33          	rem	t3,t0,tp
    800030f0:	0207d83b          	divuw	a6,a5,zero
    800030f4:	03b1deb3          	divu	t4,gp,s11
    800030f8:	031b8fb3          	mul	t6,s7,a7
    800030fc:	0242ee33          	rem	t3,t0,tp
    80003100:	03e65013          	srli	zero,a2,0x3e
    80003104:	001a9433          	sll	s0,s5,ra
    80003108:	02dc733b          	remuw	t1,s8,a3
    8000310c:	020c9733          	mulh	a4,s9,zero
    80003110:	513faf93          	slti	t6,t6,1299
    80003114:	52af7d13          	andi	s10,t5,1322
    80003118:	00000013          	nop
    8000311c:	034bccbb          	divw	s9,s7,s4
    80003120:	001a9433          	sll	s0,s5,ra
    80003124:	020c9733          	mulh	a4,s9,zero
    80003128:	01f8d41b          	srliw	s0,a7,0x1f
    8000312c:	024c1113          	slli	sp,s8,0x24
    80003130:	004294bb          	sllw	s1,t0,tp
    80003134:	03143933          	mulhu	s2,s0,a7
    80003138:	0097de3b          	srlw	t3,a5,s1
    8000313c:	418489bb          	subw	s3,s1,s8
    80003140:	004294bb          	sllw	s1,t0,tp
    80003144:	03e65013          	srli	zero,a2,0x3e
    80003148:	41b1d293          	srai	t0,gp,0x1b
    8000314c:	aed68193          	addi	gp,a3,-1299
    80003150:	41acd23b          	sraw	tp,s9,s10
    80003154:	c94dc837          	lui	a6,0xc94dc
    80003158:	034bccbb          	divw	s9,s7,s4
    8000315c:	027b6e3b          	remw	t3,s6,t2
    80003160:	024c1113          	slli	sp,s8,0x24
    80003164:	010a5a33          	srl	s4,s4,a6
    80003168:	03143933          	mulhu	s2,s0,a7
    8000316c:	03b1deb3          	divu	t4,gp,s11
    80003170:	031b8fb3          	mul	t6,s7,a7
    80003174:	03e65013          	srli	zero,a2,0x3e
    80003178:	010a5a33          	srl	s4,s4,a6
    8000317c:	0168b0b3          	sltu	ra,a7,s6
    80003180:	513faf93          	slti	t6,t6,1299
    80003184:	00e443b3          	xor	t2,s0,a4
    80003188:	00bd0233          	add	tp,s10,a1
    8000318c:	031b8fb3          	mul	t6,s7,a7
    80003190:	0097de3b          	srlw	t3,a5,s1
    80003194:	024c1113          	slli	sp,s8,0x24
    80003198:	01aa8a3b          	addw	s4,s5,s10
    8000319c:	0242ee33          	rem	t3,t0,tp
    800031a0:	aed68193          	addi	gp,a3,-1299
    800031a4:	010a5a33          	srl	s4,s4,a6
    800031a8:	41acd23b          	sraw	tp,s9,s10
    800031ac:	4028d81b          	sraiw	a6,a7,0x2
    800031b0:	00bd0233          	add	tp,s10,a1
    800031b4:	001a9433          	sll	s0,s5,ra
    800031b8:	00e443b3          	xor	t2,s0,a4
    800031bc:	4028d81b          	sraiw	a6,a7,0x2
    800031c0:	0242ee33          	rem	t3,t0,tp
    800031c4:	010a5a33          	srl	s4,s4,a6
    800031c8:	40db0e33          	sub	t3,s6,a3
    800031cc:	00e443b3          	xor	t2,s0,a4
    800031d0:	00000013          	nop
    800031d4:	03e65013          	srli	zero,a2,0x3e
    800031d8:	01227033          	and	zero,tp,s2
    800031dc:	00e443b3          	xor	t2,s0,a4
    800031e0:	418489bb          	subw	s3,s1,s8
    800031e4:	12cd059b          	addiw	a1,s10,300
    800031e8:	0207d83b          	divuw	a6,a5,zero
    800031ec:	03e65013          	srli	zero,a2,0x3e
    800031f0:	01f8d41b          	srliw	s0,a7,0x1f
    800031f4:	00c59d9b          	slliw	s11,a1,0xc
    800031f8:	01aa8a3b          	addw	s4,s5,s10
    800031fc:	03e65013          	srli	zero,a2,0x3e
    80003200:	03b1deb3          	divu	t4,gp,s11
    80003204:	201de597          	auipc	a1,0x201de
    80003208:	c94dc837          	lui	a6,0xc94dc
    8000320c:	020c9733          	mulh	a4,s9,zero
    80003210:	03d040b3          	div	ra,zero,t4
    80003214:	024c1113          	slli	sp,s8,0x24
    80003218:	01f8d41b          	srliw	s0,a7,0x1f
    8000321c:	0168b0b3          	sltu	ra,a7,s6
    80003220:	00c59d9b          	slliw	s11,a1,0xc
    80003224:	0271aab3          	mulhsu	s5,gp,t2
    80003228:	03b1deb3          	divu	t4,gp,s11
    8000322c:	034bccbb          	divw	s9,s7,s4
    80003230:	12cd059b          	addiw	a1,s10,300
    80003234:	41acd23b          	sraw	tp,s9,s10
    80003238:	513faf93          	slti	t6,t6,1299
    8000323c:	03b1deb3          	divu	t4,gp,s11
    80003240:	daec3a13          	sltiu	s4,s8,-594
    80003244:	00c59d9b          	slliw	s11,a1,0xc
    80003248:	0242ee33          	rem	t3,t0,tp
    8000324c:	03143933          	mulhu	s2,s0,a7
    80003250:	00c59d9b          	slliw	s11,a1,0xc
    80003254:	034bccbb          	divw	s9,s7,s4
    80003258:	034bccbb          	divw	s9,s7,s4
    8000325c:	024c1113          	slli	sp,s8,0x24
    80003260:	00000013          	nop
    80003264:	020c9733          	mulh	a4,s9,zero
    80003268:	03143933          	mulhu	s2,s0,a7
    8000326c:	418489bb          	subw	s3,s1,s8
    80003270:	03e65013          	srli	zero,a2,0x3e
    80003274:	027b6e3b          	remw	t3,s6,t2
    80003278:	aed68193          	addi	gp,a3,-1299
    8000327c:	031b8fb3          	mul	t6,s7,a7
    80003280:	aed68193          	addi	gp,a3,-1299
    80003284:	031b8fb3          	mul	t6,s7,a7
    80003288:	41b1d293          	srai	t0,gp,0x1b
    8000328c:	010a5a33          	srl	s4,s4,a6
    80003290:	41b1d293          	srai	t0,gp,0x1b
    80003294:	00bd0233          	add	tp,s10,a1
    80003298:	03b1deb3          	divu	t4,gp,s11
    8000329c:	03143933          	mulhu	s2,s0,a7
    800032a0:	01e06c33          	or	s8,zero,t5
    800032a4:	418489bb          	subw	s3,s1,s8
    800032a8:	024d883b          	mulw	a6,s11,tp
    800032ac:	0242ee33          	rem	t3,t0,tp
    800032b0:	00c59d9b          	slliw	s11,a1,0xc
    800032b4:	4028d81b          	sraiw	a6,a7,0x2
    800032b8:	0097de3b          	srlw	t3,a5,s1
    800032bc:	01227033          	and	zero,tp,s2
    800032c0:	0350f0b3          	remu	ra,ra,s5
    800032c4:	daec3a13          	sltiu	s4,s8,-594
    800032c8:	41acd23b          	sraw	tp,s9,s10
    800032cc:	513faf93          	slti	t6,t6,1299
    800032d0:	01f8d41b          	srliw	s0,a7,0x1f
    800032d4:	53d76393          	ori	t2,a4,1341
    800032d8:	01aa8a3b          	addw	s4,s5,s10
    800032dc:	4028d81b          	sraiw	a6,a7,0x2
    800032e0:	027b6e3b          	remw	t3,s6,t2
    800032e4:	0097de3b          	srlw	t3,a5,s1
    800032e8:	52af7d13          	andi	s10,t5,1322
    800032ec:	daec3a13          	sltiu	s4,s8,-594
    800032f0:	4182ddb3          	sra	s11,t0,s8
    800032f4:	001a9433          	sll	s0,s5,ra
    800032f8:	513faf93          	slti	t6,t6,1299
    800032fc:	01aa8a3b          	addw	s4,s5,s10
    80003300:	010a5a33          	srl	s4,s4,a6
    80003304:	00000013          	nop
    80003308:	00bd0233          	add	tp,s10,a1
    8000330c:	4182ddb3          	sra	s11,t0,s8
    80003310:	201de597          	auipc	a1,0x201de
    80003314:	020c9733          	mulh	a4,s9,zero
    80003318:	52af7d13          	andi	s10,t5,1322
    8000331c:	53d76393          	ori	t2,a4,1341
    80003320:	024c1113          	slli	sp,s8,0x24
    80003324:	01227033          	and	zero,tp,s2
    80003328:	418489bb          	subw	s3,s1,s8
    8000332c:	513faf93          	slti	t6,t6,1299
    80003330:	024d883b          	mulw	a6,s11,tp
    80003334:	0097de3b          	srlw	t3,a5,s1
    80003338:	004294bb          	sllw	s1,t0,tp
    8000333c:	03b1deb3          	divu	t4,gp,s11
    80003340:	4182ddb3          	sra	s11,t0,s8
    80003344:	024d883b          	mulw	a6,s11,tp
    80003348:	41b1d293          	srai	t0,gp,0x1b
    8000334c:	0207d83b          	divuw	a6,a5,zero
    80003350:	9e8ec093          	xori	ra,t4,-1560
    80003354:	4182ddb3          	sra	s11,t0,s8
    80003358:	01f8d41b          	srliw	s0,a7,0x1f
    8000335c:	01e06c33          	or	s8,zero,t5
    80003360:	52af7d13          	andi	s10,t5,1322
    80003364:	027b6e3b          	remw	t3,s6,t2
    80003368:	024d883b          	mulw	a6,s11,tp
    8000336c:	daec3a13          	sltiu	s4,s8,-594
    80003370:	12cd059b          	addiw	a1,s10,300
    80003374:	513faf93          	slti	t6,t6,1299
    80003378:	53d76393          	ori	t2,a4,1341
    8000337c:	00e443b3          	xor	t2,s0,a4
    80003380:	0242ee33          	rem	t3,t0,tp
    80003384:	9e8ec093          	xori	ra,t4,-1560
    80003388:	0168b0b3          	sltu	ra,a7,s6
    8000338c:	024c1113          	slli	sp,s8,0x24
    80003390:	201de597          	auipc	a1,0x201de
    80003394:	00e443b3          	xor	t2,s0,a4
    80003398:	010a5a33          	srl	s4,s4,a6
    8000339c:	031b8fb3          	mul	t6,s7,a7
    800033a0:	004294bb          	sllw	s1,t0,tp
    800033a4:	00e443b3          	xor	t2,s0,a4
    800033a8:	0271aab3          	mulhsu	s5,gp,t2
    800033ac:	01f8d41b          	srliw	s0,a7,0x1f
    800033b0:	daec3a13          	sltiu	s4,s8,-594
    800033b4:	0350f0b3          	remu	ra,ra,s5
    800033b8:	41b1d293          	srai	t0,gp,0x1b
    800033bc:	004294bb          	sllw	s1,t0,tp
    800033c0:	0168b0b3          	sltu	ra,a7,s6
    800033c4:	00bd0233          	add	tp,s10,a1
    800033c8:	001a9433          	sll	s0,s5,ra
    800033cc:	40db0e33          	sub	t3,s6,a3
    800033d0:	020c9733          	mulh	a4,s9,zero
    800033d4:	52af7d13          	andi	s10,t5,1322
    800033d8:	004294bb          	sllw	s1,t0,tp
    800033dc:	027b6e3b          	remw	t3,s6,t2
    800033e0:	513faf93          	slti	t6,t6,1299
    800033e4:	031b8fb3          	mul	t6,s7,a7
    800033e8:	9e8ec093          	xori	ra,t4,-1560
    800033ec:	418489bb          	subw	s3,s1,s8
    800033f0:	201de597          	auipc	a1,0x201de
    800033f4:	024c1113          	slli	sp,s8,0x24
    800033f8:	40db0e33          	sub	t3,s6,a3
    800033fc:	027b6e3b          	remw	t3,s6,t2
    80003400:	aed68193          	addi	gp,a3,-1299
    80003404:	03d040b3          	div	ra,zero,t4
    80003408:	031b8fb3          	mul	t6,s7,a7
    8000340c:	0097de3b          	srlw	t3,a5,s1
    80003410:	418489bb          	subw	s3,s1,s8
    80003414:	024d883b          	mulw	a6,s11,tp
    80003418:	0242ee33          	rem	t3,t0,tp
    8000341c:	024d883b          	mulw	a6,s11,tp
    80003420:	53d76393          	ori	t2,a4,1341
    80003424:	0271aab3          	mulhsu	s5,gp,t2
    80003428:	01227033          	and	zero,tp,s2
    8000342c:	9e8ec093          	xori	ra,t4,-1560
    80003430:	01f8d41b          	srliw	s0,a7,0x1f
    80003434:	0271aab3          	mulhsu	s5,gp,t2
    80003438:	02dc733b          	remuw	t1,s8,a3
    8000343c:	12cd059b          	addiw	a1,s10,300
    80003440:	41acd23b          	sraw	tp,s9,s10
    80003444:	4182ddb3          	sra	s11,t0,s8
    80003448:	0097de3b          	srlw	t3,a5,s1
    8000344c:	53d76393          	ori	t2,a4,1341
    80003450:	034bccbb          	divw	s9,s7,s4
    80003454:	01dc2fb3          	slt	t6,s8,t4
    80003458:	020c9733          	mulh	a4,s9,zero
    8000345c:	0097de3b          	srlw	t3,a5,s1
    80003460:	c94dc837          	lui	a6,0xc94dc
    80003464:	03b1deb3          	divu	t4,gp,s11
    80003468:	00c59d9b          	slliw	s11,a1,0xc
    8000346c:	0097de3b          	srlw	t3,a5,s1
    80003470:	4182ddb3          	sra	s11,t0,s8
    80003474:	034bccbb          	divw	s9,s7,s4
    80003478:	03e65013          	srli	zero,a2,0x3e
    8000347c:	03e65013          	srli	zero,a2,0x3e
    80003480:	01aa8a3b          	addw	s4,s5,s10
    80003484:	020c9733          	mulh	a4,s9,zero
    80003488:	01aa8a3b          	addw	s4,s5,s10
    8000348c:	0207d83b          	divuw	a6,a5,zero
    80003490:	0242ee33          	rem	t3,t0,tp
    80003494:	001a9433          	sll	s0,s5,ra
    80003498:	0350f0b3          	remu	ra,ra,s5
    8000349c:	00000013          	nop
    800034a0:	02dc733b          	remuw	t1,s8,a3
    800034a4:	027b6e3b          	remw	t3,s6,t2
    800034a8:	00000013          	nop
    800034ac:	0168b0b3          	sltu	ra,a7,s6
    800034b0:	034bccbb          	divw	s9,s7,s4
    800034b4:	00c59d9b          	slliw	s11,a1,0xc
    800034b8:	03143933          	mulhu	s2,s0,a7
    800034bc:	0207d83b          	divuw	a6,a5,zero
    800034c0:	020c9733          	mulh	a4,s9,zero
    800034c4:	aed68193          	addi	gp,a3,-1299
    800034c8:	9e8ec093          	xori	ra,t4,-1560
    800034cc:	daec3a13          	sltiu	s4,s8,-594
    800034d0:	01f8d41b          	srliw	s0,a7,0x1f
    800034d4:	01f8d41b          	srliw	s0,a7,0x1f
    800034d8:	0097de3b          	srlw	t3,a5,s1
    800034dc:	024d883b          	mulw	a6,s11,tp
    800034e0:	daec3a13          	sltiu	s4,s8,-594
    800034e4:	01e06c33          	or	s8,zero,t5
    800034e8:	03b1deb3          	divu	t4,gp,s11
    800034ec:	9e8ec093          	xori	ra,t4,-1560
    800034f0:	024d883b          	mulw	a6,s11,tp
    800034f4:	004294bb          	sllw	s1,t0,tp
    800034f8:	00000013          	nop
    800034fc:	0097de3b          	srlw	t3,a5,s1
    80003500:	0242ee33          	rem	t3,t0,tp
    80003504:	00000013          	nop
    80003508:	0168b0b3          	sltu	ra,a7,s6
    8000350c:	4028d81b          	sraiw	a6,a7,0x2
    80003510:	aed68193          	addi	gp,a3,-1299
    80003514:	513faf93          	slti	t6,t6,1299
    80003518:	40db0e33          	sub	t3,s6,a3
    8000351c:	aed68193          	addi	gp,a3,-1299
    80003520:	03143933          	mulhu	s2,s0,a7
    80003524:	0350f0b3          	remu	ra,ra,s5
    80003528:	0242ee33          	rem	t3,t0,tp
    8000352c:	52af7d13          	andi	s10,t5,1322
    80003530:	03e65013          	srli	zero,a2,0x3e
    80003534:	41acd23b          	sraw	tp,s9,s10
    80003538:	0350f0b3          	remu	ra,ra,s5
    8000353c:	024d883b          	mulw	a6,s11,tp
    80003540:	01f8d41b          	srliw	s0,a7,0x1f
    80003544:	0242ee33          	rem	t3,t0,tp
    80003548:	01f8d41b          	srliw	s0,a7,0x1f
    8000354c:	00e443b3          	xor	t2,s0,a4
    80003550:	0168b0b3          	sltu	ra,a7,s6
    80003554:	53d76393          	ori	t2,a4,1341
    80003558:	01aa8a3b          	addw	s4,s5,s10
    8000355c:	c94dc837          	lui	a6,0xc94dc
    80003560:	027b6e3b          	remw	t3,s6,t2
    80003564:	00bd0233          	add	tp,s10,a1
    80003568:	00bd0233          	add	tp,s10,a1
    8000356c:	0097de3b          	srlw	t3,a5,s1
    80003570:	02dc733b          	remuw	t1,s8,a3
    80003574:	418489bb          	subw	s3,s1,s8
    80003578:	201de597          	auipc	a1,0x201de
    8000357c:	4182ddb3          	sra	s11,t0,s8
    80003580:	001a9433          	sll	s0,s5,ra
    80003584:	00c59d9b          	slliw	s11,a1,0xc
    80003588:	020c9733          	mulh	a4,s9,zero
    8000358c:	41acd23b          	sraw	tp,s9,s10
    80003590:	41acd23b          	sraw	tp,s9,s10
    80003594:	03d040b3          	div	ra,zero,t4
    80003598:	031b8fb3          	mul	t6,s7,a7
    8000359c:	024d883b          	mulw	a6,s11,tp
    800035a0:	4028d81b          	sraiw	a6,a7,0x2
    800035a4:	03d040b3          	div	ra,zero,t4
    800035a8:	00e443b3          	xor	t2,s0,a4
    800035ac:	01f8d41b          	srliw	s0,a7,0x1f
    800035b0:	513faf93          	slti	t6,t6,1299
    800035b4:	0350f0b3          	remu	ra,ra,s5
    800035b8:	027b6e3b          	remw	t3,s6,t2
    800035bc:	03d040b3          	div	ra,zero,t4
    800035c0:	01f8d41b          	srliw	s0,a7,0x1f
    800035c4:	01227033          	and	zero,tp,s2
    800035c8:	024c1113          	slli	sp,s8,0x24
    800035cc:	0350f0b3          	remu	ra,ra,s5
    800035d0:	01dc2fb3          	slt	t6,s8,t4
    800035d4:	010a5a33          	srl	s4,s4,a6
    800035d8:	01dc2fb3          	slt	t6,s8,t4
    800035dc:	0207d83b          	divuw	a6,a5,zero
    800035e0:	031b8fb3          	mul	t6,s7,a7
    800035e4:	daec3a13          	sltiu	s4,s8,-594
    800035e8:	daec3a13          	sltiu	s4,s8,-594
    800035ec:	027b6e3b          	remw	t3,s6,t2
    800035f0:	01aa8a3b          	addw	s4,s5,s10
    800035f4:	0350f0b3          	remu	ra,ra,s5
    800035f8:	0207d83b          	divuw	a6,a5,zero
    800035fc:	03d040b3          	div	ra,zero,t4
    80003600:	010a5a33          	srl	s4,s4,a6
    80003604:	01227033          	and	zero,tp,s2
    80003608:	0350f0b3          	remu	ra,ra,s5
    8000360c:	0350f0b3          	remu	ra,ra,s5
    80003610:	418489bb          	subw	s3,s1,s8
    80003614:	02dc733b          	remuw	t1,s8,a3
    80003618:	03b1deb3          	divu	t4,gp,s11
    8000361c:	03e65013          	srli	zero,a2,0x3e
    80003620:	4182ddb3          	sra	s11,t0,s8
    80003624:	020c9733          	mulh	a4,s9,zero
    80003628:	201de597          	auipc	a1,0x201de
    8000362c:	01e06c33          	or	s8,zero,t5
    80003630:	c94dc837          	lui	a6,0xc94dc
    80003634:	024c1113          	slli	sp,s8,0x24
    80003638:	00000013          	nop
    8000363c:	01dc2fb3          	slt	t6,s8,t4
    80003640:	01f8d41b          	srliw	s0,a7,0x1f
    80003644:	00e443b3          	xor	t2,s0,a4
    80003648:	201de597          	auipc	a1,0x201de
    8000364c:	40db0e33          	sub	t3,s6,a3
    80003650:	0168b0b3          	sltu	ra,a7,s6
    80003654:	0271aab3          	mulhsu	s5,gp,t2
    80003658:	001a9433          	sll	s0,s5,ra
    8000365c:	024c1113          	slli	sp,s8,0x24
    80003660:	03143933          	mulhu	s2,s0,a7
    80003664:	53d76393          	ori	t2,a4,1341
    80003668:	024d883b          	mulw	a6,s11,tp
    8000366c:	c94dc837          	lui	a6,0xc94dc
    80003670:	00bd0233          	add	tp,s10,a1
    80003674:	c94dc837          	lui	a6,0xc94dc
    80003678:	0207d83b          	divuw	a6,a5,zero
    8000367c:	4028d81b          	sraiw	a6,a7,0x2
    80003680:	024d883b          	mulw	a6,s11,tp
    80003684:	0350f0b3          	remu	ra,ra,s5
    80003688:	004294bb          	sllw	s1,t0,tp
    8000368c:	aed68193          	addi	gp,a3,-1299
    80003690:	12cd059b          	addiw	a1,s10,300
    80003694:	01dc2fb3          	slt	t6,s8,t4
    80003698:	418489bb          	subw	s3,s1,s8
    8000369c:	031b8fb3          	mul	t6,s7,a7
    800036a0:	0242ee33          	rem	t3,t0,tp
    800036a4:	0242ee33          	rem	t3,t0,tp
    800036a8:	01f8d41b          	srliw	s0,a7,0x1f
    800036ac:	027b6e3b          	remw	t3,s6,t2
    800036b0:	03b1deb3          	divu	t4,gp,s11
    800036b4:	513faf93          	slti	t6,t6,1299
    800036b8:	00c59d9b          	slliw	s11,a1,0xc
    800036bc:	513faf93          	slti	t6,t6,1299
    800036c0:	0097de3b          	srlw	t3,a5,s1
    800036c4:	0350f0b3          	remu	ra,ra,s5
    800036c8:	0350f0b3          	remu	ra,ra,s5
    800036cc:	031b8fb3          	mul	t6,s7,a7
    800036d0:	02dc733b          	remuw	t1,s8,a3
    800036d4:	02dc733b          	remuw	t1,s8,a3
    800036d8:	034bccbb          	divw	s9,s7,s4
    800036dc:	03e65013          	srli	zero,a2,0x3e
    800036e0:	41b1d293          	srai	t0,gp,0x1b
    800036e4:	027b6e3b          	remw	t3,s6,t2
    800036e8:	031b8fb3          	mul	t6,s7,a7
    800036ec:	004294bb          	sllw	s1,t0,tp
    800036f0:	0168b0b3          	sltu	ra,a7,s6
    800036f4:	fff00f93          	li	t6,-1
    800036f8:	fff0061b          	addiw	a2,zero,-1
    800036fc:	03f61613          	slli	a2,a2,0x3f
    80003700:	00000213          	li	tp,0
    80003704:	ffa98437          	lui	s0,0xffa98
    80003708:	d0b4041b          	addiw	s0,s0,-757 # ffffffffffa97d0b <_end+0xffffffff7fa79383>
    8000370c:	01041413          	slli	s0,s0,0x10
    80003710:	dcf40413          	addi	s0,s0,-561
    80003714:	00c41413          	slli	s0,s0,0xc
    80003718:	e6b40413          	addi	s0,s0,-405
    8000371c:	00c41413          	slli	s0,s0,0xc
    80003720:	73c40413          	addi	s0,s0,1852
    80003724:	ffdcc9b7          	lui	s3,0xffdcc
    80003728:	76b9899b          	addiw	s3,s3,1899 # ffffffffffdcc76b <_end+0xffffffff7fdadde3>
    8000372c:	00c99993          	slli	s3,s3,0xc
    80003730:	09f98993          	addi	s3,s3,159
    80003734:	00f99993          	slli	s3,s3,0xf
    80003738:	dc998993          	addi	s3,s3,-567
    8000373c:	00d99993          	slli	s3,s3,0xd
    80003740:	67198993          	addi	s3,s3,1649
    80003744:	fff00813          	li	a6,-1
    80003748:	fff00a9b          	addiw	s5,zero,-1
    8000374c:	03fa9a93          	slli	s5,s5,0x3f
    80003750:	fff00593          	li	a1,-1
    80003754:	fff0091b          	addiw	s2,zero,-1
    80003758:	03f91913          	slli	s2,s2,0x3f
    8000375c:	fff0031b          	addiw	t1,zero,-1
    80003760:	03f31313          	slli	t1,t1,0x3f
    80003764:	c94dc237          	lui	tp,0xc94dc
    80003768:	02c3023b          	mulw	tp,t1,a2
    8000376c:	201de597          	auipc	a1,0x201de
    80003770:	02424333          	div	t1,tp,tp
    80003774:	0245d23b          	divuw	tp,a1,tp
    80003778:	03037333          	remu	t1,t1,a6
    8000377c:	02424333          	div	t1,tp,tp
    80003780:	006805bb          	addw	a1,a6,t1
    80003784:	02698333          	mul	t1,s3,t1
    80003788:	02424333          	div	t1,tp,tp
    8000378c:	415f843b          	subw	s0,t6,s5
    80003790:	03037333          	remu	t1,t1,a6
    80003794:	c94dc237          	lui	tp,0xc94dc
    80003798:	415f843b          	subw	s0,t6,s5
    8000379c:	415f843b          	subw	s0,t6,s5
    800037a0:	0339683b          	remw	a6,s2,s3
    800037a4:	40690ab3          	sub	s5,s2,t1
    800037a8:	02698333          	mul	t1,s3,t1
    800037ac:	03037333          	remu	t1,t1,a6
    800037b0:	02c3023b          	mulw	tp,t1,a2
    800037b4:	201de597          	auipc	a1,0x201de
    800037b8:	024f95b3          	mulh	a1,t6,tp
    800037bc:	aed60593          	addi	a1,a2,-1299 # a01e03b9 <_end+0x201c1a31>
    800037c0:	006805bb          	addw	a1,a6,t1
    800037c4:	aed60593          	addi	a1,a2,-1299
    800037c8:	03037333          	remu	t1,t1,a6
    800037cc:	02c9c9bb          	divw	s3,s3,a2
    800037d0:	02c3023b          	mulw	tp,t1,a2
    800037d4:	006805bb          	addw	a1,a6,t1
    800037d8:	00000013          	nop
    800037dc:	034bccbb          	divw	s9,s7,s4
    800037e0:	513faf93          	slti	t6,t6,1299
    800037e4:	00e443b3          	xor	t2,s0,a4
    800037e8:	03143933          	mulhu	s2,s0,a7
    800037ec:	12cd059b          	addiw	a1,s10,300
    800037f0:	001a9433          	sll	s0,s5,ra
    800037f4:	03e65013          	srli	zero,a2,0x3e
    800037f8:	010a5a33          	srl	s4,s4,a6
    800037fc:	01227033          	and	zero,tp,s2
    80003800:	0168b0b3          	sltu	ra,a7,s6
    80003804:	0097de3b          	srlw	t3,a5,s1
    80003808:	00c59d9b          	slliw	s11,a1,0xc
    8000380c:	4182ddb3          	sra	s11,t0,s8
    80003810:	01dc2fb3          	slt	t6,s8,t4
    80003814:	41acd23b          	sraw	tp,s9,s10
    80003818:	00e443b3          	xor	t2,s0,a4
    8000381c:	00000013          	nop
    80003820:	031b8fb3          	mul	t6,s7,a7
    80003824:	201de597          	auipc	a1,0x201de
    80003828:	024c1113          	slli	sp,s8,0x24
    8000382c:	41b1d293          	srai	t0,gp,0x1b
    80003830:	024d883b          	mulw	a6,s11,tp
    80003834:	031b8fb3          	mul	t6,s7,a7
    80003838:	daec3a13          	sltiu	s4,s8,-594
    8000383c:	001a9433          	sll	s0,s5,ra
    80003840:	0271aab3          	mulhsu	s5,gp,t2
    80003844:	004294bb          	sllw	s1,t0,tp
    80003848:	12cd059b          	addiw	a1,s10,300
    8000384c:	418489bb          	subw	s3,s1,s8
    80003850:	41acd23b          	sraw	tp,s9,s10
    80003854:	01227033          	and	zero,tp,s2
    80003858:	0350f0b3          	remu	ra,ra,s5
    8000385c:	0097de3b          	srlw	t3,a5,s1
    80003860:	0350f0b3          	remu	ra,ra,s5
    80003864:	41b1d293          	srai	t0,gp,0x1b
    80003868:	0271aab3          	mulhsu	s5,gp,t2
    8000386c:	40db0e33          	sub	t3,s6,a3
    80003870:	03d040b3          	div	ra,zero,t4
    80003874:	03e65013          	srli	zero,a2,0x3e
    80003878:	01aa8a3b          	addw	s4,s5,s10
    8000387c:	4028d81b          	sraiw	a6,a7,0x2
    80003880:	00000013          	nop
    80003884:	00000013          	nop
    80003888:	01f8d41b          	srliw	s0,a7,0x1f
    8000388c:	41b1d293          	srai	t0,gp,0x1b
    80003890:	12cd059b          	addiw	a1,s10,300
    80003894:	024c1113          	slli	sp,s8,0x24
    80003898:	001a9433          	sll	s0,s5,ra
    8000389c:	004294bb          	sllw	s1,t0,tp
    800038a0:	0207d83b          	divuw	a6,a5,zero
    800038a4:	0168b0b3          	sltu	ra,a7,s6
    800038a8:	4028d81b          	sraiw	a6,a7,0x2
    800038ac:	03e65013          	srli	zero,a2,0x3e
    800038b0:	aed68193          	addi	gp,a3,-1299
    800038b4:	41b1d293          	srai	t0,gp,0x1b
    800038b8:	027b6e3b          	remw	t3,s6,t2
    800038bc:	01aa8a3b          	addw	s4,s5,s10
    800038c0:	0097de3b          	srlw	t3,a5,s1
    800038c4:	201de597          	auipc	a1,0x201de
    800038c8:	0350f0b3          	remu	ra,ra,s5
    800038cc:	9e8ec093          	xori	ra,t4,-1560
    800038d0:	034bccbb          	divw	s9,s7,s4
    800038d4:	513faf93          	slti	t6,t6,1299
    800038d8:	01aa8a3b          	addw	s4,s5,s10
    800038dc:	027b6e3b          	remw	t3,s6,t2
    800038e0:	201de597          	auipc	a1,0x201de
    800038e4:	52af7d13          	andi	s10,t5,1322
    800038e8:	004294bb          	sllw	s1,t0,tp
    800038ec:	0168b0b3          	sltu	ra,a7,s6
    800038f0:	01aa8a3b          	addw	s4,s5,s10
    800038f4:	02dc733b          	remuw	t1,s8,a3
    800038f8:	0207d83b          	divuw	a6,a5,zero
    800038fc:	010a5a33          	srl	s4,s4,a6
    80003900:	53d76393          	ori	t2,a4,1341
    80003904:	01e06c33          	or	s8,zero,t5
    80003908:	01f8d41b          	srliw	s0,a7,0x1f
    8000390c:	00bd0233          	add	tp,s10,a1
    80003910:	daec3a13          	sltiu	s4,s8,-594
    80003914:	41b1d293          	srai	t0,gp,0x1b
    80003918:	0350f0b3          	remu	ra,ra,s5
    8000391c:	024c1113          	slli	sp,s8,0x24
    80003920:	0350f0b3          	remu	ra,ra,s5
    80003924:	01f8d41b          	srliw	s0,a7,0x1f
    80003928:	03b1deb3          	divu	t4,gp,s11
    8000392c:	201de597          	auipc	a1,0x201de
    80003930:	418489bb          	subw	s3,s1,s8
    80003934:	9e8ec093          	xori	ra,t4,-1560
    80003938:	01dc2fb3          	slt	t6,s8,t4
    8000393c:	024d883b          	mulw	a6,s11,tp
    80003940:	02dc733b          	remuw	t1,s8,a3
    80003944:	0207d83b          	divuw	a6,a5,zero
    80003948:	53d76393          	ori	t2,a4,1341
    8000394c:	9e8ec093          	xori	ra,t4,-1560
    80003950:	0242ee33          	rem	t3,t0,tp
    80003954:	001a9433          	sll	s0,s5,ra
    80003958:	024c1113          	slli	sp,s8,0x24
    8000395c:	0242ee33          	rem	t3,t0,tp
    80003960:	0168b0b3          	sltu	ra,a7,s6
    80003964:	0097de3b          	srlw	t3,a5,s1
    80003968:	001a9433          	sll	s0,s5,ra
    8000396c:	01aa8a3b          	addw	s4,s5,s10
    80003970:	0207d83b          	divuw	a6,a5,zero
    80003974:	027b6e3b          	remw	t3,s6,t2
    80003978:	010a5a33          	srl	s4,s4,a6
    8000397c:	00e443b3          	xor	t2,s0,a4
    80003980:	daec3a13          	sltiu	s4,s8,-594
    80003984:	004294bb          	sllw	s1,t0,tp
    80003988:	c94dc837          	lui	a6,0xc94dc
    8000398c:	4182ddb3          	sra	s11,t0,s8
    80003990:	02dc733b          	remuw	t1,s8,a3
    80003994:	01e06c33          	or	s8,zero,t5
    80003998:	01f8d41b          	srliw	s0,a7,0x1f
    8000399c:	03e65013          	srli	zero,a2,0x3e
    800039a0:	418489bb          	subw	s3,s1,s8
    800039a4:	034bccbb          	divw	s9,s7,s4
    800039a8:	010a5a33          	srl	s4,s4,a6
    800039ac:	00c59d9b          	slliw	s11,a1,0xc
    800039b0:	00000013          	nop
    800039b4:	024d883b          	mulw	a6,s11,tp
    800039b8:	0168b0b3          	sltu	ra,a7,s6
    800039bc:	010a5a33          	srl	s4,s4,a6
    800039c0:	03143933          	mulhu	s2,s0,a7
    800039c4:	aed68193          	addi	gp,a3,-1299
    800039c8:	031b8fb3          	mul	t6,s7,a7
    800039cc:	0168b0b3          	sltu	ra,a7,s6
    800039d0:	00c59d9b          	slliw	s11,a1,0xc
    800039d4:	034bccbb          	divw	s9,s7,s4
    800039d8:	53d76393          	ori	t2,a4,1341
    800039dc:	01dc2fb3          	slt	t6,s8,t4
    800039e0:	0271aab3          	mulhsu	s5,gp,t2
    800039e4:	9e8ec093          	xori	ra,t4,-1560
    800039e8:	52af7d13          	andi	s10,t5,1322
    800039ec:	4028d81b          	sraiw	a6,a7,0x2
    800039f0:	0271aab3          	mulhsu	s5,gp,t2
    800039f4:	03143933          	mulhu	s2,s0,a7
    800039f8:	001a9433          	sll	s0,s5,ra
    800039fc:	418489bb          	subw	s3,s1,s8
    80003a00:	aed68193          	addi	gp,a3,-1299
    80003a04:	53d76393          	ori	t2,a4,1341
    80003a08:	01f8d41b          	srliw	s0,a7,0x1f
    80003a0c:	418489bb          	subw	s3,s1,s8
    80003a10:	52af7d13          	andi	s10,t5,1322
    80003a14:	52af7d13          	andi	s10,t5,1322
    80003a18:	41b1d293          	srai	t0,gp,0x1b
    80003a1c:	034bccbb          	divw	s9,s7,s4
    80003a20:	418489bb          	subw	s3,s1,s8
    80003a24:	01aa8a3b          	addw	s4,s5,s10
    80003a28:	00e443b3          	xor	t2,s0,a4
    80003a2c:	4182ddb3          	sra	s11,t0,s8
    80003a30:	03e65013          	srli	zero,a2,0x3e
    80003a34:	02dc733b          	remuw	t1,s8,a3
    80003a38:	0207d83b          	divuw	a6,a5,zero
    80003a3c:	03e65013          	srli	zero,a2,0x3e
    80003a40:	03b1deb3          	divu	t4,gp,s11
    80003a44:	004294bb          	sllw	s1,t0,tp
    80003a48:	024d883b          	mulw	a6,s11,tp
    80003a4c:	53d76393          	ori	t2,a4,1341
    80003a50:	418489bb          	subw	s3,s1,s8
    80003a54:	0271aab3          	mulhsu	s5,gp,t2
    80003a58:	024c1113          	slli	sp,s8,0x24
    80003a5c:	01f8d41b          	srliw	s0,a7,0x1f
    80003a60:	03d040b3          	div	ra,zero,t4
    80003a64:	00000013          	nop
    80003a68:	004294bb          	sllw	s1,t0,tp
    80003a6c:	03b1deb3          	divu	t4,gp,s11
    80003a70:	004294bb          	sllw	s1,t0,tp
    80003a74:	201de597          	auipc	a1,0x201de
    80003a78:	0242ee33          	rem	t3,t0,tp
    80003a7c:	001a9433          	sll	s0,s5,ra
    80003a80:	03d040b3          	div	ra,zero,t4
    80003a84:	40db0e33          	sub	t3,s6,a3
    80003a88:	027b6e3b          	remw	t3,s6,t2
    80003a8c:	0350f0b3          	remu	ra,ra,s5
    80003a90:	aed68193          	addi	gp,a3,-1299
    80003a94:	024c1113          	slli	sp,s8,0x24
    80003a98:	0242ee33          	rem	t3,t0,tp
    80003a9c:	0168b0b3          	sltu	ra,a7,s6
    80003aa0:	031b8fb3          	mul	t6,s7,a7
    80003aa4:	00bd0233          	add	tp,s10,a1
    80003aa8:	00000013          	nop
    80003aac:	01dc2fb3          	slt	t6,s8,t4
    80003ab0:	4028d81b          	sraiw	a6,a7,0x2
    80003ab4:	010a5a33          	srl	s4,s4,a6
    80003ab8:	c94dc837          	lui	a6,0xc94dc
    80003abc:	418489bb          	subw	s3,s1,s8
    80003ac0:	03e65013          	srli	zero,a2,0x3e
    80003ac4:	0207d83b          	divuw	a6,a5,zero
    80003ac8:	00c59d9b          	slliw	s11,a1,0xc
    80003acc:	00bd0233          	add	tp,s10,a1
    80003ad0:	03d040b3          	div	ra,zero,t4
    80003ad4:	00000013          	nop
    80003ad8:	41b1d293          	srai	t0,gp,0x1b
    80003adc:	daec3a13          	sltiu	s4,s8,-594
    80003ae0:	0271aab3          	mulhsu	s5,gp,t2
    80003ae4:	024d883b          	mulw	a6,s11,tp
    80003ae8:	53d76393          	ori	t2,a4,1341
    80003aec:	0242ee33          	rem	t3,t0,tp
    80003af0:	03143933          	mulhu	s2,s0,a7
    80003af4:	03b1deb3          	divu	t4,gp,s11
    80003af8:	0242ee33          	rem	t3,t0,tp
    80003afc:	0168b0b3          	sltu	ra,a7,s6
    80003b00:	41acd23b          	sraw	tp,s9,s10
    80003b04:	00bd0233          	add	tp,s10,a1
    80003b08:	41acd23b          	sraw	tp,s9,s10
    80003b0c:	41b1d293          	srai	t0,gp,0x1b
    80003b10:	031b8fb3          	mul	t6,s7,a7
    80003b14:	01dc2fb3          	slt	t6,s8,t4
    80003b18:	c94dc837          	lui	a6,0xc94dc
    80003b1c:	4028d81b          	sraiw	a6,a7,0x2
    80003b20:	00bd0233          	add	tp,s10,a1
    80003b24:	9e8ec093          	xori	ra,t4,-1560
    80003b28:	001a9433          	sll	s0,s5,ra
    80003b2c:	00c59d9b          	slliw	s11,a1,0xc
    80003b30:	01aa8a3b          	addw	s4,s5,s10
    80003b34:	00c59d9b          	slliw	s11,a1,0xc
    80003b38:	0207d83b          	divuw	a6,a5,zero
    80003b3c:	52af7d13          	andi	s10,t5,1322
    80003b40:	9e8ec093          	xori	ra,t4,-1560
    80003b44:	03e65013          	srli	zero,a2,0x3e
    80003b48:	513faf93          	slti	t6,t6,1299
    80003b4c:	01dc2fb3          	slt	t6,s8,t4
    80003b50:	513faf93          	slti	t6,t6,1299
    80003b54:	52af7d13          	andi	s10,t5,1322
    80003b58:	03d040b3          	div	ra,zero,t4
    80003b5c:	201de597          	auipc	a1,0x201de
    80003b60:	03d040b3          	div	ra,zero,t4
    80003b64:	001a9433          	sll	s0,s5,ra
    80003b68:	00c59d9b          	slliw	s11,a1,0xc
    80003b6c:	12cd059b          	addiw	a1,s10,300
    80003b70:	0242ee33          	rem	t3,t0,tp
    80003b74:	027b6e3b          	remw	t3,s6,t2
    80003b78:	01f8d41b          	srliw	s0,a7,0x1f
    80003b7c:	201de597          	auipc	a1,0x201de
    80003b80:	03e65013          	srli	zero,a2,0x3e
    80003b84:	0207d83b          	divuw	a6,a5,zero
    80003b88:	00e443b3          	xor	t2,s0,a4
    80003b8c:	0207d83b          	divuw	a6,a5,zero
    80003b90:	00c59d9b          	slliw	s11,a1,0xc
    80003b94:	daec3a13          	sltiu	s4,s8,-594
    80003b98:	03b1deb3          	divu	t4,gp,s11
    80003b9c:	03d040b3          	div	ra,zero,t4
    80003ba0:	aed68193          	addi	gp,a3,-1299
    80003ba4:	020c9733          	mulh	a4,s9,zero
    80003ba8:	00000013          	nop
    80003bac:	027b6e3b          	remw	t3,s6,t2
    80003bb0:	03d040b3          	div	ra,zero,t4
    80003bb4:	010a5a33          	srl	s4,s4,a6
    80003bb8:	0168b0b3          	sltu	ra,a7,s6
    80003bbc:	004294bb          	sllw	s1,t0,tp
    80003bc0:	001a9433          	sll	s0,s5,ra
    80003bc4:	024c1113          	slli	sp,s8,0x24
    80003bc8:	034bccbb          	divw	s9,s7,s4
    80003bcc:	03d040b3          	div	ra,zero,t4
    80003bd0:	01227033          	and	zero,tp,s2
    80003bd4:	0097de3b          	srlw	t3,a5,s1
    80003bd8:	daec3a13          	sltiu	s4,s8,-594
    80003bdc:	03d040b3          	div	ra,zero,t4
    80003be0:	01dc2fb3          	slt	t6,s8,t4
    80003be4:	4182ddb3          	sra	s11,t0,s8
    80003be8:	03143933          	mulhu	s2,s0,a7
    80003bec:	03143933          	mulhu	s2,s0,a7
    80003bf0:	4028d81b          	sraiw	a6,a7,0x2
    80003bf4:	4028d81b          	sraiw	a6,a7,0x2
    80003bf8:	034bccbb          	divw	s9,s7,s4
    80003bfc:	01dc2fb3          	slt	t6,s8,t4
    80003c00:	01aa8a3b          	addw	s4,s5,s10
    80003c04:	004294bb          	sllw	s1,t0,tp
    80003c08:	41acd23b          	sraw	tp,s9,s10
    80003c0c:	00c59d9b          	slliw	s11,a1,0xc
    80003c10:	004294bb          	sllw	s1,t0,tp
    80003c14:	01aa8a3b          	addw	s4,s5,s10
    80003c18:	0097de3b          	srlw	t3,a5,s1
    80003c1c:	41b1d293          	srai	t0,gp,0x1b
    80003c20:	02dc733b          	remuw	t1,s8,a3
    80003c24:	01dc2fb3          	slt	t6,s8,t4
    80003c28:	418489bb          	subw	s3,s1,s8
    80003c2c:	00bd0233          	add	tp,s10,a1
    80003c30:	01dc2fb3          	slt	t6,s8,t4
    80003c34:	00e443b3          	xor	t2,s0,a4
    80003c38:	03d040b3          	div	ra,zero,t4
    80003c3c:	4028d81b          	sraiw	a6,a7,0x2
    80003c40:	9e8ec093          	xori	ra,t4,-1560
    80003c44:	41acd23b          	sraw	tp,s9,s10
    80003c48:	020c9733          	mulh	a4,s9,zero
    80003c4c:	9e8ec093          	xori	ra,t4,-1560
    80003c50:	aed68193          	addi	gp,a3,-1299
    80003c54:	024c1113          	slli	sp,s8,0x24
    80003c58:	010a5a33          	srl	s4,s4,a6
    80003c5c:	0168b0b3          	sltu	ra,a7,s6
    80003c60:	01f8d41b          	srliw	s0,a7,0x1f
    80003c64:	daec3a13          	sltiu	s4,s8,-594
    80003c68:	01aa8a3b          	addw	s4,s5,s10
    80003c6c:	0242ee33          	rem	t3,t0,tp
    80003c70:	daec3a13          	sltiu	s4,s8,-594
    80003c74:	40db0e33          	sub	t3,s6,a3
    80003c78:	027b6e3b          	remw	t3,s6,t2
    80003c7c:	02dc733b          	remuw	t1,s8,a3
    80003c80:	4028d81b          	sraiw	a6,a7,0x2
    80003c84:	00bd0233          	add	tp,s10,a1
    80003c88:	4028d81b          	sraiw	a6,a7,0x2
    80003c8c:	12cd059b          	addiw	a1,s10,300
    80003c90:	03143933          	mulhu	s2,s0,a7
    80003c94:	01dc2fb3          	slt	t6,s8,t4
    80003c98:	01dc2fb3          	slt	t6,s8,t4
    80003c9c:	c94dc837          	lui	a6,0xc94dc
    80003ca0:	0242ee33          	rem	t3,t0,tp
    80003ca4:	41acd23b          	sraw	tp,s9,s10
    80003ca8:	03e65013          	srli	zero,a2,0x3e
    80003cac:	004294bb          	sllw	s1,t0,tp
    80003cb0:	41acd23b          	sraw	tp,s9,s10
    80003cb4:	034bccbb          	divw	s9,s7,s4
    80003cb8:	201de597          	auipc	a1,0x201de
    80003cbc:	52af7d13          	andi	s10,t5,1322
    80003cc0:	52af7d13          	andi	s10,t5,1322
    80003cc4:	02dc733b          	remuw	t1,s8,a3
    80003cc8:	02dc733b          	remuw	t1,s8,a3
    80003ccc:	12cd059b          	addiw	a1,s10,300
    80003cd0:	03b1deb3          	divu	t4,gp,s11
    80003cd4:	001a9433          	sll	s0,s5,ra
    80003cd8:	024d883b          	mulw	a6,s11,tp
    80003cdc:	201de597          	auipc	a1,0x201de
    80003ce0:	0271aab3          	mulhsu	s5,gp,t2
    80003ce4:	00e443b3          	xor	t2,s0,a4
    80003ce8:	4182ddb3          	sra	s11,t0,s8
    80003cec:	01e06c33          	or	s8,zero,t5
    80003cf0:	daec3a13          	sltiu	s4,s8,-594
    80003cf4:	03143933          	mulhu	s2,s0,a7
    80003cf8:	201de597          	auipc	a1,0x201de
    80003cfc:	027b6e3b          	remw	t3,s6,t2
    80003d00:	513faf93          	slti	t6,t6,1299
    80003d04:	4182ddb3          	sra	s11,t0,s8
    80003d08:	02dc733b          	remuw	t1,s8,a3
    80003d0c:	4028d81b          	sraiw	a6,a7,0x2
    80003d10:	010a5a33          	srl	s4,s4,a6
    80003d14:	027b6e3b          	remw	t3,s6,t2
    80003d18:	0242ee33          	rem	t3,t0,tp
    80003d1c:	53d76393          	ori	t2,a4,1341
    80003d20:	418489bb          	subw	s3,s1,s8
    80003d24:	024d883b          	mulw	a6,s11,tp
    80003d28:	41acd23b          	sraw	tp,s9,s10
    80003d2c:	03b1deb3          	divu	t4,gp,s11
    80003d30:	daec3a13          	sltiu	s4,s8,-594
    80003d34:	024d883b          	mulw	a6,s11,tp
    80003d38:	03d040b3          	div	ra,zero,t4
    80003d3c:	40db0e33          	sub	t3,s6,a3
    80003d40:	00c59d9b          	slliw	s11,a1,0xc
    80003d44:	020c9733          	mulh	a4,s9,zero
    80003d48:	01e06c33          	or	s8,zero,t5
    80003d4c:	513faf93          	slti	t6,t6,1299
    80003d50:	02dc733b          	remuw	t1,s8,a3
    80003d54:	4028d81b          	sraiw	a6,a7,0x2
    80003d58:	0097de3b          	srlw	t3,a5,s1
    80003d5c:	00e443b3          	xor	t2,s0,a4
    80003d60:	aed68193          	addi	gp,a3,-1299
    80003d64:	004294bb          	sllw	s1,t0,tp
    80003d68:	12cd059b          	addiw	a1,s10,300
    80003d6c:	0350f0b3          	remu	ra,ra,s5
    80003d70:	41b1d293          	srai	t0,gp,0x1b
    80003d74:	4182ddb3          	sra	s11,t0,s8
    80003d78:	03b1deb3          	divu	t4,gp,s11
    80003d7c:	03b1deb3          	divu	t4,gp,s11
    80003d80:	01dc2fb3          	slt	t6,s8,t4
    80003d84:	03d040b3          	div	ra,zero,t4
    80003d88:	0271aab3          	mulhsu	s5,gp,t2
    80003d8c:	201de597          	auipc	a1,0x201de
    80003d90:	0168b0b3          	sltu	ra,a7,s6
    80003d94:	aed68193          	addi	gp,a3,-1299
    80003d98:	0097de3b          	srlw	t3,a5,s1
    80003d9c:	9e8ec093          	xori	ra,t4,-1560
    80003da0:	0242ee33          	rem	t3,t0,tp
    80003da4:	00000013          	nop
    80003da8:	01e06c33          	or	s8,zero,t5
    80003dac:	9e8ec093          	xori	ra,t4,-1560
    80003db0:	201de597          	auipc	a1,0x201de
    80003db4:	41acd23b          	sraw	tp,s9,s10
    80003db8:	02dc733b          	remuw	t1,s8,a3
    80003dbc:	034bccbb          	divw	s9,s7,s4
    80003dc0:	201de597          	auipc	a1,0x201de
    80003dc4:	03143933          	mulhu	s2,s0,a7
    80003dc8:	020c9733          	mulh	a4,s9,zero
    80003dcc:	41acd23b          	sraw	tp,s9,s10
    80003dd0:	201de597          	auipc	a1,0x201de
    80003dd4:	201de597          	auipc	a1,0x201de
    80003dd8:	01227033          	and	zero,tp,s2
    80003ddc:	0097de3b          	srlw	t3,a5,s1
    80003de0:	0207d83b          	divuw	a6,a5,zero
    80003de4:	40db0e33          	sub	t3,s6,a3
    80003de8:	02dc733b          	remuw	t1,s8,a3
    80003dec:	9e8ec093          	xori	ra,t4,-1560
    80003df0:	001a9433          	sll	s0,s5,ra
    80003df4:	03d040b3          	div	ra,zero,t4
    80003df8:	01dc2fb3          	slt	t6,s8,t4
    80003dfc:	53d76393          	ori	t2,a4,1341
    80003e00:	00e443b3          	xor	t2,s0,a4
    80003e04:	201de597          	auipc	a1,0x201de
    80003e08:	0271aab3          	mulhsu	s5,gp,t2
    80003e0c:	41b1d293          	srai	t0,gp,0x1b
    80003e10:	010a5a33          	srl	s4,s4,a6
    80003e14:	0271aab3          	mulhsu	s5,gp,t2
    80003e18:	0242ee33          	rem	t3,t0,tp
    80003e1c:	12cd059b          	addiw	a1,s10,300
    80003e20:	4182ddb3          	sra	s11,t0,s8
    80003e24:	c94dc837          	lui	a6,0xc94dc
    80003e28:	201de597          	auipc	a1,0x201de
    80003e2c:	0207d83b          	divuw	a6,a5,zero
    80003e30:	53d76393          	ori	t2,a4,1341
    80003e34:	41acd23b          	sraw	tp,s9,s10
    80003e38:	024c1113          	slli	sp,s8,0x24
    80003e3c:	00e443b3          	xor	t2,s0,a4
    80003e40:	daec3a13          	sltiu	s4,s8,-594
    80003e44:	0168b0b3          	sltu	ra,a7,s6
    80003e48:	12cd059b          	addiw	a1,s10,300
    80003e4c:	027b6e3b          	remw	t3,s6,t2
    80003e50:	03e65013          	srli	zero,a2,0x3e
    80003e54:	02dc733b          	remuw	t1,s8,a3
    80003e58:	418489bb          	subw	s3,s1,s8
    80003e5c:	03143933          	mulhu	s2,s0,a7
    80003e60:	4182ddb3          	sra	s11,t0,s8
    80003e64:	034bccbb          	divw	s9,s7,s4
    80003e68:	0271aab3          	mulhsu	s5,gp,t2
    80003e6c:	00000013          	nop
    80003e70:	0207d83b          	divuw	a6,a5,zero
    80003e74:	03b1deb3          	divu	t4,gp,s11
    80003e78:	020c9733          	mulh	a4,s9,zero
    80003e7c:	0242ee33          	rem	t3,t0,tp
    80003e80:	4028d81b          	sraiw	a6,a7,0x2
    80003e84:	40db0e33          	sub	t3,s6,a3
    80003e88:	9e8ec093          	xori	ra,t4,-1560
    80003e8c:	02dc733b          	remuw	t1,s8,a3
    80003e90:	0207d83b          	divuw	a6,a5,zero
    80003e94:	daec3a13          	sltiu	s4,s8,-594
    80003e98:	0350f0b3          	remu	ra,ra,s5
    80003e9c:	41acd23b          	sraw	tp,s9,s10
    80003ea0:	010a5a33          	srl	s4,s4,a6
    80003ea4:	41acd23b          	sraw	tp,s9,s10
    80003ea8:	513faf93          	slti	t6,t6,1299
    80003eac:	418489bb          	subw	s3,s1,s8
    80003eb0:	0168b0b3          	sltu	ra,a7,s6
    80003eb4:	004294bb          	sllw	s1,t0,tp
    80003eb8:	01aa8a3b          	addw	s4,s5,s10
    80003ebc:	03e65013          	srli	zero,a2,0x3e
    80003ec0:	0207d83b          	divuw	a6,a5,zero
    80003ec4:	53d76393          	ori	t2,a4,1341
    80003ec8:	12cd059b          	addiw	a1,s10,300
    80003ecc:	53d76393          	ori	t2,a4,1341
    80003ed0:	0350f0b3          	remu	ra,ra,s5
    80003ed4:	9e8ec093          	xori	ra,t4,-1560
    80003ed8:	024d883b          	mulw	a6,s11,tp
    80003edc:	418489bb          	subw	s3,s1,s8
    80003ee0:	027b6e3b          	remw	t3,s6,t2
    80003ee4:	00c59d9b          	slliw	s11,a1,0xc
    80003ee8:	01f8d41b          	srliw	s0,a7,0x1f
    80003eec:	01227033          	and	zero,tp,s2
    80003ef0:	004294bb          	sllw	s1,t0,tp
    80003ef4:	513faf93          	slti	t6,t6,1299
    80003ef8:	010a5a33          	srl	s4,s4,a6
    80003efc:	01227033          	and	zero,tp,s2
    80003f00:	03e65013          	srli	zero,a2,0x3e
    80003f04:	01f8d41b          	srliw	s0,a7,0x1f
    80003f08:	031b8fb3          	mul	t6,s7,a7
    80003f0c:	0097de3b          	srlw	t3,a5,s1
    80003f10:	01e06c33          	or	s8,zero,t5
    80003f14:	010a5a33          	srl	s4,s4,a6
    80003f18:	daec3a13          	sltiu	s4,s8,-594
    80003f1c:	0242ee33          	rem	t3,t0,tp
    80003f20:	40db0e33          	sub	t3,s6,a3
    80003f24:	03b1deb3          	divu	t4,gp,s11
    80003f28:	52af7d13          	andi	s10,t5,1322
    80003f2c:	010a5a33          	srl	s4,s4,a6
    80003f30:	03b1deb3          	divu	t4,gp,s11
    80003f34:	0242ee33          	rem	t3,t0,tp
    80003f38:	034bccbb          	divw	s9,s7,s4
    80003f3c:	027b6e3b          	remw	t3,s6,t2
    80003f40:	01aa8a3b          	addw	s4,s5,s10
    80003f44:	41b1d293          	srai	t0,gp,0x1b
    80003f48:	9e8ec093          	xori	ra,t4,-1560
    80003f4c:	00c59d9b          	slliw	s11,a1,0xc
    80003f50:	0207d83b          	divuw	a6,a5,zero
    80003f54:	010a5a33          	srl	s4,s4,a6
    80003f58:	01e06c33          	or	s8,zero,t5
    80003f5c:	201de597          	auipc	a1,0x201de
    80003f60:	01f8d41b          	srliw	s0,a7,0x1f
    80003f64:	418489bb          	subw	s3,s1,s8
    80003f68:	00000013          	nop
    80003f6c:	0271aab3          	mulhsu	s5,gp,t2
    80003f70:	4182ddb3          	sra	s11,t0,s8
    80003f74:	513faf93          	slti	t6,t6,1299
    80003f78:	418489bb          	subw	s3,s1,s8
    80003f7c:	aed68193          	addi	gp,a3,-1299
    80003f80:	034bccbb          	divw	s9,s7,s4
    80003f84:	02dc733b          	remuw	t1,s8,a3
    80003f88:	9e8ec093          	xori	ra,t4,-1560
    80003f8c:	12cd059b          	addiw	a1,s10,300
    80003f90:	027b6e3b          	remw	t3,s6,t2
    80003f94:	02dc733b          	remuw	t1,s8,a3
    80003f98:	03143933          	mulhu	s2,s0,a7
    80003f9c:	024c1113          	slli	sp,s8,0x24
    80003fa0:	01e06c33          	or	s8,zero,t5
    80003fa4:	0242ee33          	rem	t3,t0,tp
    80003fa8:	0168b0b3          	sltu	ra,a7,s6
    80003fac:	024c1113          	slli	sp,s8,0x24
    80003fb0:	00c59d9b          	slliw	s11,a1,0xc
    80003fb4:	0242ee33          	rem	t3,t0,tp
    80003fb8:	031b8fb3          	mul	t6,s7,a7
    80003fbc:	010a5a33          	srl	s4,s4,a6
    80003fc0:	00bd0233          	add	tp,s10,a1
    80003fc4:	53d76393          	ori	t2,a4,1341
    80003fc8:	0168b0b3          	sltu	ra,a7,s6
    80003fcc:	aed68193          	addi	gp,a3,-1299
    80003fd0:	010a5a33          	srl	s4,s4,a6
    80003fd4:	0242ee33          	rem	t3,t0,tp
    80003fd8:	0242ee33          	rem	t3,t0,tp
    80003fdc:	53d76393          	ori	t2,a4,1341
    80003fe0:	aed68193          	addi	gp,a3,-1299
    80003fe4:	41acd23b          	sraw	tp,s9,s10
    80003fe8:	aed68193          	addi	gp,a3,-1299
    80003fec:	00c59d9b          	slliw	s11,a1,0xc
    80003ff0:	0242ee33          	rem	t3,t0,tp
    80003ff4:	40db0e33          	sub	t3,s6,a3
    80003ff8:	00000013          	nop
    80003ffc:	12cd059b          	addiw	a1,s10,300
    80004000:	40db0e33          	sub	t3,s6,a3
    80004004:	0242ee33          	rem	t3,t0,tp
    80004008:	0097de3b          	srlw	t3,a5,s1
    8000400c:	024c1113          	slli	sp,s8,0x24
    80004010:	12cd059b          	addiw	a1,s10,300
    80004014:	0207d83b          	divuw	a6,a5,zero
    80004018:	024d883b          	mulw	a6,s11,tp
    8000401c:	027b6e3b          	remw	t3,s6,t2
    80004020:	01227033          	and	zero,tp,s2
    80004024:	031b8fb3          	mul	t6,s7,a7
    80004028:	00e443b3          	xor	t2,s0,a4
    8000402c:	201de597          	auipc	a1,0x201de
    80004030:	010a5a33          	srl	s4,s4,a6
    80004034:	41acd23b          	sraw	tp,s9,s10
    80004038:	0350f0b3          	remu	ra,ra,s5
    8000403c:	201de597          	auipc	a1,0x201de
    80004040:	52af7d13          	andi	s10,t5,1322
    80004044:	201de597          	auipc	a1,0x201de
    80004048:	00000013          	nop
    8000404c:	c94dc837          	lui	a6,0xc94dc
    80004050:	41acd23b          	sraw	tp,s9,s10
    80004054:	53d76393          	ori	t2,a4,1341
    80004058:	52af7d13          	andi	s10,t5,1322
    8000405c:	9e8ec093          	xori	ra,t4,-1560
    80004060:	0350f0b3          	remu	ra,ra,s5
    80004064:	418489bb          	subw	s3,s1,s8
    80004068:	01f8d41b          	srliw	s0,a7,0x1f
    8000406c:	027b6e3b          	remw	t3,s6,t2
    80004070:	034bccbb          	divw	s9,s7,s4
    80004074:	41acd23b          	sraw	tp,s9,s10
    80004078:	03e65013          	srli	zero,a2,0x3e
    8000407c:	01e06c33          	or	s8,zero,t5
    80004080:	daec3a13          	sltiu	s4,s8,-594
    80004084:	024c1113          	slli	sp,s8,0x24
    80004088:	0168b0b3          	sltu	ra,a7,s6
    8000408c:	9e8ec093          	xori	ra,t4,-1560
    80004090:	03143933          	mulhu	s2,s0,a7
    80004094:	201de597          	auipc	a1,0x201de
    80004098:	01227033          	and	zero,tp,s2
    8000409c:	53d76393          	ori	t2,a4,1341
    800040a0:	00e443b3          	xor	t2,s0,a4
    800040a4:	03e65013          	srli	zero,a2,0x3e
    800040a8:	024c1113          	slli	sp,s8,0x24
    800040ac:	c94dc837          	lui	a6,0xc94dc
    800040b0:	020c9733          	mulh	a4,s9,zero
    800040b4:	201de597          	auipc	a1,0x201de
    800040b8:	0271aab3          	mulhsu	s5,gp,t2
    800040bc:	0097de3b          	srlw	t3,a5,s1
    800040c0:	00bd0233          	add	tp,s10,a1
    800040c4:	40db0e33          	sub	t3,s6,a3
    800040c8:	0350f0b3          	remu	ra,ra,s5
    800040cc:	4028d81b          	sraiw	a6,a7,0x2
    800040d0:	00bd0233          	add	tp,s10,a1
    800040d4:	0350f0b3          	remu	ra,ra,s5
    800040d8:	00000013          	nop
    800040dc:	0207d83b          	divuw	a6,a5,zero
    800040e0:	027b6e3b          	remw	t3,s6,t2
    800040e4:	01dc2fb3          	slt	t6,s8,t4
    800040e8:	0350f0b3          	remu	ra,ra,s5
    800040ec:	41b1d293          	srai	t0,gp,0x1b
    800040f0:	00bd0233          	add	tp,s10,a1
    800040f4:	40db0e33          	sub	t3,s6,a3
    800040f8:	03d040b3          	div	ra,zero,t4
    800040fc:	41acd23b          	sraw	tp,s9,s10
    80004100:	0350f0b3          	remu	ra,ra,s5
    80004104:	00000013          	nop
    80004108:	024c1113          	slli	sp,s8,0x24
    8000410c:	01227033          	and	zero,tp,s2
    80004110:	034bccbb          	divw	s9,s7,s4
    80004114:	010a5a33          	srl	s4,s4,a6
    80004118:	01e06c33          	or	s8,zero,t5
    8000411c:	01227033          	and	zero,tp,s2
    80004120:	020c9733          	mulh	a4,s9,zero
    80004124:	12cd059b          	addiw	a1,s10,300
    80004128:	0242ee33          	rem	t3,t0,tp
    8000412c:	9e8ec093          	xori	ra,t4,-1560
    80004130:	41b1d293          	srai	t0,gp,0x1b
    80004134:	0207d83b          	divuw	a6,a5,zero
    80004138:	02dc733b          	remuw	t1,s8,a3
    8000413c:	4182ddb3          	sra	s11,t0,s8
    80004140:	00000013          	nop
    80004144:	027b6e3b          	remw	t3,s6,t2
    80004148:	03e65013          	srli	zero,a2,0x3e
    8000414c:	aed68193          	addi	gp,a3,-1299
    80004150:	201de597          	auipc	a1,0x201de
    80004154:	034bccbb          	divw	s9,s7,s4
    80004158:	0207d83b          	divuw	a6,a5,zero
    8000415c:	41b1d293          	srai	t0,gp,0x1b
    80004160:	00bd0233          	add	tp,s10,a1
    80004164:	027b6e3b          	remw	t3,s6,t2
    80004168:	03d040b3          	div	ra,zero,t4
    8000416c:	031b8fb3          	mul	t6,s7,a7
    80004170:	aed68193          	addi	gp,a3,-1299
    80004174:	001a9433          	sll	s0,s5,ra
    80004178:	024c1113          	slli	sp,s8,0x24
    8000417c:	02dc733b          	remuw	t1,s8,a3
    80004180:	03b1deb3          	divu	t4,gp,s11
    80004184:	03e65013          	srli	zero,a2,0x3e
    80004188:	0168b0b3          	sltu	ra,a7,s6
    8000418c:	0207d83b          	divuw	a6,a5,zero
    80004190:	201de597          	auipc	a1,0x201de
    80004194:	001a9433          	sll	s0,s5,ra
    80004198:	0242ee33          	rem	t3,t0,tp
    8000419c:	53d76393          	ori	t2,a4,1341
    800041a0:	02dc733b          	remuw	t1,s8,a3
    800041a4:	03d040b3          	div	ra,zero,t4
    800041a8:	004294bb          	sllw	s1,t0,tp
    800041ac:	00000013          	nop
    800041b0:	03143933          	mulhu	s2,s0,a7
    800041b4:	c94dc837          	lui	a6,0xc94dc
    800041b8:	418489bb          	subw	s3,s1,s8
    800041bc:	201de597          	auipc	a1,0x201de
    800041c0:	03143933          	mulhu	s2,s0,a7
    800041c4:	52af7d13          	andi	s10,t5,1322
    800041c8:	00e443b3          	xor	t2,s0,a4
    800041cc:	03e65013          	srli	zero,a2,0x3e
    800041d0:	03143933          	mulhu	s2,s0,a7
    800041d4:	00e443b3          	xor	t2,s0,a4
    800041d8:	024c1113          	slli	sp,s8,0x24
    800041dc:	4028d81b          	sraiw	a6,a7,0x2
    800041e0:	034bccbb          	divw	s9,s7,s4
    800041e4:	418489bb          	subw	s3,s1,s8
    800041e8:	010a5a33          	srl	s4,s4,a6
    800041ec:	031b8fb3          	mul	t6,s7,a7
    800041f0:	01e06c33          	or	s8,zero,t5
    800041f4:	03e65013          	srli	zero,a2,0x3e
    800041f8:	03d040b3          	div	ra,zero,t4
    800041fc:	53d76393          	ori	t2,a4,1341
    80004200:	4182ddb3          	sra	s11,t0,s8
    80004204:	03d040b3          	div	ra,zero,t4
    80004208:	010a5a33          	srl	s4,s4,a6
    8000420c:	01e06c33          	or	s8,zero,t5
    80004210:	00e443b3          	xor	t2,s0,a4
    80004214:	4182ddb3          	sra	s11,t0,s8
    80004218:	418489bb          	subw	s3,s1,s8
    8000421c:	12cd059b          	addiw	a1,s10,300
    80004220:	00000013          	nop
    80004224:	01227033          	and	zero,tp,s2
    80004228:	027b6e3b          	remw	t3,s6,t2
    8000422c:	031b8fb3          	mul	t6,s7,a7
    80004230:	01aa8a3b          	addw	s4,s5,s10
    80004234:	0271aab3          	mulhsu	s5,gp,t2
    80004238:	12cd059b          	addiw	a1,s10,300
    8000423c:	4028d81b          	sraiw	a6,a7,0x2
    80004240:	01227033          	and	zero,tp,s2
    80004244:	9e8ec093          	xori	ra,t4,-1560
    80004248:	4182ddb3          	sra	s11,t0,s8
    8000424c:	52af7d13          	andi	s10,t5,1322
    80004250:	fff0019b          	addiw	gp,zero,-1
    80004254:	03f19193          	slli	gp,gp,0x3f
    80004258:	00038cb7          	lui	s9,0x38
    8000425c:	259c8c9b          	addiw	s9,s9,601 # 38259 <_start-0x7ffc7da7>
    80004260:	00fc9c93          	slli	s9,s9,0xf
    80004264:	f6bc8c93          	addi	s9,s9,-149
    80004268:	00dc9c93          	slli	s9,s9,0xd
    8000426c:	b15c8c93          	addi	s9,s9,-1259
    80004270:	00cc9c93          	slli	s9,s9,0xc
    80004274:	daec8c93          	addi	s9,s9,-594
    80004278:	fff0041b          	addiw	s0,zero,-1
    8000427c:	03f41413          	slli	s0,s0,0x3f
    80004280:	fff0009b          	addiw	ra,zero,-1
    80004284:	03f09093          	slli	ra,ra,0x3f
    80004288:	fff00113          	li	sp,-1
    8000428c:	000d7237          	lui	tp,0xd7
    80004290:	eab2021b          	addiw	tp,tp,-341 # d6eab <_start-0x7ff29155>
    80004294:	01021213          	slli	tp,tp,0x10
    80004298:	a3920213          	addi	tp,tp,-1479 # fffffffffffffa39 <_end+0xffffffff7ffe10b1>
    8000429c:	00c21213          	slli	tp,tp,0xc
    800042a0:	d2320213          	addi	tp,tp,-733 # fffffffffffffd23 <_end+0xffffffff7ffe139b>
    800042a4:	00c21213          	slli	tp,tp,0xc
    800042a8:	19620213          	addi	tp,tp,406 # 196 <_start-0x7ffffe6a>
    800042ac:	00000793          	li	a5,0
    800042b0:	00000d93          	li	s11,0
    800042b4:	ffb52937          	lui	s2,0xffb52
    800042b8:	dbb9091b          	addiw	s2,s2,-581 # ffffffffffb51dbb <_end+0xffffffff7fb33433>
    800042bc:	00c91913          	slli	s2,s2,0xc
    800042c0:	3ef90913          	addi	s2,s2,1007
    800042c4:	00e91913          	slli	s2,s2,0xe
    800042c8:	65790913          	addi	s2,s2,1623
    800042cc:	00d91913          	slli	s2,s2,0xd
    800042d0:	51690913          	addi	s2,s2,1302
    800042d4:	fff00a93          	li	s5,-1
    800042d8:	021250bb          	divuw	ra,tp,ra
    800042dc:	021d9233          	mulh	tp,s11,ra
    800042e0:	028100bb          	mulw	ra,sp,s0
    800042e4:	039250b3          	divu	ra,tp,s9
    800042e8:	40290cb3          	sub	s9,s2,sp
    800042ec:	035967bb          	remw	a5,s2,s5
    800042f0:	01918433          	add	s0,gp,s9
    800042f4:	021250bb          	divuw	ra,tp,ra
    800042f8:	00000013          	nop
    800042fc:	035cf93b          	remuw	s2,s9,s5
    80004300:	02f17133          	remu	sp,sp,a5
    80004304:	02f17133          	remu	sp,sp,a5
    80004308:	aed40213          	addi	tp,s0,-1299
    8000430c:	028acabb          	divw	s5,s5,s0
    80004310:	0027823b          	addw	tp,a5,sp
    80004314:	035cf93b          	remuw	s2,s9,s5
    80004318:	00000013          	nop
    8000431c:	021d9233          	mulh	tp,s11,ra
    80004320:	12c7891b          	addiw	s2,a5,300
    80004324:	02f17133          	remu	sp,sp,a5
    80004328:	9e8ec093          	xori	ra,t4,-1560
    8000432c:	513faf93          	slti	t6,t6,1299
    80004330:	03e65013          	srli	zero,a2,0x3e
    80004334:	40db0e33          	sub	t3,s6,a3
    80004338:	024d883b          	mulw	a6,s11,tp
    8000433c:	01f8d41b          	srliw	s0,a7,0x1f
    80004340:	034bccbb          	divw	s9,s7,s4
    80004344:	027b6e3b          	remw	t3,s6,t2
    80004348:	034bccbb          	divw	s9,s7,s4
    8000434c:	027b6e3b          	remw	t3,s6,t2
    80004350:	0097de3b          	srlw	t3,a5,s1
    80004354:	010a5a33          	srl	s4,s4,a6
    80004358:	513faf93          	slti	t6,t6,1299
    8000435c:	53d76393          	ori	t2,a4,1341
    80004360:	0168b0b3          	sltu	ra,a7,s6
    80004364:	03d040b3          	div	ra,zero,t4
    80004368:	02dc733b          	remuw	t1,s8,a3
    8000436c:	0242ee33          	rem	t3,t0,tp
    80004370:	0271aab3          	mulhsu	s5,gp,t2
    80004374:	01f8d41b          	srliw	s0,a7,0x1f
    80004378:	00000013          	nop
    8000437c:	01f8d41b          	srliw	s0,a7,0x1f
    80004380:	004294bb          	sllw	s1,t0,tp
    80004384:	03143933          	mulhu	s2,s0,a7
    80004388:	00000013          	nop
    8000438c:	00c59d9b          	slliw	s11,a1,0xc
    80004390:	4182ddb3          	sra	s11,t0,s8
    80004394:	00e443b3          	xor	t2,s0,a4
    80004398:	0350f0b3          	remu	ra,ra,s5
    8000439c:	418489bb          	subw	s3,s1,s8
    800043a0:	027b6e3b          	remw	t3,s6,t2
    800043a4:	03e65013          	srli	zero,a2,0x3e
    800043a8:	4182ddb3          	sra	s11,t0,s8
    800043ac:	9e8ec093          	xori	ra,t4,-1560
    800043b0:	daec3a13          	sltiu	s4,s8,-594
    800043b4:	01aa8a3b          	addw	s4,s5,s10
    800043b8:	01f8d41b          	srliw	s0,a7,0x1f
    800043bc:	00e443b3          	xor	t2,s0,a4
    800043c0:	010a5a33          	srl	s4,s4,a6
    800043c4:	020c9733          	mulh	a4,s9,zero
    800043c8:	01f8d41b          	srliw	s0,a7,0x1f
    800043cc:	00e443b3          	xor	t2,s0,a4
    800043d0:	53d76393          	ori	t2,a4,1341
    800043d4:	02dc733b          	remuw	t1,s8,a3
    800043d8:	418489bb          	subw	s3,s1,s8
    800043dc:	513faf93          	slti	t6,t6,1299
    800043e0:	daec3a13          	sltiu	s4,s8,-594
    800043e4:	024d883b          	mulw	a6,s11,tp
    800043e8:	01227033          	and	zero,tp,s2
    800043ec:	00000013          	nop
    800043f0:	01e06c33          	or	s8,zero,t5
    800043f4:	03143933          	mulhu	s2,s0,a7
    800043f8:	01dc2fb3          	slt	t6,s8,t4
    800043fc:	03d040b3          	div	ra,zero,t4
    80004400:	00bd0233          	add	tp,s10,a1
    80004404:	201de597          	auipc	a1,0x201de
    80004408:	001a9433          	sll	s0,s5,ra
    8000440c:	031b8fb3          	mul	t6,s7,a7
    80004410:	02dc733b          	remuw	t1,s8,a3
    80004414:	0350f0b3          	remu	ra,ra,s5
    80004418:	0097de3b          	srlw	t3,a5,s1
    8000441c:	418489bb          	subw	s3,s1,s8
    80004420:	00000013          	nop
    80004424:	01e06c33          	or	s8,zero,t5
    80004428:	027b6e3b          	remw	t3,s6,t2
    8000442c:	027b6e3b          	remw	t3,s6,t2
    80004430:	00bd0233          	add	tp,s10,a1
    80004434:	0350f0b3          	remu	ra,ra,s5
    80004438:	daec3a13          	sltiu	s4,s8,-594
    8000443c:	9e8ec093          	xori	ra,t4,-1560
    80004440:	001a9433          	sll	s0,s5,ra
    80004444:	53d76393          	ori	t2,a4,1341
    80004448:	0168b0b3          	sltu	ra,a7,s6
    8000444c:	03b1deb3          	divu	t4,gp,s11
    80004450:	52af7d13          	andi	s10,t5,1322
    80004454:	00000013          	nop
    80004458:	020c9733          	mulh	a4,s9,zero
    8000445c:	01aa8a3b          	addw	s4,s5,s10
    80004460:	031b8fb3          	mul	t6,s7,a7
    80004464:	53d76393          	ori	t2,a4,1341
    80004468:	01227033          	and	zero,tp,s2
    8000446c:	0168b0b3          	sltu	ra,a7,s6
    80004470:	41b1d293          	srai	t0,gp,0x1b
    80004474:	031b8fb3          	mul	t6,s7,a7
    80004478:	024c1113          	slli	sp,s8,0x24
    8000447c:	0207d83b          	divuw	a6,a5,zero
    80004480:	0242ee33          	rem	t3,t0,tp
    80004484:	020c9733          	mulh	a4,s9,zero
    80004488:	4028d81b          	sraiw	a6,a7,0x2
    8000448c:	0271aab3          	mulhsu	s5,gp,t2
    80004490:	201de597          	auipc	a1,0x201de
    80004494:	03b1deb3          	divu	t4,gp,s11
    80004498:	027b6e3b          	remw	t3,s6,t2
    8000449c:	01aa8a3b          	addw	s4,s5,s10
    800044a0:	01dc2fb3          	slt	t6,s8,t4
    800044a4:	c94dc837          	lui	a6,0xc94dc
    800044a8:	daec3a13          	sltiu	s4,s8,-594
    800044ac:	41acd23b          	sraw	tp,s9,s10
    800044b0:	0097de3b          	srlw	t3,a5,s1
    800044b4:	513faf93          	slti	t6,t6,1299
    800044b8:	024d883b          	mulw	a6,s11,tp
    800044bc:	01227033          	and	zero,tp,s2
    800044c0:	4028d81b          	sraiw	a6,a7,0x2
    800044c4:	00c59d9b          	slliw	s11,a1,0xc
    800044c8:	01f8d41b          	srliw	s0,a7,0x1f
    800044cc:	0097de3b          	srlw	t3,a5,s1
    800044d0:	c94dc837          	lui	a6,0xc94dc
    800044d4:	010a5a33          	srl	s4,s4,a6
    800044d8:	12cd059b          	addiw	a1,s10,300
    800044dc:	daec3a13          	sltiu	s4,s8,-594
    800044e0:	52af7d13          	andi	s10,t5,1322
    800044e4:	024d883b          	mulw	a6,s11,tp
    800044e8:	00000013          	nop
    800044ec:	004294bb          	sllw	s1,t0,tp
    800044f0:	01e06c33          	or	s8,zero,t5
    800044f4:	4028d81b          	sraiw	a6,a7,0x2
    800044f8:	0207d83b          	divuw	a6,a5,zero
    800044fc:	0242ee33          	rem	t3,t0,tp
    80004500:	00000013          	nop
    80004504:	41acd23b          	sraw	tp,s9,s10
    80004508:	aed68193          	addi	gp,a3,-1299
    8000450c:	00c59d9b          	slliw	s11,a1,0xc
    80004510:	0097de3b          	srlw	t3,a5,s1
    80004514:	41b1d293          	srai	t0,gp,0x1b
    80004518:	03d040b3          	div	ra,zero,t4
    8000451c:	0271aab3          	mulhsu	s5,gp,t2
    80004520:	0207d83b          	divuw	a6,a5,zero
    80004524:	12cd059b          	addiw	a1,s10,300
    80004528:	201de597          	auipc	a1,0x201de
    8000452c:	12cd059b          	addiw	a1,s10,300
    80004530:	034bccbb          	divw	s9,s7,s4
    80004534:	daec3a13          	sltiu	s4,s8,-594
    80004538:	41b1d293          	srai	t0,gp,0x1b
    8000453c:	01e06c33          	or	s8,zero,t5
    80004540:	024c1113          	slli	sp,s8,0x24
    80004544:	4182ddb3          	sra	s11,t0,s8
    80004548:	03d040b3          	div	ra,zero,t4
    8000454c:	024c1113          	slli	sp,s8,0x24
    80004550:	00000013          	nop
    80004554:	02dc733b          	remuw	t1,s8,a3
    80004558:	513faf93          	slti	t6,t6,1299
    8000455c:	00e443b3          	xor	t2,s0,a4
    80004560:	513faf93          	slti	t6,t6,1299
    80004564:	024c1113          	slli	sp,s8,0x24
    80004568:	00000013          	nop
    8000456c:	01227033          	and	zero,tp,s2
    80004570:	aed68193          	addi	gp,a3,-1299
    80004574:	0168b0b3          	sltu	ra,a7,s6
    80004578:	001a9433          	sll	s0,s5,ra
    8000457c:	41acd23b          	sraw	tp,s9,s10
    80004580:	03b1deb3          	divu	t4,gp,s11
    80004584:	031b8fb3          	mul	t6,s7,a7
    80004588:	41acd23b          	sraw	tp,s9,s10
    8000458c:	004294bb          	sllw	s1,t0,tp
    80004590:	020c9733          	mulh	a4,s9,zero
    80004594:	53d76393          	ori	t2,a4,1341
    80004598:	001a9433          	sll	s0,s5,ra
    8000459c:	024d883b          	mulw	a6,s11,tp
    800045a0:	513faf93          	slti	t6,t6,1299
    800045a4:	03b1deb3          	divu	t4,gp,s11
    800045a8:	031b8fb3          	mul	t6,s7,a7
    800045ac:	201de597          	auipc	a1,0x201de
    800045b0:	03e65013          	srli	zero,a2,0x3e
    800045b4:	daec3a13          	sltiu	s4,s8,-594
    800045b8:	01aa8a3b          	addw	s4,s5,s10
    800045bc:	41b1d293          	srai	t0,gp,0x1b
    800045c0:	01227033          	and	zero,tp,s2
    800045c4:	024d883b          	mulw	a6,s11,tp
    800045c8:	418489bb          	subw	s3,s1,s8
    800045cc:	00bd0233          	add	tp,s10,a1
    800045d0:	00000013          	nop
    800045d4:	02dc733b          	remuw	t1,s8,a3
    800045d8:	024d883b          	mulw	a6,s11,tp
    800045dc:	001a9433          	sll	s0,s5,ra
    800045e0:	0242ee33          	rem	t3,t0,tp
    800045e4:	40db0e33          	sub	t3,s6,a3
    800045e8:	01dc2fb3          	slt	t6,s8,t4
    800045ec:	03143933          	mulhu	s2,s0,a7
    800045f0:	0207d83b          	divuw	a6,a5,zero
    800045f4:	00e443b3          	xor	t2,s0,a4
    800045f8:	01f8d41b          	srliw	s0,a7,0x1f
    800045fc:	0242ee33          	rem	t3,t0,tp
    80004600:	52af7d13          	andi	s10,t5,1322
    80004604:	0207d83b          	divuw	a6,a5,zero
    80004608:	01e06c33          	or	s8,zero,t5
    8000460c:	40db0e33          	sub	t3,s6,a3
    80004610:	02dc733b          	remuw	t1,s8,a3
    80004614:	020c9733          	mulh	a4,s9,zero
    80004618:	418489bb          	subw	s3,s1,s8
    8000461c:	01e06c33          	or	s8,zero,t5
    80004620:	027b6e3b          	remw	t3,s6,t2
    80004624:	aed68193          	addi	gp,a3,-1299
    80004628:	03d040b3          	div	ra,zero,t4
    8000462c:	03143933          	mulhu	s2,s0,a7
    80004630:	52af7d13          	andi	s10,t5,1322
    80004634:	513faf93          	slti	t6,t6,1299
    80004638:	03b1deb3          	divu	t4,gp,s11
    8000463c:	001a9433          	sll	s0,s5,ra
    80004640:	4028d81b          	sraiw	a6,a7,0x2
    80004644:	52af7d13          	andi	s10,t5,1322
    80004648:	52af7d13          	andi	s10,t5,1322
    8000464c:	02dc733b          	remuw	t1,s8,a3
    80004650:	01f8d41b          	srliw	s0,a7,0x1f
    80004654:	03b1deb3          	divu	t4,gp,s11
    80004658:	201de597          	auipc	a1,0x201de
    8000465c:	9e8ec093          	xori	ra,t4,-1560
    80004660:	aed68193          	addi	gp,a3,-1299
    80004664:	01dc2fb3          	slt	t6,s8,t4
    80004668:	01e06c33          	or	s8,zero,t5
    8000466c:	00c59d9b          	slliw	s11,a1,0xc
    80004670:	01f8d41b          	srliw	s0,a7,0x1f
    80004674:	03143933          	mulhu	s2,s0,a7
    80004678:	010a5a33          	srl	s4,s4,a6
    8000467c:	00e443b3          	xor	t2,s0,a4
    80004680:	03b1deb3          	divu	t4,gp,s11
    80004684:	513faf93          	slti	t6,t6,1299
    80004688:	201de597          	auipc	a1,0x201de
    8000468c:	020c9733          	mulh	a4,s9,zero
    80004690:	0271aab3          	mulhsu	s5,gp,t2
    80004694:	41acd23b          	sraw	tp,s9,s10
    80004698:	01227033          	and	zero,tp,s2
    8000469c:	01aa8a3b          	addw	s4,s5,s10
    800046a0:	01227033          	and	zero,tp,s2
    800046a4:	00c59d9b          	slliw	s11,a1,0xc
    800046a8:	9e8ec093          	xori	ra,t4,-1560
    800046ac:	12cd059b          	addiw	a1,s10,300
    800046b0:	001a9433          	sll	s0,s5,ra
    800046b4:	00000013          	nop
    800046b8:	027b6e3b          	remw	t3,s6,t2
    800046bc:	00bd0233          	add	tp,s10,a1
    800046c0:	41b1d293          	srai	t0,gp,0x1b
    800046c4:	0207d83b          	divuw	a6,a5,zero
    800046c8:	4182ddb3          	sra	s11,t0,s8
    800046cc:	031b8fb3          	mul	t6,s7,a7
    800046d0:	00000013          	nop
    800046d4:	53d76393          	ori	t2,a4,1341
    800046d8:	031b8fb3          	mul	t6,s7,a7
    800046dc:	01dc2fb3          	slt	t6,s8,t4
    800046e0:	031b8fb3          	mul	t6,s7,a7
    800046e4:	0097de3b          	srlw	t3,a5,s1
    800046e8:	201de597          	auipc	a1,0x201de
    800046ec:	031b8fb3          	mul	t6,s7,a7
    800046f0:	01f8d41b          	srliw	s0,a7,0x1f
    800046f4:	03d040b3          	div	ra,zero,t4
    800046f8:	daec3a13          	sltiu	s4,s8,-594
    800046fc:	0271aab3          	mulhsu	s5,gp,t2
    80004700:	00e443b3          	xor	t2,s0,a4
    80004704:	034bccbb          	divw	s9,s7,s4
    80004708:	daec3a13          	sltiu	s4,s8,-594
    8000470c:	0350f0b3          	remu	ra,ra,s5
    80004710:	004294bb          	sllw	s1,t0,tp
    80004714:	03143933          	mulhu	s2,s0,a7
    80004718:	024d883b          	mulw	a6,s11,tp
    8000471c:	00bd0233          	add	tp,s10,a1
    80004720:	0350f0b3          	remu	ra,ra,s5
    80004724:	0350f0b3          	remu	ra,ra,s5
    80004728:	9e8ec093          	xori	ra,t4,-1560
    8000472c:	01dc2fb3          	slt	t6,s8,t4
    80004730:	01f8d41b          	srliw	s0,a7,0x1f
    80004734:	12cd059b          	addiw	a1,s10,300
    80004738:	031b8fb3          	mul	t6,s7,a7
    8000473c:	9e8ec093          	xori	ra,t4,-1560
    80004740:	52af7d13          	andi	s10,t5,1322
    80004744:	03d040b3          	div	ra,zero,t4
    80004748:	00e443b3          	xor	t2,s0,a4
    8000474c:	001a9433          	sll	s0,s5,ra
    80004750:	0271aab3          	mulhsu	s5,gp,t2
    80004754:	010a5a33          	srl	s4,s4,a6
    80004758:	41acd23b          	sraw	tp,s9,s10
    8000475c:	0350f0b3          	remu	ra,ra,s5
    80004760:	4028d81b          	sraiw	a6,a7,0x2
    80004764:	024d883b          	mulw	a6,s11,tp
    80004768:	0271aab3          	mulhsu	s5,gp,t2
    8000476c:	41acd23b          	sraw	tp,s9,s10
    80004770:	001a9433          	sll	s0,s5,ra
    80004774:	0168b0b3          	sltu	ra,a7,s6
    80004778:	01227033          	and	zero,tp,s2
    8000477c:	034bccbb          	divw	s9,s7,s4
    80004780:	01227033          	and	zero,tp,s2
    80004784:	03b1deb3          	divu	t4,gp,s11
    80004788:	0168b0b3          	sltu	ra,a7,s6
    8000478c:	daec3a13          	sltiu	s4,s8,-594
    80004790:	020c9733          	mulh	a4,s9,zero
    80004794:	02dc733b          	remuw	t1,s8,a3
    80004798:	03b1deb3          	divu	t4,gp,s11
    8000479c:	001a9433          	sll	s0,s5,ra
    800047a0:	01227033          	and	zero,tp,s2
    800047a4:	027b6e3b          	remw	t3,s6,t2
    800047a8:	034bccbb          	divw	s9,s7,s4
    800047ac:	024d883b          	mulw	a6,s11,tp
    800047b0:	034bccbb          	divw	s9,s7,s4
    800047b4:	02dc733b          	remuw	t1,s8,a3
    800047b8:	031b8fb3          	mul	t6,s7,a7
    800047bc:	41acd23b          	sraw	tp,s9,s10
    800047c0:	52af7d13          	andi	s10,t5,1322
    800047c4:	01f8d41b          	srliw	s0,a7,0x1f
    800047c8:	4182ddb3          	sra	s11,t0,s8
    800047cc:	03d040b3          	div	ra,zero,t4
    800047d0:	0207d83b          	divuw	a6,a5,zero
    800047d4:	4182ddb3          	sra	s11,t0,s8
    800047d8:	020c9733          	mulh	a4,s9,zero
    800047dc:	0207d83b          	divuw	a6,a5,zero
    800047e0:	52af7d13          	andi	s10,t5,1322
    800047e4:	027b6e3b          	remw	t3,s6,t2
    800047e8:	4028d81b          	sraiw	a6,a7,0x2
    800047ec:	031b8fb3          	mul	t6,s7,a7
    800047f0:	001a9433          	sll	s0,s5,ra
    800047f4:	0350f0b3          	remu	ra,ra,s5
    800047f8:	03b1deb3          	divu	t4,gp,s11
    800047fc:	12cd059b          	addiw	a1,s10,300
    80004800:	027b6e3b          	remw	t3,s6,t2
    80004804:	12cd059b          	addiw	a1,s10,300
    80004808:	daec3a13          	sltiu	s4,s8,-594
    8000480c:	00000013          	nop
    80004810:	01f8d41b          	srliw	s0,a7,0x1f
    80004814:	024c1113          	slli	sp,s8,0x24
    80004818:	40db0e33          	sub	t3,s6,a3
    8000481c:	00000013          	nop
    80004820:	01aa8a3b          	addw	s4,s5,s10
    80004824:	41b1d293          	srai	t0,gp,0x1b
    80004828:	52af7d13          	andi	s10,t5,1322
    8000482c:	03143933          	mulhu	s2,s0,a7
    80004830:	41b1d293          	srai	t0,gp,0x1b
    80004834:	40db0e33          	sub	t3,s6,a3
    80004838:	aed68193          	addi	gp,a3,-1299
    8000483c:	027b6e3b          	remw	t3,s6,t2
    80004840:	12cd059b          	addiw	a1,s10,300
    80004844:	03143933          	mulhu	s2,s0,a7
    80004848:	53d76393          	ori	t2,a4,1341
    8000484c:	024c1113          	slli	sp,s8,0x24
    80004850:	4028d81b          	sraiw	a6,a7,0x2
    80004854:	03b1deb3          	divu	t4,gp,s11
    80004858:	00000013          	nop
    8000485c:	0097de3b          	srlw	t3,a5,s1
    80004860:	00000013          	nop
    80004864:	0097de3b          	srlw	t3,a5,s1
    80004868:	01e06c33          	or	s8,zero,t5
    8000486c:	00c59d9b          	slliw	s11,a1,0xc
    80004870:	40db0e33          	sub	t3,s6,a3
    80004874:	034bccbb          	divw	s9,s7,s4
    80004878:	024d883b          	mulw	a6,s11,tp
    8000487c:	4028d81b          	sraiw	a6,a7,0x2
    80004880:	41acd23b          	sraw	tp,s9,s10
    80004884:	03b1deb3          	divu	t4,gp,s11
    80004888:	031b8fb3          	mul	t6,s7,a7
    8000488c:	00bd0233          	add	tp,s10,a1
    80004890:	004294bb          	sllw	s1,t0,tp
    80004894:	03d040b3          	div	ra,zero,t4
    80004898:	4028d81b          	sraiw	a6,a7,0x2
    8000489c:	0350f0b3          	remu	ra,ra,s5
    800048a0:	00000013          	nop
    800048a4:	0350f0b3          	remu	ra,ra,s5
    800048a8:	03143933          	mulhu	s2,s0,a7
    800048ac:	01f8d41b          	srliw	s0,a7,0x1f
    800048b0:	513faf93          	slti	t6,t6,1299
    800048b4:	41acd23b          	sraw	tp,s9,s10
    800048b8:	201de597          	auipc	a1,0x201de
    800048bc:	201de597          	auipc	a1,0x201de
    800048c0:	0097de3b          	srlw	t3,a5,s1
    800048c4:	001a9433          	sll	s0,s5,ra
    800048c8:	4182ddb3          	sra	s11,t0,s8
    800048cc:	40db0e33          	sub	t3,s6,a3
    800048d0:	00000013          	nop
    800048d4:	01e06c33          	or	s8,zero,t5
    800048d8:	4182ddb3          	sra	s11,t0,s8
    800048dc:	00000013          	nop
    800048e0:	0097de3b          	srlw	t3,a5,s1
    800048e4:	aed68193          	addi	gp,a3,-1299
    800048e8:	40db0e33          	sub	t3,s6,a3
    800048ec:	0207d83b          	divuw	a6,a5,zero
    800048f0:	00c59d9b          	slliw	s11,a1,0xc
    800048f4:	40db0e33          	sub	t3,s6,a3
    800048f8:	201de597          	auipc	a1,0x201de
    800048fc:	024c1113          	slli	sp,s8,0x24
    80004900:	00c59d9b          	slliw	s11,a1,0xc
    80004904:	01aa8a3b          	addw	s4,s5,s10
    80004908:	01f8d41b          	srliw	s0,a7,0x1f
    8000490c:	41acd23b          	sraw	tp,s9,s10
    80004910:	0168b0b3          	sltu	ra,a7,s6
    80004914:	53d76393          	ori	t2,a4,1341
    80004918:	12cd059b          	addiw	a1,s10,300
    8000491c:	01227033          	and	zero,tp,s2
    80004920:	03143933          	mulhu	s2,s0,a7
    80004924:	034bccbb          	divw	s9,s7,s4
    80004928:	0168b0b3          	sltu	ra,a7,s6
    8000492c:	0242ee33          	rem	t3,t0,tp
    80004930:	daec3a13          	sltiu	s4,s8,-594
    80004934:	41acd23b          	sraw	tp,s9,s10
    80004938:	020c9733          	mulh	a4,s9,zero
    8000493c:	0168b0b3          	sltu	ra,a7,s6
    80004940:	c94dc837          	lui	a6,0xc94dc
    80004944:	0350f0b3          	remu	ra,ra,s5
    80004948:	4028d81b          	sraiw	a6,a7,0x2
    8000494c:	034bccbb          	divw	s9,s7,s4
    80004950:	0350f0b3          	remu	ra,ra,s5
    80004954:	52af7d13          	andi	s10,t5,1322
    80004958:	03b1deb3          	divu	t4,gp,s11
    8000495c:	03b1deb3          	divu	t4,gp,s11
    80004960:	024d883b          	mulw	a6,s11,tp
    80004964:	01aa8a3b          	addw	s4,s5,s10
    80004968:	024c1113          	slli	sp,s8,0x24
    8000496c:	00bd0233          	add	tp,s10,a1
    80004970:	00c59d9b          	slliw	s11,a1,0xc
    80004974:	01e06c33          	or	s8,zero,t5
    80004978:	010a5a33          	srl	s4,s4,a6
    8000497c:	03e65013          	srli	zero,a2,0x3e
    80004980:	02dc733b          	remuw	t1,s8,a3
    80004984:	024c1113          	slli	sp,s8,0x24
    80004988:	0350f0b3          	remu	ra,ra,s5
    8000498c:	418489bb          	subw	s3,s1,s8
    80004990:	024d883b          	mulw	a6,s11,tp
    80004994:	c94dc837          	lui	a6,0xc94dc
    80004998:	01dc2fb3          	slt	t6,s8,t4
    8000499c:	daec3a13          	sltiu	s4,s8,-594
    800049a0:	024c1113          	slli	sp,s8,0x24
    800049a4:	03143933          	mulhu	s2,s0,a7
    800049a8:	004294bb          	sllw	s1,t0,tp
    800049ac:	0271aab3          	mulhsu	s5,gp,t2
    800049b0:	4182ddb3          	sra	s11,t0,s8
    800049b4:	53d76393          	ori	t2,a4,1341
    800049b8:	00c59d9b          	slliw	s11,a1,0xc
    800049bc:	03143933          	mulhu	s2,s0,a7
    800049c0:	c94dc837          	lui	a6,0xc94dc
    800049c4:	daec3a13          	sltiu	s4,s8,-594
    800049c8:	01dc2fb3          	slt	t6,s8,t4
    800049cc:	024d883b          	mulw	a6,s11,tp
    800049d0:	41acd23b          	sraw	tp,s9,s10
    800049d4:	027b6e3b          	remw	t3,s6,t2
    800049d8:	4182ddb3          	sra	s11,t0,s8
    800049dc:	031b8fb3          	mul	t6,s7,a7
    800049e0:	513faf93          	slti	t6,t6,1299
    800049e4:	01f8d41b          	srliw	s0,a7,0x1f
    800049e8:	0350f0b3          	remu	ra,ra,s5
    800049ec:	41b1d293          	srai	t0,gp,0x1b
    800049f0:	024d883b          	mulw	a6,s11,tp
    800049f4:	031b8fb3          	mul	t6,s7,a7
    800049f8:	4028d81b          	sraiw	a6,a7,0x2
    800049fc:	00000013          	nop
    80004a00:	027b6e3b          	remw	t3,s6,t2
    80004a04:	024c1113          	slli	sp,s8,0x24
    80004a08:	01e06c33          	or	s8,zero,t5
    80004a0c:	40db0e33          	sub	t3,s6,a3
    80004a10:	9e8ec093          	xori	ra,t4,-1560
    80004a14:	0242ee33          	rem	t3,t0,tp
    80004a18:	020c9733          	mulh	a4,s9,zero
    80004a1c:	02dc733b          	remuw	t1,s8,a3
    80004a20:	034bccbb          	divw	s9,s7,s4
    80004a24:	9e8ec093          	xori	ra,t4,-1560
    80004a28:	004294bb          	sllw	s1,t0,tp
    80004a2c:	004294bb          	sllw	s1,t0,tp
    80004a30:	03e65013          	srli	zero,a2,0x3e
    80004a34:	9e8ec093          	xori	ra,t4,-1560
    80004a38:	418489bb          	subw	s3,s1,s8
    80004a3c:	027b6e3b          	remw	t3,s6,t2
    80004a40:	03b1deb3          	divu	t4,gp,s11
    80004a44:	024c1113          	slli	sp,s8,0x24
    80004a48:	01dc2fb3          	slt	t6,s8,t4
    80004a4c:	01227033          	and	zero,tp,s2
    80004a50:	00bd0233          	add	tp,s10,a1
    80004a54:	201de597          	auipc	a1,0x201de
    80004a58:	52af7d13          	andi	s10,t5,1322
    80004a5c:	001a9433          	sll	s0,s5,ra
    80004a60:	c94dc837          	lui	a6,0xc94dc
    80004a64:	41acd23b          	sraw	tp,s9,s10
    80004a68:	513faf93          	slti	t6,t6,1299
    80004a6c:	01f8d41b          	srliw	s0,a7,0x1f
    80004a70:	0242ee33          	rem	t3,t0,tp
    80004a74:	01227033          	and	zero,tp,s2
    80004a78:	40db0e33          	sub	t3,s6,a3
    80004a7c:	00e443b3          	xor	t2,s0,a4
    80004a80:	03d040b3          	div	ra,zero,t4
    80004a84:	024d883b          	mulw	a6,s11,tp
    80004a88:	00000013          	nop
    80004a8c:	0242ee33          	rem	t3,t0,tp
    80004a90:	00e443b3          	xor	t2,s0,a4
    80004a94:	03e65013          	srli	zero,a2,0x3e
    80004a98:	00c59d9b          	slliw	s11,a1,0xc
    80004a9c:	027b6e3b          	remw	t3,s6,t2
    80004aa0:	034bccbb          	divw	s9,s7,s4
    80004aa4:	513faf93          	slti	t6,t6,1299
    80004aa8:	40db0e33          	sub	t3,s6,a3
    80004aac:	9e8ec093          	xori	ra,t4,-1560
    80004ab0:	c94dc837          	lui	a6,0xc94dc
    80004ab4:	01e06c33          	or	s8,zero,t5
    80004ab8:	01aa8a3b          	addw	s4,s5,s10
    80004abc:	00c59d9b          	slliw	s11,a1,0xc
    80004ac0:	010a5a33          	srl	s4,s4,a6
    80004ac4:	001a9433          	sll	s0,s5,ra
    80004ac8:	52af7d13          	andi	s10,t5,1322
    80004acc:	031b8fb3          	mul	t6,s7,a7
    80004ad0:	03d040b3          	div	ra,zero,t4
    80004ad4:	031b8fb3          	mul	t6,s7,a7
    80004ad8:	024d883b          	mulw	a6,s11,tp
    80004adc:	0168b0b3          	sltu	ra,a7,s6
    80004ae0:	4182ddb3          	sra	s11,t0,s8
    80004ae4:	201de597          	auipc	a1,0x201de
    80004ae8:	4182ddb3          	sra	s11,t0,s8
    80004aec:	010a5a33          	srl	s4,s4,a6
    80004af0:	03b1deb3          	divu	t4,gp,s11
    80004af4:	daec3a13          	sltiu	s4,s8,-594
    80004af8:	9e8ec093          	xori	ra,t4,-1560
    80004afc:	418489bb          	subw	s3,s1,s8
    80004b00:	0168b0b3          	sltu	ra,a7,s6
    80004b04:	031b8fb3          	mul	t6,s7,a7
    80004b08:	216c3237          	lui	tp,0x216c3
    80004b0c:	36b2021b          	addiw	tp,tp,875 # 216c336b <_start-0x5e93cc95>
    80004b10:	00e21213          	slli	tp,tp,0xe
    80004b14:	31120213          	addi	tp,tp,785 # 311 <_start-0x7ffffcef>
    80004b18:	01121213          	slli	tp,tp,0x11
    80004b1c:	e6020213          	addi	tp,tp,-416 # fffffffffffffe60 <_end+0xffffffff7ffe14d8>
    80004b20:	ffe8afb7          	lui	t6,0xffe8a
    80004b24:	825f8f9b          	addiw	t6,t6,-2011 # ffffffffffe89825 <_end+0xffffffff7fe6ae9d>
    80004b28:	00df9f93          	slli	t6,t6,0xd
    80004b2c:	ad3f8f93          	addi	t6,t6,-1325
    80004b30:	00df9f93          	slli	t6,t6,0xd
    80004b34:	6bff8f93          	addi	t6,t6,1727
    80004b38:	00ef9f93          	slli	t6,t6,0xe
    80004b3c:	4d2f8f93          	addi	t6,t6,1234
    80004b40:	fff00513          	li	a0,-1
    80004b44:	00000e93          	li	t4,0
    80004b48:	00000d13          	li	s10,0
    80004b4c:	fe138437          	lui	s0,0xfe138
    80004b50:	6af4041b          	addiw	s0,s0,1711 # fffffffffe1386af <_end+0xffffffff7e119d27>
    80004b54:	00c41413          	slli	s0,s0,0xc
    80004b58:	bb940413          	addi	s0,s0,-1095
    80004b5c:	00d41413          	slli	s0,s0,0xd
    80004b60:	9ff40413          	addi	s0,s0,-1537
    80004b64:	00d41413          	slli	s0,s0,0xd
    80004b68:	06640413          	addi	s0,s0,102
    80004b6c:	00000e13          	li	t3,0
    80004b70:	fff00813          	li	a6,-1
    80004b74:	739a8a37          	lui	s4,0x739a8
    80004b78:	d39a0a1b          	addiw	s4,s4,-711 # 739a7d39 <_start-0xc6582c7>
    80004b7c:	00ca1a13          	slli	s4,s4,0xc
    80004b80:	9a3a0a13          	addi	s4,s4,-1629
    80004b84:	00ea1a13          	slli	s4,s4,0xe
    80004b88:	5a4a0a13          	addi	s4,s4,1444
    80004b8c:	00683337          	lui	t1,0x683
    80004b90:	1df3031b          	addiw	t1,t1,479 # 6831df <_start-0x7f97ce21>
    80004b94:	00e31313          	slli	t1,t1,0xe
    80004b98:	34730313          	addi	t1,t1,839
    80004b9c:	00c31313          	slli	t1,t1,0xc
    80004ba0:	0a330313          	addi	t1,t1,163
    80004ba4:	00d31313          	slli	t1,t1,0xd
    80004ba8:	e0830313          	addi	t1,t1,-504
    80004bac:	02424333          	div	t1,tp,tp
    80004bb0:	030a6333          	rem	t1,s4,a6
    80004bb4:	030a6333          	rem	t1,s4,a6
    80004bb8:	024f9533          	mulh	a0,t6,tp
    80004bbc:	03d55233          	divu	tp,a0,t4
    80004bc0:	026eb333          	mulhu	t1,t4,t1
    80004bc4:	006a053b          	addw	a0,s4,t1
    80004bc8:	030e4e3b          	divw	t3,t3,a6
    80004bcc:	01d40833          	add	a6,s0,t4
    80004bd0:	030e4e3b          	divw	t3,t3,a6
    80004bd4:	030e4e3b          	divw	t3,t3,a6
    80004bd8:	0303023b          	mulw	tp,t1,a6
    80004bdc:	03cd6a3b          	remw	s4,s10,t3
    80004be0:	03cefd3b          	remuw	s10,t4,t3
    80004be4:	c94dc237          	lui	tp,0xc94dc
    80004be8:	aed80513          	addi	a0,a6,-1299 # ffffffffc94dbaed <_end+0xffffffff494bd165>
    80004bec:	01d40833          	add	a6,s0,t4
    80004bf0:	0245523b          	divuw	tp,a0,tp
    80004bf4:	026eb333          	mulhu	t1,t4,t1
    80004bf8:	024f9533          	mulh	a0,t6,tp
    80004bfc:	02424333          	div	t1,tp,tp
    80004c00:	03d55233          	divu	tp,a0,t4
    80004c04:	0303023b          	mulw	tp,t1,a6
    80004c08:	024f9533          	mulh	a0,t6,tp
    80004c0c:	03c52833          	mulhsu	a6,a0,t3
    80004c10:	01d40833          	add	a6,s0,t4
    80004c14:	024f9533          	mulh	a0,t6,tp
    80004c18:	030a6333          	rem	t1,s4,a6
    80004c1c:	0245523b          	divuw	tp,a0,tp
    80004c20:	030a6333          	rem	t1,s4,a6
    80004c24:	53d76393          	ori	t2,a4,1341
    80004c28:	00e443b3          	xor	t2,s0,a4
    80004c2c:	03e65013          	srli	zero,a2,0x3e
    80004c30:	0242ee33          	rem	t3,t0,tp
    80004c34:	52af7d13          	andi	s10,t5,1322
    80004c38:	4182ddb3          	sra	s11,t0,s8
    80004c3c:	024c1113          	slli	sp,s8,0x24
    80004c40:	4028d81b          	sraiw	a6,a7,0x2
    80004c44:	0350f0b3          	remu	ra,ra,s5
    80004c48:	01dc2fb3          	slt	t6,s8,t4
    80004c4c:	aed68193          	addi	gp,a3,-1299
    80004c50:	031b8fb3          	mul	t6,s7,a7
    80004c54:	0207d83b          	divuw	a6,a5,zero
    80004c58:	41b1d293          	srai	t0,gp,0x1b
    80004c5c:	418489bb          	subw	s3,s1,s8
    80004c60:	513faf93          	slti	t6,t6,1299
    80004c64:	aed68193          	addi	gp,a3,-1299
    80004c68:	0168b0b3          	sltu	ra,a7,s6
    80004c6c:	001a9433          	sll	s0,s5,ra
    80004c70:	03e65013          	srli	zero,a2,0x3e
    80004c74:	53d76393          	ori	t2,a4,1341
    80004c78:	53d76393          	ori	t2,a4,1341
    80004c7c:	01f8d41b          	srliw	s0,a7,0x1f
    80004c80:	010a5a33          	srl	s4,s4,a6
    80004c84:	02dc733b          	remuw	t1,s8,a3
    80004c88:	01227033          	and	zero,tp,s2
    80004c8c:	03143933          	mulhu	s2,s0,a7
    80004c90:	12cd059b          	addiw	a1,s10,300
    80004c94:	c94dc837          	lui	a6,0xc94dc
    80004c98:	0350f0b3          	remu	ra,ra,s5
    80004c9c:	01f8d41b          	srliw	s0,a7,0x1f
    80004ca0:	4182ddb3          	sra	s11,t0,s8
    80004ca4:	4182ddb3          	sra	s11,t0,s8
    80004ca8:	418489bb          	subw	s3,s1,s8
    80004cac:	9e8ec093          	xori	ra,t4,-1560
    80004cb0:	010a5a33          	srl	s4,s4,a6
    80004cb4:	00000013          	nop
    80004cb8:	40db0e33          	sub	t3,s6,a3
    80004cbc:	41acd23b          	sraw	tp,s9,s10
    80004cc0:	01aa8a3b          	addw	s4,s5,s10
    80004cc4:	12cd059b          	addiw	a1,s10,300
    80004cc8:	0242ee33          	rem	t3,t0,tp
    80004ccc:	034bccbb          	divw	s9,s7,s4
    80004cd0:	4028d81b          	sraiw	a6,a7,0x2
    80004cd4:	010a5a33          	srl	s4,s4,a6
    80004cd8:	010a5a33          	srl	s4,s4,a6
    80004cdc:	034bccbb          	divw	s9,s7,s4
    80004ce0:	52af7d13          	andi	s10,t5,1322
    80004ce4:	0207d83b          	divuw	a6,a5,zero
    80004ce8:	001a9433          	sll	s0,s5,ra
    80004cec:	daec3a13          	sltiu	s4,s8,-594
    80004cf0:	53d76393          	ori	t2,a4,1341
    80004cf4:	004294bb          	sllw	s1,t0,tp
    80004cf8:	52af7d13          	andi	s10,t5,1322
    80004cfc:	daec3a13          	sltiu	s4,s8,-594
    80004d00:	4182ddb3          	sra	s11,t0,s8
    80004d04:	daec3a13          	sltiu	s4,s8,-594
    80004d08:	01aa8a3b          	addw	s4,s5,s10
    80004d0c:	4182ddb3          	sra	s11,t0,s8
    80004d10:	0168b0b3          	sltu	ra,a7,s6
    80004d14:	01227033          	and	zero,tp,s2
    80004d18:	024d883b          	mulw	a6,s11,tp
    80004d1c:	01227033          	and	zero,tp,s2
    80004d20:	01e06c33          	or	s8,zero,t5
    80004d24:	0097de3b          	srlw	t3,a5,s1
    80004d28:	513faf93          	slti	t6,t6,1299
    80004d2c:	4028d81b          	sraiw	a6,a7,0x2
    80004d30:	0350f0b3          	remu	ra,ra,s5
    80004d34:	aed68193          	addi	gp,a3,-1299
    80004d38:	4028d81b          	sraiw	a6,a7,0x2
    80004d3c:	010a5a33          	srl	s4,s4,a6
    80004d40:	52af7d13          	andi	s10,t5,1322
    80004d44:	010a5a33          	srl	s4,s4,a6
    80004d48:	daec3a13          	sltiu	s4,s8,-594
    80004d4c:	00bd0233          	add	tp,s10,a1
    80004d50:	00bd0233          	add	tp,s10,a1
    80004d54:	00000d93          	li	s11,0
    80004d58:	fff9afb7          	lui	t6,0xfff9a
    80004d5c:	7a3f8f9b          	addiw	t6,t6,1955 # fffffffffff9a7a3 <_end+0xffffffff7ff7be1b>
    80004d60:	00ef9f93          	slli	t6,t6,0xe
    80004d64:	225f8f93          	addi	t6,t6,549
    80004d68:	00ef9f93          	slli	t6,t6,0xe
    80004d6c:	013f8f93          	addi	t6,t6,19
    80004d70:	010f9f93          	slli	t6,t6,0x10
    80004d74:	056f8f93          	addi	t6,t6,86
    80004d78:	00000693          	li	a3,0
    80004d7c:	fff00813          	li	a6,-1
    80004d80:	00d95e37          	lui	t3,0xd95
    80004d84:	8c5e0e1b          	addiw	t3,t3,-1851 # d948c5 <_start-0x7f26b73b>
    80004d88:	00ee1e13          	slli	t3,t3,0xe
    80004d8c:	953e0e13          	addi	t3,t3,-1709
    80004d90:	00ce1e13          	slli	t3,t3,0xc
    80004d94:	747e0e13          	addi	t3,t3,1863
    80004d98:	00de1e13          	slli	t3,t3,0xd
    80004d9c:	be1e0e13          	addi	t3,t3,-1055
    80004da0:	00000993          	li	s3,0
    80004da4:	00212c37          	lui	s8,0x212
    80004da8:	e85c0c1b          	addiw	s8,s8,-379 # 211e85 <_start-0x7fdee17b>
    80004dac:	00dc1c13          	slli	s8,s8,0xd
    80004db0:	c73c0c13          	addi	s8,s8,-909
    80004db4:	00dc1c13          	slli	s8,s8,0xd
    80004db8:	777c0c13          	addi	s8,s8,1911
    80004dbc:	00fc1c13          	slli	s8,s8,0xf
    80004dc0:	544c0c13          	addi	s8,s8,1348
    80004dc4:	00000313          	li	t1,0
    80004dc8:	fff00593          	li	a1,-1
    80004dcc:	fff00e9b          	addiw	t4,zero,-1
    80004dd0:	03fe9e93          	slli	t4,t4,0x3f
    80004dd4:	02beb5b3          	mulhu	a1,t4,a1
    80004dd8:	aed98813          	addi	a6,s3,-1299
    80004ddc:	201de817          	auipc	a6,0x201de
    80004de0:	033c65b3          	rem	a1,s8,s3
    80004de4:	033c65b3          	rem	a1,s8,s3
    80004de8:	41df86bb          	subw	a3,t6,t4
    80004dec:	0385f5b3          	remu	a1,a1,s8
    80004df0:	00bc083b          	addw	a6,s8,a1
    80004df4:	033e4e3b          	divw	t3,t3,s3
    80004df8:	03c829b3          	mulhsu	s3,a6,t3
    80004dfc:	02be05b3          	mul	a1,t3,a1
    80004e00:	033e4e3b          	divw	t3,t3,s3
    80004e04:	41df86bb          	subw	a3,t6,t4
    80004e08:	026f9833          	mulh	a6,t6,t1
    80004e0c:	0385f5b3          	remu	a1,a1,s8
    80004e10:	0268533b          	divuw	t1,a6,t1
    80004e14:	40db0e33          	sub	t3,s6,a3
    80004e18:	024c1113          	slli	sp,s8,0x24
    80004e1c:	0242ee33          	rem	t3,t0,tp
    80004e20:	0350f0b3          	remu	ra,ra,s5
    80004e24:	201de597          	auipc	a1,0x201de
    80004e28:	03b1deb3          	divu	t4,gp,s11
    80004e2c:	00bd0233          	add	tp,s10,a1
    80004e30:	0242ee33          	rem	t3,t0,tp
    80004e34:	01227033          	and	zero,tp,s2
    80004e38:	52af7d13          	andi	s10,t5,1322
    80004e3c:	41acd23b          	sraw	tp,s9,s10
    80004e40:	c94dc837          	lui	a6,0xc94dc
    80004e44:	01aa8a3b          	addw	s4,s5,s10
    80004e48:	4182ddb3          	sra	s11,t0,s8
    80004e4c:	01dc2fb3          	slt	t6,s8,t4
    80004e50:	027b6e3b          	remw	t3,s6,t2
    80004e54:	41b1d293          	srai	t0,gp,0x1b
    80004e58:	513faf93          	slti	t6,t6,1299
    80004e5c:	0097de3b          	srlw	t3,a5,s1
    80004e60:	4028d81b          	sraiw	a6,a7,0x2
    80004e64:	53d76393          	ori	t2,a4,1341
    80004e68:	52af7d13          	andi	s10,t5,1322
    80004e6c:	c94dc837          	lui	a6,0xc94dc
    80004e70:	027b6e3b          	remw	t3,s6,t2
    80004e74:	024c1113          	slli	sp,s8,0x24
    80004e78:	03b1deb3          	divu	t4,gp,s11
    80004e7c:	00c59d9b          	slliw	s11,a1,0xc
    80004e80:	0242ee33          	rem	t3,t0,tp
    80004e84:	41acd23b          	sraw	tp,s9,s10
    80004e88:	0242ee33          	rem	t3,t0,tp
    80004e8c:	01227033          	and	zero,tp,s2
    80004e90:	01e06c33          	or	s8,zero,t5
    80004e94:	0097de3b          	srlw	t3,a5,s1
    80004e98:	034bccbb          	divw	s9,s7,s4
    80004e9c:	aed68193          	addi	gp,a3,-1299
    80004ea0:	52af7d13          	andi	s10,t5,1322
    80004ea4:	53d76393          	ori	t2,a4,1341
    80004ea8:	03e65013          	srli	zero,a2,0x3e
    80004eac:	01f8d41b          	srliw	s0,a7,0x1f
    80004eb0:	418489bb          	subw	s3,s1,s8
    80004eb4:	010a5a33          	srl	s4,s4,a6
    80004eb8:	00c59d9b          	slliw	s11,a1,0xc
    80004ebc:	0097de3b          	srlw	t3,a5,s1
    80004ec0:	aed68193          	addi	gp,a3,-1299
    80004ec4:	0242ee33          	rem	t3,t0,tp
    80004ec8:	024d883b          	mulw	a6,s11,tp
    80004ecc:	03b1deb3          	divu	t4,gp,s11
    80004ed0:	001a9433          	sll	s0,s5,ra
    80004ed4:	0242ee33          	rem	t3,t0,tp
    80004ed8:	53d76393          	ori	t2,a4,1341
    80004edc:	03143933          	mulhu	s2,s0,a7
    80004ee0:	03e65013          	srli	zero,a2,0x3e
    80004ee4:	9e8ec093          	xori	ra,t4,-1560
    80004ee8:	0242ee33          	rem	t3,t0,tp
    80004eec:	004294bb          	sllw	s1,t0,tp
    80004ef0:	53d76393          	ori	t2,a4,1341
    80004ef4:	010a5a33          	srl	s4,s4,a6
    80004ef8:	03143933          	mulhu	s2,s0,a7
    80004efc:	12cd059b          	addiw	a1,s10,300
    80004f00:	00bd0233          	add	tp,s10,a1
    80004f04:	aed68193          	addi	gp,a3,-1299
    80004f08:	01f8d41b          	srliw	s0,a7,0x1f
    80004f0c:	00e443b3          	xor	t2,s0,a4
    80004f10:	001a9433          	sll	s0,s5,ra
    80004f14:	0097de3b          	srlw	t3,a5,s1
    80004f18:	c94dc837          	lui	a6,0xc94dc
    80004f1c:	0242ee33          	rem	t3,t0,tp
    80004f20:	40db0e33          	sub	t3,s6,a3
    80004f24:	020c9733          	mulh	a4,s9,zero
    80004f28:	0168b0b3          	sltu	ra,a7,s6
    80004f2c:	c94dc837          	lui	a6,0xc94dc
    80004f30:	513faf93          	slti	t6,t6,1299
    80004f34:	01aa8a3b          	addw	s4,s5,s10
    80004f38:	0242ee33          	rem	t3,t0,tp
    80004f3c:	02dc733b          	remuw	t1,s8,a3
    80004f40:	c94dc837          	lui	a6,0xc94dc
    80004f44:	01aa8a3b          	addw	s4,s5,s10
    80004f48:	53d76393          	ori	t2,a4,1341
    80004f4c:	01227033          	and	zero,tp,s2
    80004f50:	41acd23b          	sraw	tp,s9,s10
    80004f54:	c94dc837          	lui	a6,0xc94dc
    80004f58:	01227033          	and	zero,tp,s2
    80004f5c:	03b1deb3          	divu	t4,gp,s11
    80004f60:	024d883b          	mulw	a6,s11,tp
    80004f64:	0271aab3          	mulhsu	s5,gp,t2
    80004f68:	01e06c33          	or	s8,zero,t5
    80004f6c:	034bccbb          	divw	s9,s7,s4
    80004f70:	0350f0b3          	remu	ra,ra,s5
    80004f74:	00bd0233          	add	tp,s10,a1
    80004f78:	024c1113          	slli	sp,s8,0x24
    80004f7c:	0097de3b          	srlw	t3,a5,s1
    80004f80:	0271aab3          	mulhsu	s5,gp,t2
    80004f84:	010a5a33          	srl	s4,s4,a6
    80004f88:	4182ddb3          	sra	s11,t0,s8
    80004f8c:	aed68193          	addi	gp,a3,-1299
    80004f90:	00c59d9b          	slliw	s11,a1,0xc
    80004f94:	03d040b3          	div	ra,zero,t4
    80004f98:	01f8d41b          	srliw	s0,a7,0x1f
    80004f9c:	024c1113          	slli	sp,s8,0x24
    80004fa0:	024d883b          	mulw	a6,s11,tp
    80004fa4:	03143933          	mulhu	s2,s0,a7
    80004fa8:	03143933          	mulhu	s2,s0,a7
    80004fac:	00c59d9b          	slliw	s11,a1,0xc
    80004fb0:	0168b0b3          	sltu	ra,a7,s6
    80004fb4:	010a5a33          	srl	s4,s4,a6
    80004fb8:	00e443b3          	xor	t2,s0,a4
    80004fbc:	12cd059b          	addiw	a1,s10,300
    80004fc0:	53d76393          	ori	t2,a4,1341
    80004fc4:	0097de3b          	srlw	t3,a5,s1
    80004fc8:	513faf93          	slti	t6,t6,1299
    80004fcc:	001a9433          	sll	s0,s5,ra
    80004fd0:	01e06c33          	or	s8,zero,t5
    80004fd4:	daec3a13          	sltiu	s4,s8,-594
    80004fd8:	020c9733          	mulh	a4,s9,zero
    80004fdc:	024c1113          	slli	sp,s8,0x24
    80004fe0:	9e8ec093          	xori	ra,t4,-1560
    80004fe4:	004294bb          	sllw	s1,t0,tp
    80004fe8:	aed68193          	addi	gp,a3,-1299
    80004fec:	01aa8a3b          	addw	s4,s5,s10
    80004ff0:	00000013          	nop
    80004ff4:	0350f0b3          	remu	ra,ra,s5
    80004ff8:	201de597          	auipc	a1,0x201de
    80004ffc:	0168b0b3          	sltu	ra,a7,s6
    80005000:	01227033          	and	zero,tp,s2
    80005004:	01dc2fb3          	slt	t6,s8,t4
    80005008:	0097de3b          	srlw	t3,a5,s1
    8000500c:	c94dc837          	lui	a6,0xc94dc
    80005010:	00c59d9b          	slliw	s11,a1,0xc
    80005014:	0350f0b3          	remu	ra,ra,s5
    80005018:	004294bb          	sllw	s1,t0,tp
    8000501c:	03143933          	mulhu	s2,s0,a7
    80005020:	020c9733          	mulh	a4,s9,zero
    80005024:	0207d83b          	divuw	a6,a5,zero
    80005028:	4182ddb3          	sra	s11,t0,s8
    8000502c:	031b8fb3          	mul	t6,s7,a7
    80005030:	daec3a13          	sltiu	s4,s8,-594
    80005034:	12cd059b          	addiw	a1,s10,300
    80005038:	02dc733b          	remuw	t1,s8,a3
    8000503c:	01e06c33          	or	s8,zero,t5
    80005040:	41acd23b          	sraw	tp,s9,s10
    80005044:	027b6e3b          	remw	t3,s6,t2
    80005048:	00bd0233          	add	tp,s10,a1
    8000504c:	4182ddb3          	sra	s11,t0,s8
    80005050:	fff0049b          	addiw	s1,zero,-1
    80005054:	03f49493          	slli	s1,s1,0x3f
    80005058:	00000c13          	li	s8,0
    8000505c:	0018b737          	lui	a4,0x18b
    80005060:	66d7071b          	addiw	a4,a4,1645 # 18b66d <_start-0x7fe74993>
    80005064:	00d71713          	slli	a4,a4,0xd
    80005068:	04f70713          	addi	a4,a4,79
    8000506c:	00e71713          	slli	a4,a4,0xe
    80005070:	dc570713          	addi	a4,a4,-571
    80005074:	00d71713          	slli	a4,a4,0xd
    80005078:	11f70713          	addi	a4,a4,287
    8000507c:	00000313          	li	t1,0
    80005080:	00160937          	lui	s2,0x160
    80005084:	8cf9091b          	addiw	s2,s2,-1841 # 15f8cf <_start-0x7fea0731>
    80005088:	00c91913          	slli	s2,s2,0xc
    8000508c:	43390913          	addi	s2,s2,1075
    80005090:	00e91913          	slli	s2,s2,0xe
    80005094:	fff90913          	addi	s2,s2,-1
    80005098:	00d91913          	slli	s2,s2,0xd
    8000509c:	7c190913          	addi	s2,s2,1985
    800050a0:	03f1be37          	lui	t3,0x3f1b
    800050a4:	3b9e0e1b          	addiw	t3,t3,953 # 3f1b3b9 <_start-0x7c0e4c47>
