
riscv_arithmetic_basic_test_0.o:     file format elf64-littleriscv


Disassembly of section .text:

0000000080000000 <_start>:
    80000000:	f14022f3          	csrr	t0,mhartid
    80000004:	4301                	li	t1,0
    80000006:	00628263          	beq	t0,t1,8000000a <_start+0xa>
    8000000a:	00000717          	auipc	a4,0x0
    8000000e:	00c70713          	addi	a4,a4,12 # 80000016 <h0_start>
    80000012:	00070067          	jr	a4

0000000080000016 <h0_start>:
    80000016:	fff0039b          	addiw	t2,zero,-1
    8000001a:	13ce                	slli	t2,t2,0x33
    8000001c:	0385                	addi	t2,t2,1
    8000001e:	03b2                	slli	t2,t2,0xc
    80000020:	10438393          	addi	t2,t2,260
    80000024:	30139073          	csrw	misa,t2

0000000080000028 <kernel_sp>:
    80000028:	0001de17          	auipc	t3,0x1d
    8000002c:	958e0e13          	addi	t3,t3,-1704 # 8001c980 <kernel_stack_end>

0000000080000030 <trap_vec_init>:
    80000030:	0000a397          	auipc	t2,0xa
    80000034:	06438393          	addi	t2,t2,100 # 8000a094 <mtvec_handler>
    80000038:	0003e393          	ori	t2,t2,0
    8000003c:	30539073          	csrw	mtvec,t2

0000000080000040 <mepc_setup>:
    80000040:	00000397          	auipc	t2,0x0
    80000044:	02238393          	addi	t2,t2,34 # 80000062 <init>
    80000048:	34139073          	csrw	mepc,t2

000000008000004c <custom_csr_setup>:
    8000004c:	0001                	nop

000000008000004e <init_machine_mode>:
    8000004e:	6389                	lui	t2,0x2
    80000050:	8003839b          	addiw	t2,t2,-2048 # 1800 <_start-0x7fffe800>
    80000054:	30039073          	csrw	mstatus,t2
    80000058:	4381                	li	t2,0
    8000005a:	30439073          	csrw	mie,t2
    8000005e:	30200073          	mret

0000000080000062 <init>:
    80000062:	00000013          	nop
    80000066:	40a9                	li	ra,10
    80000068:	203dd137          	lui	sp,0x203dd
    8000006c:	a1a1011b          	addiw	sp,sp,-1510 # 203dca1a <_start-0x5fc235e6>
    80000070:	0010019b          	addiw	gp,zero,1
    80000074:	01fe                	slli	gp,gp,0x1f
    80000076:	4201                	li	tp,0
    80000078:	4281                	li	t0,0
    8000007a:	0010031b          	addiw	t1,zero,1
    8000007e:	037e                	slli	t1,t1,0x1f
    80000080:	4381                	li	t2,0
    80000082:	647d                	lui	s0,0x1f
    80000084:	b774041b          	addiw	s0,s0,-1161 # 1eb77 <_start-0x7ffe1489>
    80000088:	043e                	slli	s0,s0,0xf
    8000008a:	93e40413          	addi	s0,s0,-1730
    8000008e:	64fd                	lui	s1,0x1f
    80000090:	4fd4849b          	addiw	s1,s1,1277 # 1f4fd <_start-0x7ffe0b03>
    80000094:	04be                	slli	s1,s1,0xf
    80000096:	69c48493          	addi	s1,s1,1692
    8000009a:	000fd537          	lui	a0,0xfd
    8000009e:	b575051b          	addiw	a0,a0,-1193 # fcb57 <_start-0x7ff034a9>
    800000a2:	0532                	slli	a0,a0,0xc
    800000a4:	ac050513          	addi	a0,a0,-1344
    800000a8:	0010059b          	addiw	a1,zero,1
    800000ac:	05fe                	slli	a1,a1,0x1f
    800000ae:	461d                	li	a2,7
    800000b0:	000f06b7          	lui	a3,0xf0
    800000b4:	68d6869b          	addiw	a3,a3,1677 # f068d <_start-0x7ff0f973>
    800000b8:	06b2                	slli	a3,a3,0xc
    800000ba:	57d68693          	addi	a3,a3,1405
    800000be:	000f1737          	lui	a4,0xf1
    800000c2:	acb7071b          	addiw	a4,a4,-1333 # f0acb <_start-0x7ff0f535>
    800000c6:	0732                	slli	a4,a4,0xc
    800000c8:	a6370713          	addi	a4,a4,-1437
    800000cc:	4799                	li	a5,6
    800000ce:	000e4837          	lui	a6,0xe4
    800000d2:	3eb8081b          	addiw	a6,a6,1003 # e43eb <_start-0x7ff1bc15>
    800000d6:	0832                	slli	a6,a6,0xc
    800000d8:	86980813          	addi	a6,a6,-1943
    800000dc:	0010089b          	addiw	a7,zero,1
    800000e0:	08fe                	slli	a7,a7,0x1f
    800000e2:	0010091b          	addiw	s2,zero,1
    800000e6:	097e                	slli	s2,s2,0x1f
    800000e8:	4981                	li	s3,0
    800000ea:	00100a1b          	addiw	s4,zero,1
    800000ee:	0a7e                	slli	s4,s4,0x1f
    800000f0:	4a81                	li	s5,0
    800000f2:	2178ab37          	lui	s6,0x2178a
    800000f6:	973b0b1b          	addiw	s6,s6,-1677 # 21789973 <_start-0x5e87668d>
    800000fa:	00100b9b          	addiw	s7,zero,1
    800000fe:	0bfe                	slli	s7,s7,0x1f
    80000100:	00100c1b          	addiw	s8,zero,1
    80000104:	0c7e                	slli	s8,s8,0x1f
    80000106:	4cbd                	li	s9,15
    80000108:	4d15                	li	s10,5
    8000010a:	4ea5                	li	t4,9
    8000010c:	00100f1b          	addiw	t5,zero,1
    80000110:	0f7e                	slli	t5,t5,0x1f
    80000112:	4fb1                	li	t6,12
    80000114:	00015d97          	auipc	s11,0x15
    80000118:	b6cd8d93          	addi	s11,s11,-1172 # 80014c80 <user_stack_end>

000000008000011c <main>:
    8000011c:	ffb12ab7          	lui	s5,0xffb12
    80000120:	b25a8a9b          	addiw	s5,s5,-1243 # ffffffffffb11b25 <_end+0xffffffff7faf519d>
    80000124:	0abe                	slli	s5,s5,0xf
    80000126:	0b9a8a93          	addi	s5,s5,185
    8000012a:	0ab2                	slli	s5,s5,0xc
    8000012c:	9eba8a93          	addi	s5,s5,-1557
    80000130:	0ab2                	slli	s5,s5,0xc
    80000132:	b81a8a93          	addi	s5,s5,-1151
    80000136:	fff30837          	lui	a6,0xfff30
    8000013a:	4338081b          	addiw	a6,a6,1075 # fffffffffff30433 <_end+0xffffffff7ff13aab>
    8000013e:	0832                	slli	a6,a6,0xc
    80000140:	a6780813          	addi	a6,a6,-1433
    80000144:	0836                	slli	a6,a6,0xd
    80000146:	a4980813          	addi	a6,a6,-1463
    8000014a:	0842                	slli	a6,a6,0x10
    8000014c:	d0980813          	addi	a6,a6,-759
    80000150:	fff0011b          	addiw	sp,zero,-1
    80000154:	117e                	slli	sp,sp,0x3f
    80000156:	4981                	li	s3,0
    80000158:	50132fb7          	lui	t6,0x50132
    8000015c:	f1ff8f9b          	addiw	t6,t6,-225 # 50131f1f <_start-0x2fece0e1>
    80000160:	0fb2                	slli	t6,t6,0xc
    80000162:	1f1f8f93          	addi	t6,t6,497
    80000166:	0fce                	slli	t6,t6,0x13
    80000168:	815f8f93          	addi	t6,t6,-2027
    8000016c:	fff0029b          	addiw	t0,zero,-1
    80000170:	12fe                	slli	t0,t0,0x3f
    80000172:	017631b7          	lui	gp,0x1763
    80000176:	48f1819b          	addiw	gp,gp,1167 # 176348f <_start-0x7e89cb71>
    8000017a:	01b2                	slli	gp,gp,0xc
    8000017c:	d2718193          	addi	gp,gp,-729
    80000180:	01b6                	slli	gp,gp,0xd
    80000182:	e0f18193          	addi	gp,gp,-497
    80000186:	01b2                	slli	gp,gp,0xc
    80000188:	86918193          	addi	gp,gp,-1943
    8000018c:	5efd                	li	t4,-1
    8000018e:	00c1ecb7          	lui	s9,0xc1e
    80000192:	f73c8c9b          	addiw	s9,s9,-141 # c1df73 <_start-0x7f3e208d>
    80000196:	0cbe                	slli	s9,s9,0xf
    80000198:	531c8c93          	addi	s9,s9,1329
    8000019c:	0cb2                	slli	s9,s9,0xc
    8000019e:	ad9c8c93          	addi	s9,s9,-1319
    800001a2:	0cb2                	slli	s9,s9,0xc
    800001a4:	192c8c93          	addi	s9,s9,402
    800001a8:	fff0049b          	addiw	s1,zero,-1
    800001ac:	14fe                	slli	s1,s1,0x3f
    800001ae:	029fc83b          	divw	a6,t6,s1
    800001b2:	41f48abb          	subw	s5,s1,t6
    800001b6:	f0ac8c9b          	addiw	s9,s9,-246
    800001ba:	03381eb3          	mulh	t4,a6,s3
    800001be:	01dc82bb          	addw	t0,s9,t4
    800001c2:	029fc83b          	divw	a6,t6,s1
    800001c6:	03fad133          	divu	sp,s5,t6
    800001ca:	02985abb          	divuw	s5,a6,s1
    800001ce:	002f8ab3          	add	s5,t6,sp
    800001d2:	41f48abb          	subw	s5,s1,t6
    800001d6:	03fad133          	divu	sp,s5,t6
    800001da:	030ca4b3          	mulhsu	s1,s9,a6
    800001de:	02387133          	remu	sp,a6,gp
    800001e2:	f0ac8c9b          	addiw	s9,s9,-246
    800001e6:	01dc82bb          	addw	t0,s9,t4
    800001ea:	0339c2b3          	div	t0,s3,s3
    800001ee:	030aecbb          	remw	s9,s5,a6
    800001f2:	025cefb3          	rem	t6,s9,t0
    800001f6:	413109b3          	sub	s3,sp,s3
    800001fa:	60aa9117          	auipc	sp,0x60aa9
    800001fe:	63298293          	addi	t0,s3,1586
    80000202:	03d1883b          	mulw	a6,gp,t4
    80000206:	0301b1b3          	mulhu	gp,gp,a6
    8000020a:	03d879bb          	remuw	s3,a6,t4
    8000020e:	587d                	li	a6,-1
    80000210:	fff00c1b          	addiw	s8,zero,-1
    80000214:	1c7e                	slli	s8,s8,0x3f
    80000216:	5f7d                	li	t5,-1
    80000218:	0002d6b7          	lui	a3,0x2d
    8000021c:	f776869b          	addiw	a3,a3,-137 # 2cf77 <_start-0x7ffd3089>
    80000220:	06ba                	slli	a3,a3,0xe
    80000222:	30f68693          	addi	a3,a3,783
    80000226:	06c2                	slli	a3,a3,0x10
    80000228:	56b68693          	addi	a3,a3,1387
    8000022c:	06be                	slli	a3,a3,0xf
    8000022e:	7c168693          	addi	a3,a3,1985
    80000232:	ffe26637          	lui	a2,0xffe26
    80000236:	bed6061b          	addiw	a2,a2,-1043 # ffffffffffe25bed <_end+0xffffffff7fe09265>
    8000023a:	063e                	slli	a2,a2,0xf
    8000023c:	f4360613          	addi	a2,a2,-189
    80000240:	0636                	slli	a2,a2,0xd
    80000242:	fbf60613          	addi	a2,a2,-65
    80000246:	0632                	slli	a2,a2,0xc
    80000248:	b6b60613          	addi	a2,a2,-1173
    8000024c:	01e334b7          	lui	s1,0x1e33
    80000250:	63b4849b          	addiw	s1,s1,1595 # 1e3363b <_start-0x7e1cc9c5>
    80000254:	04ba                	slli	s1,s1,0xe
    80000256:	abf48493          	addi	s1,s1,-1345
    8000025a:	04b2                	slli	s1,s1,0xc
    8000025c:	ca548493          	addi	s1,s1,-859
    80000260:	04b2                	slli	s1,s1,0xc
    80000262:	5be48493          	addi	s1,s1,1470
    80000266:	ff72f9b7          	lui	s3,0xff72f
    8000026a:	f479899b          	addiw	s3,s3,-185 # ffffffffff72ef47 <_end+0xffffffff7f7125bf>
    8000026e:	09b2                	slli	s3,s3,0xc
    80000270:	0f598993          	addi	s3,s3,245
    80000274:	09b6                	slli	s3,s3,0xd
    80000276:	a0598993          	addi	s3,s3,-1531
    8000027a:	09b2                	slli	s3,s3,0xc
    8000027c:	f7b98993          	addi	s3,s3,-133
    80000280:	ff8e2237          	lui	tp,0xff8e2
    80000284:	82f2021b          	addiw	tp,tp,-2001 # ffffffffff8e182f <_end+0xffffffff7f8c4ea7>
    80000288:	0232                	slli	tp,tp,0xc
    8000028a:	17120213          	addi	tp,tp,369 # 171 <_start-0x7ffffe8f>
    8000028e:	0232                	slli	tp,tp,0xc
    80000290:	4c320213          	addi	tp,tp,1219 # 4c3 <_start-0x7ffffb3d>
    80000294:	023a                	slli	tp,tp,0xe
    80000296:	9ad20213          	addi	tp,tp,-1619 # fffffffffffff9ad <_end+0xffffffff7ffe3025>
    8000029a:	4101                	li	sp,0
    8000029c:	fff00a9b          	addiw	s5,zero,-1
    800002a0:	1afe                	slli	s5,s5,0x3f
    800002a2:	60aa9117          	auipc	sp,0x60aa9
    800002a6:	02daa633          	mulhsu	a2,s5,a3
    800002aa:	03069c33          	mulh	s8,a3,a6
    800002ae:	02daa633          	mulhsu	a2,s5,a3
    800002b2:	0001                	nop
    800002b4:	60aa9117          	auipc	sp,0x60aa9
    800002b8:	03069c33          	mulh	s8,a3,a6
    800002bc:	02d9eabb          	remw	s5,s3,a3
    800002c0:	0386f83b          	remuw	a6,a3,s8
    800002c4:	02cf46bb          	divw	a3,t5,a2
    800002c8:	02d9eabb          	remw	s5,s3,a3
    800002cc:	0246f133          	remu	sp,a3,tp
    800002d0:	0386f83b          	remuw	a6,a3,s8
    800002d4:	f0aa8a9b          	addiw	s5,s5,-246
    800002d8:	03069c33          	mulh	s8,a3,a6
    800002dc:	60aa9117          	auipc	sp,0x60aa9
    800002e0:	02c6d9bb          	divuw	s3,a3,a2
    800002e4:	02c6d9bb          	divuw	s3,a3,a2
    800002e8:	03069c33          	mulh	s8,a3,a6
    800002ec:	03069c33          	mulh	s8,a3,a6
    800002f0:	60aa9117          	auipc	sp,0x60aa9
    800002f4:	63280493          	addi	s1,a6,1586
    800002f8:	029aef33          	rem	t5,s5,s1
    800002fc:	029aef33          	rem	t5,s5,s1
    80000300:	02c6d9bb          	divuw	s3,a3,a2
    80000304:	02daa633          	mulhsu	a2,s5,a3
    80000308:	fff00a9b          	addiw	s5,zero,-1
    8000030c:	1afe                	slli	s5,s5,0x3f
    8000030e:	fff00d1b          	addiw	s10,zero,-1
    80000312:	1d7e                	slli	s10,s10,0x3f
    80000314:	4c01                	li	s8,0
    80000316:	fff0079b          	addiw	a5,zero,-1
    8000031a:	17fe                	slli	a5,a5,0x3f
    8000031c:	4b01                	li	s6,0
    8000031e:	567d                	li	a2,-1
    80000320:	fff00f1b          	addiw	t5,zero,-1
    80000324:	1f7e                	slli	t5,t5,0x3f
    80000326:	ff80b9b7          	lui	s3,0xff80b
    8000032a:	7b39899b          	addiw	s3,s3,1971 # ffffffffff80b7b3 <_end+0xffffffff7f7eee2b>
    8000032e:	09b6                	slli	s3,s3,0xd
    80000330:	9e798993          	addi	s3,s3,-1561
    80000334:	09b2                	slli	s3,s3,0xc
    80000336:	46598993          	addi	s3,s3,1125
    8000033a:	09ba                	slli	s3,s3,0xe
    8000033c:	fc198993          	addi	s3,s3,-63
    80000340:	4801                	li	a6,0
    80000342:	4101                	li	sp,0
    80000344:	0309db3b          	divuw	s6,s3,a6
    80000348:	002f0b33          	add	s6,t5,sp
    8000034c:	03eb5133          	divu	sp,s6,t5
    80000350:	033b6c3b          	remw	s8,s6,s3
    80000354:	03eb5133          	divu	sp,s6,t5
    80000358:	03eb5133          	divu	sp,s6,t5
    8000035c:	002f0b33          	add	s6,t5,sp
    80000360:	03599d33          	mulh	s10,s3,s5
    80000364:	60aa9117          	auipc	sp,0x60aa9
    80000368:	03eb5133          	divu	sp,s6,t5
    8000036c:	7b9a5d37          	lui	s10,0x7b9a5
    80000370:	0309db3b          	divuw	s6,s3,a6
    80000374:	0309db3b          	divuw	s6,s3,a6
    80000378:	02c9f133          	remu	sp,s3,a2
    8000037c:	030f49bb          	divw	s3,t5,a6
    80000380:	0309db3b          	divuw	s6,s3,a6
    80000384:	7b9a5d37          	lui	s10,0x7b9a5
    80000388:	03599d33          	mulh	s10,s3,s5
    8000038c:	632a8793          	addi	a5,s5,1586
    80000390:	02fc6f33          	rem	t5,s8,a5
    80000394:	fe9d01b7          	lui	gp,0xfe9d0
    80000398:	cbf1819b          	addiw	gp,gp,-833 # fffffffffe9cfcbf <_end+0xffffffff7e9b3337>
    8000039c:	01b6                	slli	gp,gp,0xd
    8000039e:	d6b18193          	addi	gp,gp,-661
    800003a2:	01b2                	slli	gp,gp,0xc
    800003a4:	54118193          	addi	gp,gp,1345
    800003a8:	01b6                	slli	gp,gp,0xd
    800003aa:	ee018193          	addi	gp,gp,-288
    800003ae:	4301                	li	t1,0
    800003b0:	fff0021b          	addiw	tp,zero,-1
    800003b4:	127e                	slli	tp,tp,0x3f
    800003b6:	fba2dbb7          	lui	s7,0xfba2d
    800003ba:	cf9b8b9b          	addiw	s7,s7,-775 # fffffffffba2ccf9 <_end+0xffffffff7ba10371>
    800003be:	0bb2                	slli	s7,s7,0xc
    800003c0:	6e3b8b93          	addi	s7,s7,1763
    800003c4:	0bb2                	slli	s7,s7,0xc
    800003c6:	9e1b8b93          	addi	s7,s7,-1567
    800003ca:	0bb2                	slli	s7,s7,0xc
    800003cc:	04eb8b93          	addi	s7,s7,78
    800003d0:	567d                	li	a2,-1
    800003d2:	ff68fc37          	lui	s8,0xff68f
    800003d6:	2f5c0c1b          	addiw	s8,s8,757 # ffffffffff68f2f5 <_end+0xffffffff7f67296d>
    800003da:	0c32                	slli	s8,s8,0xc
    800003dc:	e0bc0c13          	addi	s8,s8,-501
    800003e0:	0c32                	slli	s8,s8,0xc
    800003e2:	b77c0c13          	addi	s8,s8,-1161
    800003e6:	0c36                	slli	s8,s8,0xd
    800003e8:	2f5c0c13          	addi	s8,s8,757
    800003ec:	fff0041b          	addiw	s0,zero,-1
    800003f0:	147e                	slli	s0,s0,0x3f
    800003f2:	fff00a9b          	addiw	s5,zero,-1
    800003f6:	1afe                	slli	s5,s5,0x3f
    800003f8:	56fd                	li	a3,-1
    800003fa:	4e81                	li	t4,0
    800003fc:	003e8ab3          	add	s5,t4,gp
    80000400:	02d6c333          	div	t1,a3,a3
    80000404:	02d61c33          	mulh	s8,a2,a3
    80000408:	f0ab8b9b          	addiw	s7,s7,-246
    8000040c:	41d40abb          	subw	s5,s0,t4
    80000410:	02c23233          	mulhu	tp,tp,a2
    80000414:	003e8ab3          	add	s5,t4,gp
    80000418:	f0ab8b9b          	addiw	s7,s7,-246
    8000041c:	02c23233          	mulhu	tp,tp,a2
    80000420:	024671b3          	remu	gp,a2,tp
    80000424:	03dad1b3          	divu	gp,s5,t4
    80000428:	0001                	nop
    8000042a:	02865abb          	divuw	s5,a2,s0
    8000042e:	038676bb          	remuw	a3,a2,s8
    80000432:	02368c33          	mul	s8,a3,gp
    80000436:	003e8ab3          	add	s5,t4,gp
    8000043a:	f0ab8b9b          	addiw	s7,s7,-246
    8000043e:	02368c33          	mul	s8,a3,gp
    80000442:	40d186b3          	sub	a3,gp,a3
    80000446:	0001                	nop
    80000448:	02865abb          	divuw	s5,a2,s0
    8000044c:	60aa9197          	auipc	gp,0x60aa9
    80000450:	02d61c33          	mulh	s8,a2,a3
    80000454:	60aa9197          	auipc	gp,0x60aa9
    80000458:	0382063b          	mulw	a2,tp,s8
    8000045c:	02368c33          	mul	s8,a3,gp
    80000460:	f0ab8b9b          	addiw	s7,s7,-246
    80000464:	fff00a9b          	addiw	s5,zero,-1
    80000468:	1afe                	slli	s5,s5,0x3f
    8000046a:	fff0061b          	addiw	a2,zero,-1
    8000046e:	167e                	slli	a2,a2,0x3f
    80000470:	ffd180b7          	lui	ra,0xffd18
    80000474:	cbb0809b          	addiw	ra,ra,-837 # ffffffffffd17cbb <_end+0xffffffff7fcfb333>
    80000478:	00be                	slli	ra,ra,0xf
    8000047a:	e1d08093          	addi	ra,ra,-483
    8000047e:	00b2                	slli	ra,ra,0xc
    80000480:	edb08093          	addi	ra,ra,-293
    80000484:	00b6                	slli	ra,ra,0xd
    80000486:	7ec08093          	addi	ra,ra,2028
    8000048a:	5b7d                	li	s6,-1
    8000048c:	53fd                	li	t2,-1
    8000048e:	5a7d                	li	s4,-1
    80000490:	68b11fb7          	lui	t6,0x68b11
    80000494:	487f8f9b          	addiw	t6,t6,1159 # 68b11487 <_start-0x174eeb79>
    80000498:	0fca                	slli	t6,t6,0x12
    8000049a:	d0df8f93          	addi	t6,t6,-755
    8000049e:	0fba                	slli	t6,t6,0xe
    800004a0:	c49f8f93          	addi	t6,t6,-951
    800004a4:	fff0051b          	addiw	a0,zero,-1
    800004a8:	157e                	slli	a0,a0,0x3f
    800004aa:	fef206b7          	lui	a3,0xfef20
    800004ae:	b5f6869b          	addiw	a3,a3,-1185 # fffffffffef1fb5f <_end+0xffffffff7ef031d7>
    800004b2:	06b6                	slli	a3,a3,0xd
    800004b4:	28368693          	addi	a3,a3,643
    800004b8:	06b2                	slli	a3,a3,0xc
    800004ba:	b7b68693          	addi	a3,a3,-1157
    800004be:	06b6                	slli	a3,a3,0xd
    800004c0:	e0f68693          	addi	a3,a3,-497
    800004c4:	06ba4237          	lui	tp,0x6ba4
    800004c8:	1012021b          	addiw	tp,tp,257 # 6ba4101 <_start-0x7945beff>
    800004cc:	0232                	slli	tp,tp,0xc
    800004ce:	16720213          	addi	tp,tp,359 # 167 <_start-0x7ffffe99>
    800004d2:	0232                	slli	tp,tp,0xc
    800004d4:	cc920213          	addi	tp,tp,-823 # fffffffffffffcc9 <_end+0xffffffff7ffe3341>
    800004d8:	0232                	slli	tp,tp,0xc
    800004da:	84620213          	addi	tp,tp,-1978 # fffffffffffff846 <_end+0xffffffff7ffe2ebe>
    800004de:	001f8a33          	add	s4,t6,ra
    800004e2:	02c23233          	mulhu	tp,tp,a2
    800004e6:	0001                	nop
    800004e8:	02c23233          	mulhu	tp,tp,a2
    800004ec:	036676bb          	remuw	a3,a2,s6
    800004f0:	f0aa8a9b          	addiw	s5,s5,-246
    800004f4:	0362063b          	mulw	a2,tp,s6
    800004f8:	02c23233          	mulhu	tp,tp,a2
    800004fc:	036676bb          	remuw	a3,a2,s6
    80000500:	f0aa8a9b          	addiw	s5,s5,-246
    80000504:	02a65a3b          	divuw	s4,a2,a0
    80000508:	02d6c3b3          	div	t2,a3,a3
    8000050c:	036676bb          	remuw	a3,a2,s6
    80000510:	0001                	nop
    80000512:	016a83bb          	addw	t2,s5,s6
    80000516:	517d                	li	sp,-1
    80000518:	4381                	li	t2,0
    8000051a:	fdaa48b7          	lui	a7,0xfdaa4
    8000051e:	8cd8889b          	addiw	a7,a7,-1843 # fffffffffdaa38cd <_end+0xffffffff7da86f45>
    80000522:	08b6                	slli	a7,a7,0xd
    80000524:	bc588893          	addi	a7,a7,-1083
    80000528:	08b2                	slli	a7,a7,0xc
    8000052a:	94988893          	addi	a7,a7,-1719
    8000052e:	08b2                	slli	a7,a7,0xc
    80000530:	81288893          	addi	a7,a7,-2030
    80000534:	fcc8cb37          	lui	s6,0xfcc8c
    80000538:	375b0b1b          	addiw	s6,s6,885 # fffffffffcc8c375 <_end+0xffffffff7cc6f9ed>
    8000053c:	0b32                	slli	s6,s6,0xc
    8000053e:	be5b0b13          	addi	s6,s6,-1051
    80000542:	0b32                	slli	s6,s6,0xc
    80000544:	c69b0b13          	addi	s6,s6,-919
    80000548:	0b32                	slli	s6,s6,0xc
    8000054a:	be1b0b13          	addi	s6,s6,-1055
    8000054e:	5efd                	li	t4,-1
    80000550:	567d                	li	a2,-1
    80000552:	fcf06d37          	lui	s10,0xfcf06
    80000556:	833d0d1b          	addiw	s10,s10,-1997 # fffffffffcf05833 <_end+0xffffffff7cee8eab>
    8000055a:	0d32                	slli	s10,s10,0xc
    8000055c:	0fbd0d13          	addi	s10,s10,251
    80000560:	0d36                	slli	s10,s10,0xd
    80000562:	1d7d                	addi	s10,s10,-1
    80000564:	0d32                	slli	s10,s10,0xc
    80000566:	57cd0d13          	addi	s10,s10,1404
    8000056a:	fff00a1b          	addiw	s4,zero,-1
    8000056e:	1a7e                	slli	s4,s4,0x3f
    80000570:	fff00c9b          	addiw	s9,zero,-1
    80000574:	1cfe                	slli	s9,s9,0x3f
    80000576:	00366f37          	lui	t5,0x366
    8000057a:	f09f0f1b          	addiw	t5,t5,-247 # 365f09 <_start-0x7fc9a0f7>
    8000057e:	0f42                	slli	t5,t5,0x10
    80000580:	759f0f13          	addi	t5,t5,1881
    80000584:	0f32                	slli	t5,t5,0xc
    80000586:	d81f0f13          	addi	t5,t5,-639
    8000058a:	0f36                	slli	t5,t5,0xd
    8000058c:	04df0f13          	addi	t5,t5,77
    80000590:	01dd063b          	addw	a2,s10,t4
    80000594:	03da7b3b          	remuw	s6,s4,t4
    80000598:	034d28b3          	mulhsu	a7,s10,s4
    8000059c:	034d28b3          	mulhsu	a7,s10,s4
    800005a0:	031a5cbb          	divuw	s9,s4,a7
    800005a4:	034ced3b          	remw	s10,s9,s4
    800005a8:	031f4a3b          	divw	s4,t5,a7
    800005ac:	03da7b3b          	remuw	s6,s4,t4
    800005b0:	034d28b3          	mulhsu	a7,s10,s4
    800005b4:	0343b3b3          	mulhu	t2,t2,s4
    800005b8:	034d28b3          	mulhsu	a7,s10,s4
    800005bc:	03da7b3b          	remuw	s6,s4,t4
    800005c0:	022b0eb3          	mul	t4,s6,sp
    800005c4:	034d28b3          	mulhsu	a7,s10,s4
    800005c8:	02cd6f33          	rem	t5,s10,a2
    800005cc:	41610b33          	sub	s6,sp,s6
    800005d0:	632b0613          	addi	a2,s6,1586
    800005d4:	036a1eb3          	mulh	t4,s4,s6
    800005d8:	03ecd133          	divu	sp,s9,t5
    800005dc:	031f4a3b          	divw	s4,t5,a7
    800005e0:	031a5cbb          	divuw	s9,s4,a7
    800005e4:	0343b3b3          	mulhu	t2,t2,s4
    800005e8:	01dd063b          	addw	a2,s10,t4
    800005ec:	027a7133          	remu	sp,s4,t2
    800005f0:	632b0613          	addi	a2,s6,1586
    800005f4:	01dd063b          	addw	a2,s10,t4
    800005f8:	002f0cb3          	add	s9,t5,sp
    800005fc:	fff0079b          	addiw	a5,zero,-1
    80000600:	17fe                	slli	a5,a5,0x3f
    80000602:	4881                	li	a7,0
    80000604:	ffea7f37          	lui	t5,0xffea7
    80000608:	751f0f1b          	addiw	t5,t5,1873 # ffffffffffea7751 <_end+0xffffffff7fe8adc9>
    8000060c:	0f32                	slli	t5,t5,0xc
    8000060e:	69bf0f13          	addi	t5,t5,1691
    80000612:	0f32                	slli	t5,t5,0xc
    80000614:	d7ff0f13          	addi	t5,t5,-641
    80000618:	0f42                	slli	t5,t5,0x10
    8000061a:	a6df0f13          	addi	t5,t5,-1427
    8000061e:	000fc6b7          	lui	a3,0xfc
    80000622:	a9f6869b          	addiw	a3,a3,-1377 # fba9f <_start-0x7ff04561>
    80000626:	06c6                	slli	a3,a3,0x11
    80000628:	43968693          	addi	a3,a3,1081
    8000062c:	06b2                	slli	a3,a3,0xc
    8000062e:	06b68693          	addi	a3,a3,107
    80000632:	06ba                	slli	a3,a3,0xe
    80000634:	53168693          	addi	a3,a3,1329
    80000638:	5a7d                	li	s4,-1
    8000063a:	fff0091b          	addiw	s2,zero,-1
    8000063e:	197e                	slli	s2,s2,0x3f
    80000640:	4381                	li	t2,0
    80000642:	fff09bb7          	lui	s7,0xfff09
    80000646:	98db8b9b          	addiw	s7,s7,-1651 # fffffffffff0898d <_end+0xffffffff7feec005>
    8000064a:	0bba                	slli	s7,s7,0xe
    8000064c:	e3fb8b93          	addi	s7,s7,-449
    80000650:	0bb6                	slli	s7,s7,0xd
    80000652:	33db8b93          	addi	s7,s7,829
    80000656:	0bba                	slli	s7,s7,0xe
    80000658:	f6bb8b93          	addi	s7,s7,-149
    8000065c:	4a81                	li	s5,0
    8000065e:	fff00b1b          	addiw	s6,zero,-1
    80000662:	1b7e                	slli	s6,s6,0x3f
    80000664:	41e88abb          	subw	s5,a7,t5
    80000668:	632a0793          	addi	a5,s4,1586
    8000066c:	0376893b          	mulw	s2,a3,s7
    80000670:	7b9a5bb7          	lui	s7,0x7b9a5
    80000674:	02d973b3          	remu	t2,s2,a3
    80000678:	0001                	nop
    8000067a:	632a0793          	addi	a5,s4,1586
    8000067e:	03195abb          	divuw	s5,s2,a7
    80000682:	02d973b3          	remu	t2,s2,a3
    80000686:	02d973b3          	remu	t2,s2,a3
    8000068a:	632a0793          	addi	a5,s4,1586
    8000068e:	60aa9397          	auipc	t2,0x60aa9
    80000692:	f0ab0b1b          	addiw	s6,s6,-246
    80000696:	0326b6b3          	mulhu	a3,a3,s2
    8000069a:	41e88abb          	subw	s5,a7,t5
    8000069e:	02d973b3          	remu	t2,s2,a3
    800006a2:	03491bb3          	mulh	s7,s2,s4
    800006a6:	031f493b          	divw	s2,t5,a7
    800006aa:	632a0793          	addi	a5,s4,1586
    800006ae:	03195abb          	divuw	s5,s2,a7
    800006b2:	0001                	nop
    800006b4:	7b9a5bb7          	lui	s7,0x7b9a5
    800006b8:	031f493b          	divw	s2,t5,a7
    800006bc:	03ead3b3          	divu	t2,s5,t5
    800006c0:	032aeb3b          	remw	s6,s5,s2
    800006c4:	f0ab0b1b          	addiw	s6,s6,-246
    800006c8:	03797a3b          	remuw	s4,s2,s7
    800006cc:	017b07bb          	addw	a5,s6,s7
    800006d0:	fff0031b          	addiw	t1,zero,-1
    800006d4:	137e                	slli	t1,t1,0x3f
    800006d6:	567d                	li	a2,-1
    800006d8:	4801                	li	a6,0
    800006da:	4501                	li	a0,0
    800006dc:	4901                	li	s2,0
    800006de:	56fd                	li	a3,-1
    800006e0:	001bc3b7          	lui	t2,0x1bc
    800006e4:	c573839b          	addiw	t2,t2,-937 # 1bbc57 <_start-0x7fe443a9>
    800006e8:	03c6                	slli	t2,t2,0x11
    800006ea:	bd738393          	addi	t2,t2,-1065
    800006ee:	03b6                	slli	t2,t2,0xd
    800006f0:	90938393          	addi	t2,t2,-1783
    800006f4:	03b2                	slli	t2,t2,0xc
    800006f6:	49938393          	addi	t2,t2,1177
    800006fa:	b17d51b7          	lui	gp,0xb17d5
    800006fe:	d9d1819b          	addiw	gp,gp,-611 # ffffffffb17d4d9d <_end+0xffffffff317b8415>
    80000702:	01c2                	slli	gp,gp,0x10
    80000704:	9a718193          	addi	gp,gp,-1625
    80000708:	01b2                	slli	gp,gp,0xc
    8000070a:	b2118193          	addi	gp,gp,-1247
    8000070e:	4e81                	li	t4,0
    80000710:	5a7d                	li	s4,-1
    80000712:	7b9a5a37          	lui	s4,0x7b9a5
    80000716:	003e8833          	add	a6,t4,gp
    8000071a:	0001                	nop
    8000071c:	60aa9197          	auipc	gp,0x60aa9
    80000720:	034676bb          	remuw	a3,a2,s4
    80000724:	0001                	nop
    80000726:	0001                	nop
    80000728:	0343063b          	mulw	a2,t1,s4
    8000072c:	63268393          	addi	t2,a3,1586
    80000730:	003e8833          	add	a6,t4,gp
    80000734:	7b9a5a37          	lui	s4,0x7b9a5
    80000738:	03d851b3          	divu	gp,a6,t4
    8000073c:	03d851b3          	divu	gp,a6,t4
    80000740:	02d6c3b3          	div	t2,a3,a3
    80000744:	02d6c3b3          	div	t2,a3,a3
    80000748:	014903bb          	addw	t2,s2,s4
    8000074c:	02796eb3          	rem	t4,s2,t2
    80000750:	60aa9197          	auipc	gp,0x60aa9
    80000754:	02aec63b          	divw	a2,t4,a0
    80000758:	02796eb3          	rem	t4,s2,t2
    8000075c:	03d851b3          	divu	gp,a6,t4
    80000760:	40d186b3          	sub	a3,gp,a3
    80000764:	02aec63b          	divw	a2,t4,a0
    80000768:	02c33333          	mulhu	t1,t1,a2
    8000076c:	fff0069b          	addiw	a3,zero,-1
    80000770:	16fe                	slli	a3,a3,0x3f
    80000772:	fff0049b          	addiw	s1,zero,-1
    80000776:	14fe                	slli	s1,s1,0x3f
    80000778:	52fd                	li	t0,-1
    8000077a:	59fd                	li	s3,-1
    8000077c:	03473cb7          	lui	s9,0x3473
    80000780:	6bdc8c9b          	addiw	s9,s9,1725 # 34736bd <_start-0x7cb8c943>
    80000784:	0cb6                	slli	s9,s9,0xd
    80000786:	f67c8c93          	addi	s9,s9,-153
    8000078a:	0cb2                	slli	s9,s9,0xc
    8000078c:	6a7c8c93          	addi	s9,s9,1703
    80000790:	0cb2                	slli	s9,s9,0xc
    80000792:	448c8c93          	addi	s9,s9,1096
    80000796:	4301                	li	t1,0
    80000798:	ffcf9137          	lui	sp,0xffcf9
    8000079c:	a2b1011b          	addiw	sp,sp,-1493 # ffffffffffcf8a2b <_end+0xffffffff7fcdc0a3>
    800007a0:	0136                	slli	sp,sp,0xd
    800007a2:	53110113          	addi	sp,sp,1329
    800007a6:	0142                	slli	sp,sp,0x10
    800007a8:	6d510113          	addi	sp,sp,1749
    800007ac:	0132                	slli	sp,sp,0xc
    800007ae:	eef10113          	addi	sp,sp,-273
    800007b2:	fff0021b          	addiw	tp,zero,-1
    800007b6:	127e                	slli	tp,tp,0x3f
    800007b8:	fff00a1b          	addiw	s4,zero,-1
    800007bc:	1a7e                	slli	s4,s4,0x3f
    800007be:	ff0ded37          	lui	s10,0xff0de
    800007c2:	d33d0d1b          	addiw	s10,s10,-717 # ffffffffff0ddd33 <_end+0xffffffff7f0c13ab>
    800007c6:	0d3a                	slli	s10,s10,0xe
    800007c8:	4ddd0d13          	addi	s10,s10,1245
    800007cc:	0d36                	slli	s10,s10,0xd
    800007ce:	4ebd0d13          	addi	s10,s10,1259
    800007d2:	0d32                	slli	s10,s10,0xc
    800007d4:	a8fd0d13          	addi	s10,s10,-1393
    800007d8:	02d49cb3          	mulh	s9,s1,a3
    800007dc:	03a9d133          	divu	sp,s3,s10
    800007e0:	0244f133          	remu	sp,s1,tp
    800007e4:	0299ea3b          	remw	s4,s3,s1
    800007e8:	02268cb3          	mul	s9,a3,sp
    800007ec:	63268293          	addi	t0,a3,1586
    800007f0:	41a309bb          	subw	s3,t1,s10
    800007f4:	02268cb3          	mul	s9,a3,sp
    800007f8:	0244f133          	remu	sp,s1,tp
    800007fc:	026d44bb          	divw	s1,s10,t1
    80000800:	03a9d133          	divu	sp,s3,s10
    80000804:	025a6d33          	rem	s10,s4,t0
    80000808:	026d44bb          	divw	s1,s10,t1
    8000080c:	0001                	nop
    8000080e:	0299ea3b          	remw	s4,s3,s1
    80000812:	019a02bb          	addw	t0,s4,s9
    80000816:	0264d9bb          	divuw	s3,s1,t1
    8000081a:	02268cb3          	mul	s9,a3,sp
    8000081e:	029a2333          	mulhsu	t1,s4,s1
    80000822:	f0aa0a1b          	addiw	s4,s4,-246 # 7b9a4f0a <_start-0x465b0f6>
    80000826:	7b9a5cb7          	lui	s9,0x7b9a5
    8000082a:	fff0019b          	addiw	gp,zero,-1
    8000082e:	11fe                	slli	gp,gp,0x3f
    80000830:	4d01                	li	s10,0
    80000832:	fff0091b          	addiw	s2,zero,-1
    80000836:	197e                	slli	s2,s2,0x3f
    80000838:	fff00a9b          	addiw	s5,zero,-1
    8000083c:	1afe                	slli	s5,s5,0x3f
    8000083e:	5c7d                	li	s8,-1
    80000840:	ffc917b7          	lui	a5,0xffc91
    80000844:	7297879b          	addiw	a5,a5,1833 # ffffffffffc91729 <_end+0xffffffff7fc74da1>
    80000848:	07b6                	slli	a5,a5,0xd
    8000084a:	97778793          	addi	a5,a5,-1673
    8000084e:	07ba                	slli	a5,a5,0xe
    80000850:	4a378793          	addi	a5,a5,1187
    80000854:	07ba                	slli	a5,a5,0xe
    80000856:	c1778793          	addi	a5,a5,-1001
    8000085a:	4c81                	li	s9,0
    8000085c:	00b84337          	lui	t1,0xb84
    80000860:	a3f3031b          	addiw	t1,t1,-1473 # b83a3f <_start-0x7f47c5c1>
    80000864:	0332                	slli	t1,t1,0xc
    80000866:	26130313          	addi	t1,t1,609
    8000086a:	0332                	slli	t1,t1,0xc
    8000086c:	68330313          	addi	t1,t1,1667
    80000870:	0332                	slli	t1,t1,0xc
    80000872:	1319                	addi	t1,t1,-26
    80000874:	5ffd                	li	t6,-1
    80000876:	fff0061b          	addiw	a2,zero,-1
    8000087a:	167e                	slli	a2,a2,0x3f
    8000087c:	41518ab3          	sub	s5,gp,s5
    80000880:	0001                	nop
    80000882:	003f8c33          	add	s8,t6,gp
    80000886:	03a97abb          	remuw	s5,s2,s10
    8000088a:	026971b3          	remu	gp,s2,t1
    8000088e:	41518ab3          	sub	s5,gp,s5
    80000892:	023a8d33          	mul	s10,s5,gp
    80000896:	03591d33          	mulh	s10,s2,s5
    8000089a:	01ac863b          	addw	a2,s9,s10
    8000089e:	032ca7b3          	mulhsu	a5,s9,s2
    800008a2:	032c6cbb          	remw	s9,s8,s2
    800008a6:	03233333          	mulhu	t1,t1,s2
    800008aa:	02ffc93b          	divw	s2,t6,a5
    800008ae:	41f78c3b          	subw	s8,a5,t6
    800008b2:	03fc51b3          	divu	gp,s8,t6
    800008b6:	f0ac8c9b          	addiw	s9,s9,-246 # 7b9a4f0a <_start-0x465b0f6>
    800008ba:	41518ab3          	sub	s5,gp,s5
    800008be:	035ac633          	div	a2,s5,s5
    800008c2:	7b9a5d37          	lui	s10,0x7b9a5
    800008c6:	01ac863b          	addw	a2,s9,s10
    800008ca:	fcac5eb7          	lui	t4,0xfcac5
    800008ce:	96be8e9b          	addiw	t4,t4,-1685 # fffffffffcac496b <_end+0xffffffff7caa7fe3>
    800008d2:	0eb2                	slli	t4,t4,0xc
    800008d4:	16de8e93          	addi	t4,t4,365
    800008d8:	0eb6                	slli	t4,t4,0xd
    800008da:	ecbe8e93          	addi	t4,t4,-309
    800008de:	0eb2                	slli	t4,t4,0xc
    800008e0:	05de8e93          	addi	t4,t4,93
    800008e4:	ff4e09b7          	lui	s3,0xff4e0
    800008e8:	bf59899b          	addiw	s3,s3,-1035 # ffffffffff4dfbf5 <_end+0xffffffff7f4c326d>
    800008ec:	09b2                	slli	s3,s3,0xc
    800008ee:	6e198993          	addi	s3,s3,1761
    800008f2:	09b2                	slli	s3,s3,0xc
    800008f4:	34998993          	addi	s3,s3,841
    800008f8:	09b6                	slli	s3,s3,0xd
    800008fa:	36398993          	addi	s3,s3,867
    800008fe:	fff0021b          	addiw	tp,zero,-1
    80000902:	127e                	slli	tp,tp,0x3f
    80000904:	4b81                	li	s7,0
    80000906:	4c01                	li	s8,0
    80000908:	fff0079b          	addiw	a5,zero,-1
    8000090c:	17fe                	slli	a5,a5,0x3f
    8000090e:	fff0081b          	addiw	a6,zero,-1
    80000912:	187e                	slli	a6,a6,0x3f
    80000914:	017a3a37          	lui	s4,0x17a3
    80000918:	bd3a0a1b          	addiw	s4,s4,-1069 # 17a2bd3 <_start-0x7e85d42d>
    8000091c:	0a32                	slli	s4,s4,0xc
    8000091e:	84da0a13          	addi	s4,s4,-1971
    80000922:	0a32                	slli	s4,s4,0xc
    80000924:	13da0a13          	addi	s4,s4,317
    80000928:	0a36                	slli	s4,s4,0xd
    8000092a:	091a0a13          	addi	s4,s4,145
    8000092e:	4c81                	li	s9,0
    80000930:	4681                	li	a3,0
    80000932:	41420a33          	sub	s4,tp,s4
    80000936:	030ec9bb          	divw	s3,t4,a6
    8000093a:	0399fa3b          	remuw	s4,s3,s9
    8000093e:	02d9f233          	remu	tp,s3,a3
    80000942:	030ec9bb          	divw	s3,t4,a6
    80000946:	0336b6b3          	mulhu	a3,a3,s3
    8000094a:	632a0793          	addi	a5,s4,1586
    8000094e:	034a47b3          	div	a5,s4,s4
    80000952:	41d80bbb          	subw	s7,a6,t4
    80000956:	0309dbbb          	divuw	s7,s3,a6
    8000095a:	03499cb3          	mulh	s9,s3,s4
    8000095e:	02fc6eb3          	rem	t4,s8,a5
    80000962:	03dbd233          	divu	tp,s7,t4
    80000966:	0001                	nop
    80000968:	0309dbbb          	divuw	s7,s3,a6
    8000096c:	0336b6b3          	mulhu	a3,a3,s3
    80000970:	0336b6b3          	mulhu	a3,a3,s3
    80000974:	f0ac0c1b          	addiw	s8,s8,-246
    80000978:	4401                	li	s0,0
    8000097a:	fff00f9b          	addiw	t6,zero,-1
    8000097e:	1ffe                	slli	t6,t6,0x3f
    80000980:	5f7d                	li	t5,-1
    80000982:	fff0039b          	addiw	t2,zero,-1
    80000986:	13fe                	slli	t2,t2,0x3f
    80000988:	fff0051b          	addiw	a0,zero,-1
    8000098c:	157e                	slli	a0,a0,0x3f
    8000098e:	59fd                	li	s3,-1
    80000990:	fd8074b7          	lui	s1,0xfd807
    80000994:	a1f4849b          	addiw	s1,s1,-1505 # fffffffffd806a1f <_end+0xffffffff7d7ea097>
    80000998:	04b2                	slli	s1,s1,0xc
    8000099a:	82348493          	addi	s1,s1,-2013
    8000099e:	04b6                	slli	s1,s1,0xd
    800009a0:	ccf48493          	addi	s1,s1,-817
    800009a4:	04b2                	slli	s1,s1,0xc
    800009a6:	0e348493          	addi	s1,s1,227
    800009aa:	4681                	li	a3,0
    800009ac:	5bfd                	li	s7,-1
    800009ae:	5d7d                	li	s10,-1
    800009b0:	63298493          	addi	s1,s3,1586
    800009b4:	63298493          	addi	s1,s3,1586
    800009b8:	413389b3          	sub	s3,t2,s3
    800009bc:	0339c4b3          	div	s1,s3,s3
    800009c0:	0339c4b3          	div	s1,s3,s3
    800009c4:	02dbed3b          	remw	s10,s7,a3
    800009c8:	f0ad0d1b          	addiw	s10,s10,-246 # 7b9a4f0a <_start-0x465b0f6>
    800009cc:	02dbed3b          	remw	s10,s7,a3
    800009d0:	03e6f9bb          	remuw	s3,a3,t5
    800009d4:	0001                	nop
    800009d6:	0286f3b3          	remu	t2,a3,s0
    800009da:	60aa9397          	auipc	t2,0x60aa9
    800009de:	60aa9397          	auipc	t2,0x60aa9
    800009e2:	7b9a5f37          	lui	t5,0x7b9a5
    800009e6:	60aa9397          	auipc	t2,0x60aa9
    800009ea:	41f50bbb          	subw	s7,a0,t6
    800009ee:	4281                	li	t0,0
    800009f0:	fd096837          	lui	a6,0xfd096
    800009f4:	ded8081b          	addiw	a6,a6,-531 # fffffffffd095ded <_end+0xffffffff7d079465>
    800009f8:	0832                	slli	a6,a6,0xc
    800009fa:	92380813          	addi	a6,a6,-1757
    800009fe:	0832                	slli	a6,a6,0xc
    80000a00:	8db80813          	addi	a6,a6,-1829
    80000a04:	0836                	slli	a6,a6,0xd
    80000a06:	e9780813          	addi	a6,a6,-361
    80000a0a:	fff00b1b          	addiw	s6,zero,-1
    80000a0e:	1b7e                	slli	s6,s6,0x3f
    80000a10:	5ffd                	li	t6,-1
    80000a12:	fff00d1b          	addiw	s10,zero,-1
    80000a16:	1d7e                	slli	s10,s10,0x3f
    80000a18:	537d                	li	t1,-1
    80000a1a:	ffe568b7          	lui	a7,0xffe56
    80000a1e:	9818889b          	addiw	a7,a7,-1663 # ffffffffffe55981 <_end+0xffffffff7fe38ff9>
    80000a22:	08b6                	slli	a7,a7,0xd
    80000a24:	ddd88893          	addi	a7,a7,-547
    80000a28:	08c2                	slli	a7,a7,0x10
    80000a2a:	f9188893          	addi	a7,a7,-111
    80000a2e:	08b2                	slli	a7,a7,0xc
    80000a30:	29888893          	addi	a7,a7,664
    80000a34:	007e03b7          	lui	t2,0x7e0
    80000a38:	4bf3839b          	addiw	t2,t2,1215 # 7e04bf <_start-0x7f81fb41>
    80000a3c:	03b2                	slli	t2,t2,0xc
    80000a3e:	ee138393          	addi	t2,t2,-287
    80000a42:	03b6                	slli	t2,t2,0xd
    80000a44:	89738393          	addi	t2,t2,-1897
    80000a48:	03be                	slli	t2,t2,0xf
    80000a4a:	69838393          	addi	t2,t2,1688
    80000a4e:	fff0091b          	addiw	s2,zero,-1
    80000a52:	197e                	slli	s2,s2,0x3f
    80000a54:	fc27abb7          	lui	s7,0xfc27a
    80000a58:	58fb8b9b          	addiw	s7,s7,1423 # fffffffffc27a58f <_end+0xffffffff7c25dc07>
    80000a5c:	0bb2                	slli	s7,s7,0xc
    80000a5e:	52db8b93          	addi	s7,s7,1325
    80000a62:	0bb2                	slli	s7,s7,0xc
    80000a64:	567b8b93          	addi	s7,s7,1383
    80000a68:	0bb6                	slli	s7,s7,0xd
    80000a6a:	d48b8b93          	addi	s7,s7,-696
    80000a6e:	032943b3          	div	t2,s2,s2
    80000a72:	030fc8bb          	divw	a7,t6,a6
    80000a76:	0308db3b          	divuw	s6,a7,a6
    80000a7a:	63290393          	addi	t2,s2,1586
    80000a7e:	031b6bbb          	remw	s7,s6,a7
    80000a82:	032943b3          	div	t2,s2,s2
    80000a86:	005f8b33          	add	s6,t6,t0
    80000a8a:	60aa9297          	auipc	t0,0x60aa9
    80000a8e:	41228933          	sub	s2,t0,s2
    80000a92:	63290393          	addi	t2,s2,1586
    80000a96:	027befb3          	rem	t6,s7,t2
    80000a9a:	02590d33          	mul	s10,s2,t0
    80000a9e:	03a308bb          	mulw	a7,t1,s10
    80000aa2:	02590d33          	mul	s10,s2,t0
    80000aa6:	02590d33          	mul	s10,s2,t0
    80000aaa:	f0ab8b9b          	addiw	s7,s7,-246
    80000aae:	027befb3          	rem	t6,s7,t2
    80000ab2:	03fb52b3          	divu	t0,s6,t6
    80000ab6:	027befb3          	rem	t6,s7,t2
    80000aba:	0308db3b          	divuw	s6,a7,a6
    80000abe:	00863237          	lui	tp,0x863
    80000ac2:	4872021b          	addiw	tp,tp,1159 # 863487 <_start-0x7f79cb79>
    80000ac6:	023a                	slli	tp,tp,0xe
    80000ac8:	99720213          	addi	tp,tp,-1641 # fffffffffffff997 <_end+0xffffffff7ffe300f>
    80000acc:	0232                	slli	tp,tp,0xc
    80000ace:	2d320213          	addi	tp,tp,723 # 2d3 <_start-0x7ffffd2d>
    80000ad2:	0232                	slli	tp,tp,0xc
    80000ad4:	54920213          	addi	tp,tp,1353 # 549 <_start-0x7ffffab7>
    80000ad8:	4981                	li	s3,0
    80000ada:	01491437          	lui	s0,0x1491
    80000ade:	4a74041b          	addiw	s0,s0,1191 # 14914a7 <_start-0x7eb6eb59>
    80000ae2:	0432                	slli	s0,s0,0xc
    80000ae4:	eb140413          	addi	s0,s0,-335
    80000ae8:	043a                	slli	s0,s0,0xe
    80000aea:	85b40413          	addi	s0,s0,-1957
    80000aee:	0432                	slli	s0,s0,0xc
    80000af0:	94140413          	addi	s0,s0,-1727
    80000af4:	53fd                	li	t2,-1
    80000af6:	030e5f37          	lui	t5,0x30e5
    80000afa:	a05f0f1b          	addiw	t5,t5,-1531 # 30e4a05 <_start-0x7cf1b5fb>
    80000afe:	0f32                	slli	t5,t5,0xc
    80000b00:	f09f0f13          	addi	t5,t5,-247
    80000b04:	0f36                	slli	t5,t5,0xd
    80000b06:	287f0f13          	addi	t5,t5,647
    80000b0a:	0f32                	slli	t5,t5,0xc
    80000b0c:	5a9f0f13          	addi	t5,t5,1449
    80000b10:	fff00a9b          	addiw	s5,zero,-1
    80000b14:	1afe                	slli	s5,s5,0x3f
    80000b16:	ff544537          	lui	a0,0xff544
    80000b1a:	cab5051b          	addiw	a0,a0,-853 # ffffffffff543cab <_end+0xffffffff7f527323>
    80000b1e:	0532                	slli	a0,a0,0xc
    80000b20:	f2f50513          	addi	a0,a0,-209
    80000b24:	0536                	slli	a0,a0,0xd
    80000b26:	7e950513          	addi	a0,a0,2025
    80000b2a:	053a                	slli	a0,a0,0xe
    80000b2c:	e3750513          	addi	a0,a0,-457
    80000b30:	007ab837          	lui	a6,0x7ab
    80000b34:	6c58081b          	addiw	a6,a6,1733 # 7ab6c5 <_start-0x7f85493b>
    80000b38:	0832                	slli	a6,a6,0xc
    80000b3a:	59580813          	addi	a6,a6,1429
    80000b3e:	083e                	slli	a6,a6,0xf
    80000b40:	3ad80813          	addi	a6,a6,941
    80000b44:	0836                	slli	a6,a6,0xd
    80000b46:	b0a80813          	addi	a6,a6,-1270
    80000b4a:	5efd                	li	t4,-1
    80000b4c:	006261b7          	lui	gp,0x626
    80000b50:	b4f1819b          	addiw	gp,gp,-1201 # 625b4f <_start-0x7f9da4b1>
    80000b54:	01b2                	slli	gp,gp,0xc
    80000b56:	7f318193          	addi	gp,gp,2035
    80000b5a:	01c2                	slli	gp,gp,0x10
    80000b5c:	afd18193          	addi	gp,gp,-1283
    80000b60:	01b2                	slli	gp,gp,0xc
    80000b62:	f8018193          	addi	gp,gp,-128
    80000b66:	02380eb3          	mul	t4,a6,gp
    80000b6a:	003f09b3          	add	s3,t5,gp
    80000b6e:	03051eb3          	mulh	t4,a0,a6
    80000b72:	03e9d1b3          	divu	gp,s3,t5
    80000b76:	03051eb3          	mulh	t4,a0,a6
    80000b7a:	03e9d1b3          	divu	gp,s3,t5
    80000b7e:	02a9eabb          	remw	s5,s3,a0
    80000b82:	03d2053b          	mulw	a0,tp,t4
    80000b86:	63280393          	addi	t2,a6,1586
    80000b8a:	028559bb          	divuw	s3,a0,s0
    80000b8e:	41e409bb          	subw	s3,s0,t5
    80000b92:	63280393          	addi	t2,a6,1586
    80000b96:	02380eb3          	mul	t4,a6,gp
    80000b9a:	028f453b          	divw	a0,t5,s0
    80000b9e:	f0aa8a9b          	addiw	s5,s5,-246
    80000ba2:	7b9a5eb7          	lui	t4,0x7b9a5
    80000ba6:	0001                	nop
    80000ba8:	03d5783b          	remuw	a6,a0,t4
    80000bac:	003f09b3          	add	s3,t5,gp
    80000bb0:	50fd                	li	ra,-1
    80000bb2:	ff7ba637          	lui	a2,0xff7ba
    80000bb6:	364d                	addiw	a2,a2,-13 # ffffffffff7b9ff3 <_end+0xffffffff7f79d66b>
    80000bb8:	0632                	slli	a2,a2,0xc
    80000bba:	08b60613          	addi	a2,a2,139
    80000bbe:	063a                	slli	a2,a2,0xe
    80000bc0:	ec360613          	addi	a2,a2,-317
    80000bc4:	0632                	slli	a2,a2,0xc
    80000bc6:	0dd60613          	addi	a2,a2,221
    80000bca:	5c7d                	li	s8,-1
    80000bcc:	4581                	li	a1,0
    80000bce:	fff00b9b          	addiw	s7,zero,-1
    80000bd2:	1bfe                	slli	s7,s7,0x3f
    80000bd4:	fff0029b          	addiw	t0,zero,-1
    80000bd8:	12fe                	slli	t0,t0,0x3f
    80000bda:	4381                	li	t2,0
    80000bdc:	4201                	li	tp,0
    80000bde:	fff0079b          	addiw	a5,zero,-1
    80000be2:	17fe                	slli	a5,a5,0x3f
    80000be4:	4801                	li	a6,0
    80000be6:	f0a8081b          	addiw	a6,a6,-246
    80000bea:	0387d0b3          	divu	ra,a5,s8
    80000bee:	02c59bb3          	mulh	s7,a1,a2
    80000bf2:	0001                	nop
    80000bf4:	001c07b3          	add	a5,s8,ra
    80000bf8:	7b9a5bb7          	lui	s7,0x7b9a5
    80000bfc:	02b7e83b          	remw	a6,a5,a1
    80000c00:	0375f63b          	remuw	a2,a1,s7
    80000c04:	0387d0b3          	divu	ra,a5,s8
    80000c08:	0245f0b3          	remu	ra,a1,tp
    80000c0c:	418387bb          	subw	a5,t2,s8
    80000c10:	02b7e83b          	remw	a6,a5,a1
    80000c14:	0275d7bb          	divuw	a5,a1,t2
    80000c18:	0275d7bb          	divuw	a5,a1,t2
    80000c1c:	02c642b3          	div	t0,a2,a2
    80000c20:	02b23233          	mulhu	tp,tp,a1
    80000c24:	02c59bb3          	mulh	s7,a1,a2
    80000c28:	0001                	nop
    80000c2a:	f0a8081b          	addiw	a6,a6,-246
    80000c2e:	0375f63b          	remuw	a2,a1,s7
    80000c32:	027c45bb          	divw	a1,s8,t2
    80000c36:	0375f63b          	remuw	a2,a1,s7
    80000c3a:	02586c33          	rem	s8,a6,t0
    80000c3e:	02b823b3          	mulhsu	t2,a6,a1
    80000c42:	63260293          	addi	t0,a2,1586
    80000c46:	02b823b3          	mulhsu	t2,a6,a1
    80000c4a:	027c45bb          	divw	a1,s8,t2
    80000c4e:	02b23233          	mulhu	tp,tp,a1
    80000c52:	40c08633          	sub	a2,ra,a2
    80000c56:	4c01                	li	s8,0
    80000c58:	4381                	li	t2,0
    80000c5a:	fff0021b          	addiw	tp,zero,-1
    80000c5e:	127e                	slli	tp,tp,0x3f
    80000c60:	fff0061b          	addiw	a2,zero,-1
    80000c64:	167e                	slli	a2,a2,0x3f
    80000c66:	fff00b9b          	addiw	s7,zero,-1
    80000c6a:	1bfe                	slli	s7,s7,0x3f
    80000c6c:	fff00c9b          	addiw	s9,zero,-1
    80000c70:	1cfe                	slli	s9,s9,0x3f
    80000c72:	fff0079b          	addiw	a5,zero,-1
    80000c76:	17fe                	slli	a5,a5,0x3f
    80000c78:	547d                	li	s0,-1
    80000c7a:	4981                	li	s3,0
    80000c7c:	50fd                	li	ra,-1
    80000c7e:	027becb3          	rem	s9,s7,t2
    80000c82:	038677bb          	remuw	a5,a2,s8
    80000c86:	60aa9097          	auipc	ra,0x60aa9
    80000c8a:	0382063b          	mulw	a2,tp,s8
    80000c8e:	027becb3          	rem	s9,s7,t2
    80000c92:	02f7c3b3          	div	t2,a5,a5
    80000c96:	038677bb          	remuw	a5,a2,s8
    80000c9a:	0399d0b3          	divu	ra,s3,s9
    80000c9e:	0382063b          	mulw	a2,tp,s8
    80000ca2:	419409bb          	subw	s3,s0,s9
    80000ca6:	027becb3          	rem	s9,s7,t2
    80000caa:	0382063b          	mulw	a2,tp,s8
    80000cae:	02f61c33          	mulh	s8,a2,a5
    80000cb2:	02178c33          	mul	s8,a5,ra
    80000cb6:	027becb3          	rem	s9,s7,t2
    80000cba:	63278393          	addi	t2,a5,1586
    80000cbe:	001c89b3          	add	s3,s9,ra
    80000cc2:	02c9ebbb          	remw	s7,s3,a2
    80000cc6:	0399d0b3          	divu	ra,s3,s9
    80000cca:	02cba433          	mulhsu	s0,s7,a2
    80000cce:	028659bb          	divuw	s3,a2,s0
    80000cd2:	0399d0b3          	divu	ra,s3,s9
    80000cd6:	9ca9                	addw	s1,s1,a0
    80000cd8:	632d8813          	addi	a6,s11,1586
    80000cdc:	0001                	nop
    80000cde:	00631033          	sll	zero,t1,t1
    80000ce2:	02028433          	mul	s0,t0,zero
    80000ce6:	632d8813          	addi	a6,s11,1586
    80000cea:	415ad39b          	sraiw	t2,s5,0x15
    80000cee:	0081feb3          	and	t4,gp,s0
    80000cf2:	0019b433          	sltu	s0,s3,ra
    80000cf6:	40e60bbb          	subw	s7,a2,a4
    80000cfa:	85b6                	mv	a1,a3
    80000cfc:	00ff4cb3          	xor	s9,t5,a5
    80000d00:	0083813b          	addw	sp,t2,s0
    80000d04:	03f88abb          	mulw	s5,a7,t6
    80000d08:	8d6d                	and	a0,a0,a1
    80000d0a:	0081feb3          	and	t4,gp,s0
    80000d0e:	03a3e833          	rem	a6,t2,s10
    80000d12:	00631033          	sll	zero,t1,t1
    80000d16:	85b6                	mv	a1,a3
    80000d18:	4fbd                	li	t6,15
    80000d1a:	43b3d413          	srai	s0,t2,0x3b
    80000d1e:	01165993          	srli	s3,a2,0x11
    80000d22:	40bad8b3          	sra	a7,s5,a1
    80000d26:	8ddd                	or	a1,a1,a5
    80000d28:	03259313          	slli	t1,a1,0x32
    80000d2c:	02d7533b          	divuw	t1,a4,a3
    80000d30:	0081feb3          	and	t4,gp,s0
    80000d34:	8d6d                	and	a0,a0,a1
    80000d36:	8ddd                	or	a1,a1,a5
    80000d38:	a07baa93          	slti	s5,s7,-1529
    80000d3c:	8d6d                	and	a0,a0,a1
    80000d3e:	0c4e                	slli	s8,s8,0x13
    80000d40:	632d8813          	addi	a6,s11,1586
    80000d44:	00ff4cb3          	xor	s9,t5,a5
    80000d48:	147d                	addi	s0,s0,-1
    80000d4a:	0001                	nop
    80000d4c:	03edf033          	remu	zero,s11,t5
    80000d50:	00e78bb3          	add	s7,a5,a4
    80000d54:	0001                	nop
    80000d56:	0248b933          	mulhu	s2,a7,tp
    80000d5a:	02efcabb          	divw	s5,t6,a4
    80000d5e:	9ca9                	addw	s1,s1,a0
    80000d60:	916c6113          	ori	sp,s8,-1770
    80000d64:	198c                	addi	a1,sp,240
    80000d66:	0081feb3          	and	t4,gp,s0
    80000d6a:	8d6d                	and	a0,a0,a1
    80000d6c:	80d5                	srli	s1,s1,0x15
    80000d6e:	01165993          	srli	s3,a2,0x11
    80000d72:	69e5                	lui	s3,0x19
    80000d74:	a590fc93          	andi	s9,ra,-1447
    80000d78:	415d05b3          	sub	a1,s10,s5
    80000d7c:	03edf033          	remu	zero,s11,t5
    80000d80:	02521cb3          	mulh	s9,tp,t0
    80000d84:	008f68b3          	or	a7,t5,s0
    80000d88:	03a3e833          	rem	a6,t2,s10
    80000d8c:	02d7533b          	divuw	t1,a4,a3
    80000d90:	0081feb3          	and	t4,gp,s0
    80000d94:	0001                	nop
    80000d96:	01235933          	srl	s2,t1,s2
    80000d9a:	415ad39b          	sraiw	t2,s5,0x15
    80000d9e:	916c6113          	ori	sp,s8,-1770
    80000da2:	85b6                	mv	a1,a3
    80000da4:	00631033          	sll	zero,t1,t1
    80000da8:	9d91                	subw	a1,a1,a2
    80000daa:	03a3e833          	rem	a6,t2,s10
    80000dae:	02ba75bb          	remuw	a1,s4,a1
    80000db2:	0081feb3          	and	t4,gp,s0
    80000db6:	4fbd                	li	t6,15
    80000db8:	916c6113          	ori	sp,s8,-1770
    80000dbc:	00f9d01b          	srliw	zero,s3,0xf
    80000dc0:	00ff4cb3          	xor	s9,t5,a5
    80000dc4:	02b3a6b3          	mulhsu	a3,t2,a1
    80000dc8:	60aa9017          	auipc	zero,0x60aa9
    80000dcc:	02028433          	mul	s0,t0,zero
    80000dd0:	0c4e                	slli	s8,s8,0x13
    80000dd2:	916c6113          	ori	sp,s8,-1770
    80000dd6:	01165993          	srli	s3,a2,0x11
    80000dda:	415ad39b          	sraiw	t2,s5,0x15
    80000dde:	02b3a6b3          	mulhsu	a3,t2,a1
    80000de2:	717d                	addi	sp,sp,-16
    80000de4:	40b8563b          	sraw	a2,a6,a1
    80000de8:	035d4eb3          	div	t4,s10,s5
    80000dec:	d9434f93          	xori	t6,t1,-620
    80000df0:	0c4e                	slli	s8,s8,0x13
    80000df2:	9d91                	subw	a1,a1,a2
    80000df4:	d9434f93          	xori	t6,t1,-620
    80000df8:	415d05b3          	sub	a1,s10,s5
    80000dfc:	03edf033          	remu	zero,s11,t5
    80000e00:	03f88abb          	mulw	s5,a7,t6
    80000e04:	8c21                	xor	s0,s0,s0
    80000e06:	00e78bb3          	add	s7,a5,a4
    80000e0a:	03259313          	slli	t1,a1,0x32
    80000e0e:	40e60bbb          	subw	s7,a2,a4
    80000e12:	39fd                	addiw	s3,s3,-1 # 18fff <_start-0x7ffe7001>
    80000e14:	004859bb          	srlw	s3,a6,tp
    80000e18:	86cd                	srai	a3,a3,0x13
    80000e1a:	4fbd                	li	t6,15
    80000e1c:	024b6c3b          	remw	s8,s6,tp
    80000e20:	916c6113          	ori	sp,s8,-1770
    80000e24:	00b8a6b3          	slt	a3,a7,a1
    80000e28:	8c21                	xor	s0,s0,s0
    80000e2a:	02028433          	mul	s0,t0,zero
    80000e2e:	916c6113          	ori	sp,s8,-1770
    80000e32:	00631033          	sll	zero,t1,t1
    80000e36:	40b8563b          	sraw	a2,a6,a1
    80000e3a:	0081feb3          	and	t4,gp,s0
    80000e3e:	632d8813          	addi	a6,s11,1586
    80000e42:	024b6c3b          	remw	s8,s6,tp
    80000e46:	8c0d                	sub	s0,s0,a1
    80000e48:	43b3d413          	srai	s0,t2,0x3b
    80000e4c:	00ff4cb3          	xor	s9,t5,a5
    80000e50:	03edf033          	remu	zero,s11,t5
    80000e54:	8c0d                	sub	s0,s0,a1
    80000e56:	00ff4cb3          	xor	s9,t5,a5
    80000e5a:	0c4e                	slli	s8,s8,0x13
    80000e5c:	7b9a5fb7          	lui	t6,0x7b9a5
    80000e60:	69e5                	lui	s3,0x19
    80000e62:	86cd                	srai	a3,a3,0x13
    80000e64:	4fbd                	li	t6,15
    80000e66:	86cd                	srai	a3,a3,0x13
    80000e68:	03a3e833          	rem	a6,t2,s10
    80000e6c:	f0ab8c1b          	addiw	s8,s7,-246 # 7b9a4f0a <_start-0x465b0f6>
    80000e70:	8dbe3f13          	sltiu	t5,t3,-1829
    80000e74:	40e60bbb          	subw	s7,a2,a4
    80000e78:	02ba75bb          	remuw	a1,s4,a1
    80000e7c:	00631033          	sll	zero,t1,t1
    80000e80:	8c0d                	sub	s0,s0,a1
    80000e82:	415ad39b          	sraiw	t2,s5,0x15
    80000e86:	989a                	add	a7,a7,t1
    80000e88:	0001                	nop
    80000e8a:	02521cb3          	mulh	s9,tp,t0
    80000e8e:	198c                	addi	a1,sp,240
    80000e90:	86cd                	srai	a3,a3,0x13
    80000e92:	0248b933          	mulhu	s2,a7,tp
    80000e96:	8d6d                	and	a0,a0,a1
    80000e98:	004859bb          	srlw	s3,a6,tp
    80000e9c:	00f9d01b          	srliw	zero,s3,0xf
    80000ea0:	035d4eb3          	div	t4,s10,s5
    80000ea4:	01235933          	srl	s2,t1,s2
    80000ea8:	0001                	nop
    80000eaa:	02db5fb3          	divu	t6,s6,a3
    80000eae:	02b3a6b3          	mulhsu	a3,t2,a1
    80000eb2:	717d                	addi	sp,sp,-16
    80000eb4:	a07baa93          	slti	s5,s7,-1529
    80000eb8:	024b6c3b          	remw	s8,s6,tp
    80000ebc:	01165993          	srli	s3,a2,0x11
    80000ec0:	01235933          	srl	s2,t1,s2
    80000ec4:	8dbe3f13          	sltiu	t5,t3,-1829
    80000ec8:	0019b433          	sltu	s0,s3,ra
    80000ecc:	00631033          	sll	zero,t1,t1
    80000ed0:	69e5                	lui	s3,0x19
    80000ed2:	03f88abb          	mulw	s5,a7,t6
    80000ed6:	0c4e                	slli	s8,s8,0x13
    80000ed8:	03f88abb          	mulw	s5,a7,t6
    80000edc:	03edf033          	remu	zero,s11,t5
    80000ee0:	f0ab8c1b          	addiw	s8,s7,-246
    80000ee4:	9ca9                	addw	s1,s1,a0
    80000ee6:	0083813b          	addw	sp,t2,s0
    80000eea:	0081feb3          	and	t4,gp,s0
    80000eee:	0c4e                	slli	s8,s8,0x13
    80000ef0:	008f68b3          	or	a7,t5,s0
    80000ef4:	02efcabb          	divw	s5,t6,a4
    80000ef8:	a590fc93          	andi	s9,ra,-1447
    80000efc:	00631033          	sll	zero,t1,t1
    80000f00:	40e60bbb          	subw	s7,a2,a4
    80000f04:	d9434f93          	xori	t6,t1,-620
    80000f08:	03259313          	slli	t1,a1,0x32
    80000f0c:	01165993          	srli	s3,a2,0x11
    80000f10:	03edf033          	remu	zero,s11,t5
    80000f14:	415d05b3          	sub	a1,s10,s5
    80000f18:	02d7533b          	divuw	t1,a4,a3
    80000f1c:	7b9a5fb7          	lui	t6,0x7b9a5
    80000f20:	80d5                	srli	s1,s1,0x15
    80000f22:	d9434f93          	xori	t6,t1,-620
    80000f26:	9d91                	subw	a1,a1,a2
    80000f28:	40b8563b          	sraw	a2,a6,a1
    80000f2c:	40e60bbb          	subw	s7,a2,a4
    80000f30:	916c6113          	ori	sp,s8,-1770
    80000f34:	00e78bb3          	add	s7,a5,a4
    80000f38:	03f88abb          	mulw	s5,a7,t6
    80000f3c:	03edf033          	remu	zero,s11,t5
    80000f40:	198c                	addi	a1,sp,240
    80000f42:	8dbe3f13          	sltiu	t5,t3,-1829
    80000f46:	03259313          	slli	t1,a1,0x32
    80000f4a:	4fbd                	li	t6,15
    80000f4c:	40bad8b3          	sra	a7,s5,a1
    80000f50:	0248b933          	mulhu	s2,a7,tp
    80000f54:	03259313          	slli	t1,a1,0x32
    80000f58:	01165993          	srli	s3,a2,0x11
    80000f5c:	4fbd                	li	t6,15
    80000f5e:	4fbd                	li	t6,15
    80000f60:	00ff4cb3          	xor	s9,t5,a5
    80000f64:	8be9                	andi	a5,a5,26
    80000f66:	f0ab8c1b          	addiw	s8,s7,-246
    80000f6a:	916c6113          	ori	sp,s8,-1770
    80000f6e:	0019b433          	sltu	s0,s3,ra
    80000f72:	9d91                	subw	a1,a1,a2
    80000f74:	03f88abb          	mulw	s5,a7,t6
    80000f78:	02521cb3          	mulh	s9,tp,t0
    80000f7c:	0083813b          	addw	sp,t2,s0
    80000f80:	03259313          	slli	t1,a1,0x32
    80000f84:	02028433          	mul	s0,t0,zero
    80000f88:	02efcabb          	divw	s5,t6,a4
    80000f8c:	02521cb3          	mulh	s9,tp,t0
    80000f90:	d9434f93          	xori	t6,t1,-620
    80000f94:	0083813b          	addw	sp,t2,s0
    80000f98:	d9434f93          	xori	t6,t1,-620
    80000f9c:	86cd                	srai	a3,a3,0x13
    80000f9e:	69e5                	lui	s3,0x19
    80000fa0:	717d                	addi	sp,sp,-16
    80000fa2:	9d91                	subw	a1,a1,a2
    80000fa4:	02521cb3          	mulh	s9,tp,t0
    80000fa8:	00e78bb3          	add	s7,a5,a4
    80000fac:	989a                	add	a7,a7,t1
    80000fae:	69e5                	lui	s3,0x19
    80000fb0:	008f68b3          	or	a7,t5,s0
    80000fb4:	85b6                	mv	a1,a3
    80000fb6:	02efcabb          	divw	s5,t6,a4
    80000fba:	4fbd                	li	t6,15
    80000fbc:	03edf033          	remu	zero,s11,t5
    80000fc0:	00b8a6b3          	slt	a3,a7,a1
    80000fc4:	00e78bb3          	add	s7,a5,a4
    80000fc8:	00e110bb          	sllw	ra,sp,a4
    80000fcc:	9d91                	subw	a1,a1,a2
    80000fce:	00f9d01b          	srliw	zero,s3,0xf
    80000fd2:	00e78bb3          	add	s7,a5,a4
    80000fd6:	0001                	nop
    80000fd8:	60aa9017          	auipc	zero,0x60aa9
    80000fdc:	a590fc93          	andi	s9,ra,-1447
    80000fe0:	80d5                	srli	s1,s1,0x15
    80000fe2:	01235933          	srl	s2,t1,s2
    80000fe6:	7b9a5fb7          	lui	t6,0x7b9a5
    80000fea:	0019b433          	sltu	s0,s3,ra
    80000fee:	8c0d                	sub	s0,s0,a1
    80000ff0:	147d                	addi	s0,s0,-1
    80000ff2:	02efcabb          	divw	s5,t6,a4
    80000ff6:	40e60bbb          	subw	s7,a2,a4
    80000ffa:	02ba75bb          	remuw	a1,s4,a1
    80000ffe:	0c4e                	slli	s8,s8,0x13
    80001000:	85b6                	mv	a1,a3
    80001002:	9d91                	subw	a1,a1,a2
    80001004:	0248b933          	mulhu	s2,a7,tp
    80001008:	7b9a5fb7          	lui	t6,0x7b9a5
    8000100c:	60aa9017          	auipc	zero,0x60aa9
    80001010:	415ad39b          	sraiw	t2,s5,0x15
    80001014:	00b8a6b3          	slt	a3,a7,a1
    80001018:	9d91                	subw	a1,a1,a2
    8000101a:	00e110bb          	sllw	ra,sp,a4
    8000101e:	02efcabb          	divw	s5,t6,a4
    80001022:	0081feb3          	and	t4,gp,s0
    80001026:	40e60bbb          	subw	s7,a2,a4
    8000102a:	01235933          	srl	s2,t1,s2
    8000102e:	03f88abb          	mulw	s5,a7,t6
    80001032:	85b6                	mv	a1,a3
    80001034:	0199989b          	slliw	a7,s3,0x19
    80001038:	00ff4cb3          	xor	s9,t5,a5
    8000103c:	02521cb3          	mulh	s9,tp,t0
    80001040:	00b8a6b3          	slt	a3,a7,a1
    80001044:	415d05b3          	sub	a1,s10,s5
    80001048:	02db5fb3          	divu	t6,s6,a3
    8000104c:	a07baa93          	slti	s5,s7,-1529
    80001050:	39fd                	addiw	s3,s3,-1 # 18fff <_start-0x7ffe7001>
    80001052:	00f9d01b          	srliw	zero,s3,0xf
    80001056:	0081feb3          	and	t4,gp,s0
    8000105a:	008f68b3          	or	a7,t5,s0
    8000105e:	00ff4cb3          	xor	s9,t5,a5
    80001062:	8be9                	andi	a5,a5,26
    80001064:	4fbd                	li	t6,15
    80001066:	9ca9                	addw	s1,s1,a0
    80001068:	024b6c3b          	remw	s8,s6,tp
    8000106c:	02521cb3          	mulh	s9,tp,t0
    80001070:	f0ab8c1b          	addiw	s8,s7,-246
    80001074:	8c21                	xor	s0,s0,s0
    80001076:	8ddd                	or	a1,a1,a5
    80001078:	69e5                	lui	s3,0x19
    8000107a:	01165993          	srli	s3,a2,0x11
    8000107e:	02db5fb3          	divu	t6,s6,a3
    80001082:	004859bb          	srlw	s3,a6,tp
    80001086:	80d5                	srli	s1,s1,0x15
    80001088:	8c21                	xor	s0,s0,s0
    8000108a:	02db5fb3          	divu	t6,s6,a3
    8000108e:	147d                	addi	s0,s0,-1
    80001090:	0081feb3          	and	t4,gp,s0
    80001094:	632d8813          	addi	a6,s11,1586
    80001098:	415d05b3          	sub	a1,s10,s5
    8000109c:	0c4e                	slli	s8,s8,0x13
    8000109e:	02b3a6b3          	mulhsu	a3,t2,a1
    800010a2:	916c6113          	ori	sp,s8,-1770
    800010a6:	03f88abb          	mulw	s5,a7,t6
    800010aa:	00f9d01b          	srliw	zero,s3,0xf
    800010ae:	9d91                	subw	a1,a1,a2
    800010b0:	8ddd                	or	a1,a1,a5
    800010b2:	a590fc93          	andi	s9,ra,-1447
    800010b6:	8c21                	xor	s0,s0,s0
    800010b8:	40b8563b          	sraw	a2,a6,a1
    800010bc:	40e60bbb          	subw	s7,a2,a4
    800010c0:	00ff4cb3          	xor	s9,t5,a5
    800010c4:	147d                	addi	s0,s0,-1
    800010c6:	02d7533b          	divuw	t1,a4,a3
    800010ca:	004859bb          	srlw	s3,a6,tp
    800010ce:	415d05b3          	sub	a1,s10,s5
    800010d2:	00631033          	sll	zero,t1,t1
    800010d6:	00e110bb          	sllw	ra,sp,a4
    800010da:	00f9d01b          	srliw	zero,s3,0xf
    800010de:	00631033          	sll	zero,t1,t1
    800010e2:	916c6113          	ori	sp,s8,-1770
    800010e6:	85b6                	mv	a1,a3
    800010e8:	916c6113          	ori	sp,s8,-1770
    800010ec:	0083813b          	addw	sp,t2,s0
    800010f0:	8ddd                	or	a1,a1,a5
    800010f2:	85b6                	mv	a1,a3
    800010f4:	40bad8b3          	sra	a7,s5,a1
    800010f8:	86cd                	srai	a3,a3,0x13
    800010fa:	8ddd                	or	a1,a1,a5
    800010fc:	03f88abb          	mulw	s5,a7,t6
    80001100:	a590fc93          	andi	s9,ra,-1447
    80001104:	03f88abb          	mulw	s5,a7,t6
    80001108:	0083813b          	addw	sp,t2,s0
    8000110c:	02b3a6b3          	mulhsu	a3,t2,a1
    80001110:	8dbe3f13          	sltiu	t5,t3,-1829
    80001114:	8c21                	xor	s0,s0,s0
    80001116:	0199989b          	slliw	a7,s3,0x19
    8000111a:	02d7533b          	divuw	t1,a4,a3
    8000111e:	147d                	addi	s0,s0,-1
    80001120:	7b9a5fb7          	lui	t6,0x7b9a5
    80001124:	00b8a6b3          	slt	a3,a7,a1
    80001128:	8d6d                	and	a0,a0,a1
    8000112a:	03f88abb          	mulw	s5,a7,t6
    8000112e:	8d6d                	and	a0,a0,a1
    80001130:	4fbd                	li	t6,15
    80001132:	632d8813          	addi	a6,s11,1586
    80001136:	415ad39b          	sraiw	t2,s5,0x15
    8000113a:	02d7533b          	divuw	t1,a4,a3
    8000113e:	60aa9017          	auipc	zero,0x60aa9
    80001142:	a07baa93          	slti	s5,s7,-1529
    80001146:	0199989b          	slliw	a7,s3,0x19
    8000114a:	916c6113          	ori	sp,s8,-1770
    8000114e:	02d7533b          	divuw	t1,a4,a3
    80001152:	01165993          	srli	s3,a2,0x11
    80001156:	9ca9                	addw	s1,s1,a0
    80001158:	02521cb3          	mulh	s9,tp,t0
    8000115c:	02028433          	mul	s0,t0,zero
    80001160:	00e78bb3          	add	s7,a5,a4
    80001164:	40b8563b          	sraw	a2,a6,a1
    80001168:	0248b933          	mulhu	s2,a7,tp
    8000116c:	9ca9                	addw	s1,s1,a0
    8000116e:	198c                	addi	a1,sp,240
    80001170:	8c21                	xor	s0,s0,s0
    80001172:	9ca9                	addw	s1,s1,a0
    80001174:	f0ab8c1b          	addiw	s8,s7,-246
    80001178:	80d5                	srli	s1,s1,0x15
    8000117a:	008f68b3          	or	a7,t5,s0
    8000117e:	4181                	li	gp,0
    80001180:	4081                	li	ra,0
    80001182:	4a01                	li	s4,0
    80001184:	fff0031b          	addiw	t1,zero,-1
    80001188:	137e                	slli	t1,t1,0x3f
    8000118a:	fff00d1b          	addiw	s10,zero,-1
    8000118e:	1d7e                	slli	s10,s10,0x3f
    80001190:	5cfd                	li	s9,-1
    80001192:	fa0869b7          	lui	s3,0xfa086
    80001196:	9559899b          	addiw	s3,s3,-1707 # fffffffffa085955 <_end+0xffffffff7a068fcd>
    8000119a:	09b2                	slli	s3,s3,0xc
    8000119c:	30398993          	addi	s3,s3,771
    800011a0:	09b2                	slli	s3,s3,0xc
    800011a2:	41798993          	addi	s3,s3,1047
    800011a6:	09b2                	slli	s3,s3,0xc
    800011a8:	4be98993          	addi	s3,s3,1214
    800011ac:	5f7d                	li	t5,-1
    800011ae:	fff00b1b          	addiw	s6,zero,-1
    800011b2:	1b7e                	slli	s6,s6,0x3f
    800011b4:	4f81                	li	t6,0
    800011b6:	41608b33          	sub	s6,ra,s6
    800011ba:	001f8cb3          	add	s9,t6,ra
    800011be:	632b0313          	addi	t1,s6,1586
    800011c2:	01ed033b          	addw	t1,s10,t5
    800011c6:	7b9a5f37          	lui	t5,0x7b9a5
    800011ca:	026d6fb3          	rem	t6,s10,t1
    800011ce:	0341b1b3          	mulhu	gp,gp,s4
    800011d2:	034d29b3          	mulhsu	s3,s10,s4
    800011d6:	03ea7b3b          	remuw	s6,s4,t5
    800011da:	0341b1b3          	mulhu	gp,gp,s4
    800011de:	03e18a3b          	mulw	s4,gp,t5
    800011e2:	0341b1b3          	mulhu	gp,gp,s4
    800011e6:	41608b33          	sub	s6,ra,s6
    800011ea:	001f8cb3          	add	s9,t6,ra
    800011ee:	034d29b3          	mulhsu	s3,s10,s4
    800011f2:	001f8cb3          	add	s9,t6,ra
    800011f6:	03fcd0b3          	divu	ra,s9,t6
    800011fa:	0341b1b3          	mulhu	gp,gp,s4
    800011fe:	632b0313          	addi	t1,s6,1586
    80001202:	f0ad0d1b          	addiw	s10,s10,-246
    80001206:	034ced3b          	remw	s10,s9,s4
    8000120a:	147d                	addi	s0,s0,-1
    8000120c:	8c21                	xor	s0,s0,s0
    8000120e:	8be9                	andi	a5,a5,26
    80001210:	0081feb3          	and	t4,gp,s0
    80001214:	9ca9                	addw	s1,s1,a0
    80001216:	0248b933          	mulhu	s2,a7,tp
    8000121a:	0083813b          	addw	sp,t2,s0
    8000121e:	0c4e                	slli	s8,s8,0x13
    80001220:	02028433          	mul	s0,t0,zero
    80001224:	69e5                	lui	s3,0x19
    80001226:	02ba75bb          	remuw	a1,s4,a1
    8000122a:	02b3a6b3          	mulhsu	a3,t2,a1
    8000122e:	01235933          	srl	s2,t1,s2
    80001232:	40b8563b          	sraw	a2,a6,a1
    80001236:	0c4e                	slli	s8,s8,0x13
    80001238:	0001                	nop
    8000123a:	02efcabb          	divw	s5,t6,a4
    8000123e:	008f68b3          	or	a7,t5,s0
    80001242:	00b8a6b3          	slt	a3,a7,a1
    80001246:	02d7533b          	divuw	t1,a4,a3
    8000124a:	80d5                	srli	s1,s1,0x15
    8000124c:	00b8a6b3          	slt	a3,a7,a1
    80001250:	00631033          	sll	zero,t1,t1
    80001254:	415ad39b          	sraiw	t2,s5,0x15
    80001258:	035d4eb3          	div	t4,s10,s5
    8000125c:	03a3e833          	rem	a6,t2,s10
    80001260:	40e60bbb          	subw	s7,a2,a4
    80001264:	415ad39b          	sraiw	t2,s5,0x15
    80001268:	02028433          	mul	s0,t0,zero
    8000126c:	00ff4cb3          	xor	s9,t5,a5
    80001270:	85b6                	mv	a1,a3
    80001272:	03f88abb          	mulw	s5,a7,t6
    80001276:	0081feb3          	and	t4,gp,s0
    8000127a:	01165993          	srli	s3,a2,0x11
    8000127e:	717d                	addi	sp,sp,-16
    80001280:	03f88abb          	mulw	s5,a7,t6
    80001284:	004859bb          	srlw	s3,a6,tp
    80001288:	01235933          	srl	s2,t1,s2
    8000128c:	9ca9                	addw	s1,s1,a0
    8000128e:	916c6113          	ori	sp,s8,-1770
    80001292:	8d6d                	and	a0,a0,a1
    80001294:	717d                	addi	sp,sp,-16
    80001296:	00e110bb          	sllw	ra,sp,a4
    8000129a:	004859bb          	srlw	s3,a6,tp
    8000129e:	415ad39b          	sraiw	t2,s5,0x15
    800012a2:	9d91                	subw	a1,a1,a2
    800012a4:	415d05b3          	sub	a1,s10,s5
    800012a8:	717d                	addi	sp,sp,-16
    800012aa:	a07baa93          	slti	s5,s7,-1529
    800012ae:	008f68b3          	or	a7,t5,s0
    800012b2:	8d6d                	and	a0,a0,a1
    800012b4:	0083813b          	addw	sp,t2,s0
    800012b8:	632d8813          	addi	a6,s11,1586
    800012bc:	8c0d                	sub	s0,s0,a1
    800012be:	02b3a6b3          	mulhsu	a3,t2,a1
    800012c2:	03f88abb          	mulw	s5,a7,t6
    800012c6:	02b3a6b3          	mulhsu	a3,t2,a1
    800012ca:	02028433          	mul	s0,t0,zero
    800012ce:	00e110bb          	sllw	ra,sp,a4
    800012d2:	a590fc93          	andi	s9,ra,-1447
    800012d6:	0081feb3          	and	t4,gp,s0
    800012da:	03f88abb          	mulw	s5,a7,t6
    800012de:	0081feb3          	and	t4,gp,s0
    800012e2:	8c21                	xor	s0,s0,s0
    800012e4:	9ca9                	addw	s1,s1,a0
    800012e6:	00e78bb3          	add	s7,a5,a4
    800012ea:	00631033          	sll	zero,t1,t1
    800012ee:	035d4eb3          	div	t4,s10,s5
    800012f2:	39fd                	addiw	s3,s3,-1 # 18fff <_start-0x7ffe7001>
    800012f4:	02b3a6b3          	mulhsu	a3,t2,a1
    800012f8:	00ff4cb3          	xor	s9,t5,a5
    800012fc:	9d91                	subw	a1,a1,a2
    800012fe:	02ba75bb          	remuw	a1,s4,a1
    80001302:	4fbd                	li	t6,15
    80001304:	03edf033          	remu	zero,s11,t5
    80001308:	9d91                	subw	a1,a1,a2
    8000130a:	f0ab8c1b          	addiw	s8,s7,-246
    8000130e:	0019b433          	sltu	s0,s3,ra
    80001312:	632d8813          	addi	a6,s11,1586
    80001316:	0001                	nop
    80001318:	86cd                	srai	a3,a3,0x13
    8000131a:	632d8813          	addi	a6,s11,1586
    8000131e:	8dbe3f13          	sltiu	t5,t3,-1829
    80001322:	0199989b          	slliw	a7,s3,0x19
    80001326:	0c4e                	slli	s8,s8,0x13
    80001328:	03a3e833          	rem	a6,t2,s10
    8000132c:	00ff4cb3          	xor	s9,t5,a5
    80001330:	40b8563b          	sraw	a2,a6,a1
    80001334:	8ddd                	or	a1,a1,a5
    80001336:	0001                	nop
    80001338:	00e110bb          	sllw	ra,sp,a4
    8000133c:	0001                	nop
    8000133e:	415d05b3          	sub	a1,s10,s5
    80001342:	00f9d01b          	srliw	zero,s3,0xf
    80001346:	00e110bb          	sllw	ra,sp,a4
    8000134a:	02d7533b          	divuw	t1,a4,a3
    8000134e:	0001                	nop
    80001350:	03edf033          	remu	zero,s11,t5
    80001354:	02ba75bb          	remuw	a1,s4,a1
    80001358:	9d91                	subw	a1,a1,a2
    8000135a:	0c4e                	slli	s8,s8,0x13
    8000135c:	02028433          	mul	s0,t0,zero
    80001360:	86cd                	srai	a3,a3,0x13
    80001362:	8c0d                	sub	s0,s0,a1
    80001364:	00f9d01b          	srliw	zero,s3,0xf
    80001368:	0001                	nop
    8000136a:	40bad8b3          	sra	a7,s5,a1
    8000136e:	0081feb3          	and	t4,gp,s0
    80001372:	0001                	nop
    80001374:	02d7533b          	divuw	t1,a4,a3
    80001378:	02d7533b          	divuw	t1,a4,a3
    8000137c:	39fd                	addiw	s3,s3,-1
    8000137e:	a07baa93          	slti	s5,s7,-1529
    80001382:	9ca9                	addw	s1,s1,a0
    80001384:	03edf033          	remu	zero,s11,t5
    80001388:	02d7533b          	divuw	t1,a4,a3
    8000138c:	02521cb3          	mulh	s9,tp,t0
    80001390:	9d91                	subw	a1,a1,a2
    80001392:	0081feb3          	and	t4,gp,s0
    80001396:	a590fc93          	andi	s9,ra,-1447
    8000139a:	40bad8b3          	sra	a7,s5,a1
    8000139e:	7b9a5fb7          	lui	t6,0x7b9a5
    800013a2:	40b8563b          	sraw	a2,a6,a1
    800013a6:	8ddd                	or	a1,a1,a5
    800013a8:	0248b933          	mulhu	s2,a7,tp
    800013ac:	02db5fb3          	divu	t6,s6,a3
    800013b0:	8be9                	andi	a5,a5,26
    800013b2:	198c                	addi	a1,sp,240
    800013b4:	004859bb          	srlw	s3,a6,tp
    800013b8:	03f88abb          	mulw	s5,a7,t6
    800013bc:	8c21                	xor	s0,s0,s0
    800013be:	d9434f93          	xori	t6,t1,-620
    800013c2:	a590fc93          	andi	s9,ra,-1447
    800013c6:	80d5                	srli	s1,s1,0x15
    800013c8:	01235933          	srl	s2,t1,s2
    800013cc:	03f88abb          	mulw	s5,a7,t6
    800013d0:	00e78bb3          	add	s7,a5,a4
    800013d4:	008f68b3          	or	a7,t5,s0
    800013d8:	01235933          	srl	s2,t1,s2
    800013dc:	0019b433          	sltu	s0,s3,ra
    800013e0:	597d                	li	s2,-1
    800013e2:	4281                	li	t0,0
    800013e4:	fff0079b          	addiw	a5,zero,-1
    800013e8:	17fe                	slli	a5,a5,0x3f
    800013ea:	fff0069b          	addiw	a3,zero,-1
    800013ee:	16fe                	slli	a3,a3,0x3f
    800013f0:	fff0061b          	addiw	a2,zero,-1
    800013f4:	167e                	slli	a2,a2,0x3f
    800013f6:	5a7d                	li	s4,-1
    800013f8:	fff0081b          	addiw	a6,zero,-1
    800013fc:	187e                	slli	a6,a6,0x3f
    800013fe:	fff00f1b          	addiw	t5,zero,-1
    80001402:	1f7e                	slli	t5,t5,0x3f
    80001404:	001c7c37          	lui	s8,0x1c7
    80001408:	805c0c1b          	addiw	s8,s8,-2043 # 1c6805 <_start-0x7fe397fb>
    8000140c:	0c32                	slli	s8,s8,0xc
    8000140e:	6b7c0c13          	addi	s8,s8,1719
    80001412:	0c46                	slli	s8,s8,0x11
    80001414:	a73c0c13          	addi	s8,s8,-1421
    80001418:	0c32                	slli	s8,s8,0xc
    8000141a:	10dc0c13          	addi	s8,s8,269
    8000141e:	fff00b9b          	addiw	s7,zero,-1
    80001422:	1bfe                	slli	s7,s7,0x3f
    80001424:	032946b3          	div	a3,s2,s2
    80001428:	02dbef33          	rem	t5,s7,a3
    8000142c:	02c872b3          	remu	t0,a6,a2
    80001430:	0001                	nop
    80001432:	030ba7b3          	mulhsu	a5,s7,a6
    80001436:	030ba7b3          	mulhsu	a5,s7,a6
    8000143a:	0001                	nop
    8000143c:	0001                	nop
    8000143e:	02dbef33          	rem	t5,s7,a3
    80001442:	0386083b          	mulw	a6,a2,s8
    80001446:	0001                	nop
    80001448:	f0ab8b9b          	addiw	s7,s7,-246
    8000144c:	63290693          	addi	a3,s2,1586
    80001450:	7b9a5c37          	lui	s8,0x7b9a5
    80001454:	02590c33          	mul	s8,s2,t0
    80001458:	41e78a3b          	subw	s4,a5,t5
    8000145c:	030a6bbb          	remw	s7,s4,a6
    80001460:	7b9a5c37          	lui	s8,0x7b9a5
    80001464:	03281c33          	mulh	s8,a6,s2
    80001468:	02dbef33          	rem	t5,s7,a3
    8000146c:	0001                	nop
    8000146e:	69e5                	lui	s3,0x19
    80001470:	004859bb          	srlw	s3,a6,tp
    80001474:	40e60bbb          	subw	s7,a2,a4
    80001478:	415ad39b          	sraiw	t2,s5,0x15
    8000147c:	147d                	addi	s0,s0,-1
    8000147e:	8c0d                	sub	s0,s0,a1
    80001480:	02db5fb3          	divu	t6,s6,a3
    80001484:	03259313          	slli	t1,a1,0x32
    80001488:	39fd                	addiw	s3,s3,-1 # 18fff <_start-0x7ffe7001>
    8000148a:	40bad8b3          	sra	a7,s5,a1
    8000148e:	02ba75bb          	remuw	a1,s4,a1
    80001492:	85b6                	mv	a1,a3
    80001494:	01165993          	srli	s3,a2,0x11
    80001498:	69e5                	lui	s3,0x19
    8000149a:	00f9d01b          	srliw	zero,s3,0xf
    8000149e:	80d5                	srli	s1,s1,0x15
    800014a0:	40bad8b3          	sra	a7,s5,a1
    800014a4:	989a                	add	a7,a7,t1
    800014a6:	00b8a6b3          	slt	a3,a7,a1
    800014aa:	f0ab8c1b          	addiw	s8,s7,-246
    800014ae:	00ff4cb3          	xor	s9,t5,a5
    800014b2:	03f88abb          	mulw	s5,a7,t6
    800014b6:	0083813b          	addw	sp,t2,s0
    800014ba:	40e60bbb          	subw	s7,a2,a4
    800014be:	0001                	nop
    800014c0:	0199989b          	slliw	a7,s3,0x19
    800014c4:	00e110bb          	sllw	ra,sp,a4
    800014c8:	0019b433          	sltu	s0,s3,ra
    800014cc:	00e78bb3          	add	s7,a5,a4
    800014d0:	02028433          	mul	s0,t0,zero
    800014d4:	00ff4cb3          	xor	s9,t5,a5
    800014d8:	008f68b3          	or	a7,t5,s0
    800014dc:	0199989b          	slliw	a7,s3,0x19
    800014e0:	198c                	addi	a1,sp,240
    800014e2:	0083813b          	addw	sp,t2,s0
    800014e6:	02521cb3          	mulh	s9,tp,t0
    800014ea:	40b8563b          	sraw	a2,a6,a1
    800014ee:	60aa9017          	auipc	zero,0x60aa9
    800014f2:	02efcabb          	divw	s5,t6,a4
    800014f6:	8be9                	andi	a5,a5,26
    800014f8:	d9434f93          	xori	t6,t1,-620
    800014fc:	0081feb3          	and	t4,gp,s0
    80001500:	02b3a6b3          	mulhsu	a3,t2,a1
    80001504:	a590fc93          	andi	s9,ra,-1447
    80001508:	8be9                	andi	a5,a5,26
    8000150a:	916c6113          	ori	sp,s8,-1770
    8000150e:	00ff4cb3          	xor	s9,t5,a5
    80001512:	85b6                	mv	a1,a3
    80001514:	40bad8b3          	sra	a7,s5,a1
    80001518:	03edf033          	remu	zero,s11,t5
    8000151c:	0083813b          	addw	sp,t2,s0
    80001520:	40bad8b3          	sra	a7,s5,a1
    80001524:	85b6                	mv	a1,a3
    80001526:	0001                	nop
    80001528:	a590fc93          	andi	s9,ra,-1447
    8000152c:	717d                	addi	sp,sp,-16
    8000152e:	0c4e                	slli	s8,s8,0x13
    80001530:	00f9d01b          	srliw	zero,s3,0xf
    80001534:	02b3a6b3          	mulhsu	a3,t2,a1
    80001538:	4a01                	li	s4,0
    8000153a:	4c81                	li	s9,0
    8000153c:	4b01                	li	s6,0
    8000153e:	587d                	li	a6,-1
    80001540:	5f7d                	li	t5,-1
    80001542:	fff0089b          	addiw	a7,zero,-1
    80001546:	18fe                	slli	a7,a7,0x3f
    80001548:	fff0031b          	addiw	t1,zero,-1
    8000154c:	137e                	slli	t1,t1,0x3f
    8000154e:	fff0051b          	addiw	a0,zero,-1
    80001552:	157e                	slli	a0,a0,0x3f
    80001554:	4901                	li	s2,0
    80001556:	fff0009b          	addiw	ra,zero,-1
    8000155a:	10fe                	slli	ra,ra,0x3f
    8000155c:	63290513          	addi	a0,s2,1586
    80001560:	03294533          	div	a0,s2,s2
    80001564:	02190cb3          	mul	s9,s2,ra
    80001568:	60aa9097          	auipc	ra,0x60aa9
    8000156c:	019b053b          	addw	a0,s6,s9
    80001570:	03133333          	mulhu	t1,t1,a7
    80001574:	039308bb          	mulw	a7,t1,s9
    80001578:	030f48bb          	divw	a7,t5,a6
    8000157c:	019b053b          	addw	a0,s6,s9
    80001580:	63290513          	addi	a0,s2,1586
    80001584:	0308da3b          	divuw	s4,a7,a6
    80001588:	02ab6f33          	rem	t5,s6,a0
    8000158c:	001f0a33          	add	s4,t5,ra
    80001590:	03289cb3          	mulh	s9,a7,s2
    80001594:	039308bb          	mulw	a7,t1,s9
    80001598:	03133333          	mulhu	t1,t1,a7
    8000159c:	03294533          	div	a0,s2,s2
    800015a0:	030f48bb          	divw	a7,t5,a6
    800015a4:	031b2833          	mulhsu	a6,s6,a7
    800015a8:	03294533          	div	a0,s2,s2
    800015ac:	0268f0b3          	remu	ra,a7,t1
    800015b0:	0398f93b          	remuw	s2,a7,s9
    800015b4:	001f0a33          	add	s4,t5,ra
    800015b8:	02190cb3          	mul	s9,s2,ra
    800015bc:	03133333          	mulhu	t1,t1,a7
    800015c0:	030f48bb          	divw	a7,t5,a6
    800015c4:	03133333          	mulhu	t1,t1,a7
    800015c8:	f0ab0b1b          	addiw	s6,s6,-246
    800015cc:	03289cb3          	mulh	s9,a7,s2
    800015d0:	02190cb3          	mul	s9,s2,ra
    800015d4:	00e110bb          	sllw	ra,sp,a4
    800015d8:	989a                	add	a7,a7,t1
    800015da:	02d7533b          	divuw	t1,a4,a3
    800015de:	0248b933          	mulhu	s2,a7,tp
    800015e2:	69e5                	lui	s3,0x19
    800015e4:	02db5fb3          	divu	t6,s6,a3
    800015e8:	717d                	addi	sp,sp,-16
    800015ea:	035d4eb3          	div	t4,s10,s5
    800015ee:	02ba75bb          	remuw	a1,s4,a1
    800015f2:	40e60bbb          	subw	s7,a2,a4
    800015f6:	60aa9017          	auipc	zero,0x60aa9
    800015fa:	86cd                	srai	a3,a3,0x13
    800015fc:	147d                	addi	s0,s0,-1
    800015fe:	0001                	nop
    80001600:	0081feb3          	and	t4,gp,s0
    80001604:	a590fc93          	andi	s9,ra,-1447
    80001608:	415ad39b          	sraiw	t2,s5,0x15
    8000160c:	916c6113          	ori	sp,s8,-1770
    80001610:	632d8813          	addi	a6,s11,1586
    80001614:	02d7533b          	divuw	t1,a4,a3
    80001618:	00e78bb3          	add	s7,a5,a4
    8000161c:	7b9a5fb7          	lui	t6,0x7b9a5
    80001620:	008f68b3          	or	a7,t5,s0
    80001624:	80d5                	srli	s1,s1,0x15
    80001626:	0083813b          	addw	sp,t2,s0
    8000162a:	43b3d413          	srai	s0,t2,0x3b
    8000162e:	0199989b          	slliw	a7,s3,0x19
    80001632:	f0ab8c1b          	addiw	s8,s7,-246
    80001636:	d9434f93          	xori	t6,t1,-620
    8000163a:	00b8a6b3          	slt	a3,a7,a1
    8000163e:	02d7533b          	divuw	t1,a4,a3
    80001642:	0019b433          	sltu	s0,s3,ra
    80001646:	43b3d413          	srai	s0,t2,0x3b
    8000164a:	03a3e833          	rem	a6,t2,s10
    8000164e:	632d8813          	addi	a6,s11,1586
    80001652:	9ca9                	addw	s1,s1,a0
    80001654:	03f88abb          	mulw	s5,a7,t6
    80001658:	00f9d01b          	srliw	zero,s3,0xf
    8000165c:	0199989b          	slliw	a7,s3,0x19
    80001660:	0199989b          	slliw	a7,s3,0x19
    80001664:	0083813b          	addw	sp,t2,s0
    80001668:	415d05b3          	sub	a1,s10,s5
    8000166c:	40bad8b3          	sra	a7,s5,a1
    80001670:	40e60bbb          	subw	s7,a2,a4
    80001674:	85b6                	mv	a1,a3
    80001676:	0083813b          	addw	sp,t2,s0
    8000167a:	008f68b3          	or	a7,t5,s0
    8000167e:	02521cb3          	mulh	s9,tp,t0
    80001682:	8c0d                	sub	s0,s0,a1
    80001684:	86cd                	srai	a3,a3,0x13
    80001686:	40b8563b          	sraw	a2,a6,a1
    8000168a:	0081feb3          	and	t4,gp,s0
    8000168e:	80d5                	srli	s1,s1,0x15
    80001690:	632d8813          	addi	a6,s11,1586
    80001694:	d9434f93          	xori	t6,t1,-620
    80001698:	8d6d                	and	a0,a0,a1
    8000169a:	9d91                	subw	a1,a1,a2
    8000169c:	4fbd                	li	t6,15
    8000169e:	717d                	addi	sp,sp,-16
    800016a0:	00631033          	sll	zero,t1,t1
    800016a4:	8be9                	andi	a5,a5,26
    800016a6:	03259313          	slli	t1,a1,0x32
    800016aa:	0001                	nop
    800016ac:	7b9a5fb7          	lui	t6,0x7b9a5
    800016b0:	147d                	addi	s0,s0,-1
    800016b2:	02ba75bb          	remuw	a1,s4,a1
    800016b6:	02521cb3          	mulh	s9,tp,t0
    800016ba:	01165993          	srli	s3,a2,0x11
    800016be:	0c4e                	slli	s8,s8,0x13
    800016c0:	86cd                	srai	a3,a3,0x13
    800016c2:	0001                	nop
    800016c4:	0001                	nop
    800016c6:	60aa9017          	auipc	zero,0x60aa9
    800016ca:	03a3e833          	rem	a6,t2,s10
    800016ce:	415ad39b          	sraiw	t2,s5,0x15
    800016d2:	415d05b3          	sub	a1,s10,s5
    800016d6:	43b3d413          	srai	s0,t2,0x3b
    800016da:	03a3e833          	rem	a6,t2,s10
    800016de:	0248b933          	mulhu	s2,a7,tp
    800016e2:	02db5fb3          	divu	t6,s6,a3
    800016e6:	008f68b3          	or	a7,t5,s0
    800016ea:	024b6c3b          	remw	s8,s6,tp
    800016ee:	02db5fb3          	divu	t6,s6,a3
    800016f2:	02d7533b          	divuw	t1,a4,a3
    800016f6:	03f88abb          	mulw	s5,a7,t6
    800016fa:	02d7533b          	divuw	t1,a4,a3
    800016fe:	0081feb3          	and	t4,gp,s0
    80001702:	8c0d                	sub	s0,s0,a1
    80001704:	a07baa93          	slti	s5,s7,-1529
    80001708:	0081feb3          	and	t4,gp,s0
    8000170c:	03259313          	slli	t1,a1,0x32
    80001710:	198c                	addi	a1,sp,240
    80001712:	60aa9017          	auipc	zero,0x60aa9
    80001716:	035d4eb3          	div	t4,s10,s5
    8000171a:	717d                	addi	sp,sp,-16
    8000171c:	d9434f93          	xori	t6,t1,-620
    80001720:	8c0d                	sub	s0,s0,a1
    80001722:	00b8a6b3          	slt	a3,a7,a1
    80001726:	03edf033          	remu	zero,s11,t5
    8000172a:	8c21                	xor	s0,s0,s0
    8000172c:	004859bb          	srlw	s3,a6,tp
    80001730:	0083813b          	addw	sp,t2,s0
    80001734:	717d                	addi	sp,sp,-16
    80001736:	9d91                	subw	a1,a1,a2
    80001738:	147d                	addi	s0,s0,-1
    8000173a:	0001                	nop
    8000173c:	717d                	addi	sp,sp,-16
    8000173e:	8c0d                	sub	s0,s0,a1
    80001740:	9ca9                	addw	s1,s1,a0
    80001742:	8c21                	xor	s0,s0,s0
    80001744:	8ddd                	or	a1,a1,a5
    80001746:	86cd                	srai	a3,a3,0x13
    80001748:	198c                	addi	a1,sp,240
    8000174a:	a07baa93          	slti	s5,s7,-1529
    8000174e:	86cd                	srai	a3,a3,0x13
    80001750:	40b8563b          	sraw	a2,a6,a1
    80001754:	147d                	addi	s0,s0,-1
    80001756:	9ca9                	addw	s1,s1,a0
    80001758:	01165993          	srli	s3,a2,0x11
    8000175c:	03259313          	slli	t1,a1,0x32
    80001760:	7b9a5fb7          	lui	t6,0x7b9a5
    80001764:	8d6d                	and	a0,a0,a1
    80001766:	0019b433          	sltu	s0,s3,ra
    8000176a:	632d8813          	addi	a6,s11,1586
    8000176e:	9d91                	subw	a1,a1,a2
    80001770:	02db5fb3          	divu	t6,s6,a3
    80001774:	8be9                	andi	a5,a5,26
    80001776:	d9434f93          	xori	t6,t1,-620
    8000177a:	198c                	addi	a1,sp,240
    8000177c:	03a3e833          	rem	a6,t2,s10
    80001780:	02d7533b          	divuw	t1,a4,a3
    80001784:	a590fc93          	andi	s9,ra,-1447
    80001788:	01165993          	srli	s3,a2,0x11
    8000178c:	40bad8b3          	sra	a7,s5,a1
    80001790:	147d                	addi	s0,s0,-1
    80001792:	60aa9017          	auipc	zero,0x60aa9
    80001796:	717d                	addi	sp,sp,-16
    80001798:	02b3a6b3          	mulhsu	a3,t2,a1
    8000179c:	8d6d                	and	a0,a0,a1
    8000179e:	415d05b3          	sub	a1,s10,s5
    800017a2:	8d6d                	and	a0,a0,a1
    800017a4:	f0ab8c1b          	addiw	s8,s7,-246
    800017a8:	02d7533b          	divuw	t1,a4,a3
    800017ac:	7b9a5fb7          	lui	t6,0x7b9a5
    800017b0:	40e60bbb          	subw	s7,a2,a4
    800017b4:	00f9d01b          	srliw	zero,s3,0xf
    800017b8:	0199989b          	slliw	a7,s3,0x19
    800017bc:	415ad39b          	sraiw	t2,s5,0x15
    800017c0:	00e78bb3          	add	s7,a5,a4
    800017c4:	0081feb3          	and	t4,gp,s0
    800017c8:	0019b433          	sltu	s0,s3,ra
    800017cc:	85b6                	mv	a1,a3
    800017ce:	004859bb          	srlw	s3,a6,tp
    800017d2:	916c6113          	ori	sp,s8,-1770
    800017d6:	415d05b3          	sub	a1,s10,s5
    800017da:	40e60bbb          	subw	s7,a2,a4
    800017de:	8be9                	andi	a5,a5,26
    800017e0:	9d91                	subw	a1,a1,a2
    800017e2:	8c0d                	sub	s0,s0,a1
    800017e4:	0083813b          	addw	sp,t2,s0
    800017e8:	198c                	addi	a1,sp,240
    800017ea:	00631033          	sll	zero,t1,t1
    800017ee:	85b6                	mv	a1,a3
    800017f0:	f0ab8c1b          	addiw	s8,s7,-246
    800017f4:	008f68b3          	or	a7,t5,s0
    800017f8:	40b8563b          	sraw	a2,a6,a1
    800017fc:	7b9a5fb7          	lui	t6,0x7b9a5
    80001800:	a590fc93          	andi	s9,ra,-1447
    80001804:	916c6113          	ori	sp,s8,-1770
    80001808:	035d4eb3          	div	t4,s10,s5
    8000180c:	0081feb3          	and	t4,gp,s0
    80001810:	69e5                	lui	s3,0x19
    80001812:	147d                	addi	s0,s0,-1
    80001814:	80d5                	srli	s1,s1,0x15
    80001816:	989a                	add	a7,a7,t1
    80001818:	02db5fb3          	divu	t6,s6,a3
    8000181c:	00f9d01b          	srliw	zero,s3,0xf
    80001820:	80d5                	srli	s1,s1,0x15
    80001822:	004859bb          	srlw	s3,a6,tp
    80001826:	a07baa93          	slti	s5,s7,-1529
    8000182a:	80d5                	srli	s1,s1,0x15
    8000182c:	9d91                	subw	a1,a1,a2
    8000182e:	00e110bb          	sllw	ra,sp,a4
    80001832:	024b6c3b          	remw	s8,s6,tp
    80001836:	40bad8b3          	sra	a7,s5,a1
    8000183a:	00e110bb          	sllw	ra,sp,a4
    8000183e:	03259313          	slli	t1,a1,0x32
    80001842:	008f68b3          	or	a7,t5,s0
    80001846:	69e5                	lui	s3,0x19
    80001848:	004859bb          	srlw	s3,a6,tp
    8000184c:	147d                	addi	s0,s0,-1
    8000184e:	02db5fb3          	divu	t6,s6,a3
    80001852:	8dbe3f13          	sltiu	t5,t3,-1829
    80001856:	01235933          	srl	s2,t1,s2
    8000185a:	4fbd                	li	t6,15
    8000185c:	00f9d01b          	srliw	zero,s3,0xf
    80001860:	989a                	add	a7,a7,t1
    80001862:	01235933          	srl	s2,t1,s2
    80001866:	00ff4cb3          	xor	s9,t5,a5
    8000186a:	43b3d413          	srai	s0,t2,0x3b
    8000186e:	035d4eb3          	div	t4,s10,s5
    80001872:	415d05b3          	sub	a1,s10,s5
    80001876:	00b8a6b3          	slt	a3,a7,a1
    8000187a:	415d05b3          	sub	a1,s10,s5
    8000187e:	a07baa93          	slti	s5,s7,-1529
    80001882:	02028433          	mul	s0,t0,zero
    80001886:	85b6                	mv	a1,a3
    80001888:	4fbd                	li	t6,15
    8000188a:	8be9                	andi	a5,a5,26
    8000188c:	02521cb3          	mulh	s9,tp,t0
    80001890:	00631033          	sll	zero,t1,t1
    80001894:	02ba75bb          	remuw	a1,s4,a1
    80001898:	916c6113          	ori	sp,s8,-1770
    8000189c:	02028433          	mul	s0,t0,zero
    800018a0:	916c6113          	ori	sp,s8,-1770
    800018a4:	80d5                	srli	s1,s1,0x15
    800018a6:	02b3a6b3          	mulhsu	a3,t2,a1
    800018aa:	0199989b          	slliw	a7,s3,0x19
    800018ae:	a07baa93          	slti	s5,s7,-1529
    800018b2:	147d                	addi	s0,s0,-1
    800018b4:	02d7533b          	divuw	t1,a4,a3
    800018b8:	02db5fb3          	divu	t6,s6,a3
    800018bc:	9d91                	subw	a1,a1,a2
    800018be:	0083813b          	addw	sp,t2,s0
    800018c2:	9ca9                	addw	s1,s1,a0
    800018c4:	0001                	nop
    800018c6:	00e110bb          	sllw	ra,sp,a4
    800018ca:	415ad39b          	sraiw	t2,s5,0x15
    800018ce:	916c6113          	ori	sp,s8,-1770
    800018d2:	40e60bbb          	subw	s7,a2,a4
    800018d6:	415d05b3          	sub	a1,s10,s5
    800018da:	0c4e                	slli	s8,s8,0x13
    800018dc:	a590fc93          	andi	s9,ra,-1447
    800018e0:	8c0d                	sub	s0,s0,a1
    800018e2:	00ff4cb3          	xor	s9,t5,a5
    800018e6:	60aa9017          	auipc	zero,0x60aa9
    800018ea:	01235933          	srl	s2,t1,s2
    800018ee:	415ad39b          	sraiw	t2,s5,0x15
    800018f2:	0248b933          	mulhu	s2,a7,tp
    800018f6:	415ad39b          	sraiw	t2,s5,0x15
    800018fa:	f0ab8c1b          	addiw	s8,s7,-246
    800018fe:	8be9                	andi	a5,a5,26
    80001900:	0081feb3          	and	t4,gp,s0
    80001904:	8be9                	andi	a5,a5,26
    80001906:	0199989b          	slliw	a7,s3,0x19
    8000190a:	02d7533b          	divuw	t1,a4,a3
    8000190e:	02521cb3          	mulh	s9,tp,t0
    80001912:	916c6113          	ori	sp,s8,-1770
    80001916:	80d5                	srli	s1,s1,0x15
    80001918:	03259313          	slli	t1,a1,0x32
    8000191c:	00e78bb3          	add	s7,a5,a4
    80001920:	02b3a6b3          	mulhsu	a3,t2,a1
    80001924:	02db5fb3          	divu	t6,s6,a3
    80001928:	035d4eb3          	div	t4,s10,s5
    8000192c:	8c0d                	sub	s0,s0,a1
    8000192e:	00b8a6b3          	slt	a3,a7,a1
    80001932:	0c4e                	slli	s8,s8,0x13
    80001934:	69e5                	lui	s3,0x19
    80001936:	0c4e                	slli	s8,s8,0x13
    80001938:	0083813b          	addw	sp,t2,s0
    8000193c:	40e60bbb          	subw	s7,a2,a4
    80001940:	40bad8b3          	sra	a7,s5,a1
    80001944:	0248b933          	mulhu	s2,a7,tp
    80001948:	00e110bb          	sllw	ra,sp,a4
    8000194c:	40e60bbb          	subw	s7,a2,a4
    80001950:	008f68b3          	or	a7,t5,s0
    80001954:	01165993          	srli	s3,a2,0x11
    80001958:	7b9a5fb7          	lui	t6,0x7b9a5
    8000195c:	989a                	add	a7,a7,t1
    8000195e:	035d4eb3          	div	t4,s10,s5
    80001962:	00f9d01b          	srliw	zero,s3,0xf
    80001966:	a07baa93          	slti	s5,s7,-1529
    8000196a:	00f9d01b          	srliw	zero,s3,0xf
    8000196e:	0083813b          	addw	sp,t2,s0
    80001972:	00ff4cb3          	xor	s9,t5,a5
    80001976:	9ca9                	addw	s1,s1,a0
    80001978:	a590fc93          	andi	s9,ra,-1447
    8000197c:	02b3a6b3          	mulhsu	a3,t2,a1
    80001980:	69e5                	lui	s3,0x19
    80001982:	8be9                	andi	a5,a5,26
    80001984:	7b9a5fb7          	lui	t6,0x7b9a5
    80001988:	a07baa93          	slti	s5,s7,-1529
    8000198c:	717d                	addi	sp,sp,-16
    8000198e:	00f9d01b          	srliw	zero,s3,0xf
    80001992:	717d                	addi	sp,sp,-16
    80001994:	03edf033          	remu	zero,s11,t5
    80001998:	40e60bbb          	subw	s7,a2,a4
    8000199c:	0083813b          	addw	sp,t2,s0
    800019a0:	00b8a6b3          	slt	a3,a7,a1
    800019a4:	0199989b          	slliw	a7,s3,0x19
    800019a8:	024b6c3b          	remw	s8,s6,tp
    800019ac:	00f9d01b          	srliw	zero,s3,0xf
    800019b0:	0248b933          	mulhu	s2,a7,tp
    800019b4:	632d8813          	addi	a6,s11,1586
    800019b8:	43b3d413          	srai	s0,t2,0x3b
    800019bc:	40e60bbb          	subw	s7,a2,a4
    800019c0:	00b8a6b3          	slt	a3,a7,a1
    800019c4:	03a3e833          	rem	a6,t2,s10
    800019c8:	8ddd                	or	a1,a1,a5
    800019ca:	80d5                	srli	s1,s1,0x15
    800019cc:	8c0d                	sub	s0,s0,a1
    800019ce:	0083813b          	addw	sp,t2,s0
    800019d2:	147d                	addi	s0,s0,-1
    800019d4:	415ad39b          	sraiw	t2,s5,0x15
    800019d8:	0c4e                	slli	s8,s8,0x13
    800019da:	8dbe3f13          	sltiu	t5,t3,-1829
    800019de:	60aa9017          	auipc	zero,0x60aa9
    800019e2:	632d8813          	addi	a6,s11,1586
    800019e6:	415ad39b          	sraiw	t2,s5,0x15
    800019ea:	a07baa93          	slti	s5,s7,-1529
    800019ee:	147d                	addi	s0,s0,-1
    800019f0:	0248b933          	mulhu	s2,a7,tp
    800019f4:	8be9                	andi	a5,a5,26
    800019f6:	00631033          	sll	zero,t1,t1
    800019fa:	02028433          	mul	s0,t0,zero
    800019fe:	8c0d                	sub	s0,s0,a1
    80001a00:	9ca9                	addw	s1,s1,a0
    80001a02:	008f68b3          	or	a7,t5,s0
    80001a06:	024b6c3b          	remw	s8,s6,tp
    80001a0a:	989a                	add	a7,a7,t1
    80001a0c:	9d91                	subw	a1,a1,a2
    80001a0e:	03edf033          	remu	zero,s11,t5
    80001a12:	9ca9                	addw	s1,s1,a0
    80001a14:	03edf033          	remu	zero,s11,t5
    80001a18:	0248b933          	mulhu	s2,a7,tp
    80001a1c:	03259313          	slli	t1,a1,0x32
    80001a20:	00ff4cb3          	xor	s9,t5,a5
    80001a24:	00b8a6b3          	slt	a3,a7,a1
    80001a28:	8dbe3f13          	sltiu	t5,t3,-1829
    80001a2c:	916c6113          	ori	sp,s8,-1770
    80001a30:	40b8563b          	sraw	a2,a6,a1
    80001a34:	a590fc93          	andi	s9,ra,-1447
    80001a38:	024b6c3b          	remw	s8,s6,tp
    80001a3c:	9ca9                	addw	s1,s1,a0
    80001a3e:	00e110bb          	sllw	ra,sp,a4
    80001a42:	9ca9                	addw	s1,s1,a0
    80001a44:	00e78bb3          	add	s7,a5,a4
    80001a48:	40b8563b          	sraw	a2,a6,a1
    80001a4c:	916c6113          	ori	sp,s8,-1770
    80001a50:	0081feb3          	and	t4,gp,s0
    80001a54:	00631033          	sll	zero,t1,t1
    80001a58:	0199989b          	slliw	a7,s3,0x19
    80001a5c:	0083813b          	addw	sp,t2,s0
    80001a60:	01165993          	srli	s3,a2,0x11
    80001a64:	85b6                	mv	a1,a3
    80001a66:	03f88abb          	mulw	s5,a7,t6
    80001a6a:	f0ab8c1b          	addiw	s8,s7,-246
    80001a6e:	147d                	addi	s0,s0,-1
    80001a70:	415d05b3          	sub	a1,s10,s5
    80001a74:	9ca9                	addw	s1,s1,a0
    80001a76:	02b3a6b3          	mulhsu	a3,t2,a1
    80001a7a:	9ca9                	addw	s1,s1,a0
    80001a7c:	69e5                	lui	s3,0x19
    80001a7e:	a07baa93          	slti	s5,s7,-1529
    80001a82:	01235933          	srl	s2,t1,s2
    80001a86:	40bad8b3          	sra	a7,s5,a1
    80001a8a:	a07baa93          	slti	s5,s7,-1529
    80001a8e:	02ba75bb          	remuw	a1,s4,a1
    80001a92:	02028433          	mul	s0,t0,zero
    80001a96:	0199989b          	slliw	a7,s3,0x19
    80001a9a:	40bad8b3          	sra	a7,s5,a1
    80001a9e:	03edf033          	remu	zero,s11,t5
    80001aa2:	03edf033          	remu	zero,s11,t5
    80001aa6:	03f88abb          	mulw	s5,a7,t6
    80001aaa:	00e78bb3          	add	s7,a5,a4
    80001aae:	03f88abb          	mulw	s5,a7,t6
    80001ab2:	024b6c3b          	remw	s8,s6,tp
    80001ab6:	d9434f93          	xori	t6,t1,-620
    80001aba:	00b8a6b3          	slt	a3,a7,a1
    80001abe:	0248b933          	mulhu	s2,a7,tp
    80001ac2:	f0ab8c1b          	addiw	s8,s7,-246
    80001ac6:	415d05b3          	sub	a1,s10,s5
    80001aca:	8c0d                	sub	s0,s0,a1
    80001acc:	00631033          	sll	zero,t1,t1
    80001ad0:	035d4eb3          	div	t4,s10,s5
    80001ad4:	00f9d01b          	srliw	zero,s3,0xf
    80001ad8:	39fd                	addiw	s3,s3,-1 # 18fff <_start-0x7ffe7001>
    80001ada:	40bad8b3          	sra	a7,s5,a1
    80001ade:	80d5                	srli	s1,s1,0x15
    80001ae0:	8c0d                	sub	s0,s0,a1
    80001ae2:	8c0d                	sub	s0,s0,a1
    80001ae4:	00f9d01b          	srliw	zero,s3,0xf
    80001ae8:	198c                	addi	a1,sp,240
    80001aea:	008f68b3          	or	a7,t5,s0
    80001aee:	00b8a6b3          	slt	a3,a7,a1
    80001af2:	02028433          	mul	s0,t0,zero
    80001af6:	a590fc93          	andi	s9,ra,-1447
    80001afa:	8c21                	xor	s0,s0,s0
    80001afc:	02b3a6b3          	mulhsu	a3,t2,a1
    80001b00:	717d                	addi	sp,sp,-16
    80001b02:	0001                	nop
    80001b04:	198c                	addi	a1,sp,240
    80001b06:	86cd                	srai	a3,a3,0x13
    80001b08:	632d8813          	addi	a6,s11,1586
    80001b0c:	86cd                	srai	a3,a3,0x13
    80001b0e:	40bad8b3          	sra	a7,s5,a1
    80001b12:	39fd                	addiw	s3,s3,-1
    80001b14:	0c4e                	slli	s8,s8,0x13
    80001b16:	86cd                	srai	a3,a3,0x13
    80001b18:	39fd                	addiw	s3,s3,-1
    80001b1a:	00631033          	sll	zero,t1,t1
    80001b1e:	d9434f93          	xori	t6,t1,-620
    80001b22:	8c0d                	sub	s0,s0,a1
    80001b24:	80d5                	srli	s1,s1,0x15
    80001b26:	00ff4cb3          	xor	s9,t5,a5
    80001b2a:	86cd                	srai	a3,a3,0x13
    80001b2c:	80d5                	srli	s1,s1,0x15
    80001b2e:	02ba75bb          	remuw	a1,s4,a1
    80001b32:	0199989b          	slliw	a7,s3,0x19
    80001b36:	9d91                	subw	a1,a1,a2
    80001b38:	0248b933          	mulhu	s2,a7,tp
    80001b3c:	03a3e833          	rem	a6,t2,s10
    80001b40:	f0ab8c1b          	addiw	s8,s7,-246
    80001b44:	60aa9017          	auipc	zero,0x60aa9
    80001b48:	01165993          	srli	s3,a2,0x11
    80001b4c:	8d6d                	and	a0,a0,a1
    80001b4e:	f0ab8c1b          	addiw	s8,s7,-246
    80001b52:	008f68b3          	or	a7,t5,s0
    80001b56:	989a                	add	a7,a7,t1
    80001b58:	a590fc93          	andi	s9,ra,-1447
    80001b5c:	717d                	addi	sp,sp,-16
    80001b5e:	8c21                	xor	s0,s0,s0
    80001b60:	0081feb3          	and	t4,gp,s0
    80001b64:	86cd                	srai	a3,a3,0x13
    80001b66:	989a                	add	a7,a7,t1
    80001b68:	f0ab8c1b          	addiw	s8,s7,-246
    80001b6c:	198c                	addi	a1,sp,240
    80001b6e:	632d8813          	addi	a6,s11,1586
    80001b72:	02db5fb3          	divu	t6,s6,a3
    80001b76:	9d91                	subw	a1,a1,a2
    80001b78:	0001                	nop
    80001b7a:	60aa9017          	auipc	zero,0x60aa9
    80001b7e:	8be9                	andi	a5,a5,26
    80001b80:	024b6c3b          	remw	s8,s6,tp
    80001b84:	02efcabb          	divw	s5,t6,a4
    80001b88:	415ad39b          	sraiw	t2,s5,0x15
    80001b8c:	0199989b          	slliw	a7,s3,0x19
    80001b90:	415ad39b          	sraiw	t2,s5,0x15
    80001b94:	43b3d413          	srai	s0,t2,0x3b
    80001b98:	632d8813          	addi	a6,s11,1586
    80001b9c:	43b3d413          	srai	s0,t2,0x3b
    80001ba0:	0001                	nop
    80001ba2:	03f88abb          	mulw	s5,a7,t6
    80001ba6:	02521cb3          	mulh	s9,tp,t0
    80001baa:	035d4eb3          	div	t4,s10,s5
    80001bae:	60aa9017          	auipc	zero,0x60aa9
    80001bb2:	02efcabb          	divw	s5,t6,a4
    80001bb6:	00ff4cb3          	xor	s9,t5,a5
    80001bba:	00b8a6b3          	slt	a3,a7,a1
    80001bbe:	00631033          	sll	zero,t1,t1
    80001bc2:	03a3e833          	rem	a6,t2,s10
    80001bc6:	415d05b3          	sub	a1,s10,s5
    80001bca:	03259313          	slli	t1,a1,0x32
    80001bce:	632d8813          	addi	a6,s11,1586
    80001bd2:	9ca9                	addw	s1,s1,a0
    80001bd4:	00b8a6b3          	slt	a3,a7,a1
    80001bd8:	415d05b3          	sub	a1,s10,s5
    80001bdc:	00e110bb          	sllw	ra,sp,a4
    80001be0:	a07baa93          	slti	s5,s7,-1529
    80001be4:	69e5                	lui	s3,0x19
    80001be6:	02efcabb          	divw	s5,t6,a4
    80001bea:	02efcabb          	divw	s5,t6,a4
    80001bee:	0248b933          	mulhu	s2,a7,tp
    80001bf2:	d9434f93          	xori	t6,t1,-620
    80001bf6:	0248b933          	mulhu	s2,a7,tp
    80001bfa:	02db5fb3          	divu	t6,s6,a3
    80001bfe:	f0ab8c1b          	addiw	s8,s7,-246
    80001c02:	02b3a6b3          	mulhsu	a3,t2,a1
    80001c06:	03a3e833          	rem	a6,t2,s10
    80001c0a:	40e60bbb          	subw	s7,a2,a4
    80001c0e:	717d                	addi	sp,sp,-16
    80001c10:	02db5fb3          	divu	t6,s6,a3
    80001c14:	916c6113          	ori	sp,s8,-1770
    80001c18:	8be9                	andi	a5,a5,26
    80001c1a:	8c0d                	sub	s0,s0,a1
    80001c1c:	035d4eb3          	div	t4,s10,s5
    80001c20:	f0ab8c1b          	addiw	s8,s7,-246
    80001c24:	00631033          	sll	zero,t1,t1
    80001c28:	40bad8b3          	sra	a7,s5,a1
    80001c2c:	85b6                	mv	a1,a3
    80001c2e:	00b8a6b3          	slt	a3,a7,a1
    80001c32:	80d5                	srli	s1,s1,0x15
    80001c34:	00ff4cb3          	xor	s9,t5,a5
    80001c38:	40bad8b3          	sra	a7,s5,a1
    80001c3c:	03f88abb          	mulw	s5,a7,t6
    80001c40:	03f88abb          	mulw	s5,a7,t6
    80001c44:	0248b933          	mulhu	s2,a7,tp
    80001c48:	02521cb3          	mulh	s9,tp,t0
    80001c4c:	03f88abb          	mulw	s5,a7,t6
    80001c50:	00ff4cb3          	xor	s9,t5,a5
    80001c54:	8d6d                	and	a0,a0,a1
    80001c56:	40e60bbb          	subw	s7,a2,a4
    80001c5a:	415d05b3          	sub	a1,s10,s5
    80001c5e:	02ba75bb          	remuw	a1,s4,a1
    80001c62:	147d                	addi	s0,s0,-1
    80001c64:	40bad8b3          	sra	a7,s5,a1
    80001c68:	717d                	addi	sp,sp,-16
    80001c6a:	02d7533b          	divuw	t1,a4,a3
    80001c6e:	40bad8b3          	sra	a7,s5,a1
    80001c72:	02521cb3          	mulh	s9,tp,t0
    80001c76:	00631033          	sll	zero,t1,t1
    80001c7a:	9ca9                	addw	s1,s1,a0
    80001c7c:	02ba75bb          	remuw	a1,s4,a1
    80001c80:	40b8563b          	sraw	a2,a6,a1
    80001c84:	916c6113          	ori	sp,s8,-1770
    80001c88:	8c0d                	sub	s0,s0,a1
    80001c8a:	4fbd                	li	t6,15
    80001c8c:	00ff4cb3          	xor	s9,t5,a5
    80001c90:	035d4eb3          	div	t4,s10,s5
    80001c94:	8dbe3f13          	sltiu	t5,t3,-1829
    80001c98:	004859bb          	srlw	s3,a6,tp
    80001c9c:	717d                	addi	sp,sp,-16
    80001c9e:	035d4eb3          	div	t4,s10,s5
    80001ca2:	80d5                	srli	s1,s1,0x15
    80001ca4:	632d8813          	addi	a6,s11,1586
    80001ca8:	01165993          	srli	s3,a2,0x11
    80001cac:	00ff4cb3          	xor	s9,t5,a5
    80001cb0:	85b6                	mv	a1,a3
    80001cb2:	004859bb          	srlw	s3,a6,tp
    80001cb6:	01235933          	srl	s2,t1,s2
    80001cba:	02efcabb          	divw	s5,t6,a4
    80001cbe:	0c4e                	slli	s8,s8,0x13
    80001cc0:	8c0d                	sub	s0,s0,a1
    80001cc2:	004859bb          	srlw	s3,a6,tp
    80001cc6:	8d6d                	and	a0,a0,a1
    80001cc8:	147d                	addi	s0,s0,-1
    80001cca:	9ca9                	addw	s1,s1,a0
    80001ccc:	415ad39b          	sraiw	t2,s5,0x15
    80001cd0:	004859bb          	srlw	s3,a6,tp
    80001cd4:	69e5                	lui	s3,0x19
    80001cd6:	40b8563b          	sraw	a2,a6,a1
    80001cda:	147d                	addi	s0,s0,-1
    80001cdc:	f0ab8c1b          	addiw	s8,s7,-246
    80001ce0:	03259313          	slli	t1,a1,0x32
    80001ce4:	03a3e833          	rem	a6,t2,s10
    80001ce8:	008f68b3          	or	a7,t5,s0
    80001cec:	0199989b          	slliw	a7,s3,0x19
    80001cf0:	00e110bb          	sllw	ra,sp,a4
    80001cf4:	632d8813          	addi	a6,s11,1586
    80001cf8:	03f88abb          	mulw	s5,a7,t6
    80001cfc:	9ca9                	addw	s1,s1,a0
    80001cfe:	03a3e833          	rem	a6,t2,s10
    80001d02:	00b8a6b3          	slt	a3,a7,a1
    80001d06:	03259313          	slli	t1,a1,0x32
    80001d0a:	916c6113          	ori	sp,s8,-1770
    80001d0e:	80d5                	srli	s1,s1,0x15
    80001d10:	02028433          	mul	s0,t0,zero
    80001d14:	0001                	nop
    80001d16:	80d5                	srli	s1,s1,0x15
    80001d18:	415ad39b          	sraiw	t2,s5,0x15
    80001d1c:	7b9a5fb7          	lui	t6,0x7b9a5
    80001d20:	0019b433          	sltu	s0,s3,ra
    80001d24:	02d7533b          	divuw	t1,a4,a3
    80001d28:	0081feb3          	and	t4,gp,s0
    80001d2c:	415ad39b          	sraiw	t2,s5,0x15
    80001d30:	989a                	add	a7,a7,t1
    80001d32:	03259313          	slli	t1,a1,0x32
    80001d36:	80d5                	srli	s1,s1,0x15
    80001d38:	8c21                	xor	s0,s0,s0
    80001d3a:	40b8563b          	sraw	a2,a6,a1
    80001d3e:	7b9a5fb7          	lui	t6,0x7b9a5
    80001d42:	69e5                	lui	s3,0x19
    80001d44:	85b6                	mv	a1,a3
    80001d46:	03259313          	slli	t1,a1,0x32
    80001d4a:	0019b433          	sltu	s0,s3,ra
    80001d4e:	02efcabb          	divw	s5,t6,a4
    80001d52:	01235933          	srl	s2,t1,s2
    80001d56:	717d                	addi	sp,sp,-16
    80001d58:	02ba75bb          	remuw	a1,s4,a1
    80001d5c:	d9434f93          	xori	t6,t1,-620
    80001d60:	40e60bbb          	subw	s7,a2,a4
    80001d64:	0248b933          	mulhu	s2,a7,tp
    80001d68:	415ad39b          	sraiw	t2,s5,0x15
    80001d6c:	989a                	add	a7,a7,t1
    80001d6e:	8be9                	andi	a5,a5,26
    80001d70:	40bad8b3          	sra	a7,s5,a1
    80001d74:	00631033          	sll	zero,t1,t1
    80001d78:	008f68b3          	or	a7,t5,s0
    80001d7c:	0199989b          	slliw	a7,s3,0x19
    80001d80:	02ba75bb          	remuw	a1,s4,a1
    80001d84:	02521cb3          	mulh	s9,tp,t0
    80001d88:	8dbe3f13          	sltiu	t5,t3,-1829
    80001d8c:	0001                	nop
    80001d8e:	03edf033          	remu	zero,s11,t5
    80001d92:	632d8813          	addi	a6,s11,1586
    80001d96:	0001                	nop
    80001d98:	80d5                	srli	s1,s1,0x15
    80001d9a:	39fd                	addiw	s3,s3,-1 # 18fff <_start-0x7ffe7001>
    80001d9c:	9ca9                	addw	s1,s1,a0
    80001d9e:	989a                	add	a7,a7,t1
    80001da0:	717d                	addi	sp,sp,-16
    80001da2:	00631033          	sll	zero,t1,t1
    80001da6:	9ca9                	addw	s1,s1,a0
    80001da8:	415d05b3          	sub	a1,s10,s5
    80001dac:	0001                	nop
    80001dae:	02d7533b          	divuw	t1,a4,a3
    80001db2:	02efcabb          	divw	s5,t6,a4
    80001db6:	40e60bbb          	subw	s7,a2,a4
    80001dba:	d9434f93          	xori	t6,t1,-620
    80001dbe:	03edf033          	remu	zero,s11,t5
    80001dc2:	0019b433          	sltu	s0,s3,ra
    80001dc6:	632d8813          	addi	a6,s11,1586
    80001dca:	0199989b          	slliw	a7,s3,0x19
    80001dce:	147d                	addi	s0,s0,-1
    80001dd0:	9d91                	subw	a1,a1,a2
    80001dd2:	198c                	addi	a1,sp,240
    80001dd4:	8be9                	andi	a5,a5,26
    80001dd6:	0081feb3          	and	t4,gp,s0
    80001dda:	00b8a6b3          	slt	a3,a7,a1
    80001dde:	0081feb3          	and	t4,gp,s0
    80001de2:	86cd                	srai	a3,a3,0x13
    80001de4:	00f9d01b          	srliw	zero,s3,0xf
    80001de8:	85b6                	mv	a1,a3
    80001dea:	008f68b3          	or	a7,t5,s0
    80001dee:	02d7533b          	divuw	t1,a4,a3
    80001df2:	00ff4cb3          	xor	s9,t5,a5
    80001df6:	40b8563b          	sraw	a2,a6,a1
    80001dfa:	01165993          	srli	s3,a2,0x11
    80001dfe:	86cd                	srai	a3,a3,0x13
    80001e00:	a07baa93          	slti	s5,s7,-1529
    80001e04:	85b6                	mv	a1,a3
    80001e06:	00b8a6b3          	slt	a3,a7,a1
    80001e0a:	40bad8b3          	sra	a7,s5,a1
    80001e0e:	9ca9                	addw	s1,s1,a0
    80001e10:	0019b433          	sltu	s0,s3,ra
    80001e14:	7b9a5fb7          	lui	t6,0x7b9a5
    80001e18:	02efcabb          	divw	s5,t6,a4
    80001e1c:	86cd                	srai	a3,a3,0x13
    80001e1e:	00e78bb3          	add	s7,a5,a4
    80001e22:	147d                	addi	s0,s0,-1
    80001e24:	02b3a6b3          	mulhsu	a3,t2,a1
    80001e28:	02b3a6b3          	mulhsu	a3,t2,a1
    80001e2c:	8d6d                	and	a0,a0,a1
    80001e2e:	717d                	addi	sp,sp,-16
    80001e30:	989a                	add	a7,a7,t1
    80001e32:	03a3e833          	rem	a6,t2,s10
    80001e36:	8dbe3f13          	sltiu	t5,t3,-1829
    80001e3a:	f0ab8c1b          	addiw	s8,s7,-246
    80001e3e:	00e110bb          	sllw	ra,sp,a4
    80001e42:	0001                	nop
    80001e44:	0001                	nop
    80001e46:	03259313          	slli	t1,a1,0x32
    80001e4a:	8c0d                	sub	s0,s0,a1
    80001e4c:	40e60bbb          	subw	s7,a2,a4
    80001e50:	69e5                	lui	s3,0x19
    80001e52:	a590fc93          	andi	s9,ra,-1447
    80001e56:	40b8563b          	sraw	a2,a6,a1
    80001e5a:	02b3a6b3          	mulhsu	a3,t2,a1
    80001e5e:	0248b933          	mulhu	s2,a7,tp
    80001e62:	632d8813          	addi	a6,s11,1586
    80001e66:	00b8a6b3          	slt	a3,a7,a1
    80001e6a:	60aa9017          	auipc	zero,0x60aa9
    80001e6e:	80d5                	srli	s1,s1,0x15
    80001e70:	01235933          	srl	s2,t1,s2
    80001e74:	8be9                	andi	a5,a5,26
    80001e76:	03f88abb          	mulw	s5,a7,t6
    80001e7a:	989a                	add	a7,a7,t1
    80001e7c:	00631033          	sll	zero,t1,t1
    80001e80:	0001                	nop
    80001e82:	86cd                	srai	a3,a3,0x13
    80001e84:	8ddd                	or	a1,a1,a5
    80001e86:	7b9a5fb7          	lui	t6,0x7b9a5
    80001e8a:	d9434f93          	xori	t6,t1,-620
    80001e8e:	03259313          	slli	t1,a1,0x32
    80001e92:	0199989b          	slliw	a7,s3,0x19
    80001e96:	4fbd                	li	t6,15
    80001e98:	a590fc93          	andi	s9,ra,-1447
    80001e9c:	4c01                	li	s8,0
    80001e9e:	ffe46b37          	lui	s6,0xffe46
    80001ea2:	c95b0b1b          	addiw	s6,s6,-875 # ffffffffffe45c95 <_end+0xffffffff7fe2930d>
    80001ea6:	0b32                	slli	s6,s6,0xc
    80001ea8:	56db0b13          	addi	s6,s6,1389
    80001eac:	0b42                	slli	s6,s6,0x10
    80001eae:	53bb0b13          	addi	s6,s6,1339
    80001eb2:	0b36                	slli	s6,s6,0xd
    80001eb4:	137b0b13          	addi	s6,s6,311
    80001eb8:	ffa53ab7          	lui	s5,0xffa53
    80001ebc:	097a8a9b          	addiw	s5,s5,151 # ffffffffffa53097 <_end+0xffffffff7fa3670f>
    80001ec0:	0aba                	slli	s5,s5,0xe
    80001ec2:	5e9a8a93          	addi	s5,s5,1513
    80001ec6:	0ab6                	slli	s5,s5,0xd
    80001ec8:	e5da8a93          	addi	s5,s5,-419
    80001ecc:	0ab6                	slli	s5,s5,0xd
    80001ece:	3f6a8a93          	addi	s5,s5,1014
    80001ed2:	fff00f1b          	addiw	t5,zero,-1
    80001ed6:	1f7e                	slli	t5,t5,0x3f
    80001ed8:	032fe937          	lui	s2,0x32fe
    80001edc:	aab9091b          	addiw	s2,s2,-1365 # 32fdaab <_start-0x7cd02555>
    80001ee0:	0936                	slli	s2,s2,0xd
    80001ee2:	55790913          	addi	s2,s2,1367
    80001ee6:	0932                	slli	s2,s2,0xc
    80001ee8:	e2b90913          	addi	s2,s2,-469
    80001eec:	0932                	slli	s2,s2,0xc
    80001eee:	24790913          	addi	s2,s2,583
    80001ef2:	f87b7237          	lui	tp,0xf87b7
    80001ef6:	2012021b          	addiw	tp,tp,513 # fffffffff87b7201 <_end+0xffffffff7879a879>
    80001efa:	0232                	slli	tp,tp,0xc
    80001efc:	11520213          	addi	tp,tp,277 # 115 <_start-0x7ffffeeb>
    80001f00:	0232                	slli	tp,tp,0xc
    80001f02:	8f720213          	addi	tp,tp,-1801 # fffffffffffff8f7 <_end+0xffffffff7ffe2f6f>
    80001f06:	0232                	slli	tp,tp,0xc
    80001f08:	c2320213          	addi	tp,tp,-989 # fffffffffffffc23 <_end+0xffffffff7ffe329b>
    80001f0c:	fff0061b          	addiw	a2,zero,-1
    80001f10:	167e                	slli	a2,a2,0x3f
    80001f12:	5a7d                	li	s4,-1
    80001f14:	fff0031b          	addiw	t1,zero,-1
    80001f18:	137e                	slli	t1,t1,0x3f
    80001f1a:	4581                	li	a1,0
    80001f1c:	032b2633          	mulhsu	a2,s6,s2
    80001f20:	41e60abb          	subw	s5,a2,t5
    80001f24:	03ead233          	divu	tp,s5,t5
    80001f28:	02c95abb          	divuw	s5,s2,a2
    80001f2c:	03491c33          	mulh	s8,s2,s4
    80001f30:	032aeb3b          	remw	s6,s5,s2
    80001f34:	034a45b3          	div	a1,s4,s4
    80001f38:	02697233          	remu	tp,s2,t1
    80001f3c:	41e60abb          	subw	s5,a2,t5
    80001f40:	03ead233          	divu	tp,s5,t5
    80001f44:	632a0593          	addi	a1,s4,1586
    80001f48:	034a45b3          	div	a1,s4,s4
    80001f4c:	03233333          	mulhu	t1,t1,s2
    80001f50:	632a0593          	addi	a1,s4,1586
    80001f54:	02bb6f33          	rem	t5,s6,a1
    80001f58:	0001                	nop
    80001f5a:	02cf493b          	divw	s2,t5,a2
    80001f5e:	0001                	nop
    80001f60:	02697233          	remu	tp,s2,t1
    80001f64:	632a0593          	addi	a1,s4,1586
    80001f68:	03897a3b          	remuw	s4,s2,s8
    80001f6c:	02c95abb          	divuw	s5,s2,a2
    80001f70:	0001                	nop
    80001f72:	03ead233          	divu	tp,s5,t5
    80001f76:	034a45b3          	div	a1,s4,s4
    80001f7a:	03897a3b          	remuw	s4,s2,s8
    80001f7e:	0001                	nop
    80001f80:	0383093b          	mulw	s2,t1,s8
    80001f84:	60aa9017          	auipc	zero,0x60aa9
    80001f88:	035d4eb3          	div	t4,s10,s5
    80001f8c:	02db5fb3          	divu	t6,s6,a3
    80001f90:	415ad39b          	sraiw	t2,s5,0x15
    80001f94:	8dbe3f13          	sltiu	t5,t3,-1829
    80001f98:	03259313          	slli	t1,a1,0x32
    80001f9c:	a07baa93          	slti	s5,s7,-1529
    80001fa0:	39fd                	addiw	s3,s3,-1 # 18fff <_start-0x7ffe7001>
    80001fa2:	0083813b          	addw	sp,t2,s0
    80001fa6:	0081feb3          	and	t4,gp,s0
    80001faa:	9ca9                	addw	s1,s1,a0
    80001fac:	a590fc93          	andi	s9,ra,-1447
    80001fb0:	f0ab8c1b          	addiw	s8,s7,-246
    80001fb4:	00631033          	sll	zero,t1,t1
    80001fb8:	02db5fb3          	divu	t6,s6,a3
    80001fbc:	415d05b3          	sub	a1,s10,s5
    80001fc0:	02b3a6b3          	mulhsu	a3,t2,a1
    80001fc4:	00b8a6b3          	slt	a3,a7,a1
    80001fc8:	69e5                	lui	s3,0x19
    80001fca:	9ca9                	addw	s1,s1,a0
    80001fcc:	02ba75bb          	remuw	a1,s4,a1
    80001fd0:	00631033          	sll	zero,t1,t1
    80001fd4:	02d7533b          	divuw	t1,a4,a3
    80001fd8:	03259313          	slli	t1,a1,0x32
    80001fdc:	39fd                	addiw	s3,s3,-1 # 18fff <_start-0x7ffe7001>
    80001fde:	00b8a6b3          	slt	a3,a7,a1
    80001fe2:	00e110bb          	sllw	ra,sp,a4
    80001fe6:	0019b433          	sltu	s0,s3,ra
    80001fea:	85b6                	mv	a1,a3
    80001fec:	024b6c3b          	remw	s8,s6,tp
    80001ff0:	60aa9017          	auipc	zero,0x60aa9
    80001ff4:	004859bb          	srlw	s3,a6,tp
    80001ff8:	02521cb3          	mulh	s9,tp,t0
    80001ffc:	717d                	addi	sp,sp,-16
    80001ffe:	0c4e                	slli	s8,s8,0x13
    80002000:	0001                	nop
    80002002:	86cd                	srai	a3,a3,0x13
    80002004:	008f68b3          	or	a7,t5,s0
    80002008:	632d8813          	addi	a6,s11,1586
    8000200c:	916c6113          	ori	sp,s8,-1770
    80002010:	00e110bb          	sllw	ra,sp,a4
    80002014:	8dbe3f13          	sltiu	t5,t3,-1829
    80002018:	02db5fb3          	divu	t6,s6,a3
    8000201c:	0c4e                	slli	s8,s8,0x13
    8000201e:	40b8563b          	sraw	a2,a6,a1
    80002022:	02efcabb          	divw	s5,t6,a4
    80002026:	00631033          	sll	zero,t1,t1
    8000202a:	02db5fb3          	divu	t6,s6,a3
    8000202e:	01165993          	srli	s3,a2,0x11
    80002032:	717d                	addi	sp,sp,-16
    80002034:	024b6c3b          	remw	s8,s6,tp
    80002038:	d9434f93          	xori	t6,t1,-620
    8000203c:	02028433          	mul	s0,t0,zero
    80002040:	80d5                	srli	s1,s1,0x15
    80002042:	9d91                	subw	a1,a1,a2
    80002044:	0199989b          	slliw	a7,s3,0x19
    80002048:	03259313          	slli	t1,a1,0x32
    8000204c:	7b9a5fb7          	lui	t6,0x7b9a5
    80002050:	717d                	addi	sp,sp,-16
    80002052:	0083813b          	addw	sp,t2,s0
    80002056:	7b9a5fb7          	lui	t6,0x7b9a5
    8000205a:	02d7533b          	divuw	t1,a4,a3
    8000205e:	00e78bb3          	add	s7,a5,a4
    80002062:	01165993          	srli	s3,a2,0x11
    80002066:	02efcabb          	divw	s5,t6,a4
    8000206a:	03a3e833          	rem	a6,t2,s10
    8000206e:	8d6d                	and	a0,a0,a1
    80002070:	01165993          	srli	s3,a2,0x11
    80002074:	9d91                	subw	a1,a1,a2
    80002076:	004859bb          	srlw	s3,a6,tp
    8000207a:	00e110bb          	sllw	ra,sp,a4
    8000207e:	40b8563b          	sraw	a2,a6,a1
    80002082:	03f88abb          	mulw	s5,a7,t6
    80002086:	02521cb3          	mulh	s9,tp,t0
    8000208a:	01165993          	srli	s3,a2,0x11
    8000208e:	02db5fb3          	divu	t6,s6,a3
    80002092:	198c                	addi	a1,sp,240
    80002094:	02d7533b          	divuw	t1,a4,a3
    80002098:	01165993          	srli	s3,a2,0x11
    8000209c:	00e110bb          	sllw	ra,sp,a4
    800020a0:	02521cb3          	mulh	s9,tp,t0
    800020a4:	7b9a5fb7          	lui	t6,0x7b9a5
    800020a8:	035d4eb3          	div	t4,s10,s5
    800020ac:	717d                	addi	sp,sp,-16
    800020ae:	01165993          	srli	s3,a2,0x11
    800020b2:	40e60bbb          	subw	s7,a2,a4
    800020b6:	80d5                	srli	s1,s1,0x15
    800020b8:	00e78bb3          	add	s7,a5,a4
    800020bc:	0019b433          	sltu	s0,s3,ra
    800020c0:	00f9d01b          	srliw	zero,s3,0xf
    800020c4:	80d5                	srli	s1,s1,0x15
    800020c6:	4fbd                	li	t6,15
    800020c8:	0248b933          	mulhu	s2,a7,tp
    800020cc:	40b8563b          	sraw	a2,a6,a1
    800020d0:	0019b433          	sltu	s0,s3,ra
    800020d4:	39fd                	addiw	s3,s3,-1
    800020d6:	8ddd                	or	a1,a1,a5
    800020d8:	39fd                	addiw	s3,s3,-1
    800020da:	02b3a6b3          	mulhsu	a3,t2,a1
    800020de:	0083813b          	addw	sp,t2,s0
    800020e2:	02521cb3          	mulh	s9,tp,t0
    800020e6:	f0ab8c1b          	addiw	s8,s7,-246
    800020ea:	0c4e                	slli	s8,s8,0x13
    800020ec:	00f9d01b          	srliw	zero,s3,0xf
    800020f0:	60aa9017          	auipc	zero,0x60aa9
    800020f4:	916c6113          	ori	sp,s8,-1770
    800020f8:	916c6113          	ori	sp,s8,-1770
    800020fc:	8dbe3f13          	sltiu	t5,t3,-1829
    80002100:	39fd                	addiw	s3,s3,-1
    80002102:	03edf033          	remu	zero,s11,t5
    80002106:	415d05b3          	sub	a1,s10,s5
    8000210a:	0019b433          	sltu	s0,s3,ra
    8000210e:	916c6113          	ori	sp,s8,-1770
    80002112:	415d05b3          	sub	a1,s10,s5
    80002116:	80d5                	srli	s1,s1,0x15
    80002118:	0001                	nop
    8000211a:	00b8a6b3          	slt	a3,a7,a1
    8000211e:	f0ab8c1b          	addiw	s8,s7,-246
    80002122:	0c4e                	slli	s8,s8,0x13
    80002124:	0001                	nop
    80002126:	00b8a6b3          	slt	a3,a7,a1
    8000212a:	00e110bb          	sllw	ra,sp,a4
    8000212e:	02028433          	mul	s0,t0,zero
    80002132:	60aa9017          	auipc	zero,0x60aa9
    80002136:	989a                	add	a7,a7,t1
    80002138:	03259313          	slli	t1,a1,0x32
    8000213c:	02ba75bb          	remuw	a1,s4,a1
    80002140:	85b6                	mv	a1,a3
    80002142:	40bad8b3          	sra	a7,s5,a1
    80002146:	147d                	addi	s0,s0,-1
    80002148:	7b9a5fb7          	lui	t6,0x7b9a5
    8000214c:	02521cb3          	mulh	s9,tp,t0
    80002150:	8dbe3f13          	sltiu	t5,t3,-1829
    80002154:	00631033          	sll	zero,t1,t1
    80002158:	69e5                	lui	s3,0x19
    8000215a:	69e5                	lui	s3,0x19
    8000215c:	02028433          	mul	s0,t0,zero
    80002160:	415d05b3          	sub	a1,s10,s5
    80002164:	00e110bb          	sllw	ra,sp,a4
    80002168:	02efcabb          	divw	s5,t6,a4
    8000216c:	9d91                	subw	a1,a1,a2
    8000216e:	916c6113          	ori	sp,s8,-1770
    80002172:	02521cb3          	mulh	s9,tp,t0
    80002176:	00ff4cb3          	xor	s9,t5,a5
    8000217a:	198c                	addi	a1,sp,240
    8000217c:	00e110bb          	sllw	ra,sp,a4
    80002180:	86cd                	srai	a3,a3,0x13
    80002182:	40bad8b3          	sra	a7,s5,a1
    80002186:	00f9d01b          	srliw	zero,s3,0xf
    8000218a:	02ba75bb          	remuw	a1,s4,a1
    8000218e:	00631033          	sll	zero,t1,t1
    80002192:	85b6                	mv	a1,a3
    80002194:	00ff4cb3          	xor	s9,t5,a5
    80002198:	a07baa93          	slti	s5,s7,-1529
    8000219c:	0083813b          	addw	sp,t2,s0
    800021a0:	717d                	addi	sp,sp,-16
    800021a2:	8c0d                	sub	s0,s0,a1
    800021a4:	39fd                	addiw	s3,s3,-1 # 18fff <_start-0x7ffe7001>
    800021a6:	989a                	add	a7,a7,t1
    800021a8:	415d05b3          	sub	a1,s10,s5
    800021ac:	8be9                	andi	a5,a5,26
    800021ae:	004859bb          	srlw	s3,a6,tp
    800021b2:	80d5                	srli	s1,s1,0x15
    800021b4:	40b8563b          	sraw	a2,a6,a1
    800021b8:	02d7533b          	divuw	t1,a4,a3
    800021bc:	40e60bbb          	subw	s7,a2,a4
    800021c0:	85b6                	mv	a1,a3
    800021c2:	989a                	add	a7,a7,t1
    800021c4:	415d05b3          	sub	a1,s10,s5
    800021c8:	0019b433          	sltu	s0,s3,ra
    800021cc:	02db5fb3          	divu	t6,s6,a3
    800021d0:	80d5                	srli	s1,s1,0x15
    800021d2:	f0ab8c1b          	addiw	s8,s7,-246
    800021d6:	0001                	nop
    800021d8:	0019b433          	sltu	s0,s3,ra
    800021dc:	0001                	nop
    800021de:	39fd                	addiw	s3,s3,-1
    800021e0:	00f9d01b          	srliw	zero,s3,0xf
    800021e4:	d9434f93          	xori	t6,t1,-620
    800021e8:	02efcabb          	divw	s5,t6,a4
    800021ec:	00b8a6b3          	slt	a3,a7,a1
    800021f0:	198c                	addi	a1,sp,240
    800021f2:	d9434f93          	xori	t6,t1,-620
    800021f6:	198c                	addi	a1,sp,240
    800021f8:	0248b933          	mulhu	s2,a7,tp
    800021fc:	989a                	add	a7,a7,t1
    800021fe:	a590fc93          	andi	s9,ra,-1447
    80002202:	03f88abb          	mulw	s5,a7,t6
    80002206:	02b3a6b3          	mulhsu	a3,t2,a1
    8000220a:	80d5                	srli	s1,s1,0x15
    8000220c:	415ad39b          	sraiw	t2,s5,0x15
    80002210:	85b6                	mv	a1,a3
    80002212:	0083813b          	addw	sp,t2,s0
    80002216:	40bad8b3          	sra	a7,s5,a1
    8000221a:	5afd                	li	s5,-1
    8000221c:	567d                	li	a2,-1
    8000221e:	ff4ea437          	lui	s0,0xff4ea
    80002222:	ae54041b          	addiw	s0,s0,-1307 # ffffffffff4e9ae5 <_end+0xffffffff7f4cd15d>
    80002226:	043a                	slli	s0,s0,0xe
    80002228:	c6f40413          	addi	s0,s0,-913
    8000222c:	0432                	slli	s0,s0,0xc
    8000222e:	8b340413          	addi	s0,s0,-1869
    80002232:	0432                	slli	s0,s0,0xc
    80002234:	d7c40413          	addi	s0,s0,-644
    80002238:	4b01                	li	s6,0
    8000223a:	4f81                	li	t6,0
    8000223c:	4101                	li	sp,0
    8000223e:	58fd                	li	a7,-1
    80002240:	ff7cad37          	lui	s10,0xff7ca
    80002244:	30fd0d1b          	addiw	s10,s10,783 # ffffffffff7ca30f <_end+0xffffffff7f7ad987>
    80002248:	0d3e                	slli	s10,s10,0xf
    8000224a:	71dd0d13          	addi	s10,s10,1821
    8000224e:	0d32                	slli	s10,s10,0xc
    80002250:	4f1d0d13          	addi	s10,s10,1265
    80002254:	0d32                	slli	s10,s10,0xc
    80002256:	e6cd0d13          	addi	s10,s10,-404
    8000225a:	0055a7b7          	lui	a5,0x55a
    8000225e:	96d7879b          	addiw	a5,a5,-1683 # 55996d <_start-0x7faa6693>
    80002262:	07b2                	slli	a5,a5,0xc
    80002264:	59f78793          	addi	a5,a5,1439
    80002268:	07b2                	slli	a5,a5,0xc
    8000226a:	e5778793          	addi	a5,a5,-425
    8000226e:	07b6                	slli	a5,a5,0xd
    80002270:	2da78793          	addi	a5,a5,730
    80002274:	4081                	li	ra,0
    80002276:	02188d33          	mul	s10,a7,ra
    8000227a:	0227f0b3          	remu	ra,a5,sp
    8000227e:	02188d33          	mul	s10,a7,ra
    80002282:	02fb2633          	mulhsu	a2,s6,a5
    80002286:	02faeb3b          	remw	s6,s5,a5
    8000228a:	02f13133          	mulhu	sp,sp,a5
    8000228e:	f0ab0b1b          	addiw	s6,s6,-246
    80002292:	03179d33          	mulh	s10,a5,a7
    80002296:	03179d33          	mulh	s10,a5,a7
    8000229a:	60aa9097          	auipc	ra,0x60aa9
    8000229e:	03fad0b3          	divu	ra,s5,t6
    800022a2:	03179d33          	mulh	s10,a5,a7
    800022a6:	0227f0b3          	remu	ra,a5,sp
    800022aa:	02c7dabb          	divuw	s5,a5,a2
    800022ae:	02c7dabb          	divuw	s5,a5,a2
    800022b2:	03a107bb          	mulw	a5,sp,s10
    800022b6:	02fb2633          	mulhsu	a2,s6,a5
    800022ba:	f0ab0b1b          	addiw	s6,s6,-246
    800022be:	02faeb3b          	remw	s6,s5,a5
    800022c2:	02faeb3b          	remw	s6,s5,a5
    800022c6:	02faeb3b          	remw	s6,s5,a5
    800022ca:	02cfc7bb          	divw	a5,t6,a2
    800022ce:	02fb2633          	mulhsu	a2,s6,a5
    800022d2:	60aa9097          	auipc	ra,0x60aa9
    800022d6:	03a7f8bb          	remuw	a7,a5,s10
    800022da:	02f13133          	mulhu	sp,sp,a5
    800022de:	0001                	nop
    800022e0:	63288413          	addi	s0,a7,1586
    800022e4:	0001                	nop
    800022e6:	0001                	nop
    800022e8:	0199989b          	slliw	a7,s3,0x19
    800022ec:	024b6c3b          	remw	s8,s6,tp
    800022f0:	008f68b3          	or	a7,t5,s0
    800022f4:	60aa9017          	auipc	zero,0x60aa9
    800022f8:	a590fc93          	andi	s9,ra,-1447
    800022fc:	03edf033          	remu	zero,s11,t5
    80002300:	a07baa93          	slti	s5,s7,-1529
    80002304:	02db5fb3          	divu	t6,s6,a3
    80002308:	415ad39b          	sraiw	t2,s5,0x15
    8000230c:	147d                	addi	s0,s0,-1
    8000230e:	03edf033          	remu	zero,s11,t5
    80002312:	632d8813          	addi	a6,s11,1586
    80002316:	f0ab8c1b          	addiw	s8,s7,-246
    8000231a:	198c                	addi	a1,sp,240
    8000231c:	9d91                	subw	a1,a1,a2
    8000231e:	004859bb          	srlw	s3,a6,tp
    80002322:	024b6c3b          	remw	s8,s6,tp
    80002326:	00631033          	sll	zero,t1,t1
    8000232a:	035d4eb3          	div	t4,s10,s5
    8000232e:	03f88abb          	mulw	s5,a7,t6
    80002332:	40bad8b3          	sra	a7,s5,a1
    80002336:	198c                	addi	a1,sp,240
    80002338:	0248b933          	mulhu	s2,a7,tp
    8000233c:	00f9d01b          	srliw	zero,s3,0xf
    80002340:	02d7533b          	divuw	t1,a4,a3
    80002344:	0001                	nop
    80002346:	d9434f93          	xori	t6,t1,-620
    8000234a:	008f68b3          	or	a7,t5,s0
    8000234e:	8c0d                	sub	s0,s0,a1
    80002350:	40bad8b3          	sra	a7,s5,a1
    80002354:	0083813b          	addw	sp,t2,s0
    80002358:	a590fc93          	andi	s9,ra,-1447
    8000235c:	02b3a6b3          	mulhsu	a3,t2,a1
    80002360:	03edf033          	remu	zero,s11,t5
    80002364:	9ca9                	addw	s1,s1,a0
    80002366:	8c21                	xor	s0,s0,s0
    80002368:	415ad39b          	sraiw	t2,s5,0x15
    8000236c:	a07baa93          	slti	s5,s7,-1529
    80002370:	0248b933          	mulhu	s2,a7,tp
    80002374:	f0ab8c1b          	addiw	s8,s7,-246
    80002378:	00f9d01b          	srliw	zero,s3,0xf
    8000237c:	85b6                	mv	a1,a3
    8000237e:	0199989b          	slliw	a7,s3,0x19
    80002382:	85b6                	mv	a1,a3
    80002384:	02b3a6b3          	mulhsu	a3,t2,a1
    80002388:	01165993          	srli	s3,a2,0x11
    8000238c:	4fbd                	li	t6,15
    8000238e:	8be9                	andi	a5,a5,26
    80002390:	8be9                	andi	a5,a5,26
    80002392:	4fbd                	li	t6,15
    80002394:	0001                	nop
    80002396:	415d05b3          	sub	a1,s10,s5
    8000239a:	415d05b3          	sub	a1,s10,s5
    8000239e:	916c6113          	ori	sp,s8,-1770
    800023a2:	8c0d                	sub	s0,s0,a1
    800023a4:	02db5fb3          	divu	t6,s6,a3
    800023a8:	415d05b3          	sub	a1,s10,s5
    800023ac:	8be9                	andi	a5,a5,26
    800023ae:	03edf033          	remu	zero,s11,t5
    800023b2:	8d6d                	and	a0,a0,a1
    800023b4:	02028433          	mul	s0,t0,zero
    800023b8:	0001                	nop
    800023ba:	a07baa93          	slti	s5,s7,-1529
    800023be:	00ff4cb3          	xor	s9,t5,a5
    800023c2:	147d                	addi	s0,s0,-1
    800023c4:	4fbd                	li	t6,15
    800023c6:	00ff4cb3          	xor	s9,t5,a5
    800023ca:	85b6                	mv	a1,a3
    800023cc:	02ba75bb          	remuw	a1,s4,a1
    800023d0:	198c                	addi	a1,sp,240
    800023d2:	00ff4cb3          	xor	s9,t5,a5
    800023d6:	0083813b          	addw	sp,t2,s0
    800023da:	02b3a6b3          	mulhsu	a3,t2,a1
    800023de:	632d8813          	addi	a6,s11,1586
    800023e2:	8d6d                	and	a0,a0,a1
    800023e4:	717d                	addi	sp,sp,-16
    800023e6:	a07baa93          	slti	s5,s7,-1529
    800023ea:	147d                	addi	s0,s0,-1
    800023ec:	00e110bb          	sllw	ra,sp,a4
    800023f0:	717d                	addi	sp,sp,-16
    800023f2:	02db5fb3          	divu	t6,s6,a3
    800023f6:	60aa9017          	auipc	zero,0x60aa9
    800023fa:	9d91                	subw	a1,a1,a2
    800023fc:	0248b933          	mulhu	s2,a7,tp
    80002400:	717d                	addi	sp,sp,-16
    80002402:	415ad39b          	sraiw	t2,s5,0x15
    80002406:	03259313          	slli	t1,a1,0x32
    8000240a:	01165993          	srli	s3,a2,0x11
    8000240e:	a590fc93          	andi	s9,ra,-1447
    80002412:	01165993          	srli	s3,a2,0x11
    80002416:	03edf033          	remu	zero,s11,t5
    8000241a:	0019b433          	sltu	s0,s3,ra
    8000241e:	0199989b          	slliw	a7,s3,0x19
    80002422:	9d91                	subw	a1,a1,a2
    80002424:	03259313          	slli	t1,a1,0x32
    80002428:	69e5                	lui	s3,0x19
    8000242a:	415d05b3          	sub	a1,s10,s5
    8000242e:	0c4e                	slli	s8,s8,0x13
    80002430:	39fd                	addiw	s3,s3,-1 # 18fff <_start-0x7ffe7001>
    80002432:	8dbe3f13          	sltiu	t5,t3,-1829
    80002436:	8c0d                	sub	s0,s0,a1
    80002438:	008f68b3          	or	a7,t5,s0
    8000243c:	0001                	nop
    8000243e:	40e60bbb          	subw	s7,a2,a4
    80002442:	40b8563b          	sraw	a2,a6,a1
    80002446:	7b9a5fb7          	lui	t6,0x7b9a5
    8000244a:	9d91                	subw	a1,a1,a2
    8000244c:	0199989b          	slliw	a7,s3,0x19
    80002450:	03a3e833          	rem	a6,t2,s10
    80002454:	989a                	add	a7,a7,t1
    80002456:	d9434f93          	xori	t6,t1,-620
    8000245a:	916c6113          	ori	sp,s8,-1770
    8000245e:	0001                	nop
    80002460:	03259313          	slli	t1,a1,0x32
    80002464:	01235933          	srl	s2,t1,s2
    80002468:	69e5                	lui	s3,0x19
    8000246a:	d9434f93          	xori	t6,t1,-620
    8000246e:	02b3a6b3          	mulhsu	a3,t2,a1
    80002472:	43b3d413          	srai	s0,t2,0x3b
    80002476:	00631033          	sll	zero,t1,t1
    8000247a:	0248b933          	mulhu	s2,a7,tp
    8000247e:	632d8813          	addi	a6,s11,1586
    80002482:	00f9d01b          	srliw	zero,s3,0xf
    80002486:	8d6d                	and	a0,a0,a1
    80002488:	02ba75bb          	remuw	a1,s4,a1
    8000248c:	147d                	addi	s0,s0,-1
    8000248e:	00ff4cb3          	xor	s9,t5,a5
    80002492:	01235933          	srl	s2,t1,s2
    80002496:	147d                	addi	s0,s0,-1
    80002498:	4fbd                	li	t6,15
    8000249a:	989a                	add	a7,a7,t1
    8000249c:	0001                	nop
    8000249e:	147d                	addi	s0,s0,-1
    800024a0:	415d05b3          	sub	a1,s10,s5
    800024a4:	0019b433          	sltu	s0,s3,ra
    800024a8:	8c0d                	sub	s0,s0,a1
    800024aa:	02028433          	mul	s0,t0,zero
    800024ae:	02db5fb3          	divu	t6,s6,a3
    800024b2:	39fd                	addiw	s3,s3,-1 # 18fff <_start-0x7ffe7001>
    800024b4:	7b9a5fb7          	lui	t6,0x7b9a5
    800024b8:	02db5fb3          	divu	t6,s6,a3
    800024bc:	02db5fb3          	divu	t6,s6,a3
    800024c0:	989a                	add	a7,a7,t1
    800024c2:	916c6113          	ori	sp,s8,-1770
    800024c6:	01165993          	srli	s3,a2,0x11
    800024ca:	024b6c3b          	remw	s8,s6,tp
    800024ce:	40b8563b          	sraw	a2,a6,a1
    800024d2:	0083813b          	addw	sp,t2,s0
    800024d6:	02db5fb3          	divu	t6,s6,a3
    800024da:	8dbe3f13          	sltiu	t5,t3,-1829
    800024de:	69e5                	lui	s3,0x19
    800024e0:	717d                	addi	sp,sp,-16
    800024e2:	01165993          	srli	s3,a2,0x11
    800024e6:	a07baa93          	slti	s5,s7,-1529
    800024ea:	02b3a6b3          	mulhsu	a3,t2,a1
    800024ee:	632d8813          	addi	a6,s11,1586
    800024f2:	40e60bbb          	subw	s7,a2,a4
    800024f6:	00ff4cb3          	xor	s9,t5,a5
    800024fa:	632d8813          	addi	a6,s11,1586
    800024fe:	03edf033          	remu	zero,s11,t5
    80002502:	004859bb          	srlw	s3,a6,tp
    80002506:	00631033          	sll	zero,t1,t1
    8000250a:	0199989b          	slliw	a7,s3,0x19
    8000250e:	40e60bbb          	subw	s7,a2,a4
    80002512:	8be9                	andi	a5,a5,26
    80002514:	d9434f93          	xori	t6,t1,-620
    80002518:	717d                	addi	sp,sp,-16
    8000251a:	004859bb          	srlw	s3,a6,tp
    8000251e:	415d05b3          	sub	a1,s10,s5
    80002522:	02028433          	mul	s0,t0,zero
    80002526:	02521cb3          	mulh	s9,tp,t0
    8000252a:	8dbe3f13          	sltiu	t5,t3,-1829
    8000252e:	415ad39b          	sraiw	t2,s5,0x15
    80002532:	0199989b          	slliw	a7,s3,0x19
    80002536:	0001                	nop
    80002538:	8d6d                	and	a0,a0,a1
    8000253a:	8dbe3f13          	sltiu	t5,t3,-1829
    8000253e:	00b8a6b3          	slt	a3,a7,a1
    80002542:	8be9                	andi	a5,a5,26
    80002544:	8c0d                	sub	s0,s0,a1
    80002546:	43b3d413          	srai	s0,t2,0x3b
    8000254a:	0248b933          	mulhu	s2,a7,tp
    8000254e:	0001                	nop
    80002550:	9ca9                	addw	s1,s1,a0
    80002552:	415ad39b          	sraiw	t2,s5,0x15
    80002556:	0248b933          	mulhu	s2,a7,tp
    8000255a:	415d05b3          	sub	a1,s10,s5
    8000255e:	03259313          	slli	t1,a1,0x32
    80002562:	008f68b3          	or	a7,t5,s0
    80002566:	916c6113          	ori	sp,s8,-1770
    8000256a:	415d05b3          	sub	a1,s10,s5
    8000256e:	0001                	nop
    80002570:	632d8813          	addi	a6,s11,1586
    80002574:	02efcabb          	divw	s5,t6,a4
    80002578:	632d8813          	addi	a6,s11,1586
    8000257c:	00631033          	sll	zero,t1,t1
    80002580:	02efcabb          	divw	s5,t6,a4
    80002584:	8c0d                	sub	s0,s0,a1
    80002586:	8d6d                	and	a0,a0,a1
    80002588:	0001                	nop
    8000258a:	69e5                	lui	s3,0x19
    8000258c:	00631033          	sll	zero,t1,t1
    80002590:	02b3a6b3          	mulhsu	a3,t2,a1
    80002594:	0081feb3          	and	t4,gp,s0
    80002598:	0001                	nop
    8000259a:	60aa9017          	auipc	zero,0x60aa9
    8000259e:	0083813b          	addw	sp,t2,s0
    800025a2:	02d7533b          	divuw	t1,a4,a3
    800025a6:	916c6113          	ori	sp,s8,-1770
    800025aa:	0083813b          	addw	sp,t2,s0
    800025ae:	0c4e                	slli	s8,s8,0x13
    800025b0:	8c0d                	sub	s0,s0,a1
    800025b2:	69e5                	lui	s3,0x19
    800025b4:	40e60bbb          	subw	s7,a2,a4
    800025b8:	00f9d01b          	srliw	zero,s3,0xf
    800025bc:	9d91                	subw	a1,a1,a2
    800025be:	02ba75bb          	remuw	a1,s4,a1
    800025c2:	40b8563b          	sraw	a2,a6,a1
    800025c6:	008f68b3          	or	a7,t5,s0
    800025ca:	00ff4cb3          	xor	s9,t5,a5
    800025ce:	d9434f93          	xori	t6,t1,-620
    800025d2:	69e5                	lui	s3,0x19
    800025d4:	989a                	add	a7,a7,t1
    800025d6:	02d7533b          	divuw	t1,a4,a3
    800025da:	0c4e                	slli	s8,s8,0x13
    800025dc:	43b3d413          	srai	s0,t2,0x3b
    800025e0:	7b9a5fb7          	lui	t6,0x7b9a5
    800025e4:	8d6d                	and	a0,a0,a1
    800025e6:	00e110bb          	sllw	ra,sp,a4
    800025ea:	a590fc93          	andi	s9,ra,-1447
    800025ee:	60aa9017          	auipc	zero,0x60aa9
    800025f2:	0c4e                	slli	s8,s8,0x13
    800025f4:	03edf033          	remu	zero,s11,t5
    800025f8:	0001                	nop
    800025fa:	717d                	addi	sp,sp,-16
    800025fc:	69e5                	lui	s3,0x19
    800025fe:	415d05b3          	sub	a1,s10,s5
    80002602:	02d7533b          	divuw	t1,a4,a3
    80002606:	40bad8b3          	sra	a7,s5,a1
    8000260a:	02028433          	mul	s0,t0,zero
    8000260e:	00e110bb          	sllw	ra,sp,a4
    80002612:	39fd                	addiw	s3,s3,-1 # 18fff <_start-0x7ffe7001>
    80002614:	00e78bb3          	add	s7,a5,a4
    80002618:	40bad8b3          	sra	a7,s5,a1
    8000261c:	198c                	addi	a1,sp,240
    8000261e:	00f9d01b          	srliw	zero,s3,0xf
    80002622:	8dbe3f13          	sltiu	t5,t3,-1829
    80002626:	008f68b3          	or	a7,t5,s0
    8000262a:	85b6                	mv	a1,a3
    8000262c:	60aa9017          	auipc	zero,0x60aa9
    80002630:	00e110bb          	sllw	ra,sp,a4
    80002634:	0199989b          	slliw	a7,s3,0x19
    80002638:	989a                	add	a7,a7,t1
    8000263a:	40b8563b          	sraw	a2,a6,a1
    8000263e:	01235933          	srl	s2,t1,s2
    80002642:	02db5fb3          	divu	t6,s6,a3
    80002646:	0019b433          	sltu	s0,s3,ra
    8000264a:	02efcabb          	divw	s5,t6,a4
    8000264e:	0001                	nop
    80002650:	147d                	addi	s0,s0,-1
    80002652:	01165993          	srli	s3,a2,0x11
    80002656:	8c21                	xor	s0,s0,s0
    80002658:	01235933          	srl	s2,t1,s2
    8000265c:	717d                	addi	sp,sp,-16
    8000265e:	024b6c3b          	remw	s8,s6,tp
    80002662:	03edf033          	remu	zero,s11,t5
    80002666:	60aa9017          	auipc	zero,0x60aa9
    8000266a:	60aa9017          	auipc	zero,0x60aa9
    8000266e:	0248b933          	mulhu	s2,a7,tp
    80002672:	02521cb3          	mulh	s9,tp,t0
    80002676:	86cd                	srai	a3,a3,0x13
    80002678:	035d4eb3          	div	t4,s10,s5
    8000267c:	0081feb3          	and	t4,gp,s0
    80002680:	415ad39b          	sraiw	t2,s5,0x15
    80002684:	8d6d                	and	a0,a0,a1
    80002686:	02ba75bb          	remuw	a1,s4,a1
    8000268a:	024b6c3b          	remw	s8,s6,tp
    8000268e:	85b6                	mv	a1,a3
    80002690:	0248b933          	mulhu	s2,a7,tp
    80002694:	86cd                	srai	a3,a3,0x13
    80002696:	39fd                	addiw	s3,s3,-1
    80002698:	a07baa93          	slti	s5,s7,-1529
    8000269c:	9d91                	subw	a1,a1,a2
    8000269e:	00ff4cb3          	xor	s9,t5,a5
    800026a2:	916c6113          	ori	sp,s8,-1770
    800026a6:	0001                	nop
    800026a8:	004859bb          	srlw	s3,a6,tp
    800026ac:	4fbd                	li	t6,15
    800026ae:	01165993          	srli	s3,a2,0x11
    800026b2:	60aa9017          	auipc	zero,0x60aa9
    800026b6:	69e5                	lui	s3,0x19
    800026b8:	147d                	addi	s0,s0,-1
    800026ba:	f0ab8c1b          	addiw	s8,s7,-246
    800026be:	415ad39b          	sraiw	t2,s5,0x15
    800026c2:	198c                	addi	a1,sp,240
    800026c4:	02efcabb          	divw	s5,t6,a4
    800026c8:	989a                	add	a7,a7,t1
    800026ca:	0081feb3          	and	t4,gp,s0
    800026ce:	69e5                	lui	s3,0x19
    800026d0:	03a3e833          	rem	a6,t2,s10
    800026d4:	8d6d                	and	a0,a0,a1
    800026d6:	916c6113          	ori	sp,s8,-1770
    800026da:	8be9                	andi	a5,a5,26
    800026dc:	02db5fb3          	divu	t6,s6,a3
    800026e0:	43b3d413          	srai	s0,t2,0x3b
    800026e4:	0001                	nop
    800026e6:	02b3a6b3          	mulhsu	a3,t2,a1
    800026ea:	02028433          	mul	s0,t0,zero
    800026ee:	39fd                	addiw	s3,s3,-1 # 18fff <_start-0x7ffe7001>
    800026f0:	02521cb3          	mulh	s9,tp,t0
    800026f4:	9d91                	subw	a1,a1,a2
    800026f6:	02b3a6b3          	mulhsu	a3,t2,a1
    800026fa:	7b9a5fb7          	lui	t6,0x7b9a5
    800026fe:	8be9                	andi	a5,a5,26
    80002700:	8c0d                	sub	s0,s0,a1
    80002702:	0083813b          	addw	sp,t2,s0
    80002706:	0083813b          	addw	sp,t2,s0
    8000270a:	8d6d                	and	a0,a0,a1
    8000270c:	198c                	addi	a1,sp,240
    8000270e:	43b3d413          	srai	s0,t2,0x3b
    80002712:	01235933          	srl	s2,t1,s2
    80002716:	40b8563b          	sraw	a2,a6,a1
    8000271a:	008f68b3          	or	a7,t5,s0
    8000271e:	8ddd                	or	a1,a1,a5
    80002720:	02d7533b          	divuw	t1,a4,a3
    80002724:	0083813b          	addw	sp,t2,s0
    80002728:	02ba75bb          	remuw	a1,s4,a1
    8000272c:	d9434f93          	xori	t6,t1,-620
    80002730:	0081feb3          	and	t4,gp,s0
    80002734:	00ff4cb3          	xor	s9,t5,a5
    80002738:	989a                	add	a7,a7,t1
    8000273a:	a07baa93          	slti	s5,s7,-1529
    8000273e:	8ddd                	or	a1,a1,a5
    80002740:	004859bb          	srlw	s3,a6,tp
    80002744:	69e5                	lui	s3,0x19
    80002746:	43b3d413          	srai	s0,t2,0x3b
    8000274a:	f0ab8c1b          	addiw	s8,s7,-246
    8000274e:	0001                	nop
    80002750:	717d                	addi	sp,sp,-16
    80002752:	02efcabb          	divw	s5,t6,a4
    80002756:	03a3e833          	rem	a6,t2,s10
    8000275a:	0199989b          	slliw	a7,s3,0x19
    8000275e:	0c4e                	slli	s8,s8,0x13
    80002760:	02521cb3          	mulh	s9,tp,t0
    80002764:	85b6                	mv	a1,a3
    80002766:	8be9                	andi	a5,a5,26
    80002768:	0199989b          	slliw	a7,s3,0x19
    8000276c:	415d05b3          	sub	a1,s10,s5
    80002770:	02efcabb          	divw	s5,t6,a4
    80002774:	39fd                	addiw	s3,s3,-1 # 18fff <_start-0x7ffe7001>
    80002776:	008f68b3          	or	a7,t5,s0
    8000277a:	85b6                	mv	a1,a3
    8000277c:	f0ab8c1b          	addiw	s8,s7,-246
    80002780:	00e78bb3          	add	s7,a5,a4
    80002784:	03a3e833          	rem	a6,t2,s10
    80002788:	415ad39b          	sraiw	t2,s5,0x15
    8000278c:	40bad8b3          	sra	a7,s5,a1
    80002790:	00631033          	sll	zero,t1,t1
    80002794:	85b6                	mv	a1,a3
    80002796:	69e5                	lui	s3,0x19
    80002798:	00e110bb          	sllw	ra,sp,a4
    8000279c:	0081feb3          	and	t4,gp,s0
    800027a0:	00b8a6b3          	slt	a3,a7,a1
    800027a4:	86cd                	srai	a3,a3,0x13
    800027a6:	008f68b3          	or	a7,t5,s0
    800027aa:	415d05b3          	sub	a1,s10,s5
    800027ae:	60aa9017          	auipc	zero,0x60aa9
    800027b2:	415d05b3          	sub	a1,s10,s5
    800027b6:	00f9d01b          	srliw	zero,s3,0xf
    800027ba:	a07baa93          	slti	s5,s7,-1529
    800027be:	60aa9017          	auipc	zero,0x60aa9
    800027c2:	40e60bbb          	subw	s7,a2,a4
    800027c6:	916c6113          	ori	sp,s8,-1770
    800027ca:	85b6                	mv	a1,a3
    800027cc:	632d8813          	addi	a6,s11,1586
    800027d0:	a590fc93          	andi	s9,ra,-1447
    800027d4:	024b6c3b          	remw	s8,s6,tp
    800027d8:	4fbd                	li	t6,15
    800027da:	0019b433          	sltu	s0,s3,ra
    800027de:	d9434f93          	xori	t6,t1,-620
    800027e2:	40e60bbb          	subw	s7,a2,a4
    800027e6:	02db5fb3          	divu	t6,s6,a3
    800027ea:	80d5                	srli	s1,s1,0x15
    800027ec:	717d                	addi	sp,sp,-16
    800027ee:	8dbe3f13          	sltiu	t5,t3,-1829
    800027f2:	03edf033          	remu	zero,s11,t5
    800027f6:	8dbe3f13          	sltiu	t5,t3,-1829
    800027fa:	03f88abb          	mulw	s5,a7,t6
    800027fe:	8be9                	andi	a5,a5,26
    80002800:	02028433          	mul	s0,t0,zero
    80002804:	02db5fb3          	divu	t6,s6,a3
    80002808:	9d91                	subw	a1,a1,a2
    8000280a:	03edf033          	remu	zero,s11,t5
    8000280e:	632d8813          	addi	a6,s11,1586
    80002812:	7b9a5fb7          	lui	t6,0x7b9a5
    80002816:	39fd                	addiw	s3,s3,-1 # 18fff <_start-0x7ffe7001>
    80002818:	86cd                	srai	a3,a3,0x13
    8000281a:	8c0d                	sub	s0,s0,a1
    8000281c:	00f9d01b          	srliw	zero,s3,0xf
    80002820:	8c0d                	sub	s0,s0,a1
    80002822:	8c21                	xor	s0,s0,s0
    80002824:	415d05b3          	sub	a1,s10,s5
    80002828:	40bad8b3          	sra	a7,s5,a1
    8000282c:	7b9a5fb7          	lui	t6,0x7b9a5
    80002830:	02ba75bb          	remuw	a1,s4,a1
    80002834:	989a                	add	a7,a7,t1
    80002836:	03f88abb          	mulw	s5,a7,t6
    8000283a:	0001                	nop
    8000283c:	00631033          	sll	zero,t1,t1
    80002840:	147d                	addi	s0,s0,-1
    80002842:	60aa9017          	auipc	zero,0x60aa9
    80002846:	004859bb          	srlw	s3,a6,tp
    8000284a:	02028433          	mul	s0,t0,zero
    8000284e:	01235933          	srl	s2,t1,s2
    80002852:	02db5fb3          	divu	t6,s6,a3
    80002856:	02efcabb          	divw	s5,t6,a4
    8000285a:	00f9d01b          	srliw	zero,s3,0xf
    8000285e:	147d                	addi	s0,s0,-1
    80002860:	004859bb          	srlw	s3,a6,tp
    80002864:	916c6113          	ori	sp,s8,-1770
    80002868:	035d4eb3          	div	t4,s10,s5
    8000286c:	86cd                	srai	a3,a3,0x13
    8000286e:	03259313          	slli	t1,a1,0x32
    80002872:	7b9a5fb7          	lui	t6,0x7b9a5
    80002876:	024b6c3b          	remw	s8,s6,tp
    8000287a:	024b6c3b          	remw	s8,s6,tp
    8000287e:	a07baa93          	slti	s5,s7,-1529
    80002882:	198c                	addi	a1,sp,240
    80002884:	02521cb3          	mulh	s9,tp,t0
    80002888:	0019b433          	sltu	s0,s3,ra
    8000288c:	717d                	addi	sp,sp,-16
    8000288e:	8c0d                	sub	s0,s0,a1
    80002890:	00631033          	sll	zero,t1,t1
    80002894:	00ff4cb3          	xor	s9,t5,a5
    80002898:	03edf033          	remu	zero,s11,t5
    8000289c:	01165993          	srli	s3,a2,0x11
    800028a0:	02521cb3          	mulh	s9,tp,t0
    800028a4:	00e78bb3          	add	s7,a5,a4
    800028a8:	0199989b          	slliw	a7,s3,0x19
    800028ac:	02521cb3          	mulh	s9,tp,t0
    800028b0:	a07baa93          	slti	s5,s7,-1529
    800028b4:	02b3a6b3          	mulhsu	a3,t2,a1
    800028b8:	02ba75bb          	remuw	a1,s4,a1
    800028bc:	989a                	add	a7,a7,t1
    800028be:	03f88abb          	mulw	s5,a7,t6
    800028c2:	01235933          	srl	s2,t1,s2
    800028c6:	0083813b          	addw	sp,t2,s0
    800028ca:	198c                	addi	a1,sp,240
    800028cc:	198c                	addi	a1,sp,240
    800028ce:	60aa9017          	auipc	zero,0x60aa9
    800028d2:	86cd                	srai	a3,a3,0x13
    800028d4:	8ddd                	or	a1,a1,a5
    800028d6:	0001                	nop
    800028d8:	00b8a6b3          	slt	a3,a7,a1
    800028dc:	0001                	nop
    800028de:	415ad39b          	sraiw	t2,s5,0x15
    800028e2:	02db5fb3          	divu	t6,s6,a3
    800028e6:	4fbd                	li	t6,15
    800028e8:	d9434f93          	xori	t6,t1,-620
    800028ec:	0c4e                	slli	s8,s8,0x13
    800028ee:	415d05b3          	sub	a1,s10,s5
    800028f2:	8c0d                	sub	s0,s0,a1
    800028f4:	9d91                	subw	a1,a1,a2
    800028f6:	0019b433          	sltu	s0,s3,ra
    800028fa:	00ff4cb3          	xor	s9,t5,a5
    800028fe:	989a                	add	a7,a7,t1
    80002900:	d9434f93          	xori	t6,t1,-620
    80002904:	0019b433          	sltu	s0,s3,ra
    80002908:	8d6d                	and	a0,a0,a1
    8000290a:	00ff4cb3          	xor	s9,t5,a5
    8000290e:	147d                	addi	s0,s0,-1
    80002910:	8c21                	xor	s0,s0,s0
    80002912:	02efcabb          	divw	s5,t6,a4
    80002916:	40b8563b          	sraw	a2,a6,a1
    8000291a:	a590fc93          	andi	s9,ra,-1447
    8000291e:	02ba75bb          	remuw	a1,s4,a1
    80002922:	8d6d                	and	a0,a0,a1
    80002924:	8c21                	xor	s0,s0,s0
    80002926:	02ba75bb          	remuw	a1,s4,a1
    8000292a:	8c21                	xor	s0,s0,s0
    8000292c:	0001                	nop
    8000292e:	39fd                	addiw	s3,s3,-1
    80002930:	8be9                	andi	a5,a5,26
    80002932:	415d05b3          	sub	a1,s10,s5
    80002936:	8be9                	andi	a5,a5,26
    80002938:	69e5                	lui	s3,0x19
    8000293a:	03f88abb          	mulw	s5,a7,t6
    8000293e:	024b6c3b          	remw	s8,s6,tp
    80002942:	a590fc93          	andi	s9,ra,-1447
    80002946:	024b6c3b          	remw	s8,s6,tp
    8000294a:	03a3e833          	rem	a6,t2,s10
    8000294e:	7b9a5fb7          	lui	t6,0x7b9a5
    80002952:	9d91                	subw	a1,a1,a2
    80002954:	02521cb3          	mulh	s9,tp,t0
    80002958:	03259313          	slli	t1,a1,0x32
    8000295c:	86cd                	srai	a3,a3,0x13
    8000295e:	02efcabb          	divw	s5,t6,a4
    80002962:	40b8563b          	sraw	a2,a6,a1
    80002966:	717d                	addi	sp,sp,-16
    80002968:	85b6                	mv	a1,a3
    8000296a:	03f88abb          	mulw	s5,a7,t6
    8000296e:	00ff4cb3          	xor	s9,t5,a5
    80002972:	147d                	addi	s0,s0,-1
    80002974:	85b6                	mv	a1,a3
    80002976:	00b8a6b3          	slt	a3,a7,a1
    8000297a:	01235933          	srl	s2,t1,s2
    8000297e:	69e5                	lui	s3,0x19
    80002980:	80d5                	srli	s1,s1,0x15
    80002982:	4881                	li	a7,0
    80002984:	4f01                	li	t5,0
    80002986:	4481                	li	s1,0
    80002988:	597d                	li	s2,-1
    8000298a:	55fd                	li	a1,-1
    8000298c:	4201                	li	tp,0
    8000298e:	5efd                	li	t4,-1
    80002990:	00afe6b7          	lui	a3,0xafe
    80002994:	cd56869b          	addiw	a3,a3,-811 # afdcd5 <_start-0x7f50232b>
    80002998:	06b6                	slli	a3,a3,0xd
    8000299a:	a7d68693          	addi	a3,a3,-1411
    8000299e:	06b6                	slli	a3,a3,0xd
    800029a0:	76b68693          	addi	a3,a3,1899
    800029a4:	06b2                	slli	a3,a3,0xc
    800029a6:	1e468693          	addi	a3,a3,484
    800029aa:	53fd                	li	t2,-1
    800029ac:	fff0011b          	addiw	sp,zero,-1
    800029b0:	117e                	slli	sp,sp,0x3f
    800029b2:	03d5f6bb          	remuw	a3,a1,t4
    800029b6:	02d6c3b3          	div	t2,a3,a3
    800029ba:	40d106b3          	sub	a3,sp,a3
    800029be:	0001                	nop
    800029c0:	0245f133          	remu	sp,a1,tp
    800029c4:	02796f33          	rem	t5,s2,t2
    800029c8:	41e488bb          	subw	a7,s1,t5
    800029cc:	02796f33          	rem	t5,s2,t2
    800029d0:	002f08b3          	add	a7,t5,sp
    800029d4:	02268eb3          	mul	t4,a3,sp
    800029d8:	02d6c3b3          	div	t2,a3,a3
    800029dc:	01d903bb          	addw	t2,s2,t4
    800029e0:	02d59eb3          	mulh	t4,a1,a3
    800029e4:	02d59eb3          	mulh	t4,a1,a3
    800029e8:	03d5f6bb          	remuw	a3,a1,t4
    800029ec:	63268393          	addi	t2,a3,1586
    800029f0:	02b924b3          	mulhsu	s1,s2,a1
    800029f4:	03e8d133          	divu	sp,a7,t5
    800029f8:	0001                	nop
    800029fa:	0001                	nop
    800029fc:	02268eb3          	mul	t4,a3,sp
    80002a00:	02268eb3          	mul	t4,a3,sp
    80002a04:	40d106b3          	sub	a3,sp,a3
    80002a08:	01d903bb          	addw	t2,s2,t4
    80002a0c:	02b8e93b          	remw	s2,a7,a1
    80002a10:	0001                	nop
    80002a12:	02d6c3b3          	div	t2,a3,a3
    80002a16:	02b23233          	mulhu	tp,tp,a1
    80002a1a:	00e78bb3          	add	s7,a5,a4
    80002a1e:	415d05b3          	sub	a1,s10,s5
    80002a22:	02efcabb          	divw	s5,t6,a4
    80002a26:	989a                	add	a7,a7,t1
    80002a28:	8c0d                	sub	s0,s0,a1
    80002a2a:	8ddd                	or	a1,a1,a5
    80002a2c:	024b6c3b          	remw	s8,s6,tp
    80002a30:	f0ab8c1b          	addiw	s8,s7,-246
    80002a34:	02b3a6b3          	mulhsu	a3,t2,a1
    80002a38:	40bad8b3          	sra	a7,s5,a1
    80002a3c:	40bad8b3          	sra	a7,s5,a1
    80002a40:	00e78bb3          	add	s7,a5,a4
    80002a44:	0083813b          	addw	sp,t2,s0
    80002a48:	02db5fb3          	divu	t6,s6,a3
    80002a4c:	00e110bb          	sllw	ra,sp,a4
    80002a50:	0001                	nop
    80002a52:	02db5fb3          	divu	t6,s6,a3
    80002a56:	80d5                	srli	s1,s1,0x15
    80002a58:	00631033          	sll	zero,t1,t1
    80002a5c:	40bad8b3          	sra	a7,s5,a1
    80002a60:	02b3a6b3          	mulhsu	a3,t2,a1
    80002a64:	02d7533b          	divuw	t1,a4,a3
    80002a68:	632d8813          	addi	a6,s11,1586
    80002a6c:	01165993          	srli	s3,a2,0x11
    80002a70:	024b6c3b          	remw	s8,s6,tp
    80002a74:	a07baa93          	slti	s5,s7,-1529
    80002a78:	85b6                	mv	a1,a3
    80002a7a:	02028433          	mul	s0,t0,zero
    80002a7e:	03f88abb          	mulw	s5,a7,t6
    80002a82:	8c21                	xor	s0,s0,s0
    80002a84:	0001                	nop
    80002a86:	40bad8b3          	sra	a7,s5,a1
    80002a8a:	008f68b3          	or	a7,t5,s0
    80002a8e:	0c4e                	slli	s8,s8,0x13
    80002a90:	00ff4cb3          	xor	s9,t5,a5
    80002a94:	02d7533b          	divuw	t1,a4,a3
    80002a98:	85b6                	mv	a1,a3
    80002a9a:	9ca9                	addw	s1,s1,a0
    80002a9c:	69e5                	lui	s3,0x19
    80002a9e:	01165993          	srli	s3,a2,0x11
    80002aa2:	00b8a6b3          	slt	a3,a7,a1
    80002aa6:	717d                	addi	sp,sp,-16
    80002aa8:	60aa9017          	auipc	zero,0x60aa9
    80002aac:	9ca9                	addw	s1,s1,a0
    80002aae:	02521cb3          	mulh	s9,tp,t0
    80002ab2:	4fbd                	li	t6,15
    80002ab4:	7b9a5fb7          	lui	t6,0x7b9a5
    80002ab8:	8c0d                	sub	s0,s0,a1
    80002aba:	00b8a6b3          	slt	a3,a7,a1
    80002abe:	40e60bbb          	subw	s7,a2,a4
    80002ac2:	39fd                	addiw	s3,s3,-1 # 18fff <_start-0x7ffe7001>
    80002ac4:	03259313          	slli	t1,a1,0x32
    80002ac8:	0c4e                	slli	s8,s8,0x13
    80002aca:	69e5                	lui	s3,0x19
    80002acc:	147d                	addi	s0,s0,-1
    80002ace:	d9434f93          	xori	t6,t1,-620
    80002ad2:	80d5                	srli	s1,s1,0x15
    80002ad4:	86cd                	srai	a3,a3,0x13
    80002ad6:	8be9                	andi	a5,a5,26
    80002ad8:	7b9a5fb7          	lui	t6,0x7b9a5
    80002adc:	9d91                	subw	a1,a1,a2
    80002ade:	632d8813          	addi	a6,s11,1586
    80002ae2:	02028433          	mul	s0,t0,zero
    80002ae6:	02028433          	mul	s0,t0,zero
    80002aea:	00f9d01b          	srliw	zero,s3,0xf
    80002aee:	39fd                	addiw	s3,s3,-1 # 18fff <_start-0x7ffe7001>
    80002af0:	02d7533b          	divuw	t1,a4,a3
    80002af4:	198c                	addi	a1,sp,240
    80002af6:	02ba75bb          	remuw	a1,s4,a1
    80002afa:	0001                	nop
    80002afc:	0081feb3          	and	t4,gp,s0
    80002b00:	8dbe3f13          	sltiu	t5,t3,-1829
    80002b04:	4fbd                	li	t6,15
    80002b06:	02b3a6b3          	mulhsu	a3,t2,a1
    80002b0a:	916c6113          	ori	sp,s8,-1770
    80002b0e:	9d91                	subw	a1,a1,a2
    80002b10:	024b6c3b          	remw	s8,s6,tp
    80002b14:	02b3a6b3          	mulhsu	a3,t2,a1
    80002b18:	4fbd                	li	t6,15
    80002b1a:	69e5                	lui	s3,0x19
    80002b1c:	147d                	addi	s0,s0,-1
    80002b1e:	03a3e833          	rem	a6,t2,s10
    80002b22:	415d05b3          	sub	a1,s10,s5
    80002b26:	d9434f93          	xori	t6,t1,-620
    80002b2a:	0199989b          	slliw	a7,s3,0x19
    80002b2e:	8dbe3f13          	sltiu	t5,t3,-1829
    80002b32:	f0ab8c1b          	addiw	s8,s7,-246
    80002b36:	40e60bbb          	subw	s7,a2,a4
    80002b3a:	69e5                	lui	s3,0x19
    80002b3c:	4fbd                	li	t6,15
    80002b3e:	00e78bb3          	add	s7,a5,a4
    80002b42:	0199989b          	slliw	a7,s3,0x19
    80002b46:	147d                	addi	s0,s0,-1
    80002b48:	415ad39b          	sraiw	t2,s5,0x15
    80002b4c:	fff00f1b          	addiw	t5,zero,-1
    80002b50:	1f7e                	slli	t5,t5,0x3f
    80002b52:	16d769b7          	lui	s3,0x16d76
    80002b56:	7079899b          	addiw	s3,s3,1799 # 16d76707 <_start-0x692898f9>
    80002b5a:	09b2                	slli	s3,s3,0xc
    80002b5c:	d2398993          	addi	s3,s3,-733
    80002b60:	09be                	slli	s3,s3,0xf
    80002b62:	3ac98993          	addi	s3,s3,940
    80002b66:	56fd                	li	a3,-1
    80002b68:	00af4937          	lui	s2,0xaf4
    80002b6c:	0999091b          	addiw	s2,s2,153 # af4099 <_start-0x7f50bf67>
    80002b70:	0936                	slli	s2,s2,0xd
    80002b72:	94590913          	addi	s2,s2,-1723
    80002b76:	0936                	slli	s2,s2,0xd
    80002b78:	67390913          	addi	s2,s2,1651
    80002b7c:	0932                	slli	s2,s2,0xc
    80002b7e:	a7e90913          	addi	s2,s2,-1410
    80002b82:	4c81                	li	s9,0
    80002b84:	fff00c1b          	addiw	s8,zero,-1
    80002b88:	1c7e                	slli	s8,s8,0x3f
    80002b8a:	fff0061b          	addiw	a2,zero,-1
    80002b8e:	167e                	slli	a2,a2,0x3f
    80002b90:	537d                	li	t1,-1
    80002b92:	fff0011b          	addiw	sp,zero,-1
    80002b96:	117e                	slli	sp,sp,0x3f
    80002b98:	fff0079b          	addiw	a5,zero,-1
    80002b9c:	17fe                	slli	a5,a5,0x3f
    80002b9e:	03e9d133          	divu	sp,s3,t5
    80002ba2:	02290cb3          	mul	s9,s2,sp
    80002ba6:	03279cb3          	mulh	s9,a5,s2
    80002baa:	f0ac0c1b          	addiw	s8,s8,-246 # 7b9a4f0a <_start-0x465b0f6>
    80002bae:	03e9d133          	divu	sp,s3,t5
    80002bb2:	7b9a5cb7          	lui	s9,0x7b9a5
    80002bb6:	02f33333          	mulhu	t1,t1,a5
    80002bba:	0267f133          	remu	sp,a5,t1
    80002bbe:	02fc26b3          	mulhsu	a3,s8,a5
    80002bc2:	02290cb3          	mul	s9,s2,sp
    80002bc6:	02290cb3          	mul	s9,s2,sp
    80002bca:	02d7d9bb          	divuw	s3,a5,a3
    80002bce:	f0ac0c1b          	addiw	s8,s8,-246
    80002bd2:	02cc6f33          	rem	t5,s8,a2
    80002bd6:	019c063b          	addw	a2,s8,s9
    80002bda:	0267f133          	remu	sp,a5,t1
    80002bde:	02cc6f33          	rem	t5,s8,a2
    80002be2:	02d7d9bb          	divuw	s3,a5,a3
    80002be6:	41210933          	sub	s2,sp,s2
    80002bea:	02f33333          	mulhu	t1,t1,a5
    80002bee:	415d05b3          	sub	a1,s10,s5
    80002bf2:	0081feb3          	and	t4,gp,s0
    80002bf6:	00b8a6b3          	slt	a3,a7,a1
    80002bfa:	8d6d                	and	a0,a0,a1
    80002bfc:	80d5                	srli	s1,s1,0x15
    80002bfe:	40b8563b          	sraw	a2,a6,a1
    80002c02:	415ad39b          	sraiw	t2,s5,0x15
    80002c06:	415ad39b          	sraiw	t2,s5,0x15
    80002c0a:	8dbe3f13          	sltiu	t5,t3,-1829
    80002c0e:	8d6d                	and	a0,a0,a1
    80002c10:	916c6113          	ori	sp,s8,-1770
    80002c14:	9d91                	subw	a1,a1,a2
    80002c16:	0199989b          	slliw	a7,s3,0x19
    80002c1a:	0c4e                	slli	s8,s8,0x13
    80002c1c:	03a3e833          	rem	a6,t2,s10
    80002c20:	0083813b          	addw	sp,t2,s0
    80002c24:	415ad39b          	sraiw	t2,s5,0x15
    80002c28:	43b3d413          	srai	s0,t2,0x3b
    80002c2c:	916c6113          	ori	sp,s8,-1770
    80002c30:	00631033          	sll	zero,t1,t1
    80002c34:	632d8813          	addi	a6,s11,1586
    80002c38:	80d5                	srli	s1,s1,0x15
    80002c3a:	40bad8b3          	sra	a7,s5,a1
    80002c3e:	147d                	addi	s0,s0,-1
    80002c40:	00e110bb          	sllw	ra,sp,a4
    80002c44:	02db5fb3          	divu	t6,s6,a3
    80002c48:	02d7533b          	divuw	t1,a4,a3
    80002c4c:	85b6                	mv	a1,a3
    80002c4e:	01235933          	srl	s2,t1,s2
    80002c52:	03259313          	slli	t1,a1,0x32
    80002c56:	00ff4cb3          	xor	s9,t5,a5
    80002c5a:	8c0d                	sub	s0,s0,a1
    80002c5c:	004859bb          	srlw	s3,a6,tp
    80002c60:	632d8813          	addi	a6,s11,1586
    80002c64:	40bad8b3          	sra	a7,s5,a1
    80002c68:	717d                	addi	sp,sp,-16
    80002c6a:	4fbd                	li	t6,15
    80002c6c:	02ba75bb          	remuw	a1,s4,a1
    80002c70:	717d                	addi	sp,sp,-16
    80002c72:	39fd                	addiw	s3,s3,-1
    80002c74:	008f68b3          	or	a7,t5,s0
    80002c78:	8dbe3f13          	sltiu	t5,t3,-1829
    80002c7c:	02ba75bb          	remuw	a1,s4,a1
    80002c80:	43b3d413          	srai	s0,t2,0x3b
    80002c84:	43b3d413          	srai	s0,t2,0x3b
    80002c88:	989a                	add	a7,a7,t1
    80002c8a:	a07baa93          	slti	s5,s7,-1529
    80002c8e:	03259313          	slli	t1,a1,0x32
    80002c92:	40e60bbb          	subw	s7,a2,a4
    80002c96:	0081feb3          	and	t4,gp,s0
    80002c9a:	717d                	addi	sp,sp,-16
    80002c9c:	00ff4cb3          	xor	s9,t5,a5
    80002ca0:	39fd                	addiw	s3,s3,-1
    80002ca2:	7b9a5fb7          	lui	t6,0x7b9a5
    80002ca6:	00e110bb          	sllw	ra,sp,a4
    80002caa:	80d5                	srli	s1,s1,0x15
    80002cac:	40bad8b3          	sra	a7,s5,a1
    80002cb0:	8be9                	andi	a5,a5,26
    80002cb2:	8d6d                	and	a0,a0,a1
    80002cb4:	01165993          	srli	s3,a2,0x11
    80002cb8:	717d                	addi	sp,sp,-16
    80002cba:	632d8813          	addi	a6,s11,1586
    80002cbe:	0019b433          	sltu	s0,s3,ra
    80002cc2:	415ad39b          	sraiw	t2,s5,0x15
    80002cc6:	00e110bb          	sllw	ra,sp,a4
    80002cca:	0019b433          	sltu	s0,s3,ra
    80002cce:	02d7533b          	divuw	t1,a4,a3
    80002cd2:	8dbe3f13          	sltiu	t5,t3,-1829
    80002cd6:	02028433          	mul	s0,t0,zero
    80002cda:	8c21                	xor	s0,s0,s0
    80002cdc:	415ad39b          	sraiw	t2,s5,0x15
    80002ce0:	0c4e                	slli	s8,s8,0x13
    80002ce2:	00e78bb3          	add	s7,a5,a4
    80002ce6:	85b6                	mv	a1,a3
    80002ce8:	03a3e833          	rem	a6,t2,s10
    80002cec:	008f68b3          	or	a7,t5,s0
    80002cf0:	f0ab8c1b          	addiw	s8,s7,-246
    80002cf4:	40b8563b          	sraw	a2,a6,a1
    80002cf8:	00b8a6b3          	slt	a3,a7,a1
    80002cfc:	02ba75bb          	remuw	a1,s4,a1
    80002d00:	02028433          	mul	s0,t0,zero
    80002d04:	916c6113          	ori	sp,s8,-1770
    80002d08:	01235933          	srl	s2,t1,s2
    80002d0c:	00631033          	sll	zero,t1,t1
    80002d10:	8ddd                	or	a1,a1,a5
    80002d12:	415ad39b          	sraiw	t2,s5,0x15
    80002d16:	0083813b          	addw	sp,t2,s0
    80002d1a:	717d                	addi	sp,sp,-16
    80002d1c:	00631033          	sll	zero,t1,t1
    80002d20:	60aa9017          	auipc	zero,0x60aa9
    80002d24:	00e110bb          	sllw	ra,sp,a4
    80002d28:	01165993          	srli	s3,a2,0x11
    80002d2c:	69e5                	lui	s3,0x19
    80002d2e:	9d91                	subw	a1,a1,a2
    80002d30:	0001                	nop
    80002d32:	00ff4cb3          	xor	s9,t5,a5
    80002d36:	00e110bb          	sllw	ra,sp,a4
    80002d3a:	989a                	add	a7,a7,t1
    80002d3c:	9d91                	subw	a1,a1,a2
    80002d3e:	d9434f93          	xori	t6,t1,-620
    80002d42:	02b3a6b3          	mulhsu	a3,t2,a1
    80002d46:	40b8563b          	sraw	a2,a6,a1
    80002d4a:	9ca9                	addw	s1,s1,a0
    80002d4c:	7b9a5fb7          	lui	t6,0x7b9a5
    80002d50:	00f9d01b          	srliw	zero,s3,0xf
    80002d54:	02028433          	mul	s0,t0,zero
    80002d58:	7b9a5fb7          	lui	t6,0x7b9a5
    80002d5c:	40bad8b3          	sra	a7,s5,a1
    80002d60:	03a3e833          	rem	a6,t2,s10
    80002d64:	8be9                	andi	a5,a5,26
    80002d66:	8c0d                	sub	s0,s0,a1
    80002d68:	80d5                	srli	s1,s1,0x15
    80002d6a:	01235933          	srl	s2,t1,s2
    80002d6e:	0083813b          	addw	sp,t2,s0
    80002d72:	f0ab8c1b          	addiw	s8,s7,-246
    80002d76:	8be9                	andi	a5,a5,26
    80002d78:	8ddd                	or	a1,a1,a5
    80002d7a:	a07baa93          	slti	s5,s7,-1529
    80002d7e:	8c0d                	sub	s0,s0,a1
    80002d80:	03f88abb          	mulw	s5,a7,t6
    80002d84:	00b8a6b3          	slt	a3,a7,a1
    80002d88:	a590fc93          	andi	s9,ra,-1447
    80002d8c:	415ad39b          	sraiw	t2,s5,0x15
    80002d90:	86cd                	srai	a3,a3,0x13
    80002d92:	8c21                	xor	s0,s0,s0
    80002d94:	02efcabb          	divw	s5,t6,a4
    80002d98:	0c4e                	slli	s8,s8,0x13
    80002d9a:	01235933          	srl	s2,t1,s2
    80002d9e:	02b3a6b3          	mulhsu	a3,t2,a1
    80002da2:	02b3a6b3          	mulhsu	a3,t2,a1
    80002da6:	0199989b          	slliw	a7,s3,0x19
    80002daa:	8be9                	andi	a5,a5,26
    80002dac:	f0ab8c1b          	addiw	s8,s7,-246
    80002db0:	86cd                	srai	a3,a3,0x13
    80002db2:	03259313          	slli	t1,a1,0x32
    80002db6:	0248b933          	mulhu	s2,a7,tp
    80002dba:	8c21                	xor	s0,s0,s0
    80002dbc:	0001                	nop
    80002dbe:	02521cb3          	mulh	s9,tp,t0
    80002dc2:	00f9d01b          	srliw	zero,s3,0xf
    80002dc6:	02521cb3          	mulh	s9,tp,t0
    80002dca:	40b8563b          	sraw	a2,a6,a1
    80002dce:	60aa9017          	auipc	zero,0x60aa9
    80002dd2:	00f9d01b          	srliw	zero,s3,0xf
    80002dd6:	035d4eb3          	div	t4,s10,s5
    80002dda:	415ad39b          	sraiw	t2,s5,0x15
    80002dde:	43b3d413          	srai	s0,t2,0x3b
    80002de2:	9d91                	subw	a1,a1,a2
    80002de4:	00ff4cb3          	xor	s9,t5,a5
    80002de8:	02521cb3          	mulh	s9,tp,t0
    80002dec:	00ff4cb3          	xor	s9,t5,a5
    80002df0:	43b3d413          	srai	s0,t2,0x3b
    80002df4:	40bad8b3          	sra	a7,s5,a1
    80002df8:	00ff4cb3          	xor	s9,t5,a5
    80002dfc:	00e110bb          	sllw	ra,sp,a4
    80002e00:	00ff4cb3          	xor	s9,t5,a5
    80002e04:	69e5                	lui	s3,0x19
    80002e06:	9d91                	subw	a1,a1,a2
    80002e08:	60aa9017          	auipc	zero,0x60aa9
    80002e0c:	9ca9                	addw	s1,s1,a0
    80002e0e:	0199989b          	slliw	a7,s3,0x19
    80002e12:	60aa9017          	auipc	zero,0x60aa9
    80002e16:	80d5                	srli	s1,s1,0x15
    80002e18:	0199989b          	slliw	a7,s3,0x19
    80002e1c:	0001                	nop
    80002e1e:	43b3d413          	srai	s0,t2,0x3b
    80002e22:	9ca9                	addw	s1,s1,a0
    80002e24:	0001                	nop
    80002e26:	4fbd                	li	t6,15
    80002e28:	02521cb3          	mulh	s9,tp,t0
    80002e2c:	02b3a6b3          	mulhsu	a3,t2,a1
    80002e30:	8c0d                	sub	s0,s0,a1
    80002e32:	02db5fb3          	divu	t6,s6,a3
    80002e36:	0199989b          	slliw	a7,s3,0x19
    80002e3a:	02d7533b          	divuw	t1,a4,a3
    80002e3e:	0081feb3          	and	t4,gp,s0
    80002e42:	54fd                	li	s1,-1
    80002e44:	005f5cb7          	lui	s9,0x5f5
    80002e48:	ec9c8c9b          	addiw	s9,s9,-311 # 5f4ec9 <_start-0x7fa0b137>
    80002e4c:	0cbe                	slli	s9,s9,0xf
    80002e4e:	9dfc8c93          	addi	s9,s9,-1569
    80002e52:	0cb2                	slli	s9,s9,0xc
    80002e54:	cf7c8c93          	addi	s9,s9,-777
    80002e58:	0cb6                	slli	s9,s9,0xd
    80002e5a:	9e2c8c93          	addi	s9,s9,-1566
    80002e5e:	597d                	li	s2,-1
    80002e60:	517d                	li	sp,-1
    80002e62:	0009fab7          	lui	s5,0x9f
    80002e66:	5a9a8a9b          	addiw	s5,s5,1449 # 9f5a9 <_start-0x7ff60a57>
    80002e6a:	0ac2                	slli	s5,s5,0x10
    80002e6c:	f71a8a93          	addi	s5,s5,-143
    80002e70:	0ab2                	slli	s5,s5,0xc
    80002e72:	edba8a93          	addi	s5,s5,-293
    80002e76:	0ab2                	slli	s5,s5,0xc
    80002e78:	e6aa8a93          	addi	s5,s5,-406
    80002e7c:	5efd                	li	t4,-1
    80002e7e:	f83576b7          	lui	a3,0xf8357
    80002e82:	48d6869b          	addiw	a3,a3,1165 # fffffffff835748d <_end+0xffffffff7833ab05>
    80002e86:	06b2                	slli	a3,a3,0xc
    80002e88:	a5168693          	addi	a3,a3,-1455
    80002e8c:	06b2                	slli	a3,a3,0xc
    80002e8e:	65d68693          	addi	a3,a3,1629
    80002e92:	06b2                	slli	a3,a3,0xc
    80002e94:	73368693          	addi	a3,a3,1843
    80002e98:	4f01                	li	t5,0
    80002e9a:	4401                	li	s0,0
    80002e9c:	5bfd                	li	s7,-1
    80002e9e:	035ac4b3          	div	s1,s5,s5
    80002ea2:	7b9a5eb7          	lui	t4,0x7b9a5
    80002ea6:	029cef33          	rem	t5,s9,s1
    80002eaa:	03d4093b          	mulw	s2,s0,t4
    80002eae:	03d4093b          	mulw	s2,s0,t4
    80002eb2:	002f0bb3          	add	s7,t5,sp
    80002eb6:	02df493b          	divw	s2,t5,a3
    80002eba:	022a8eb3          	mul	t4,s5,sp
    80002ebe:	01dc84bb          	addw	s1,s9,t4
    80002ec2:	03ebd133          	divu	sp,s7,t5
    80002ec6:	03591eb3          	mulh	t4,s2,s5
    80002eca:	0001                	nop
    80002ecc:	41510ab3          	sub	s5,sp,s5
    80002ed0:	029cef33          	rem	t5,s9,s1
    80002ed4:	02d95bbb          	divuw	s7,s2,a3
    80002ed8:	f0ac8c9b          	addiw	s9,s9,-246
    80002edc:	029cef33          	rem	t5,s9,s1
    80002ee0:	41e68bbb          	subw	s7,a3,t5
    80002ee4:	02df493b          	divw	s2,t5,a3
    80002ee8:	02df493b          	divw	s2,t5,a3
    80002eec:	a590fc93          	andi	s9,ra,-1447
    80002ef0:	02ba75bb          	remuw	a1,s4,a1
    80002ef4:	00ff4cb3          	xor	s9,t5,a5
    80002ef8:	80d5                	srli	s1,s1,0x15
    80002efa:	8d6d                	and	a0,a0,a1
    80002efc:	f0ab8c1b          	addiw	s8,s7,-246
    80002f00:	989a                	add	a7,a7,t1
    80002f02:	0c4e                	slli	s8,s8,0x13
    80002f04:	916c6113          	ori	sp,s8,-1770
    80002f08:	f0ab8c1b          	addiw	s8,s7,-246
    80002f0c:	00f9d01b          	srliw	zero,s3,0xf
    80002f10:	43b3d413          	srai	s0,t2,0x3b
    80002f14:	d9434f93          	xori	t6,t1,-620
    80002f18:	0001                	nop
    80002f1a:	03f88abb          	mulw	s5,a7,t6
    80002f1e:	01235933          	srl	s2,t1,s2
    80002f22:	7b9a5fb7          	lui	t6,0x7b9a5
    80002f26:	415ad39b          	sraiw	t2,s5,0x15
    80002f2a:	4fbd                	li	t6,15
    80002f2c:	02b3a6b3          	mulhsu	a3,t2,a1
    80002f30:	01235933          	srl	s2,t1,s2
    80002f34:	147d                	addi	s0,s0,-1
    80002f36:	00e110bb          	sllw	ra,sp,a4
    80002f3a:	024b6c3b          	remw	s8,s6,tp
    80002f3e:	0199989b          	slliw	a7,s3,0x19
    80002f42:	43b3d413          	srai	s0,t2,0x3b
    80002f46:	0248b933          	mulhu	s2,a7,tp
    80002f4a:	415ad39b          	sraiw	t2,s5,0x15
    80002f4e:	85b6                	mv	a1,a3
    80002f50:	a590fc93          	andi	s9,ra,-1447
    80002f54:	8be9                	andi	a5,a5,26
    80002f56:	02b3a6b3          	mulhsu	a3,t2,a1
    80002f5a:	415ad39b          	sraiw	t2,s5,0x15
    80002f5e:	a07baa93          	slti	s5,s7,-1529
    80002f62:	035d4eb3          	div	t4,s10,s5
    80002f66:	00631033          	sll	zero,t1,t1
    80002f6a:	85b6                	mv	a1,a3
    80002f6c:	8d6d                	and	a0,a0,a1
    80002f6e:	147d                	addi	s0,s0,-1
    80002f70:	008f68b3          	or	a7,t5,s0
    80002f74:	69e5                	lui	s3,0x19
    80002f76:	02028433          	mul	s0,t0,zero
    80002f7a:	01235933          	srl	s2,t1,s2
    80002f7e:	024b6c3b          	remw	s8,s6,tp
    80002f82:	0001                	nop
    80002f84:	40bad8b3          	sra	a7,s5,a1
    80002f88:	147d                	addi	s0,s0,-1
    80002f8a:	00631033          	sll	zero,t1,t1
    80002f8e:	02ba75bb          	remuw	a1,s4,a1
    80002f92:	03f88abb          	mulw	s5,a7,t6
    80002f96:	989a                	add	a7,a7,t1
    80002f98:	00631033          	sll	zero,t1,t1
    80002f9c:	00ff4cb3          	xor	s9,t5,a5
    80002fa0:	147d                	addi	s0,s0,-1
    80002fa2:	00b8a6b3          	slt	a3,a7,a1
    80002fa6:	02efcabb          	divw	s5,t6,a4
    80002faa:	717d                	addi	sp,sp,-16
    80002fac:	40bad8b3          	sra	a7,s5,a1
    80002fb0:	0248b933          	mulhu	s2,a7,tp
    80002fb4:	80d5                	srli	s1,s1,0x15
    80002fb6:	415ad39b          	sraiw	t2,s5,0x15
    80002fba:	40b8563b          	sraw	a2,a6,a1
    80002fbe:	a590fc93          	andi	s9,ra,-1447
    80002fc2:	024b6c3b          	remw	s8,s6,tp
    80002fc6:	02efcabb          	divw	s5,t6,a4
    80002fca:	86cd                	srai	a3,a3,0x13
    80002fcc:	8c0d                	sub	s0,s0,a1
    80002fce:	86cd                	srai	a3,a3,0x13
    80002fd0:	4fbd                	li	t6,15
    80002fd2:	0248b933          	mulhu	s2,a7,tp
    80002fd6:	035d4eb3          	div	t4,s10,s5
    80002fda:	632d8813          	addi	a6,s11,1586
    80002fde:	40e60bbb          	subw	s7,a2,a4
    80002fe2:	01235933          	srl	s2,t1,s2
    80002fe6:	40b8563b          	sraw	a2,a6,a1
    80002fea:	8be9                	andi	a5,a5,26
    80002fec:	008f68b3          	or	a7,t5,s0
    80002ff0:	40e60bbb          	subw	s7,a2,a4
    80002ff4:	0001                	nop
    80002ff6:	02b3a6b3          	mulhsu	a3,t2,a1
    80002ffa:	7b9a5fb7          	lui	t6,0x7b9a5
    80002ffe:	0081feb3          	and	t4,gp,s0
    80003002:	632d8813          	addi	a6,s11,1586
    80003006:	0083813b          	addw	sp,t2,s0
    8000300a:	03259313          	slli	t1,a1,0x32
    8000300e:	02efcabb          	divw	s5,t6,a4
    80003012:	8c21                	xor	s0,s0,s0
    80003014:	0248b933          	mulhu	s2,a7,tp
    80003018:	632d8813          	addi	a6,s11,1586
    8000301c:	8c0d                	sub	s0,s0,a1
    8000301e:	989a                	add	a7,a7,t1
    80003020:	0199989b          	slliw	a7,s3,0x19
    80003024:	7b9a5fb7          	lui	t6,0x7b9a5
    80003028:	85b6                	mv	a1,a3
    8000302a:	00e78bb3          	add	s7,a5,a4
    8000302e:	00f9d01b          	srliw	zero,s3,0xf
    80003032:	40b8563b          	sraw	a2,a6,a1
    80003036:	00f9d01b          	srliw	zero,s3,0xf
    8000303a:	415d05b3          	sub	a1,s10,s5
    8000303e:	03f88abb          	mulw	s5,a7,t6
    80003042:	0199989b          	slliw	a7,s3,0x19
    80003046:	00e78bb3          	add	s7,a5,a4
    8000304a:	198c                	addi	a1,sp,240
    8000304c:	00ff4cb3          	xor	s9,t5,a5
    80003050:	02d7533b          	divuw	t1,a4,a3
    80003054:	00f9d01b          	srliw	zero,s3,0xf
    80003058:	0083813b          	addw	sp,t2,s0
    8000305c:	00631033          	sll	zero,t1,t1
    80003060:	69e5                	lui	s3,0x19
    80003062:	7b9a5fb7          	lui	t6,0x7b9a5
    80003066:	632d8813          	addi	a6,s11,1586
    8000306a:	147d                	addi	s0,s0,-1
    8000306c:	0199989b          	slliw	a7,s3,0x19
    80003070:	60aa9017          	auipc	zero,0x60aa9
    80003074:	00b8a6b3          	slt	a3,a7,a1
    80003078:	02efcabb          	divw	s5,t6,a4
    8000307c:	632d8813          	addi	a6,s11,1586
    80003080:	03a3e833          	rem	a6,t2,s10
    80003084:	69e5                	lui	s3,0x19
    80003086:	02028433          	mul	s0,t0,zero
    8000308a:	a590fc93          	andi	s9,ra,-1447
    8000308e:	00b8a6b3          	slt	a3,a7,a1
    80003092:	147d                	addi	s0,s0,-1
    80003094:	989a                	add	a7,a7,t1
    80003096:	008f68b3          	or	a7,t5,s0
    8000309a:	02028433          	mul	s0,t0,zero
    8000309e:	a590fc93          	andi	s9,ra,-1447
    800030a2:	0001                	nop
    800030a4:	85b6                	mv	a1,a3
    800030a6:	d9434f93          	xori	t6,t1,-620
    800030aa:	147d                	addi	s0,s0,-1
    800030ac:	00631033          	sll	zero,t1,t1
    800030b0:	198c                	addi	a1,sp,240
    800030b2:	415d05b3          	sub	a1,s10,s5
    800030b6:	00ff4cb3          	xor	s9,t5,a5
    800030ba:	8be9                	andi	a5,a5,26
    800030bc:	02521cb3          	mulh	s9,tp,t0
    800030c0:	415ad39b          	sraiw	t2,s5,0x15
    800030c4:	a590fc93          	andi	s9,ra,-1447
    800030c8:	00b8a6b3          	slt	a3,a7,a1
    800030cc:	0019b433          	sltu	s0,s3,ra
    800030d0:	d9434f93          	xori	t6,t1,-620
    800030d4:	7b9a5fb7          	lui	t6,0x7b9a5
    800030d8:	00ff4cb3          	xor	s9,t5,a5
    800030dc:	00ff4cb3          	xor	s9,t5,a5
    800030e0:	00f9d01b          	srliw	zero,s3,0xf
    800030e4:	02efcabb          	divw	s5,t6,a4
    800030e8:	03f88abb          	mulw	s5,a7,t6
    800030ec:	01165993          	srli	s3,a2,0x11
    800030f0:	02db5fb3          	divu	t6,s6,a3
    800030f4:	024b6c3b          	remw	s8,s6,tp
    800030f8:	4fbd                	li	t6,15
    800030fa:	916c6113          	ori	sp,s8,-1770
    800030fe:	85b6                	mv	a1,a3
    80003100:	40b8563b          	sraw	a2,a6,a1
    80003104:	916c6113          	ori	sp,s8,-1770
    80003108:	40bad8b3          	sra	a7,s5,a1
    8000310c:	0199989b          	slliw	a7,s3,0x19
    80003110:	02efcabb          	divw	s5,t6,a4
    80003114:	8d6d                	and	a0,a0,a1
    80003116:	198c                	addi	a1,sp,240
    80003118:	7b9a5fb7          	lui	t6,0x7b9a5
    8000311c:	0081feb3          	and	t4,gp,s0
    80003120:	0081feb3          	and	t4,gp,s0
    80003124:	916c6113          	ori	sp,s8,-1770
    80003128:	00f9d01b          	srliw	zero,s3,0xf
    8000312c:	4fbd                	li	t6,15
    8000312e:	39fd                	addiw	s3,s3,-1 # 18fff <_start-0x7ffe7001>
    80003130:	f0ab8c1b          	addiw	s8,s7,-246
    80003134:	40b8563b          	sraw	a2,a6,a1
    80003138:	00e110bb          	sllw	ra,sp,a4
    8000313c:	989a                	add	a7,a7,t1
    8000313e:	02d7533b          	divuw	t1,a4,a3
    80003142:	035d4eb3          	div	t4,s10,s5
    80003146:	02b3a6b3          	mulhsu	a3,t2,a1
    8000314a:	00e110bb          	sllw	ra,sp,a4
    8000314e:	415ad39b          	sraiw	t2,s5,0x15
    80003152:	8c21                	xor	s0,s0,s0
    80003154:	01165993          	srli	s3,a2,0x11
    80003158:	024b6c3b          	remw	s8,s6,tp
    8000315c:	43b3d413          	srai	s0,t2,0x3b
    80003160:	8c0d                	sub	s0,s0,a1
    80003162:	02028433          	mul	s0,t0,zero
    80003166:	02d7533b          	divuw	t1,a4,a3
    8000316a:	0081feb3          	and	t4,gp,s0
    8000316e:	00b8a6b3          	slt	a3,a7,a1
    80003172:	0001                	nop
    80003174:	80d5                	srli	s1,s1,0x15
    80003176:	80d5                	srli	s1,s1,0x15
    80003178:	00631033          	sll	zero,t1,t1
    8000317c:	03259313          	slli	t1,a1,0x32
    80003180:	198c                	addi	a1,sp,240
    80003182:	916c6113          	ori	sp,s8,-1770
    80003186:	8ddd                	or	a1,a1,a5
    80003188:	0081feb3          	and	t4,gp,s0
    8000318c:	0019b433          	sltu	s0,s3,ra
    80003190:	4fbd                	li	t6,15
    80003192:	80d5                	srli	s1,s1,0x15
    80003194:	717d                	addi	sp,sp,-16
    80003196:	60aa9017          	auipc	zero,0x60aa9
    8000319a:	02ba75bb          	remuw	a1,s4,a1
    8000319e:	39fd                	addiw	s3,s3,-1
    800031a0:	8c21                	xor	s0,s0,s0
    800031a2:	69e5                	lui	s3,0x19
    800031a4:	a07baa93          	slti	s5,s7,-1529
    800031a8:	9ca9                	addw	s1,s1,a0
    800031aa:	80d5                	srli	s1,s1,0x15
    800031ac:	024b6c3b          	remw	s8,s6,tp
    800031b0:	d9434f93          	xori	t6,t1,-620
    800031b4:	02db5fb3          	divu	t6,s6,a3
    800031b8:	01235933          	srl	s2,t1,s2
    800031bc:	86cd                	srai	a3,a3,0x13
    800031be:	0083813b          	addw	sp,t2,s0
    800031c2:	415d05b3          	sub	a1,s10,s5
    800031c6:	4fbd                	li	t6,15
    800031c8:	00631033          	sll	zero,t1,t1
    800031cc:	02db5fb3          	divu	t6,s6,a3
    800031d0:	01235933          	srl	s2,t1,s2
    800031d4:	9d91                	subw	a1,a1,a2
    800031d6:	00b8a6b3          	slt	a3,a7,a1
    800031da:	8dbe3f13          	sltiu	t5,t3,-1829
    800031de:	02ba75bb          	remuw	a1,s4,a1
    800031e2:	4fbd                	li	t6,15
    800031e4:	9d91                	subw	a1,a1,a2
    800031e6:	916c6113          	ori	sp,s8,-1770
    800031ea:	00e78bb3          	add	s7,a5,a4
    800031ee:	916c6113          	ori	sp,s8,-1770
    800031f2:	9ca9                	addw	s1,s1,a0
    800031f4:	004859bb          	srlw	s3,a6,tp
    800031f8:	00e78bb3          	add	s7,a5,a4
    800031fc:	00e78bb3          	add	s7,a5,a4
    80003200:	02db5fb3          	divu	t6,s6,a3
    80003204:	69e5                	lui	s3,0x19
    80003206:	717d                	addi	sp,sp,-16
    80003208:	03f88abb          	mulw	s5,a7,t6
    8000320c:	80d5                	srli	s1,s1,0x15
    8000320e:	01235933          	srl	s2,t1,s2
    80003212:	0083813b          	addw	sp,t2,s0
    80003216:	00b8a6b3          	slt	a3,a7,a1
    8000321a:	0081feb3          	and	t4,gp,s0
    8000321e:	9ca9                	addw	s1,s1,a0
    80003220:	7b9a5fb7          	lui	t6,0x7b9a5
    80003224:	d9434f93          	xori	t6,t1,-620
    80003228:	03f88abb          	mulw	s5,a7,t6
    8000322c:	02ba75bb          	remuw	a1,s4,a1
    80003230:	035d4eb3          	div	t4,s10,s5
    80003234:	916c6113          	ori	sp,s8,-1770
    80003238:	01165993          	srli	s3,a2,0x11
    8000323c:	198c                	addi	a1,sp,240
    8000323e:	00f9d01b          	srliw	zero,s3,0xf
    80003242:	0081feb3          	and	t4,gp,s0
    80003246:	80d5                	srli	s1,s1,0x15
    80003248:	916c6113          	ori	sp,s8,-1770
    8000324c:	02ba75bb          	remuw	a1,s4,a1
    80003250:	4fbd                	li	t6,15
    80003252:	147d                	addi	s0,s0,-1
    80003254:	43b3d413          	srai	s0,t2,0x3b
    80003258:	40bad8b3          	sra	a7,s5,a1
    8000325c:	00f9d01b          	srliw	zero,s3,0xf
    80003260:	989a                	add	a7,a7,t1
    80003262:	9ca9                	addw	s1,s1,a0
    80003264:	00ff4cb3          	xor	s9,t5,a5
    80003268:	01165993          	srli	s3,a2,0x11
    8000326c:	8c0d                	sub	s0,s0,a1
    8000326e:	02db5fb3          	divu	t6,s6,a3
    80003272:	8dbe3f13          	sltiu	t5,t3,-1829
    80003276:	8dbe3f13          	sltiu	t5,t3,-1829
    8000327a:	85b6                	mv	a1,a3
    8000327c:	198c                	addi	a1,sp,240
    8000327e:	717d                	addi	sp,sp,-16
    80003280:	00e110bb          	sllw	ra,sp,a4
    80003284:	01165993          	srli	s3,a2,0x11
    80003288:	02028433          	mul	s0,t0,zero
    8000328c:	40e60bbb          	subw	s7,a2,a4
    80003290:	00b8a6b3          	slt	a3,a7,a1
    80003294:	989a                	add	a7,a7,t1
    80003296:	0001                	nop
    80003298:	02db5fb3          	divu	t6,s6,a3
    8000329c:	0c4e                	slli	s8,s8,0x13
    8000329e:	0001                	nop
    800032a0:	d9434f93          	xori	t6,t1,-620
    800032a4:	024b6c3b          	remw	s8,s6,tp
    800032a8:	415d05b3          	sub	a1,s10,s5
    800032ac:	989a                	add	a7,a7,t1
    800032ae:	40bad8b3          	sra	a7,s5,a1
    800032b2:	02028433          	mul	s0,t0,zero
    800032b6:	00e110bb          	sllw	ra,sp,a4
    800032ba:	0001                	nop
    800032bc:	02efcabb          	divw	s5,t6,a4
    800032c0:	0001                	nop
    800032c2:	198c                	addi	a1,sp,240
    800032c4:	916c6113          	ori	sp,s8,-1770
    800032c8:	01165993          	srli	s3,a2,0x11
    800032cc:	9ca9                	addw	s1,s1,a0
    800032ce:	02d7533b          	divuw	t1,a4,a3
    800032d2:	0248b933          	mulhu	s2,a7,tp
    800032d6:	02ba75bb          	remuw	a1,s4,a1
    800032da:	02db5fb3          	divu	t6,s6,a3
    800032de:	00ff4cb3          	xor	s9,t5,a5
    800032e2:	40bad8b3          	sra	a7,s5,a1
    800032e6:	0001                	nop
    800032e8:	9d91                	subw	a1,a1,a2
    800032ea:	0083813b          	addw	sp,t2,s0
    800032ee:	00ff4cb3          	xor	s9,t5,a5
    800032f2:	0001                	nop
    800032f4:	02ba75bb          	remuw	a1,s4,a1
    800032f8:	03259313          	slli	t1,a1,0x32
    800032fc:	989a                	add	a7,a7,t1
    800032fe:	00e78bb3          	add	s7,a5,a4
    80003302:	8dbe3f13          	sltiu	t5,t3,-1829
    80003306:	02ba75bb          	remuw	a1,s4,a1
    8000330a:	035d4eb3          	div	t4,s10,s5
    8000330e:	02d7533b          	divuw	t1,a4,a3
    80003312:	40b8563b          	sraw	a2,a6,a1
    80003316:	8c21                	xor	s0,s0,s0
    80003318:	0081feb3          	and	t4,gp,s0
    8000331c:	198c                	addi	a1,sp,240
    8000331e:	0081feb3          	and	t4,gp,s0
    80003322:	03edf033          	remu	zero,s11,t5
    80003326:	632d8813          	addi	a6,s11,1586
    8000332a:	035d4eb3          	div	t4,s10,s5
    8000332e:	415d05b3          	sub	a1,s10,s5
    80003332:	f0ab8c1b          	addiw	s8,s7,-246
    80003336:	a07baa93          	slti	s5,s7,-1529
    8000333a:	02ba75bb          	remuw	a1,s4,a1
    8000333e:	02db5fb3          	divu	t6,s6,a3
    80003342:	00f9d01b          	srliw	zero,s3,0xf
    80003346:	a07baa93          	slti	s5,s7,-1529
    8000334a:	8ddd                	or	a1,a1,a5
    8000334c:	02db5fb3          	divu	t6,s6,a3
    80003350:	147d                	addi	s0,s0,-1
    80003352:	0199989b          	slliw	a7,s3,0x19
    80003356:	0c4e                	slli	s8,s8,0x13
    80003358:	4fbd                	li	t6,15
    8000335a:	415d05b3          	sub	a1,s10,s5
    8000335e:	f0ab8c1b          	addiw	s8,s7,-246
    80003362:	02521cb3          	mulh	s9,tp,t0
    80003366:	9d91                	subw	a1,a1,a2
    80003368:	01235933          	srl	s2,t1,s2
    8000336c:	0001                	nop
    8000336e:	01165993          	srli	s3,a2,0x11
    80003372:	02d7533b          	divuw	t1,a4,a3
    80003376:	9d91                	subw	a1,a1,a2
    80003378:	40b8563b          	sraw	a2,a6,a1
    8000337c:	00e78bb3          	add	s7,a5,a4
    80003380:	989a                	add	a7,a7,t1
    80003382:	02521cb3          	mulh	s9,tp,t0
    80003386:	69e5                	lui	s3,0x19
    80003388:	8d6d                	and	a0,a0,a1
    8000338a:	02b3a6b3          	mulhsu	a3,t2,a1
    8000338e:	39fd                	addiw	s3,s3,-1 # 18fff <_start-0x7ffe7001>
    80003390:	02521cb3          	mulh	s9,tp,t0
    80003394:	0248b933          	mulhu	s2,a7,tp
    80003398:	a07baa93          	slti	s5,s7,-1529
    8000339c:	86cd                	srai	a3,a3,0x13
    8000339e:	8dbe3f13          	sltiu	t5,t3,-1829
    800033a2:	415ad39b          	sraiw	t2,s5,0x15
    800033a6:	9d91                	subw	a1,a1,a2
    800033a8:	d9434f93          	xori	t6,t1,-620
    800033ac:	00b8a6b3          	slt	a3,a7,a1
    800033b0:	00ff4cb3          	xor	s9,t5,a5
    800033b4:	0248b933          	mulhu	s2,a7,tp
    800033b8:	8c0d                	sub	s0,s0,a1
    800033ba:	0199989b          	slliw	a7,s3,0x19
    800033be:	f0ab8c1b          	addiw	s8,s7,-246
    800033c2:	8dbe3f13          	sltiu	t5,t3,-1829
    800033c6:	03a3e833          	rem	a6,t2,s10
    800033ca:	9d91                	subw	a1,a1,a2
    800033cc:	40e60bbb          	subw	s7,a2,a4
    800033d0:	0019b433          	sltu	s0,s3,ra
    800033d4:	00f9d01b          	srliw	zero,s3,0xf
    800033d8:	916c6113          	ori	sp,s8,-1770
    800033dc:	00b8a6b3          	slt	a3,a7,a1
    800033e0:	00ff4cb3          	xor	s9,t5,a5
    800033e4:	8c0d                	sub	s0,s0,a1
    800033e6:	9ca9                	addw	s1,s1,a0
    800033e8:	0c4e                	slli	s8,s8,0x13
    800033ea:	0083813b          	addw	sp,t2,s0
    800033ee:	7b9a5fb7          	lui	t6,0x7b9a5
    800033f2:	8dbe3f13          	sltiu	t5,t3,-1829
    800033f6:	00f9d01b          	srliw	zero,s3,0xf
    800033fa:	69e5                	lui	s3,0x19
    800033fc:	8c0d                	sub	s0,s0,a1
    800033fe:	80d5                	srli	s1,s1,0x15
    80003400:	f0ab8c1b          	addiw	s8,s7,-246
    80003404:	0001                	nop
    80003406:	8d6d                	and	a0,a0,a1
    80003408:	0248b933          	mulhu	s2,a7,tp
    8000340c:	147d                	addi	s0,s0,-1
    8000340e:	02028433          	mul	s0,t0,zero
    80003412:	916c6113          	ori	sp,s8,-1770
    80003416:	198c                	addi	a1,sp,240
    80003418:	40e60bbb          	subw	s7,a2,a4
    8000341c:	8c0d                	sub	s0,s0,a1
    8000341e:	02ba75bb          	remuw	a1,s4,a1
    80003422:	39fd                	addiw	s3,s3,-1 # 18fff <_start-0x7ffe7001>
    80003424:	80d5                	srli	s1,s1,0x15
    80003426:	198c                	addi	a1,sp,240
    80003428:	0248b933          	mulhu	s2,a7,tp
    8000342c:	a590fc93          	andi	s9,ra,-1447
    80003430:	40bad8b3          	sra	a7,s5,a1
    80003434:	85b6                	mv	a1,a3
    80003436:	02d7533b          	divuw	t1,a4,a3
    8000343a:	8c21                	xor	s0,s0,s0
    8000343c:	86cd                	srai	a3,a3,0x13
    8000343e:	69e5                	lui	s3,0x19
    80003440:	8c21                	xor	s0,s0,s0
    80003442:	40b8563b          	sraw	a2,a6,a1
    80003446:	8c21                	xor	s0,s0,s0
    80003448:	03259313          	slli	t1,a1,0x32
    8000344c:	69e5                	lui	s3,0x19
    8000344e:	43b3d413          	srai	s0,t2,0x3b
    80003452:	00f9d01b          	srliw	zero,s3,0xf
    80003456:	40b8563b          	sraw	a2,a6,a1
    8000345a:	a590fc93          	andi	s9,ra,-1447
    8000345e:	f0ab8c1b          	addiw	s8,s7,-246
    80003462:	035d4eb3          	div	t4,s10,s5
    80003466:	004859bb          	srlw	s3,a6,tp
    8000346a:	008f68b3          	or	a7,t5,s0
    8000346e:	8dbe3f13          	sltiu	t5,t3,-1829
    80003472:	035d4eb3          	div	t4,s10,s5
    80003476:	02d7533b          	divuw	t1,a4,a3
    8000347a:	024b6c3b          	remw	s8,s6,tp
    8000347e:	0001                	nop
    80003480:	02db5fb3          	divu	t6,s6,a3
    80003484:	004859bb          	srlw	s3,a6,tp
    80003488:	9d91                	subw	a1,a1,a2
    8000348a:	03edf033          	remu	zero,s11,t5
    8000348e:	004859bb          	srlw	s3,a6,tp
    80003492:	40b8563b          	sraw	a2,a6,a1
    80003496:	4fbd                	li	t6,15
    80003498:	8be9                	andi	a5,a5,26
    8000349a:	02b3a6b3          	mulhsu	a3,t2,a1
    8000349e:	02ba75bb          	remuw	a1,s4,a1
    800034a2:	03259313          	slli	t1,a1,0x32
    800034a6:	02b3a6b3          	mulhsu	a3,t2,a1
    800034aa:	0248b933          	mulhu	s2,a7,tp
    800034ae:	00b8a6b3          	slt	a3,a7,a1
    800034b2:	02ba75bb          	remuw	a1,s4,a1
    800034b6:	02db5fb3          	divu	t6,s6,a3
    800034ba:	0019b433          	sltu	s0,s3,ra
    800034be:	03259313          	slli	t1,a1,0x32
    800034c2:	0001                	nop
    800034c4:	85b6                	mv	a1,a3
    800034c6:	40b8563b          	sraw	a2,a6,a1
    800034ca:	9ca9                	addw	s1,s1,a0
    800034cc:	8c0d                	sub	s0,s0,a1
    800034ce:	02028433          	mul	s0,t0,zero
    800034d2:	8c0d                	sub	s0,s0,a1
    800034d4:	8c21                	xor	s0,s0,s0
    800034d6:	9ca9                	addw	s1,s1,a0
    800034d8:	02db5fb3          	divu	t6,s6,a3
    800034dc:	7b9a5fb7          	lui	t6,0x7b9a5
    800034e0:	00e110bb          	sllw	ra,sp,a4
    800034e4:	39fd                	addiw	s3,s3,-1 # 18fff <_start-0x7ffe7001>
    800034e6:	02521cb3          	mulh	s9,tp,t0
    800034ea:	00f9d01b          	srliw	zero,s3,0xf
    800034ee:	86cd                	srai	a3,a3,0x13
    800034f0:	0081feb3          	and	t4,gp,s0
    800034f4:	02b3a6b3          	mulhsu	a3,t2,a1
    800034f8:	02521cb3          	mulh	s9,tp,t0
    800034fc:	40e60bbb          	subw	s7,a2,a4
    80003500:	02028433          	mul	s0,t0,zero
    80003504:	8dbe3f13          	sltiu	t5,t3,-1829
    80003508:	40e60bbb          	subw	s7,a2,a4
    8000350c:	01165993          	srli	s3,a2,0x11
    80003510:	f0ab8c1b          	addiw	s8,s7,-246
    80003514:	8c21                	xor	s0,s0,s0
    80003516:	02ba75bb          	remuw	a1,s4,a1
    8000351a:	00e110bb          	sllw	ra,sp,a4
    8000351e:	03259313          	slli	t1,a1,0x32
    80003522:	415ad39b          	sraiw	t2,s5,0x15
    80003526:	8c0d                	sub	s0,s0,a1
    80003528:	004859bb          	srlw	s3,a6,tp
    8000352c:	60aa9017          	auipc	zero,0x60aa9
    80003530:	9d91                	subw	a1,a1,a2
    80003532:	198c                	addi	a1,sp,240
    80003534:	03a3e833          	rem	a6,t2,s10
    80003538:	02ba75bb          	remuw	a1,s4,a1
    8000353c:	a590fc93          	andi	s9,ra,-1447
    80003540:	8c0d                	sub	s0,s0,a1
    80003542:	85b6                	mv	a1,a3
    80003544:	415d05b3          	sub	a1,s10,s5
    80003548:	008f68b3          	or	a7,t5,s0
    8000354c:	415d05b3          	sub	a1,s10,s5
    80003550:	0019b433          	sltu	s0,s3,ra
    80003554:	004859bb          	srlw	s3,a6,tp
    80003558:	8ddd                	or	a1,a1,a5
    8000355a:	0083813b          	addw	sp,t2,s0
    8000355e:	86cd                	srai	a3,a3,0x13
    80003560:	03259313          	slli	t1,a1,0x32
    80003564:	415d05b3          	sub	a1,s10,s5
    80003568:	69e5                	lui	s3,0x19
    8000356a:	989a                	add	a7,a7,t1
    8000356c:	01235933          	srl	s2,t1,s2
    80003570:	a07baa93          	slti	s5,s7,-1529
    80003574:	00631033          	sll	zero,t1,t1
    80003578:	01235933          	srl	s2,t1,s2
    8000357c:	717d                	addi	sp,sp,-16
    8000357e:	01235933          	srl	s2,t1,s2
    80003582:	198c                	addi	a1,sp,240
    80003584:	00f9d01b          	srliw	zero,s3,0xf
    80003588:	0019b433          	sltu	s0,s3,ra
    8000358c:	40b8563b          	sraw	a2,a6,a1
    80003590:	02ba75bb          	remuw	a1,s4,a1
    80003594:	4fbd                	li	t6,15
    80003596:	989a                	add	a7,a7,t1
    80003598:	024b6c3b          	remw	s8,s6,tp
    8000359c:	0c4e                	slli	s8,s8,0x13
    8000359e:	02028433          	mul	s0,t0,zero
    800035a2:	632d8813          	addi	a6,s11,1586
    800035a6:	0019b433          	sltu	s0,s3,ra
    800035aa:	8dbe3f13          	sltiu	t5,t3,-1829
    800035ae:	024b6c3b          	remw	s8,s6,tp
    800035b2:	03f88abb          	mulw	s5,a7,t6
    800035b6:	0081feb3          	and	t4,gp,s0
    800035ba:	8be9                	andi	a5,a5,26
    800035bc:	02521cb3          	mulh	s9,tp,t0
    800035c0:	f0ab8c1b          	addiw	s8,s7,-246
    800035c4:	a07baa93          	slti	s5,s7,-1529
    800035c8:	0248b933          	mulhu	s2,a7,tp
    800035cc:	69e5                	lui	s3,0x19
    800035ce:	00e78bb3          	add	s7,a5,a4
    800035d2:	00631033          	sll	zero,t1,t1
    800035d6:	f0ab8c1b          	addiw	s8,s7,-246
    800035da:	008f68b3          	or	a7,t5,s0
    800035de:	03a3e833          	rem	a6,t2,s10
    800035e2:	00f9d01b          	srliw	zero,s3,0xf
    800035e6:	0c4e                	slli	s8,s8,0x13
    800035e8:	8be9                	andi	a5,a5,26
    800035ea:	02ba75bb          	remuw	a1,s4,a1
    800035ee:	8d6d                	and	a0,a0,a1
    800035f0:	8be9                	andi	a5,a5,26
    800035f2:	0083813b          	addw	sp,t2,s0
    800035f6:	d9434f93          	xori	t6,t1,-620
    800035fa:	198c                	addi	a1,sp,240
    800035fc:	8ddd                	or	a1,a1,a5
    800035fe:	02521cb3          	mulh	s9,tp,t0
    80003602:	40bad8b3          	sra	a7,s5,a1
    80003606:	03edf033          	remu	zero,s11,t5
    8000360a:	0001                	nop
    8000360c:	415ad39b          	sraiw	t2,s5,0x15
    80003610:	a07baa93          	slti	s5,s7,-1529
    80003614:	147d                	addi	s0,s0,-1
    80003616:	00ff4cb3          	xor	s9,t5,a5
    8000361a:	8ddd                	or	a1,a1,a5
    8000361c:	03f88abb          	mulw	s5,a7,t6
    80003620:	02d7533b          	divuw	t1,a4,a3
    80003624:	035d4eb3          	div	t4,s10,s5
    80003628:	0019b433          	sltu	s0,s3,ra
    8000362c:	9d91                	subw	a1,a1,a2
    8000362e:	7b9a5fb7          	lui	t6,0x7b9a5
    80003632:	00ff4cb3          	xor	s9,t5,a5
    80003636:	00e78bb3          	add	s7,a5,a4
    8000363a:	40b8563b          	sraw	a2,a6,a1
    8000363e:	f0ab8c1b          	addiw	s8,s7,-246
    80003642:	9d91                	subw	a1,a1,a2
    80003644:	03edf033          	remu	zero,s11,t5
    80003648:	39fd                	addiw	s3,s3,-1 # 18fff <_start-0x7ffe7001>
    8000364a:	03edf033          	remu	zero,s11,t5
    8000364e:	8be9                	andi	a5,a5,26
    80003650:	01165993          	srli	s3,a2,0x11
    80003654:	a07baa93          	slti	s5,s7,-1529
    80003658:	01165993          	srli	s3,a2,0x11
    8000365c:	60aa9017          	auipc	zero,0x60aa9
    80003660:	00f9d01b          	srliw	zero,s3,0xf
    80003664:	4fbd                	li	t6,15
    80003666:	f0ab8c1b          	addiw	s8,s7,-246
    8000366a:	0c4e                	slli	s8,s8,0x13
    8000366c:	8d6d                	and	a0,a0,a1
    8000366e:	4fbd                	li	t6,15
    80003670:	0001                	nop
    80003672:	0001                	nop
    80003674:	00e78bb3          	add	s7,a5,a4
    80003678:	0248b933          	mulhu	s2,a7,tp
    8000367c:	02efcabb          	divw	s5,t6,a4
    80003680:	86cd                	srai	a3,a3,0x13
    80003682:	198c                	addi	a1,sp,240
    80003684:	8dbe3f13          	sltiu	t5,t3,-1829
    80003688:	7b9a5fb7          	lui	t6,0x7b9a5
    8000368c:	8c0d                	sub	s0,s0,a1
    8000368e:	035d4eb3          	div	t4,s10,s5
    80003692:	035d4eb3          	div	t4,s10,s5
    80003696:	40b8563b          	sraw	a2,a6,a1
    8000369a:	024b6c3b          	remw	s8,s6,tp
    8000369e:	02ba75bb          	remuw	a1,s4,a1
    800036a2:	9ca9                	addw	s1,s1,a0
    800036a4:	0c4e                	slli	s8,s8,0x13
    800036a6:	8d6d                	and	a0,a0,a1
    800036a8:	60aa9017          	auipc	zero,0x60aa9
    800036ac:	03edf033          	remu	zero,s11,t5
    800036b0:	a07baa93          	slti	s5,s7,-1529
    800036b4:	01235933          	srl	s2,t1,s2
    800036b8:	0001                	nop
    800036ba:	7b9a5fb7          	lui	t6,0x7b9a5
    800036be:	39fd                	addiw	s3,s3,-1
    800036c0:	0081feb3          	and	t4,gp,s0
    800036c4:	01235933          	srl	s2,t1,s2
    800036c8:	02b3a6b3          	mulhsu	a3,t2,a1
    800036cc:	0c4e                	slli	s8,s8,0x13
    800036ce:	00631033          	sll	zero,t1,t1
    800036d2:	415ad39b          	sraiw	t2,s5,0x15
    800036d6:	00631033          	sll	zero,t1,t1
    800036da:	69e5                	lui	s3,0x19
    800036dc:	8d6d                	and	a0,a0,a1
    800036de:	00e110bb          	sllw	ra,sp,a4
    800036e2:	0001                	nop
    800036e4:	40bad8b3          	sra	a7,s5,a1
    800036e8:	43b3d413          	srai	s0,t2,0x3b
    800036ec:	02d7533b          	divuw	t1,a4,a3
    800036f0:	03f88abb          	mulw	s5,a7,t6
    800036f4:	9ca9                	addw	s1,s1,a0
    800036f6:	0c4e                	slli	s8,s8,0x13
    800036f8:	80d5                	srli	s1,s1,0x15
    800036fa:	01165993          	srli	s3,a2,0x11
    800036fe:	86cd                	srai	a3,a3,0x13
    80003700:	9d91                	subw	a1,a1,a2
    80003702:	9ca9                	addw	s1,s1,a0
    80003704:	86cd                	srai	a3,a3,0x13
    80003706:	147d                	addi	s0,s0,-1
    80003708:	147d                	addi	s0,s0,-1
    8000370a:	0019b433          	sltu	s0,s3,ra
    8000370e:	02521cb3          	mulh	s9,tp,t0
    80003712:	9ca9                	addw	s1,s1,a0
    80003714:	9d91                	subw	a1,a1,a2
    80003716:	916c6113          	ori	sp,s8,-1770
    8000371a:	02b3a6b3          	mulhsu	a3,t2,a1
    8000371e:	0083813b          	addw	sp,t2,s0
    80003722:	02028433          	mul	s0,t0,zero
    80003726:	69e5                	lui	s3,0x19
    80003728:	43b3d413          	srai	s0,t2,0x3b
    8000372c:	0081feb3          	and	t4,gp,s0
    80003730:	632d8813          	addi	a6,s11,1586
    80003734:	8c21                	xor	s0,s0,s0
    80003736:	00f9d01b          	srliw	zero,s3,0xf
    8000373a:	03a3e833          	rem	a6,t2,s10
    8000373e:	02ba75bb          	remuw	a1,s4,a1
    80003742:	40e60bbb          	subw	s7,a2,a4
    80003746:	d9434f93          	xori	t6,t1,-620
    8000374a:	8c21                	xor	s0,s0,s0
    8000374c:	916c6113          	ori	sp,s8,-1770
    80003750:	035d4eb3          	div	t4,s10,s5
    80003754:	0019b433          	sltu	s0,s3,ra
    80003758:	00e78bb3          	add	s7,a5,a4
    8000375c:	02028433          	mul	s0,t0,zero
    80003760:	415ad39b          	sraiw	t2,s5,0x15
    80003764:	03f88abb          	mulw	s5,a7,t6
    80003768:	8c21                	xor	s0,s0,s0
    8000376a:	02b3a6b3          	mulhsu	a3,t2,a1
    8000376e:	a07baa93          	slti	s5,s7,-1529
    80003772:	60aa9017          	auipc	zero,0x60aa9
    80003776:	989a                	add	a7,a7,t1
    80003778:	9d91                	subw	a1,a1,a2
    8000377a:	03edf033          	remu	zero,s11,t5
    8000377e:	40bad8b3          	sra	a7,s5,a1
    80003782:	9d91                	subw	a1,a1,a2
    80003784:	9d91                	subw	a1,a1,a2
    80003786:	03259313          	slli	t1,a1,0x32
    8000378a:	8c0d                	sub	s0,s0,a1
    8000378c:	40b8563b          	sraw	a2,a6,a1
    80003790:	198c                	addi	a1,sp,240
    80003792:	8c0d                	sub	s0,s0,a1
    80003794:	147d                	addi	s0,s0,-1
    80003796:	415d05b3          	sub	a1,s10,s5
    8000379a:	0081feb3          	and	t4,gp,s0
    8000379e:	0001                	nop
    800037a0:	03f88abb          	mulw	s5,a7,t6
    800037a4:	01235933          	srl	s2,t1,s2
    800037a8:	035d4eb3          	div	t4,s10,s5
    800037ac:	01165993          	srli	s3,a2,0x11
    800037b0:	00e78bb3          	add	s7,a5,a4
    800037b4:	00ff4cb3          	xor	s9,t5,a5
    800037b8:	02521cb3          	mulh	s9,tp,t0
    800037bc:	0019b433          	sltu	s0,s3,ra
    800037c0:	02028433          	mul	s0,t0,zero
    800037c4:	8be9                	andi	a5,a5,26
    800037c6:	02ba75bb          	remuw	a1,s4,a1
    800037ca:	8ddd                	or	a1,a1,a5
    800037cc:	415ad39b          	sraiw	t2,s5,0x15
    800037d0:	0001                	nop
    800037d2:	60aa9017          	auipc	zero,0x60aa9
    800037d6:	8ddd                	or	a1,a1,a5
    800037d8:	0001                	nop
    800037da:	035d4eb3          	div	t4,s10,s5
    800037de:	02b3a6b3          	mulhsu	a3,t2,a1
    800037e2:	01165993          	srli	s3,a2,0x11
    800037e6:	40bad8b3          	sra	a7,s5,a1
    800037ea:	717d                	addi	sp,sp,-16
    800037ec:	43b3d413          	srai	s0,t2,0x3b
    800037f0:	02521cb3          	mulh	s9,tp,t0
    800037f4:	632d8813          	addi	a6,s11,1586
    800037f8:	8dbe3f13          	sltiu	t5,t3,-1829
    800037fc:	80d5                	srli	s1,s1,0x15
    800037fe:	8ddd                	or	a1,a1,a5
    80003800:	916c6113          	ori	sp,s8,-1770
    80003804:	86cd                	srai	a3,a3,0x13
    80003806:	916c6113          	ori	sp,s8,-1770
    8000380a:	03f88abb          	mulw	s5,a7,t6
    8000380e:	02521cb3          	mulh	s9,tp,t0
    80003812:	4fbd                	li	t6,15
    80003814:	0248b933          	mulhu	s2,a7,tp
    80003818:	147d                	addi	s0,s0,-1
    8000381a:	8ddd                	or	a1,a1,a5
    8000381c:	198c                	addi	a1,sp,240
    8000381e:	03259313          	slli	t1,a1,0x32
    80003822:	00631033          	sll	zero,t1,t1
    80003826:	004859bb          	srlw	s3,a6,tp
    8000382a:	69e5                	lui	s3,0x19
    8000382c:	0019b433          	sltu	s0,s3,ra
    80003830:	40e60bbb          	subw	s7,a2,a4
    80003834:	f0ab8c1b          	addiw	s8,s7,-246
    80003838:	40bad8b3          	sra	a7,s5,a1
    8000383c:	80d5                	srli	s1,s1,0x15
    8000383e:	4fbd                	li	t6,15
    80003840:	f0ab8c1b          	addiw	s8,s7,-246
    80003844:	69e5                	lui	s3,0x19
    80003846:	4fbd                	li	t6,15
    80003848:	02db5fb3          	divu	t6,s6,a3
    8000384c:	0083813b          	addw	sp,t2,s0
    80003850:	39fd                	addiw	s3,s3,-1 # 18fff <_start-0x7ffe7001>
    80003852:	02ba75bb          	remuw	a1,s4,a1
    80003856:	0001                	nop
    80003858:	0199989b          	slliw	a7,s3,0x19
    8000385c:	02db5fb3          	divu	t6,s6,a3
    80003860:	0248b933          	mulhu	s2,a7,tp
    80003864:	03f88abb          	mulw	s5,a7,t6
    80003868:	8dbe3f13          	sltiu	t5,t3,-1829
    8000386c:	00ff4cb3          	xor	s9,t5,a5
    80003870:	03259313          	slli	t1,a1,0x32
    80003874:	43b3d413          	srai	s0,t2,0x3b
    80003878:	39fd                	addiw	s3,s3,-1
    8000387a:	989a                	add	a7,a7,t1
    8000387c:	00f9d01b          	srliw	zero,s3,0xf
    80003880:	01165993          	srli	s3,a2,0x11
    80003884:	0248b933          	mulhu	s2,a7,tp
    80003888:	02d7533b          	divuw	t1,a4,a3
    8000388c:	01235933          	srl	s2,t1,s2
    80003890:	0083813b          	addw	sp,t2,s0
    80003894:	0081feb3          	and	t4,gp,s0
    80003898:	7b9a5fb7          	lui	t6,0x7b9a5
    8000389c:	69e5                	lui	s3,0x19
    8000389e:	008f68b3          	or	a7,t5,s0
    800038a2:	43b3d413          	srai	s0,t2,0x3b
    800038a6:	916c6113          	ori	sp,s8,-1770
    800038aa:	03a3e833          	rem	a6,t2,s10
    800038ae:	d9434f93          	xori	t6,t1,-620
    800038b2:	00e78bb3          	add	s7,a5,a4
    800038b6:	f0ab8c1b          	addiw	s8,s7,-246
    800038ba:	8dbe3f13          	sltiu	t5,t3,-1829
    800038be:	0019b433          	sltu	s0,s3,ra
    800038c2:	024b6c3b          	remw	s8,s6,tp
    800038c6:	00e110bb          	sllw	ra,sp,a4
    800038ca:	8ddd                	or	a1,a1,a5
    800038cc:	f0ab8c1b          	addiw	s8,s7,-246
    800038d0:	f0ab8c1b          	addiw	s8,s7,-246
    800038d4:	008f68b3          	or	a7,t5,s0
    800038d8:	02521cb3          	mulh	s9,tp,t0
    800038dc:	8d6d                	and	a0,a0,a1
    800038de:	02028433          	mul	s0,t0,zero
    800038e2:	0019b433          	sltu	s0,s3,ra
    800038e6:	0199989b          	slliw	a7,s3,0x19
    800038ea:	8be9                	andi	a5,a5,26
    800038ec:	02d7533b          	divuw	t1,a4,a3
    800038f0:	147d                	addi	s0,s0,-1
    800038f2:	9d91                	subw	a1,a1,a2
    800038f4:	02521cb3          	mulh	s9,tp,t0
    800038f8:	4fbd                	li	t6,15
    800038fa:	9d91                	subw	a1,a1,a2
    800038fc:	02efcabb          	divw	s5,t6,a4
    80003900:	7b9a5fb7          	lui	t6,0x7b9a5
    80003904:	7b9a5fb7          	lui	t6,0x7b9a5
    80003908:	004859bb          	srlw	s3,a6,tp
    8000390c:	9ca9                	addw	s1,s1,a0
    8000390e:	0001                	nop
    80003910:	0001                	nop
    80003912:	02028433          	mul	s0,t0,zero
    80003916:	035d4eb3          	div	t4,s10,s5
    8000391a:	0001                	nop
    8000391c:	0019b433          	sltu	s0,s3,ra
    80003920:	00ff4cb3          	xor	s9,t5,a5
    80003924:	8d6d                	and	a0,a0,a1
    80003926:	004859bb          	srlw	s3,a6,tp
    8000392a:	a590fc93          	andi	s9,ra,-1447
    8000392e:	60aa9017          	auipc	zero,0x60aa9
    80003932:	989a                	add	a7,a7,t1
    80003934:	60aa9017          	auipc	zero,0x60aa9
    80003938:	4fbd                	li	t6,15
    8000393a:	00631033          	sll	zero,t1,t1
    8000393e:	717d                	addi	sp,sp,-16
    80003940:	024b6c3b          	remw	s8,s6,tp
    80003944:	00b8a6b3          	slt	a3,a7,a1
    80003948:	717d                	addi	sp,sp,-16
    8000394a:	43b3d413          	srai	s0,t2,0x3b
    8000394e:	40e60bbb          	subw	s7,a2,a4
    80003952:	69e5                	lui	s3,0x19
    80003954:	00631033          	sll	zero,t1,t1
    80003958:	69e5                	lui	s3,0x19
    8000395a:	035d4eb3          	div	t4,s10,s5
    8000395e:	7b9a5fb7          	lui	t6,0x7b9a5
    80003962:	02db5fb3          	divu	t6,s6,a3
    80003966:	02028433          	mul	s0,t0,zero
    8000396a:	02ba75bb          	remuw	a1,s4,a1
    8000396e:	02ba75bb          	remuw	a1,s4,a1
    80003972:	d9434f93          	xori	t6,t1,-620
    80003976:	80d5                	srli	s1,s1,0x15
    80003978:	035d4eb3          	div	t4,s10,s5
    8000397c:	8dbe3f13          	sltiu	t5,t3,-1829
    80003980:	415ad39b          	sraiw	t2,s5,0x15
    80003984:	03f88abb          	mulw	s5,a7,t6
    80003988:	00e78bb3          	add	s7,a5,a4
    8000398c:	69e5                	lui	s3,0x19
    8000398e:	02efcabb          	divw	s5,t6,a4
    80003992:	0c4e                	slli	s8,s8,0x13
    80003994:	008f68b3          	or	a7,t5,s0
    80003998:	02d7533b          	divuw	t1,a4,a3
    8000399c:	03259313          	slli	t1,a1,0x32
    800039a0:	8c0d                	sub	s0,s0,a1
    800039a2:	8ddd                	or	a1,a1,a5
    800039a4:	86cd                	srai	a3,a3,0x13
    800039a6:	f0ab8c1b          	addiw	s8,s7,-246
    800039aa:	03edf033          	remu	zero,s11,t5
    800039ae:	4fbd                	li	t6,15
    800039b0:	00b8a6b3          	slt	a3,a7,a1
    800039b4:	40e60bbb          	subw	s7,a2,a4
    800039b8:	004859bb          	srlw	s3,a6,tp
    800039bc:	03a3e833          	rem	a6,t2,s10
    800039c0:	02d7533b          	divuw	t1,a4,a3
    800039c4:	0019b433          	sltu	s0,s3,ra
    800039c8:	69e5                	lui	s3,0x19
    800039ca:	198c                	addi	a1,sp,240
    800039cc:	8be9                	andi	a5,a5,26
    800039ce:	02efcabb          	divw	s5,t6,a4
    800039d2:	8c0d                	sub	s0,s0,a1
    800039d4:	632d8813          	addi	a6,s11,1586
    800039d8:	00b8a6b3          	slt	a3,a7,a1
    800039dc:	989a                	add	a7,a7,t1
    800039de:	198c                	addi	a1,sp,240
    800039e0:	008f68b3          	or	a7,t5,s0
    800039e4:	02b3a6b3          	mulhsu	a3,t2,a1
    800039e8:	8c0d                	sub	s0,s0,a1
    800039ea:	40bad8b3          	sra	a7,s5,a1
    800039ee:	02ba75bb          	remuw	a1,s4,a1
    800039f2:	03edf033          	remu	zero,s11,t5
    800039f6:	147d                	addi	s0,s0,-1
    800039f8:	69e5                	lui	s3,0x19
    800039fa:	02ba75bb          	remuw	a1,s4,a1
    800039fe:	0c4e                	slli	s8,s8,0x13
    80003a00:	02ba75bb          	remuw	a1,s4,a1
    80003a04:	40b8563b          	sraw	a2,a6,a1
    80003a08:	415d05b3          	sub	a1,s10,s5
    80003a0c:	4fbd                	li	t6,15
    80003a0e:	02db5fb3          	divu	t6,s6,a3
    80003a12:	00ff4cb3          	xor	s9,t5,a5
    80003a16:	7b9a5fb7          	lui	t6,0x7b9a5
    80003a1a:	01235933          	srl	s2,t1,s2
    80003a1e:	00e78bb3          	add	s7,a5,a4
    80003a22:	415d05b3          	sub	a1,s10,s5
    80003a26:	03edf033          	remu	zero,s11,t5
    80003a2a:	8c21                	xor	s0,s0,s0
    80003a2c:	01235933          	srl	s2,t1,s2
    80003a30:	0083813b          	addw	sp,t2,s0
    80003a34:	8be9                	andi	a5,a5,26
    80003a36:	9d91                	subw	a1,a1,a2
    80003a38:	00e78bb3          	add	s7,a5,a4
    80003a3c:	9ca9                	addw	s1,s1,a0
    80003a3e:	00e110bb          	sllw	ra,sp,a4
    80003a42:	147d                	addi	s0,s0,-1
    80003a44:	a590fc93          	andi	s9,ra,-1447
    80003a48:	632d8813          	addi	a6,s11,1586
    80003a4c:	03f88abb          	mulw	s5,a7,t6
    80003a50:	717d                	addi	sp,sp,-16
    80003a52:	01235933          	srl	s2,t1,s2
    80003a56:	a07baa93          	slti	s5,s7,-1529
    80003a5a:	8c21                	xor	s0,s0,s0
    80003a5c:	717d                	addi	sp,sp,-16
    80003a5e:	00e110bb          	sllw	ra,sp,a4
    80003a62:	02efcabb          	divw	s5,t6,a4
    80003a66:	8c21                	xor	s0,s0,s0
    80003a68:	989a                	add	a7,a7,t1
    80003a6a:	8ddd                	or	a1,a1,a5
    80003a6c:	035d4eb3          	div	t4,s10,s5
    80003a70:	02028433          	mul	s0,t0,zero
    80003a74:	03a3e833          	rem	a6,t2,s10
    80003a78:	40e60bbb          	subw	s7,a2,a4
    80003a7c:	00f9d01b          	srliw	zero,s3,0xf
    80003a80:	00ff4cb3          	xor	s9,t5,a5
    80003a84:	4fbd                	li	t6,15
    80003a86:	d9434f93          	xori	t6,t1,-620
    80003a8a:	717d                	addi	sp,sp,-16
    80003a8c:	43b3d413          	srai	s0,t2,0x3b
    80003a90:	7b9a5fb7          	lui	t6,0x7b9a5
    80003a94:	03259313          	slli	t1,a1,0x32
    80003a98:	0001                	nop
    80003a9a:	8c0d                	sub	s0,s0,a1
    80003a9c:	02521cb3          	mulh	s9,tp,t0
    80003aa0:	02db5fb3          	divu	t6,s6,a3
    80003aa4:	03f88abb          	mulw	s5,a7,t6
    80003aa8:	989a                	add	a7,a7,t1
    80003aaa:	916c6113          	ori	sp,s8,-1770
    80003aae:	39fd                	addiw	s3,s3,-1 # 18fff <_start-0x7ffe7001>
    80003ab0:	02521cb3          	mulh	s9,tp,t0
    80003ab4:	00b8a6b3          	slt	a3,a7,a1
    80003ab8:	02028433          	mul	s0,t0,zero
    80003abc:	0081feb3          	and	t4,gp,s0
    80003ac0:	0248b933          	mulhu	s2,a7,tp
    80003ac4:	02028433          	mul	s0,t0,zero
    80003ac8:	8c21                	xor	s0,s0,s0
    80003aca:	40e60bbb          	subw	s7,a2,a4
    80003ace:	85b6                	mv	a1,a3
    80003ad0:	0081feb3          	and	t4,gp,s0
    80003ad4:	0c4e                	slli	s8,s8,0x13
    80003ad6:	02028433          	mul	s0,t0,zero
    80003ada:	01165993          	srli	s3,a2,0x11
    80003ade:	0001                	nop
    80003ae0:	86cd                	srai	a3,a3,0x13
    80003ae2:	01235933          	srl	s2,t1,s2
    80003ae6:	d9434f93          	xori	t6,t1,-620
    80003aea:	004859bb          	srlw	s3,a6,tp
    80003aee:	40e60bbb          	subw	s7,a2,a4
    80003af2:	80d5                	srli	s1,s1,0x15
    80003af4:	d9434f93          	xori	t6,t1,-620
    80003af8:	03f88abb          	mulw	s5,a7,t6
    80003afc:	69e5                	lui	s3,0x19
    80003afe:	717d                	addi	sp,sp,-16
    80003b00:	8c21                	xor	s0,s0,s0
    80003b02:	035d4eb3          	div	t4,s10,s5
    80003b06:	00e110bb          	sllw	ra,sp,a4
    80003b0a:	8c0d                	sub	s0,s0,a1
    80003b0c:	86cd                	srai	a3,a3,0x13
    80003b0e:	02d7533b          	divuw	t1,a4,a3
    80003b12:	415d05b3          	sub	a1,s10,s5
    80003b16:	40e60bbb          	subw	s7,a2,a4
    80003b1a:	39fd                	addiw	s3,s3,-1 # 18fff <_start-0x7ffe7001>
    80003b1c:	00b8a6b3          	slt	a3,a7,a1
    80003b20:	00631033          	sll	zero,t1,t1
    80003b24:	39fd                	addiw	s3,s3,-1
    80003b26:	024b6c3b          	remw	s8,s6,tp
    80003b2a:	03f88abb          	mulw	s5,a7,t6
    80003b2e:	0081feb3          	and	t4,gp,s0
    80003b32:	0019b433          	sltu	s0,s3,ra
    80003b36:	8ddd                	or	a1,a1,a5
    80003b38:	0001                	nop
    80003b3a:	00e78bb3          	add	s7,a5,a4
    80003b3e:	415ad39b          	sraiw	t2,s5,0x15
    80003b42:	8ddd                	or	a1,a1,a5
    80003b44:	0081feb3          	and	t4,gp,s0
    80003b48:	0199989b          	slliw	a7,s3,0x19
    80003b4c:	9ca9                	addw	s1,s1,a0
    80003b4e:	8ddd                	or	a1,a1,a5
    80003b50:	40b8563b          	sraw	a2,a6,a1
    80003b54:	8be9                	andi	a5,a5,26
    80003b56:	632d8813          	addi	a6,s11,1586
    80003b5a:	916c6113          	ori	sp,s8,-1770
    80003b5e:	80d5                	srli	s1,s1,0x15
    80003b60:	8ddd                	or	a1,a1,a5
    80003b62:	03f88abb          	mulw	s5,a7,t6
    80003b66:	39fd                	addiw	s3,s3,-1
    80003b68:	024b6c3b          	remw	s8,s6,tp
    80003b6c:	198c                	addi	a1,sp,240
    80003b6e:	00e110bb          	sllw	ra,sp,a4
    80003b72:	00e78bb3          	add	s7,a5,a4
    80003b76:	02b3a6b3          	mulhsu	a3,t2,a1
    80003b7a:	8ddd                	or	a1,a1,a5
    80003b7c:	02ba75bb          	remuw	a1,s4,a1
    80003b80:	02521cb3          	mulh	s9,tp,t0
    80003b84:	f0ab8c1b          	addiw	s8,s7,-246
    80003b88:	717d                	addi	sp,sp,-16
    80003b8a:	0081feb3          	and	t4,gp,s0
    80003b8e:	9d91                	subw	a1,a1,a2
    80003b90:	03f88abb          	mulw	s5,a7,t6
    80003b94:	60aa9017          	auipc	zero,0x60aa9
    80003b98:	85b6                	mv	a1,a3
    80003b9a:	86cd                	srai	a3,a3,0x13
    80003b9c:	69e5                	lui	s3,0x19
    80003b9e:	80d5                	srli	s1,s1,0x15
    80003ba0:	147d                	addi	s0,s0,-1
    80003ba2:	147d                	addi	s0,s0,-1
    80003ba4:	0019b433          	sltu	s0,s3,ra
    80003ba8:	01235933          	srl	s2,t1,s2
    80003bac:	00631033          	sll	zero,t1,t1
    80003bb0:	03edf033          	remu	zero,s11,t5
    80003bb4:	40bad8b3          	sra	a7,s5,a1
    80003bb8:	f0ab8c1b          	addiw	s8,s7,-246
    80003bbc:	8be9                	andi	a5,a5,26
    80003bbe:	8c0d                	sub	s0,s0,a1
    80003bc0:	03f88abb          	mulw	s5,a7,t6
    80003bc4:	4101                	li	sp,0
    80003bc6:	4081                	li	ra,0
    80003bc8:	008fb6b7          	lui	a3,0x8fb
    80003bcc:	1bf6869b          	addiw	a3,a3,447 # 8fb1bf <_start-0x7f704e41>
    80003bd0:	06b2                	slli	a3,a3,0xc
    80003bd2:	77368693          	addi	a3,a3,1907
    80003bd6:	06ba                	slli	a3,a3,0xe
    80003bd8:	6f168693          	addi	a3,a3,1777
    80003bdc:	06b6                	slli	a3,a3,0xd
    80003bde:	76068693          	addi	a3,a3,1888
    80003be2:	5a7d                	li	s4,-1
    80003be4:	5cfd                	li	s9,-1
    80003be6:	fff0089b          	addiw	a7,zero,-1
    80003bea:	18fe                	slli	a7,a7,0x3f
    80003bec:	fe2d3eb7          	lui	t4,0xfe2d3
    80003bf0:	a9fe8e9b          	addiw	t4,t4,-1377 # fffffffffe2d2a9f <_end+0xffffffff7e2b6117>
    80003bf4:	0eb2                	slli	t4,t4,0xc
    80003bf6:	dade8e93          	addi	t4,t4,-595
    80003bfa:	0eb6                	slli	t4,t4,0xd
    80003bfc:	927e8e93          	addi	t4,t4,-1753
    80003c00:	0eb6                	slli	t4,t4,0xd
    80003c02:	577e8e93          	addi	t4,t4,1399
    80003c06:	00368937          	lui	s2,0x368
    80003c0a:	0c99091b          	addiw	s2,s2,201 # 3680c9 <_start-0x7fc97f37>
    80003c0e:	0932                	slli	s2,s2,0xc
    80003c10:	3b790913          	addi	s2,s2,951
    80003c14:	0932                	slli	s2,s2,0xc
    80003c16:	0915                	addi	s2,s2,5
    80003c18:	093e                	slli	s2,s2,0xf
    80003c1a:	48390913          	addi	s2,s2,1155
    80003c1e:	4601                	li	a2,0
    80003c20:	fff0049b          	addiw	s1,zero,-1
    80003c24:	14fe                	slli	s1,s1,0x3f
    80003c26:	02d13133          	mulhu	sp,sp,a3
    80003c2a:	039106bb          	mulw	a3,sp,s9
    80003c2e:	0396f8bb          	remuw	a7,a3,s9
    80003c32:	03d950b3          	divu	ra,s2,t4
    80003c36:	0396f8bb          	remuw	a7,a3,s9
    80003c3a:	63288493          	addi	s1,a7,1586
    80003c3e:	039106bb          	mulw	a3,sp,s9
    80003c42:	0226f0b3          	remu	ra,a3,sp
    80003c46:	039106bb          	mulw	a3,sp,s9
    80003c4a:	001e8933          	add	s2,t4,ra
    80003c4e:	411088b3          	sub	a7,ra,a7
    80003c52:	f0aa0a1b          	addiw	s4,s4,-246
    80003c56:	411088b3          	sub	a7,ra,a7
    80003c5a:	f0aa0a1b          	addiw	s4,s4,-246
    80003c5e:	02da2633          	mulhsu	a2,s4,a3
    80003c62:	411088b3          	sub	a7,ra,a7
    80003c66:	001e8933          	add	s2,t4,ra
    80003c6a:	02da2633          	mulhsu	a2,s4,a3
    80003c6e:	9d91                	subw	a1,a1,a2
    80003c70:	a590fc93          	andi	s9,ra,-1447
    80003c74:	40b8563b          	sraw	a2,a6,a1
    80003c78:	40e60bbb          	subw	s7,a2,a4
    80003c7c:	8c0d                	sub	s0,s0,a1
    80003c7e:	03259313          	slli	t1,a1,0x32
    80003c82:	8dbe3f13          	sltiu	t5,t3,-1829
    80003c86:	02efcabb          	divw	s5,t6,a4
    80003c8a:	40bad8b3          	sra	a7,s5,a1
    80003c8e:	8ddd                	or	a1,a1,a5
    80003c90:	9ca9                	addw	s1,s1,a0
    80003c92:	0c4e                	slli	s8,s8,0x13
    80003c94:	0c4e                	slli	s8,s8,0x13
    80003c96:	02028433          	mul	s0,t0,zero
    80003c9a:	989a                	add	a7,a7,t1
    80003c9c:	a590fc93          	andi	s9,ra,-1447
    80003ca0:	8ddd                	or	a1,a1,a5
    80003ca2:	01235933          	srl	s2,t1,s2
    80003ca6:	a07baa93          	slti	s5,s7,-1529
    80003caa:	02efcabb          	divw	s5,t6,a4
    80003cae:	0c4e                	slli	s8,s8,0x13
    80003cb0:	198c                	addi	a1,sp,240
    80003cb2:	147d                	addi	s0,s0,-1
    80003cb4:	39fd                	addiw	s3,s3,-1 # 18fff <_start-0x7ffe7001>
    80003cb6:	03259313          	slli	t1,a1,0x32
    80003cba:	989a                	add	a7,a7,t1
    80003cbc:	9ca9                	addw	s1,s1,a0
    80003cbe:	9d91                	subw	a1,a1,a2
    80003cc0:	02b3a6b3          	mulhsu	a3,t2,a1
    80003cc4:	415d05b3          	sub	a1,s10,s5
    80003cc8:	02b3a6b3          	mulhsu	a3,t2,a1
    80003ccc:	f0ab8c1b          	addiw	s8,s7,-246
    80003cd0:	86cd                	srai	a3,a3,0x13
    80003cd2:	a590fc93          	andi	s9,ra,-1447
    80003cd6:	01235933          	srl	s2,t1,s2
    80003cda:	40e60bbb          	subw	s7,a2,a4
    80003cde:	0c4e                	slli	s8,s8,0x13
    80003ce0:	8dbe3f13          	sltiu	t5,t3,-1829
    80003ce4:	40bad8b3          	sra	a7,s5,a1
    80003ce8:	03f88abb          	mulw	s5,a7,t6
    80003cec:	00e78bb3          	add	s7,a5,a4
    80003cf0:	60aa9017          	auipc	zero,0x60aa9
    80003cf4:	03259313          	slli	t1,a1,0x32
    80003cf8:	9d91                	subw	a1,a1,a2
    80003cfa:	632d8813          	addi	a6,s11,1586
    80003cfe:	02db5fb3          	divu	t6,s6,a3
    80003d02:	02efcabb          	divw	s5,t6,a4
    80003d06:	a07baa93          	slti	s5,s7,-1529
    80003d0a:	989a                	add	a7,a7,t1
    80003d0c:	0199989b          	slliw	a7,s3,0x19
    80003d10:	02521cb3          	mulh	s9,tp,t0
    80003d14:	00ff4cb3          	xor	s9,t5,a5
    80003d18:	60aa9017          	auipc	zero,0x60aa9
    80003d1c:	40b8563b          	sraw	a2,a6,a1
    80003d20:	02db5fb3          	divu	t6,s6,a3
    80003d24:	a590fc93          	andi	s9,ra,-1447
    80003d28:	39fd                	addiw	s3,s3,-1
    80003d2a:	02efcabb          	divw	s5,t6,a4
    80003d2e:	01235933          	srl	s2,t1,s2
    80003d32:	03f88abb          	mulw	s5,a7,t6
    80003d36:	0019b433          	sltu	s0,s3,ra
    80003d3a:	0199989b          	slliw	a7,s3,0x19
    80003d3e:	004859bb          	srlw	s3,a6,tp
    80003d42:	0248b933          	mulhu	s2,a7,tp
    80003d46:	80d5                	srli	s1,s1,0x15
    80003d48:	7b9a5fb7          	lui	t6,0x7b9a5
    80003d4c:	8be9                	andi	a5,a5,26
    80003d4e:	40bad8b3          	sra	a7,s5,a1
    80003d52:	d9434f93          	xori	t6,t1,-620
    80003d56:	d9434f93          	xori	t6,t1,-620
    80003d5a:	03a3e833          	rem	a6,t2,s10
    80003d5e:	00e110bb          	sllw	ra,sp,a4
    80003d62:	00f9d01b          	srliw	zero,s3,0xf
    80003d66:	0083813b          	addw	sp,t2,s0
    80003d6a:	00e78bb3          	add	s7,a5,a4
    80003d6e:	147d                	addi	s0,s0,-1
    80003d70:	39fd                	addiw	s3,s3,-1
    80003d72:	415ad39b          	sraiw	t2,s5,0x15
    80003d76:	a07baa93          	slti	s5,s7,-1529
    80003d7a:	43b3d413          	srai	s0,t2,0x3b
    80003d7e:	8be9                	andi	a5,a5,26
    80003d80:	8ddd                	or	a1,a1,a5
    80003d82:	415ad39b          	sraiw	t2,s5,0x15
    80003d86:	4fbd                	li	t6,15
    80003d88:	00631033          	sll	zero,t1,t1
    80003d8c:	147d                	addi	s0,s0,-1
    80003d8e:	0019b433          	sltu	s0,s3,ra
    80003d92:	0081feb3          	and	t4,gp,s0
    80003d96:	0081feb3          	and	t4,gp,s0
    80003d9a:	01235933          	srl	s2,t1,s2
    80003d9e:	86cd                	srai	a3,a3,0x13
    80003da0:	0c4e                	slli	s8,s8,0x13
    80003da2:	d9434f93          	xori	t6,t1,-620
    80003da6:	0001                	nop
    80003da8:	00e110bb          	sllw	ra,sp,a4
    80003dac:	02db5fb3          	divu	t6,s6,a3
    80003db0:	035d4eb3          	div	t4,s10,s5
    80003db4:	02db5fb3          	divu	t6,s6,a3
    80003db8:	86cd                	srai	a3,a3,0x13
    80003dba:	43b3d413          	srai	s0,t2,0x3b
    80003dbe:	415ad39b          	sraiw	t2,s5,0x15
    80003dc2:	7b9a5fb7          	lui	t6,0x7b9a5
    80003dc6:	4fbd                	li	t6,15
    80003dc8:	00e78bb3          	add	s7,a5,a4
    80003dcc:	8dbe3f13          	sltiu	t5,t3,-1829
    80003dd0:	02ba75bb          	remuw	a1,s4,a1
    80003dd4:	632d8813          	addi	a6,s11,1586
    80003dd8:	024b6c3b          	remw	s8,s6,tp
    80003ddc:	4fbd                	li	t6,15
    80003dde:	00b8a6b3          	slt	a3,a7,a1
    80003de2:	415d05b3          	sub	a1,s10,s5
    80003de6:	004859bb          	srlw	s3,a6,tp
    80003dea:	717d                	addi	sp,sp,-16
    80003dec:	0248b933          	mulhu	s2,a7,tp
    80003df0:	02db5fb3          	divu	t6,s6,a3
    80003df4:	00b8a6b3          	slt	a3,a7,a1
    80003df8:	9d91                	subw	a1,a1,a2
    80003dfa:	632d8813          	addi	a6,s11,1586
    80003dfe:	00e110bb          	sllw	ra,sp,a4
    80003e02:	02efcabb          	divw	s5,t6,a4
    80003e06:	02db5fb3          	divu	t6,s6,a3
    80003e0a:	9ca9                	addw	s1,s1,a0
    80003e0c:	02521cb3          	mulh	s9,tp,t0
    80003e10:	86cd                	srai	a3,a3,0x13
    80003e12:	69e5                	lui	s3,0x19
    80003e14:	00e78bb3          	add	s7,a5,a4
    80003e18:	01235933          	srl	s2,t1,s2
    80003e1c:	8dbe3f13          	sltiu	t5,t3,-1829
    80003e20:	00631033          	sll	zero,t1,t1
    80003e24:	40b8563b          	sraw	a2,a6,a1
    80003e28:	989a                	add	a7,a7,t1
    80003e2a:	9ca9                	addw	s1,s1,a0
    80003e2c:	80d5                	srli	s1,s1,0x15
    80003e2e:	0083813b          	addw	sp,t2,s0
    80003e32:	8be9                	andi	a5,a5,26
    80003e34:	0083813b          	addw	sp,t2,s0
    80003e38:	60aa9017          	auipc	zero,0x60aa9
    80003e3c:	415d05b3          	sub	a1,s10,s5
    80003e40:	00ff4cb3          	xor	s9,t5,a5
    80003e44:	008f68b3          	or	a7,t5,s0
    80003e48:	40b8563b          	sraw	a2,a6,a1
    80003e4c:	8dbe3f13          	sltiu	t5,t3,-1829
    80003e50:	02b3a6b3          	mulhsu	a3,t2,a1
    80003e54:	415ad39b          	sraiw	t2,s5,0x15
    80003e58:	a590fc93          	andi	s9,ra,-1447
    80003e5c:	60aa9017          	auipc	zero,0x60aa9
    80003e60:	0001                	nop
    80003e62:	a590fc93          	andi	s9,ra,-1447
    80003e66:	01165993          	srli	s3,a2,0x11
    80003e6a:	86cd                	srai	a3,a3,0x13
    80003e6c:	0199989b          	slliw	a7,s3,0x19
    80003e70:	415d05b3          	sub	a1,s10,s5
    80003e74:	989a                	add	a7,a7,t1
    80003e76:	00e78bb3          	add	s7,a5,a4
    80003e7a:	40e60bbb          	subw	s7,a2,a4
    80003e7e:	00e110bb          	sllw	ra,sp,a4
    80003e82:	01165993          	srli	s3,a2,0x11
    80003e86:	147d                	addi	s0,s0,-1
    80003e88:	024b6c3b          	remw	s8,s6,tp
    80003e8c:	916c6113          	ori	sp,s8,-1770
    80003e90:	4fbd                	li	t6,15
    80003e92:	00b8a6b3          	slt	a3,a7,a1
    80003e96:	03edf033          	remu	zero,s11,t5
    80003e9a:	02d7533b          	divuw	t1,a4,a3
    80003e9e:	8be9                	andi	a5,a5,26
    80003ea0:	989a                	add	a7,a7,t1
    80003ea2:	02521cb3          	mulh	s9,tp,t0
    80003ea6:	8c0d                	sub	s0,s0,a1
    80003ea8:	0248b933          	mulhu	s2,a7,tp
    80003eac:	0c4e                	slli	s8,s8,0x13
    80003eae:	00e78bb3          	add	s7,a5,a4
    80003eb2:	0083813b          	addw	sp,t2,s0
    80003eb6:	0c4e                	slli	s8,s8,0x13
    80003eb8:	415d05b3          	sub	a1,s10,s5
    80003ebc:	43b3d413          	srai	s0,t2,0x3b
    80003ec0:	01165993          	srli	s3,a2,0x11
    80003ec4:	0083813b          	addw	sp,t2,s0
    80003ec8:	00f9d01b          	srliw	zero,s3,0xf
    80003ecc:	8d6d                	and	a0,a0,a1
    80003ece:	02efcabb          	divw	s5,t6,a4
    80003ed2:	0083813b          	addw	sp,t2,s0
    80003ed6:	147d                	addi	s0,s0,-1
    80003ed8:	008f68b3          	or	a7,t5,s0
    80003edc:	035d4eb3          	div	t4,s10,s5
    80003ee0:	198c                	addi	a1,sp,240
    80003ee2:	02521cb3          	mulh	s9,tp,t0
    80003ee6:	60aa9017          	auipc	zero,0x60aa9
    80003eea:	03259313          	slli	t1,a1,0x32
    80003eee:	03a3e833          	rem	a6,t2,s10
    80003ef2:	8ddd                	or	a1,a1,a5
    80003ef4:	00e110bb          	sllw	ra,sp,a4
    80003ef8:	01165993          	srli	s3,a2,0x11
    80003efc:	0001                	nop
    80003efe:	0001                	nop
    80003f00:	8c0d                	sub	s0,s0,a1
    80003f02:	8dbe3f13          	sltiu	t5,t3,-1829
    80003f06:	0248b933          	mulhu	s2,a7,tp
    80003f0a:	02028433          	mul	s0,t0,zero
    80003f0e:	00f9d01b          	srliw	zero,s3,0xf
    80003f12:	0019b433          	sltu	s0,s3,ra
    80003f16:	0c4e                	slli	s8,s8,0x13
    80003f18:	4fbd                	li	t6,15
    80003f1a:	60aa9017          	auipc	zero,0x60aa9
    80003f1e:	03259313          	slli	t1,a1,0x32
    80003f22:	0083813b          	addw	sp,t2,s0
    80003f26:	a590fc93          	andi	s9,ra,-1447
    80003f2a:	01165993          	srli	s3,a2,0x11
    80003f2e:	00b8a6b3          	slt	a3,a7,a1
    80003f32:	80d5                	srli	s1,s1,0x15
    80003f34:	8d6d                	and	a0,a0,a1
    80003f36:	60aa9017          	auipc	zero,0x60aa9
    80003f3a:	69e5                	lui	s3,0x19
    80003f3c:	00e78bb3          	add	s7,a5,a4
    80003f40:	00e110bb          	sllw	ra,sp,a4
    80003f44:	0199989b          	slliw	a7,s3,0x19
    80003f48:	0c4e                	slli	s8,s8,0x13
    80003f4a:	415ad39b          	sraiw	t2,s5,0x15
    80003f4e:	00b8a6b3          	slt	a3,a7,a1
    80003f52:	024b6c3b          	remw	s8,s6,tp
    80003f56:	02521cb3          	mulh	s9,tp,t0
    80003f5a:	40bad8b3          	sra	a7,s5,a1
    80003f5e:	8c0d                	sub	s0,s0,a1
    80003f60:	8dbe3f13          	sltiu	t5,t3,-1829
    80003f64:	4fbd                	li	t6,15
    80003f66:	69e5                	lui	s3,0x19
    80003f68:	008f68b3          	or	a7,t5,s0
    80003f6c:	8c21                	xor	s0,s0,s0
    80003f6e:	916c6113          	ori	sp,s8,-1770
    80003f72:	00f9d01b          	srliw	zero,s3,0xf
    80003f76:	01165993          	srli	s3,a2,0x11
    80003f7a:	8c21                	xor	s0,s0,s0
    80003f7c:	03a3e833          	rem	a6,t2,s10
    80003f80:	a590fc93          	andi	s9,ra,-1447
    80003f84:	01165993          	srli	s3,a2,0x11
    80003f88:	a07baa93          	slti	s5,s7,-1529
    80003f8c:	4fbd                	li	t6,15
    80003f8e:	03259313          	slli	t1,a1,0x32
    80003f92:	8dbe3f13          	sltiu	t5,t3,-1829
    80003f96:	415d05b3          	sub	a1,s10,s5
    80003f9a:	415d05b3          	sub	a1,s10,s5
    80003f9e:	40b8563b          	sraw	a2,a6,a1
    80003fa2:	69e5                	lui	s3,0x19
    80003fa4:	024b6c3b          	remw	s8,s6,tp
    80003fa8:	0248b933          	mulhu	s2,a7,tp
    80003fac:	916c6113          	ori	sp,s8,-1770
    80003fb0:	00631033          	sll	zero,t1,t1
    80003fb4:	d9434f93          	xori	t6,t1,-620
    80003fb8:	02ba75bb          	remuw	a1,s4,a1
    80003fbc:	916c6113          	ori	sp,s8,-1770
    80003fc0:	0c4e                	slli	s8,s8,0x13
    80003fc2:	02db5fb3          	divu	t6,s6,a3
    80003fc6:	035d4eb3          	div	t4,s10,s5
    80003fca:	02efcabb          	divw	s5,t6,a4
    80003fce:	60aa9017          	auipc	zero,0x60aa9
    80003fd2:	02db5fb3          	divu	t6,s6,a3
    80003fd6:	03f88abb          	mulw	s5,a7,t6
    80003fda:	60aa9017          	auipc	zero,0x60aa9
    80003fde:	03f88abb          	mulw	s5,a7,t6
    80003fe2:	8be9                	andi	a5,a5,26
    80003fe4:	86cd                	srai	a3,a3,0x13
    80003fe6:	415d05b3          	sub	a1,s10,s5
    80003fea:	03a3e833          	rem	a6,t2,s10
    80003fee:	02ba75bb          	remuw	a1,s4,a1
    80003ff2:	415d05b3          	sub	a1,s10,s5
    80003ff6:	a07baa93          	slti	s5,s7,-1529
    80003ffa:	035d4eb3          	div	t4,s10,s5
    80003ffe:	0019b433          	sltu	s0,s3,ra
    80004002:	01235933          	srl	s2,t1,s2
    80004006:	004859bb          	srlw	s3,a6,tp
    8000400a:	d9434f93          	xori	t6,t1,-620
    8000400e:	40bad8b3          	sra	a7,s5,a1
    80004012:	035d4eb3          	div	t4,s10,s5
    80004016:	02028433          	mul	s0,t0,zero
    8000401a:	86cd                	srai	a3,a3,0x13
    8000401c:	00ff4cb3          	xor	s9,t5,a5
    80004020:	02db5fb3          	divu	t6,s6,a3
    80004024:	00e78bb3          	add	s7,a5,a4
    80004028:	8c0d                	sub	s0,s0,a1
    8000402a:	02ba75bb          	remuw	a1,s4,a1
    8000402e:	0019b433          	sltu	s0,s3,ra
    80004032:	415ad39b          	sraiw	t2,s5,0x15
    80004036:	02b3a6b3          	mulhsu	a3,t2,a1
    8000403a:	86cd                	srai	a3,a3,0x13
    8000403c:	02521cb3          	mulh	s9,tp,t0
    80004040:	7b9a5fb7          	lui	t6,0x7b9a5
    80004044:	02ba75bb          	remuw	a1,s4,a1
    80004048:	02ba75bb          	remuw	a1,s4,a1
    8000404c:	39fd                	addiw	s3,s3,-1 # 18fff <_start-0x7ffe7001>
    8000404e:	8dbe3f13          	sltiu	t5,t3,-1829
    80004052:	40bad8b3          	sra	a7,s5,a1
    80004056:	02efcabb          	divw	s5,t6,a4
    8000405a:	00ff4cb3          	xor	s9,t5,a5
    8000405e:	0019b433          	sltu	s0,s3,ra
    80004062:	9d91                	subw	a1,a1,a2
    80004064:	717d                	addi	sp,sp,-16
    80004066:	60aa9017          	auipc	zero,0x60aa9
    8000406a:	43b3d413          	srai	s0,t2,0x3b
    8000406e:	f0ab8c1b          	addiw	s8,s7,-246
    80004072:	7b9a5fb7          	lui	t6,0x7b9a5
    80004076:	02521cb3          	mulh	s9,tp,t0
    8000407a:	0001                	nop
    8000407c:	004859bb          	srlw	s3,a6,tp
    80004080:	01165993          	srli	s3,a2,0x11
    80004084:	02b3a6b3          	mulhsu	a3,t2,a1
    80004088:	8c0d                	sub	s0,s0,a1
    8000408a:	40e60bbb          	subw	s7,a2,a4
    8000408e:	8be9                	andi	a5,a5,26
    80004090:	00b8a6b3          	slt	a3,a7,a1
    80004094:	0081feb3          	and	t4,gp,s0
    80004098:	415d05b3          	sub	a1,s10,s5
    8000409c:	00f9d01b          	srliw	zero,s3,0xf
    800040a0:	9d91                	subw	a1,a1,a2
    800040a2:	03259313          	slli	t1,a1,0x32
    800040a6:	60aa9017          	auipc	zero,0x60aa9
    800040aa:	03259313          	slli	t1,a1,0x32
    800040ae:	8dbe3f13          	sltiu	t5,t3,-1829
    800040b2:	d9434f93          	xori	t6,t1,-620
    800040b6:	8be9                	andi	a5,a5,26
    800040b8:	00ff4cb3          	xor	s9,t5,a5
    800040bc:	0081feb3          	and	t4,gp,s0
    800040c0:	198c                	addi	a1,sp,240
    800040c2:	a07baa93          	slti	s5,s7,-1529
    800040c6:	00b8a6b3          	slt	a3,a7,a1
    800040ca:	989a                	add	a7,a7,t1
    800040cc:	024b6c3b          	remw	s8,s6,tp
    800040d0:	02d7533b          	divuw	t1,a4,a3
    800040d4:	03f88abb          	mulw	s5,a7,t6
    800040d8:	717d                	addi	sp,sp,-16
    800040da:	01235933          	srl	s2,t1,s2
    800040de:	8c21                	xor	s0,s0,s0
    800040e0:	80d5                	srli	s1,s1,0x15
    800040e2:	02521cb3          	mulh	s9,tp,t0
    800040e6:	008f68b3          	or	a7,t5,s0
    800040ea:	8c21                	xor	s0,s0,s0
    800040ec:	a07baa93          	slti	s5,s7,-1529
    800040f0:	a07baa93          	slti	s5,s7,-1529
    800040f4:	0248b933          	mulhu	s2,a7,tp
    800040f8:	0083813b          	addw	sp,t2,s0
    800040fc:	43b3d413          	srai	s0,t2,0x3b
    80004100:	85b6                	mv	a1,a3
    80004102:	03259313          	slli	t1,a1,0x32
    80004106:	01235933          	srl	s2,t1,s2
    8000410a:	02028433          	mul	s0,t0,zero
    8000410e:	39fd                	addiw	s3,s3,-1
    80004110:	40bad8b3          	sra	a7,s5,a1
    80004114:	00e110bb          	sllw	ra,sp,a4
    80004118:	024b6c3b          	remw	s8,s6,tp
    8000411c:	00ff4cb3          	xor	s9,t5,a5
    80004120:	69e5                	lui	s3,0x19
    80004122:	01235933          	srl	s2,t1,s2
    80004126:	0019b433          	sltu	s0,s3,ra
    8000412a:	8ddd                	or	a1,a1,a5
    8000412c:	035d4eb3          	div	t4,s10,s5
    80004130:	0001                	nop
    80004132:	9d91                	subw	a1,a1,a2
    80004134:	0199989b          	slliw	a7,s3,0x19
    80004138:	8c0d                	sub	s0,s0,a1
    8000413a:	02ba75bb          	remuw	a1,s4,a1
    8000413e:	0248b933          	mulhu	s2,a7,tp
    80004142:	40e60bbb          	subw	s7,a2,a4
    80004146:	f0ab8c1b          	addiw	s8,s7,-246
    8000414a:	02028433          	mul	s0,t0,zero
    8000414e:	989a                	add	a7,a7,t1
    80004150:	008f68b3          	or	a7,t5,s0
    80004154:	9ca9                	addw	s1,s1,a0
    80004156:	a590fc93          	andi	s9,ra,-1447
    8000415a:	03f88abb          	mulw	s5,a7,t6
    8000415e:	02db5fb3          	divu	t6,s6,a3
    80004162:	86cd                	srai	a3,a3,0x13
    80004164:	0248b933          	mulhu	s2,a7,tp
    80004168:	a07baa93          	slti	s5,s7,-1529
    8000416c:	4fbd                	li	t6,15
    8000416e:	198c                	addi	a1,sp,240
    80004170:	02028433          	mul	s0,t0,zero
    80004174:	00f9d01b          	srliw	zero,s3,0xf
    80004178:	8ddd                	or	a1,a1,a5
    8000417a:	8d6d                	and	a0,a0,a1
    8000417c:	00f9d01b          	srliw	zero,s3,0xf
    80004180:	8dbe3f13          	sltiu	t5,t3,-1829
    80004184:	69e5                	lui	s3,0x19
    80004186:	43b3d413          	srai	s0,t2,0x3b
    8000418a:	03a3e833          	rem	a6,t2,s10
    8000418e:	02ba75bb          	remuw	a1,s4,a1
    80004192:	40e60bbb          	subw	s7,a2,a4
    80004196:	03259313          	slli	t1,a1,0x32
    8000419a:	632d8813          	addi	a6,s11,1586
    8000419e:	0001                	nop
    800041a0:	0c4e                	slli	s8,s8,0x13
    800041a2:	8ddd                	or	a1,a1,a5
    800041a4:	f0ab8c1b          	addiw	s8,s7,-246
    800041a8:	035d4eb3          	div	t4,s10,s5
    800041ac:	198c                	addi	a1,sp,240
    800041ae:	02521cb3          	mulh	s9,tp,t0
    800041b2:	4fbd                	li	t6,15
    800041b4:	8c0d                	sub	s0,s0,a1
    800041b6:	008f68b3          	or	a7,t5,s0
    800041ba:	8dbe3f13          	sltiu	t5,t3,-1829
    800041be:	40bad8b3          	sra	a7,s5,a1
    800041c2:	40b8563b          	sraw	a2,a6,a1
    800041c6:	00f9d01b          	srliw	zero,s3,0xf
    800041ca:	989a                	add	a7,a7,t1
    800041cc:	85b6                	mv	a1,a3
    800041ce:	02ba75bb          	remuw	a1,s4,a1
    800041d2:	8c0d                	sub	s0,s0,a1
    800041d4:	03259313          	slli	t1,a1,0x32
    800041d8:	035d4eb3          	div	t4,s10,s5
    800041dc:	01235933          	srl	s2,t1,s2
    800041e0:	8d6d                	and	a0,a0,a1
    800041e2:	198c                	addi	a1,sp,240
    800041e4:	43b3d413          	srai	s0,t2,0x3b
    800041e8:	0083813b          	addw	sp,t2,s0
    800041ec:	60aa9017          	auipc	zero,0x60aa9
    800041f0:	0081feb3          	and	t4,gp,s0
    800041f4:	4981                	li	s3,0
    800041f6:	fff00e9b          	addiw	t4,zero,-1
    800041fa:	1efe                	slli	t4,t4,0x3f
    800041fc:	fe3c1f37          	lui	t5,0xfe3c1
    80004200:	2f1f0f1b          	addiw	t5,t5,753 # fffffffffe3c12f1 <_end+0xffffffff7e3a4969>
    80004204:	0f32                	slli	t5,t5,0xc
    80004206:	34df0f13          	addi	t5,t5,845
    8000420a:	0f32                	slli	t5,t5,0xc
    8000420c:	267f0f13          	addi	t5,t5,615
    80004210:	0f3a                	slli	t5,t5,0xe
    80004212:	af1f0f13          	addi	t5,t5,-1295
    80004216:	4d01                	li	s10,0
    80004218:	4c81                	li	s9,0
    8000421a:	54fd                	li	s1,-1
    8000421c:	567d                	li	a2,-1
    8000421e:	4301                	li	t1,0
    80004220:	fff0051b          	addiw	a0,zero,-1
    80004224:	157e                	slli	a0,a0,0x3f
    80004226:	ffed8b37          	lui	s6,0xffed8
    8000422a:	331b0b1b          	addiw	s6,s6,817 # ffffffffffed8331 <_end+0xffffffff7febb9a9>
    8000422e:	0b32                	slli	s6,s6,0xc
    80004230:	5d9b0b13          	addi	s6,s6,1497
    80004234:	0b3a                	slli	s6,s6,0xe
    80004236:	3b5b0b13          	addi	s6,s6,949
    8000423a:	0b3a                	slli	s6,s6,0xe
    8000423c:	c37b0b13          	addi	s6,s6,-969
    80004240:	03ecd333          	divu	t1,s9,t5
    80004244:	41630b33          	sub	s6,t1,s6
    80004248:	02cf49bb          	divw	s3,t5,a2
    8000424c:	03ecd333          	divu	t1,s9,t5
    80004250:	0299f333          	remu	t1,s3,s1
    80004254:	60aa9317          	auipc	t1,0x60aa9
    80004258:	f0ad0d1b          	addiw	s10,s10,-246
    8000425c:	0334b4b3          	mulhu	s1,s1,s3
    80004260:	03ecd333          	divu	t1,s9,t5
    80004264:	03699eb3          	mulh	t4,s3,s6
    80004268:	0299f333          	remu	t1,s3,s1
    8000426c:	0299f333          	remu	t1,s3,s1
    80004270:	41e60cbb          	subw	s9,a2,t5
    80004274:	036b4533          	div	a0,s6,s6
    80004278:	006f0cb3          	add	s9,t5,t1
    8000427c:	036b4533          	div	a0,s6,s6
    80004280:	03699eb3          	mulh	t4,s3,s6
    80004284:	01dd053b          	addw	a0,s10,t4
    80004288:	02ad6f33          	rem	t5,s10,a0
    8000428c:	7b9a5eb7          	lui	t4,0x7b9a5
    80004290:	03ecd333          	divu	t1,s9,t5
    80004294:	f0ad0d1b          	addiw	s10,s10,-246
    80004298:	60aa9317          	auipc	t1,0x60aa9
    8000429c:	03699eb3          	mulh	t4,s3,s6
    800042a0:	80d5                	srli	s1,s1,0x15
    800042a2:	a07baa93          	slti	s5,s7,-1529
    800042a6:	024b6c3b          	remw	s8,s6,tp
    800042aa:	198c                	addi	a1,sp,240
    800042ac:	0001                	nop
    800042ae:	03259313          	slli	t1,a1,0x32
    800042b2:	01235933          	srl	s2,t1,s2
    800042b6:	0c4e                	slli	s8,s8,0x13
    800042b8:	00ff4cb3          	xor	s9,t5,a5
    800042bc:	8dbe3f13          	sltiu	t5,t3,-1829
    800042c0:	00631033          	sll	zero,t1,t1
    800042c4:	00b8a6b3          	slt	a3,a7,a1
    800042c8:	40e60bbb          	subw	s7,a2,a4
    800042cc:	80d5                	srli	s1,s1,0x15
    800042ce:	80d5                	srli	s1,s1,0x15
    800042d0:	632d8813          	addi	a6,s11,1586
    800042d4:	415ad39b          	sraiw	t2,s5,0x15
    800042d8:	024b6c3b          	remw	s8,s6,tp
    800042dc:	03edf033          	remu	zero,s11,t5
    800042e0:	43b3d413          	srai	s0,t2,0x3b
    800042e4:	02521cb3          	mulh	s9,tp,t0
    800042e8:	02ba75bb          	remuw	a1,s4,a1
    800042ec:	03f88abb          	mulw	s5,a7,t6
    800042f0:	0081feb3          	and	t4,gp,s0
    800042f4:	03edf033          	remu	zero,s11,t5
    800042f8:	02521cb3          	mulh	s9,tp,t0
    800042fc:	d9434f93          	xori	t6,t1,-620
    80004300:	0248b933          	mulhu	s2,a7,tp
    80004304:	03a3e833          	rem	a6,t2,s10
    80004308:	0c4e                	slli	s8,s8,0x13
    8000430a:	43b3d413          	srai	s0,t2,0x3b
    8000430e:	0001                	nop
    80004310:	717d                	addi	sp,sp,-16
    80004312:	40e60bbb          	subw	s7,a2,a4
    80004316:	147d                	addi	s0,s0,-1
    80004318:	02521cb3          	mulh	s9,tp,t0
    8000431c:	01165993          	srli	s3,a2,0x11
    80004320:	00e110bb          	sllw	ra,sp,a4
    80004324:	8be9                	andi	a5,a5,26
    80004326:	03a3e833          	rem	a6,t2,s10
    8000432a:	80d5                	srli	s1,s1,0x15
    8000432c:	916c6113          	ori	sp,s8,-1770
    80004330:	0081feb3          	and	t4,gp,s0
    80004334:	147d                	addi	s0,s0,-1
    80004336:	01235933          	srl	s2,t1,s2
    8000433a:	0019b433          	sltu	s0,s3,ra
    8000433e:	024b6c3b          	remw	s8,s6,tp
    80004342:	8be9                	andi	a5,a5,26
    80004344:	85b6                	mv	a1,a3
    80004346:	01165993          	srli	s3,a2,0x11
