
riscv_arithmetic_basic_test_0.o:     file format elf64-littleriscv


Disassembly of section .text:

0000000080000000 <_start>:
    80000000:	f14022f3          	csrr	t0,mhartid
    80000004:	4301                	li	t1,0
    80000006:	00628263          	beq	t0,t1,8000000a <_start+0xa>
    8000000a:	00000897          	auipc	a7,0x0
    8000000e:	00c88893          	addi	a7,a7,12 # 80000016 <h0_start>
    80000012:	00088067          	jr	a7

0000000080000016 <h0_start>:
    80000016:	fff0011b          	addiw	sp,zero,-1
    8000001a:	114e                	slli	sp,sp,0x33
    8000001c:	0105                	addi	sp,sp,1
    8000001e:	0132                	slli	sp,sp,0xc
    80000020:	10410113          	addi	sp,sp,260
    80000024:	30111073          	csrw	misa,sp

0000000080000028 <kernel_sp>:
    80000028:	00035417          	auipc	s0,0x35
    8000002c:	95840413          	addi	s0,s0,-1704 # 80034980 <kernel_stack_end>

0000000080000030 <trap_vec_init>:
    80000030:	00012117          	auipc	sp,0x12
    80000034:	af010113          	addi	sp,sp,-1296 # 80011b20 <mtvec_handler>
    80000038:	00116113          	ori	sp,sp,1
    8000003c:	30511073          	csrw	mtvec,sp

0000000080000040 <mepc_setup>:
    80000040:	00000117          	auipc	sp,0x0
    80000044:	02410113          	addi	sp,sp,36 # 80000064 <init>
    80000048:	34111073          	csrw	mepc,sp

000000008000004c <custom_csr_setup>:
    8000004c:	0001                	nop

000000008000004e <init_machine_mode>:
    8000004e:	00002137          	lui	sp,0x2
    80000052:	8001011b          	addiw	sp,sp,-2048 # 1800 <_start-0x7fffe800>
    80000056:	30011073          	csrw	mstatus,sp
    8000005a:	4101                	li	sp,0
    8000005c:	30411073          	csrw	mie,sp
    80000060:	30200073          	mret

0000000080000064 <init>:
    80000064:	00057037          	lui	zero,0x57
    80000068:	ea70001b          	addiw	zero,zero,-345
    8000006c:	00d01013          	slli	zero,zero,0xd
    80000070:	4ca00013          	li	zero,1226
    80000074:	0010009b          	addiw	ra,zero,1
    80000078:	00fe                	slli	ra,ra,0x1f
    8000007a:	412d                	li	sp,11
    8000007c:	41a1                	li	gp,8
    8000007e:	000c3237          	lui	tp,0xc3
    80000082:	82f2021b          	addiw	tp,tp,-2001 # c282f <_start-0x7ff3d7d1>
    80000086:	0232                	slli	tp,tp,0xc
    80000088:	07220213          	addi	tp,tp,114 # 72 <_start-0x7fffff8e>
    8000008c:	0002f2b7          	lui	t0,0x2f
    80000090:	7e12829b          	addiw	t0,t0,2017 # 2f7e1 <_start-0x7ffd081f>
    80000094:	02ba                	slli	t0,t0,0xe
    80000096:	e3528293          	addi	t0,t0,-459
    8000009a:	4301                	li	t1,0
    8000009c:	0007e3b7          	lui	t2,0x7e
    800000a0:	7c33839b          	addiw	t2,t2,1987 # 7e7c3 <_start-0x7ff8183d>
    800000a4:	03b6                	slli	t2,t2,0xd
    800000a6:	e6538393          	addi	t2,t2,-411
    800000aa:	202104b7          	lui	s1,0x20210
    800000ae:	ea64849b          	addiw	s1,s1,-346 # 2020fea6 <_start-0x5fdf015a>
    800000b2:	0010051b          	addiw	a0,zero,1
    800000b6:	057e                	slli	a0,a0,0x1f
    800000b8:	4581                	li	a1,0
    800000ba:	3e3a9637          	lui	a2,0x3e3a9
    800000be:	d246061b          	addiw	a2,a2,-732 # 3e3a8d24 <_start-0x41c572dc>
    800000c2:	0010069b          	addiw	a3,zero,1
    800000c6:	06fe                	slli	a3,a3,0x1f
    800000c8:	4701                	li	a4,0
    800000ca:	482d                	li	a6,11
    800000cc:	0007d8b7          	lui	a7,0x7d
    800000d0:	b738889b          	addiw	a7,a7,-1165 # 7cb73 <_start-0x7ff8348d>
    800000d4:	08b6                	slli	a7,a7,0xd
    800000d6:	d4788893          	addi	a7,a7,-697
    800000da:	493d                	li	s2,15
    800000dc:	000fa9b7          	lui	s3,0xfa
    800000e0:	74d9899b          	addiw	s3,s3,1869 # fa74d <_start-0x7ff058b3>
    800000e4:	09b2                	slli	s3,s3,0xc
    800000e6:	38b98993          	addi	s3,s3,907
    800000ea:	4a35                	li	s4,13
    800000ec:	4e1baab7          	lui	s5,0x4e1ba
    800000f0:	541a8a9b          	addiw	s5,s5,1345 # 4e1ba541 <_start-0x31e45abf>
    800000f4:	00100b1b          	addiw	s6,zero,1
    800000f8:	0b7e                	slli	s6,s6,0x1f
    800000fa:	4b95                	li	s7,5
    800000fc:	6c7d                	lui	s8,0x1f
    800000fe:	fbdc0c1b          	addiw	s8,s8,-67 # 1efbd <_start-0x7ffe1043>
    80000102:	0c3e                	slli	s8,s8,0xf
    80000104:	8efc0c13          	addi	s8,s8,-1809
    80000108:	000f4cb7          	lui	s9,0xf4
    8000010c:	9ffc8c9b          	addiw	s9,s9,-1537 # f39ff <_start-0x7ff0c601>
    80000110:	0cb2                	slli	s9,s9,0xc
    80000112:	632c8c93          	addi	s9,s9,1586
    80000116:	0f04fd37          	lui	s10,0xf04f
    8000011a:	55bd0d1b          	addiw	s10,s10,1371 # f04f55b <_start-0x70fb0aa5>
    8000011e:	4d85                	li	s11,1
    80000120:	000ede37          	lui	t3,0xed
    80000124:	57de0e1b          	addiw	t3,t3,1405 # ed57d <_start-0x7ff12a83>
    80000128:	0e32                	slli	t3,t3,0xc
    8000012a:	810e0e13          	addi	t3,t3,-2032
    8000012e:	000f4eb7          	lui	t4,0xf4
    80000132:	779e8e9b          	addiw	t4,t4,1913 # f4779 <_start-0x7ff0b887>
    80000136:	0eb2                	slli	t4,t4,0xc
    80000138:	63ee8e93          	addi	t4,t4,1598
    8000013c:	4f21                	li	t5,8
    8000013e:	000e4fb7          	lui	t6,0xe4
    80000142:	109f8f9b          	addiw	t6,t6,265 # e4109 <_start-0x7ff1bef7>
    80000146:	0fb2                	slli	t6,t6,0xc
    80000148:	fb1f8f93          	addi	t6,t6,-79
    8000014c:	0002d797          	auipc	a5,0x2d
    80000150:	b3478793          	addi	a5,a5,-1228 # 8002cc80 <user_stack_end>

0000000080000154 <main>:
    80000154:	00016f97          	auipc	t6,0x16
    80000158:	ac4f8f93          	addi	t6,t6,-1340 # 80015c18 <region_1+0x2bd0>
    8000015c:	4a6f9c03          	lh	s8,1190(t6)
    80000160:	f36d3393          	sltiu	t2,s10,-202
    80000164:	87bf8803          	lb	a6,-1925(t6)
    80000168:	4f5fa823          	sw	s5,1264(t6)
    8000016c:	8f05                	sub	a4,a4,s1
    8000016e:	bfbf87a3          	sb	s11,-1041(t6)
    80000172:	a7bf89a3          	sb	s11,-1421(t6)
    80000176:	3d4f8803          	lb	a6,980(t6)
    8000017a:	d06fc283          	lbu	t0,-762(t6)
    8000017e:	db3e4993          	xori	s3,t3,-589
    80000182:	fb7fc283          	lbu	t0,-73(t6)
    80000186:	00494bb3          	xor	s7,s2,tp
    8000018a:	b0c9fa93          	andi	s5,s3,-1268
    8000018e:	02ad6a33          	rem	s4,s10,a0
    80000192:	aadf8803          	lb	a6,-1363(t6)
    80000196:	d58fc283          	lbu	t0,-680(t6)
    8000019a:	b03fc283          	lbu	t0,-1277(t6)
    8000019e:	111fc283          	lbu	t0,273(t6)
    800001a2:	0261653b          	remw	a0,sp,t1
    800001a6:	055faa23          	sw	s5,84(t6)
    800001aa:	6dafd803          	lhu	a6,1754(t6)
    800001ae:	1a88                	addi	a0,sp,368
    800001b0:	40d0deb3          	sra	t4,ra,a3
    800001b4:	ae0f9523          	sh	zero,-1302(t6)
    800001b8:	49bf85a3          	sb	s11,1163(t6)
    800001bc:	c5ff8803          	lb	a6,-929(t6)
    800001c0:	6bbf81a3          	sb	s11,1699(t6)
    800001c4:	9ecfc283          	lbu	t0,-1556(t6)
    800001c8:	c1cfa703          	lw	a4,-996(t6)
    800001cc:	078fbc23          	sd	s8,120(t6)
    800001d0:	35bf84a3          	sb	s11,841(t6)
    800001d4:	8ef1                	and	a3,a3,a2
    800001d6:	29bfc283          	lbu	t0,667(t6)
    800001da:	1d6fc283          	lbu	t0,470(t6)
    800001de:	870fe083          	lwu	ra,-1936(t6)
    800001e2:	27efd803          	lhu	a6,638(t6)
    800001e6:	bbdf8803          	lb	a6,-1091(t6)
    800001ea:	0001d317          	auipc	t1,0x1d
    800001ee:	c9d30313          	addi	t1,t1,-867 # 8001ce87 <region_1+0x9e3f>
    800001f2:	89aa                	mv	s3,a0
    800001f4:	003b3db3          	sltu	s11,s6,gp
    800001f8:	53b30523          	sb	s11,1322(t1)
    800001fc:	717d                	addi	sp,sp,-16
    800001fe:	00251b3b          	sllw	s6,a0,sp
    80000202:	cbb30623          	sb	s11,-852(t1)
    80000206:	02d440bb          	divw	ra,s0,a3
    8000020a:	7ba34283          	lbu	t0,1978(t1)
    8000020e:	55d0ac13          	slti	s8,ra,1373
    80000212:	75b30223          	sb	s11,1860(t1)
    80000216:	d4f78d1b          	addiw	s10,a5,-689
    8000021a:	0310a033          	mulhsu	zero,ra,a7
    8000021e:	33430903          	lb	s2,820(t1)
    80000222:	900315a3          	sh	zero,-1781(t1)
    80000226:	d3b30f23          	sb	s11,-706(t1)
    8000022a:	01ff55bb          	srlw	a1,t5,t6
    8000022e:	d4f78d1b          	addiw	s10,a5,-689
    80000232:	2e331c83          	lh	s9,739(t1)
    80000236:	00665b33          	srl	s6,a2,t1
    8000023a:	02e99f13          	slli	t5,s3,0x2e
    8000023e:	01e11933          	sll	s2,sp,t5
    80000242:	9fb30e23          	sb	s11,-1540(t1)
    80000246:	00665b33          	srl	s6,a2,t1
    8000024a:	74a34283          	lbu	t0,1866(t1)
    8000024e:	d7b30903          	lb	s2,-645(t1)
    80000252:	06d32803          	lw	a6,109(t1)
    80000256:	017ea4b3          	slt	s1,t4,s7
    8000025a:	48b31c83          	lh	s9,1163(t1)
    8000025e:	00018517          	auipc	a0,0x18
    80000262:	abc50513          	addi	a0,a0,-1348 # 80017d1a <region_1+0x4cd2>
    80000266:	30051523          	sh	zero,778(a0)
    8000026a:	00494c33          	xor	s8,s2,tp
    8000026e:	00494c33          	xor	s8,s2,tp
    80000272:	83b50da3          	sb	s11,-1989(a0)
    80000276:	a5b500a3          	sb	s11,-1471(a0)
    8000027a:	0001                	nop
    8000027c:	b0c9fb13          	andi	s6,s3,-1268
    80000280:	2d850903          	lb	s2,728(a0)
    80000284:	4fc55903          	lhu	s2,1276(a0)
    80000288:	85554283          	lbu	t0,-1963(a0)
    8000028c:	01a4d293          	srli	t0,s1,0x1a
    80000290:	85b50a23          	sb	s11,-1964(a0)
    80000294:	98b50903          	lb	s2,-1653(a0)
    80000298:	9ead                	addw	a3,a3,a1
    8000029a:	017ea3b3          	slt	t2,t4,s7
    8000029e:	41b5d01b          	sraiw	zero,a1,0x1b
    800002a2:	0df5                	addi	s11,s11,29
    800002a4:	4e85                	li	t4,1
    800002a6:	0806                	slli	a6,a6,0x1
    800002a8:	9e11                	subw	a2,a2,a2
    800002aa:	0001                	nop
    800002ac:	0310a033          	mulhsu	zero,ra,a7
    800002b0:	3074ba37          	lui	s4,0x3074b
    800002b4:	f36d3393          	sltiu	t2,s10,-202
    800002b8:	16154283          	lbu	t0,353(a0)
    800002bc:	01dc549b          	srliw	s1,s8,0x1d
    800002c0:	3b7d                	addiw	s6,s6,-1
    800002c2:	c7b505a3          	sb	s11,-917(a0)
    800002c6:	00494c33          	xor	s8,s2,tp
    800002ca:	b0e52803          	lw	a6,-1266(a0)
    800002ce:	00013b17          	auipc	s6,0x13
    800002d2:	aeeb0b13          	addi	s6,s6,-1298 # 80012dbc <region_0+0xd74>
    800002d6:	00eb4283          	lbu	t0,14(s6)
    800002da:	a1c90393          	addi	t2,s2,-1508
    800002de:	fb5b4283          	lbu	t0,-75(s6)
    800002e2:	f2ab4283          	lbu	t0,-214(s6)
    800002e6:	007780b3          	add	ra,a5,t2
    800002ea:	40d0df33          	sra	t5,ra,a3
    800002ee:	8a19                	andi	a2,a2,6
    800002f0:	fb5b4283          	lbu	t0,-75(s6)
    800002f4:	0cfb4283          	lbu	t0,207(s6)
    800002f8:	02ad6a33          	rem	s4,s10,a0
    800002fc:	0b3b0803          	lb	a6,179(s6)
    80000300:	039b56b3          	divu	a3,s6,s9
    80000304:	0a9b4283          	lbu	t0,169(s6)
    80000308:	01bb02a3          	sb	s11,5(s6)
    8000030c:	fbbb0f23          	sb	s11,-66(s6)
    80000310:	00d5863b          	addw	a2,a1,a3
    80000314:	f67b4283          	lbu	t0,-153(s6)
    80000318:	047b4283          	lbu	t0,71(s6)
    8000031c:	058b3e23          	sd	s8,92(s6)
    80000320:	faab0803          	lb	a6,-86(s6)
    80000324:	00d5863b          	addw	a2,a1,a3
    80000328:	0ddb0803          	lb	a6,221(s6)
    8000032c:	008974b3          	and	s1,s2,s0
    80000330:	02e99f13          	slli	t5,s3,0x2e
    80000334:	f9bb0ba3          	sb	s11,-105(s6)
    80000338:	3074b9b7          	lui	s3,0x3074b
    8000033c:	6fd9                	lui	t6,0x16
    8000033e:	0261653b          	remw	a0,sp,t1
    80000342:	1a88                	addi	a0,sp,368
    80000344:	40168cb3          	sub	s9,a3,ra
    80000348:	ff6b0803          	lb	a6,-10(s6)
    8000034c:	00018297          	auipc	t0,0x18
    80000350:	14928293          	addi	t0,t0,329 # 80018495 <region_1+0x544d>
    80000354:	8eb5                	xor	a3,a3,a3
    80000356:	02e99f13          	slli	t5,s3,0x2e
    8000035a:	8ef1                	and	a3,a3,a2
    8000035c:	007780b3          	add	ra,a5,t2
    80000360:	85f5                	srai	a1,a1,0x1d
    80000362:	55d0ac13          	slti	s8,ra,1373
    80000366:	8375                	srli	a4,a4,0x1d
    80000368:	09d28903          	lb	s2,157(t0)
    8000036c:	0c029fa3          	sh	zero,223(t0)
    80000370:	fdb28723          	sb	s11,-50(t0)
    80000374:	03ae53bb          	divuw	t2,t3,s10
    80000378:	03f88233          	mul	tp,a7,t6
    8000037c:	0310a033          	mulhsu	zero,ra,a7
    80000380:	8ef1                	and	a3,a3,a2
    80000382:	f9b28d23          	sb	s11,-102(t0)
    80000386:	0310a033          	mulhsu	zero,ra,a7
    8000038a:	f3b28c23          	sb	s11,-200(t0)
    8000038e:	039b5733          	divu	a4,s6,s9
    80000392:	03ae53bb          	divuw	t2,t3,s10
    80000396:	01e11933          	sll	s2,sp,t5
    8000039a:	060290a3          	sh	zero,97(t0)
    8000039e:	f8828903          	lb	s2,-120(t0)
    800003a2:	717d                	addi	sp,sp,-16
    800003a4:	05a28903          	lb	s2,90(t0)
    800003a8:	f1b28b23          	sb	s11,-234(t0)
    800003ac:	02e99f13          	slli	t5,s3,0x2e
    800003b0:	01dc551b          	srliw	a0,s8,0x1d
    800003b4:	06b2c303          	lbu	t1,107(t0)
    800003b8:	01a4d313          	srli	t1,s1,0x1a
    800003bc:	fbb28623          	sb	s11,-84(t0)
    800003c0:	00012117          	auipc	sp,0x12
    800003c4:	78810113          	addi	sp,sp,1928 # 80012b48 <region_0+0xb00>
    800003c8:	f1110903          	lb	s2,-239(sp)
    800003cc:	05b108a3          	sb	s11,81(sp)
    800003d0:	01e11933          	sll	s2,sp,t5
    800003d4:	f8110903          	lb	s2,-127(sp)
    800003d8:	0df14303          	lbu	t1,223(sp)
    800003dc:	fc011623          	sh	zero,-52(sp)
    800003e0:	9d3d                	addw	a0,a0,a5
    800003e2:	f9f10903          	lb	s2,-97(sp)
    800003e6:	0806                	slli	a6,a6,0x1
    800003e8:	f5b10a23          	sb	s11,-172(sp)
    800003ec:	003b3db3          	sltu	s11,s6,gp
    800003f0:	00897533          	and	a0,s2,s0
    800003f4:	0310a033          	mulhsu	zero,ra,a7
    800003f8:	01dc551b          	srliw	a0,s8,0x1d
    800003fc:	3b7d                	addiw	s6,s6,-1
    800003fe:	40d0df33          	sra	t5,ra,a3
    80000402:	f8fa                	sd	t5,112(sp)
    80000404:	01dc551b          	srliw	a0,s8,0x1d
    80000408:	89aa                	mv	s3,a0
    8000040a:	194deb97          	auipc	s7,0x194de
    8000040e:	003b3db3          	sltu	s11,s6,gp
    80000412:	0db104a3          	sb	s11,201(sp)
    80000416:	fe310903          	lb	s2,-29(sp)
    8000041a:	02984033          	div	zero,a6,s1
    8000041e:	03b10ea3          	sb	s11,61(sp)
    80000422:	0db10da3          	sb	s11,219(sp)
    80000426:	f36d3493          	sltiu	s1,s10,-202
    8000042a:	04e15903          	lhu	s2,78(sp)
    8000042e:	00251b3b          	sllw	s6,a0,sp
    80000432:	09b10523          	sb	s11,138(sp)
    80000436:	f3e10903          	lb	s2,-194(sp)

000000008000043a <main_14>:
    8000043a:	02e000ef          	jal	80000468 <main_14+0x2e>
    8000043e:	00e000ef          	jal	8000044c <main_14+0x12>
    80000442:	a009                	j	80000444 <main_14+0xa>
    80000444:	00a000ef          	jal	8000044e <main_14+0x14>
    80000448:	02c000ef          	jal	80000474 <main_14+0x3a>
    8000044c:	a819                	j	80000462 <main_14+0x28>
    8000044e:	004000ef          	jal	80000452 <main_14+0x18>
    80000452:	00c000ef          	jal	8000045e <main_14+0x24>
    80000456:	01a000ef          	jal	80000470 <main_14+0x36>
    8000045a:	00c000ef          	jal	80000466 <main_14+0x2c>
    8000045e:	00e000ef          	jal	8000046c <main_14+0x32>
    80000462:	b7c5                	j	80000442 <main_14+0x8>
    80000464:	bfcd                	j	80000456 <main_14+0x1c>
    80000466:	b7cd                	j	80000448 <main_14+0xe>
    80000468:	fd7ff0ef          	jal	8000043e <main_14+0x4>
    8000046c:	ff9ff0ef          	jal	80000464 <main_14+0x2a>
    80000470:	febff0ef          	jal	8000045a <main_14+0x20>
    80000474:	003b3d33          	sltu	s10,s6,gp

0000000080000478 <main_16>:
    80000478:	046000ef          	jal	800004be <main_16+0x46>
    8000047c:	032000ef          	jal	800004ae <main_16+0x36>
    80000480:	01e000ef          	jal	8000049e <main_16+0x26>
    80000484:	026000ef          	jal	800004aa <main_16+0x32>
    80000488:	a011                	j	8000048c <main_16+0x14>
    8000048a:	bffd                	j	80000488 <main_16+0x10>
    8000048c:	004000ef          	jal	80000490 <main_16+0x18>
    80000490:	028000ef          	jal	800004b8 <main_16+0x40>
    80000494:	b7f5                	j	80000480 <main_16+0x8>
    80000496:	a801                	j	800004a6 <main_16+0x2e>
    80000498:	a825                	j	800004d0 <main_16+0x58>
    8000049a:	008000ef          	jal	800004a2 <main_16+0x2a>
    8000049e:	ff9ff0ef          	jal	80000496 <main_16+0x1e>
    800004a2:	010000ef          	jal	800004b2 <main_16+0x3a>
    800004a6:	fdfff0ef          	jal	80000484 <main_16+0xc>
    800004aa:	010000ef          	jal	800004ba <main_16+0x42>
    800004ae:	fddff0ef          	jal	8000048a <main_16+0x12>
    800004b2:	a819                	j	800004c8 <main_16+0x50>
    800004b4:	fe7ff0ef          	jal	8000049a <main_16+0x22>
    800004b8:	b7c5                	j	80000498 <main_16+0x20>
    800004ba:	008000ef          	jal	800004c2 <main_16+0x4a>
    800004be:	00e000ef          	jal	800004cc <main_16+0x54>
    800004c2:	004000ef          	jal	800004c6 <main_16+0x4e>
    800004c6:	a031                	j	800004d2 <main_16+0x5a>
    800004c8:	fcdff0ef          	jal	80000494 <main_16+0x1c>
    800004cc:	fb1ff0ef          	jal	8000047c <main_16+0x4>
    800004d0:	b7d5                	j	800004b4 <main_16+0x3c>
    800004d2:	437ad213          	srai	tp,s5,0x37
    800004d6:	00019117          	auipc	sp,0x19
    800004da:	ae410113          	addi	sp,sp,-1308 # 80018fba <region_1+0x5f72>
    800004de:	a1c90493          	addi	s1,s2,-1508
    800004e2:	017ea4b3          	slt	s1,t4,s7
    800004e6:	00714303          	lbu	t1,7(sp)
    800004ea:	03211c83          	lh	s9,50(sp)
    800004ee:	01b101a3          	sb	s11,3(sp)
    800004f2:	01dc551b          	srliw	a0,s8,0x1d
    800004f6:	00a15903          	lhu	s2,10(sp)
    800004fa:	fc310903          	lb	s2,-61(sp)
    800004fe:	03b10ca3          	sb	s11,57(sp)
    80000502:	fe510903          	lb	s2,-27(sp)
    80000506:	0806                	slli	a6,a6,0x1
    80000508:	02011223          	sh	zero,36(sp)
    8000050c:	437ad293          	srai	t0,s5,0x37
    80000510:	fc310903          	lb	s2,-61(sp)
    80000514:	01ff55bb          	srlw	a1,t5,t6
    80000518:	fd914303          	lbu	t1,-39(sp)
    8000051c:	03b107a3          	sb	s11,47(sp)
    80000520:	01a10903          	lb	s2,26(sp)
    80000524:	fec15903          	lhu	s2,-20(sp)
    80000528:	03b10423          	sb	s11,40(sp)
    8000052c:	03314303          	lbu	t1,51(sp)
    80000530:	91e6                	add	gp,gp,s9
    80000532:	41950abb          	subw	s5,a0,s9
    80000536:	fc714303          	lbu	t1,-57(sp)
    8000053a:	00a11c83          	lh	s9,10(sp)
    8000053e:	ffb10da3          	sb	s11,-5(sp)
    80000542:	194deb97          	auipc	s7,0x194de
    80000546:	9e11                	subw	a2,a2,a2
    80000548:	0001                	nop
    8000054a:	fd214303          	lbu	t1,-46(sp)
    8000054e:	03215903          	lhu	s2,50(sp)
    80000552:	00119f9b          	slliw	t6,gp,0x1
    80000556:	03e1f2bb          	remuw	t0,gp,t5
    8000055a:	01a11c83          	lh	s9,26(sp)
    8000055e:	89aa                	mv	s3,a0
    80000560:	fdb101a3          	sb	s11,-61(sp)
    80000564:	02c10903          	lb	s2,44(sp)
    80000568:	194deb97          	auipc	s7,0x194de
    8000056c:	03114303          	lbu	t1,49(sp)
    80000570:	00023497          	auipc	s1,0x23
    80000574:	aa348493          	addi	s1,s1,-1373 # 80023013 <region_1+0xffcb>
    80000578:	00f48903          	lb	s2,15(s1)
    8000057c:	01b48623          	sb	s11,12(s1)
    80000580:	9ebd                	addw	a3,a3,a5
    80000582:	01f763b3          	or	t2,a4,t6
    80000586:	a1c90393          	addi	t2,s2,-1508
    8000058a:	01b48723          	sb	s11,14(s1)
    8000058e:	02ad6ab3          	rem	s5,s10,a0
    80000592:	00897533          	and	a0,s2,s0
    80000596:	437ad213          	srai	tp,s5,0x37
    8000059a:	ff64c283          	lbu	t0,-10(s1)
    8000059e:	ff04c283          	lbu	t0,-16(s1)
    800005a2:	01b48123          	sb	s11,2(s1)
    800005a6:	00251b3b          	sllw	s6,a0,sp
    800005aa:	00a4c283          	lbu	t0,10(s1)
    800005ae:	03f88233          	mul	tp,a7,t6
    800005b2:	03b1fd33          	remu	s10,gp,s11
    800005b6:	0df5                	addi	s11,s11,29
    800005b8:	00448903          	lb	s2,4(s1)
    800005bc:	03e1f23b          	remuw	tp,gp,t5
    800005c0:	01b481a3          	sb	s11,3(s1)
    800005c4:	0014c283          	lbu	t0,1(s1)
    800005c8:	8e85                	sub	a3,a3,s1
    800005ca:	02d440bb          	divw	ra,s0,a3
    800005ce:	ffb48923          	sb	s11,-14(s1)
    800005d2:	01b48023          	sb	s11,0(s1)
    800005d6:	0001e117          	auipc	sp,0x1e
    800005da:	f3310113          	addi	sp,sp,-205 # 8001e509 <region_1+0xb4c1>
    800005de:	095121a3          	sw	s5,131(sp)
    800005e2:	0c410903          	lb	s2,196(sp)
    800005e6:	01ff55bb          	srlw	a1,t5,t6
    800005ea:	9d3d                	addw	a0,a0,a5
    800005ec:	f3710903          	lb	s2,-201(sp)
    800005f0:	fa814303          	lbu	t1,-88(sp)
    800005f4:	0f510903          	lb	s2,245(sp)
    800005f8:	f80119a3          	sh	zero,-109(sp)
    800005fc:	0d414303          	lbu	t1,212(sp)
    80000600:	89aa                	mv	s3,a0
    80000602:	0e514303          	lbu	t1,229(sp)
    80000606:	f6c10903          	lb	s2,-148(sp)
    8000060a:	02e5b633          	mulhu	a2,a1,a4
    8000060e:	f36d3493          	sltiu	s1,s10,-202
    80000612:	fa510903          	lb	s2,-91(sp)
    80000616:	0fb10723          	sb	s11,238(sp)
    8000061a:	01510903          	lb	s2,21(sp)
    8000061e:	8375                	srli	a4,a4,0x1d
    80000620:	41b5d01b          	sraiw	zero,a1,0x1b
    80000624:	0dc14303          	lbu	t1,220(sp)
    80000628:	f8214303          	lbu	t1,-126(sp)
    8000062c:	4e85                	li	t4,1
    8000062e:	03b1fd33          	remu	s10,gp,s11
    80000632:	02814303          	lbu	t1,40(sp)
    80000636:	003b3db3          	sltu	s11,s6,gp
    8000063a:	ff712803          	lw	a6,-9(sp)
    8000063e:	f7e14303          	lbu	t1,-130(sp)
    80000642:	8a19                	andi	a2,a2,6
    80000644:	0d514303          	lbu	t1,213(sp)
    80000648:	85f5                	srai	a1,a1,0x1d
    8000064a:	f3c14303          	lbu	t1,-196(sp)
    8000064e:	03e1f2bb          	remuw	t0,gp,t5
    80000652:	0001                	nop
    80000654:	8f05                	sub	a4,a4,s1
    80000656:	ff814303          	lbu	t1,-8(sp)
    8000065a:	ffb10ba3          	sb	s11,-9(sp)
    8000065e:	01b10d23          	sb	s11,26(sp)
    80000662:	f5b10623          	sb	s11,-180(sp)
    80000666:	e15cee13          	ori	t3,s9,-491
    8000066a:	f5610903          	lb	s2,-170(sp)
    8000066e:	437ad293          	srai	t0,s5,0x37
    80000672:	8eb5                	xor	a3,a3,a3
    80000674:	9e11                	subw	a2,a2,a2
    80000676:	8f59                	or	a4,a4,a4
    80000678:	40d0df33          	sra	t5,ra,a3
    8000067c:	9ead                	addw	a3,a3,a1
    8000067e:	f0814303          	lbu	t1,-248(sp)
    80000682:	03410903          	lb	s2,52(sp)
    80000686:	5869                	li	a6,-6
    80000688:	007780b3          	add	ra,a5,t2
    8000068c:	02ad6ab3          	rem	s5,s10,a0
    80000690:	413cd4bb          	sraw	s1,s9,s3
    80000694:	a1c90393          	addi	t2,s2,-1508
    80000698:	0001                	nop
    8000069a:	03b1fdb3          	remu	s11,gp,s11
    8000069e:	00d5863b          	addw	a2,a1,a3
    800006a2:	8eb5                	xor	a3,a3,a3
    800006a4:	40d0dfb3          	sra	t6,ra,a3
    800006a8:	5cf5                	li	s9,-3
    800006aa:	003b3e33          	sltu	t3,s6,gp
    800006ae:	db3e4a13          	xori	s4,t3,-589
    800006b2:	00494c33          	xor	s8,s2,tp

00000000800006b6 <main_250_0_t>:
    800006b6:	9d91                	subw	a1,a1,a2
    800006b8:	41950abb          	subw	s5,a0,s9
    800006bc:	080d                	addi	a6,a6,3
    800006be:	01ff553b          	srlw	a0,t5,t6
    800006c2:	41b5d01b          	sraiw	zero,a1,0x1b
    800006c6:	3074ba37          	lui	s4,0x3074b
    800006ca:	03e1f23b          	remuw	tp,gp,t5
    800006ce:	ff9844e3          	blt	a6,s9,800006b6 <main_250_0_t>
    800006d2:	9166                	add	sp,sp,s9
    800006d4:	556d                	li	a0,-5
    800006d6:	0001                	nop

00000000800006d8 <main_279_1_t>:
    800006d8:	8e59                	or	a2,a2,a4
    800006da:	8cb5                	xor	s1,s1,a3
    800006dc:	0515                	addi	a0,a0,5
    800006de:	5c61                	li	s8,-8
    800006e0:	55e9                	li	a1,-6

00000000800006e2 <main_279_0_t>:
    800006e2:	0001                	nop
    800006e4:	0c1d                	addi	s8,s8,7
    800006e6:	febc4ee3          	blt	s8,a1,800006e2 <main_279_0_t>
    800006ea:	8a2a                	mv	s4,a0
    800006ec:	d575                	beqz	a0,800006d8 <main_279_1_t>
    800006ee:	0001                	nop
    800006f0:	00015d97          	auipc	s11,0x15
    800006f4:	51cd8d93          	addi	s11,s11,1308 # 80015c0c <region_1+0x2bc4>
    800006f8:	03ae533b          	divuw	t1,t3,s10
    800006fc:	0aedc283          	lbu	t0,174(s11)
    80000700:	09ed9c03          	lh	s8,158(s11)
    80000704:	a1c90393          	addi	t2,s2,-1508
    80000708:	6fd9                	lui	t6,0x16
    8000070a:	fbbd80a3          	sb	s11,-95(s11)
    8000070e:	f1dd8803          	lb	a6,-227(s11)
    80000712:	02cdd803          	lhu	a6,44(s11)
    80000716:	03bd8123          	sb	s11,34(s11)
    8000071a:	f1dd8803          	lb	a6,-227(s11)
    8000071e:	003b3d33          	sltu	s10,s6,gp
    80000722:	02399e33          	mulh	t3,s3,gp
    80000726:	00494bb3          	xor	s7,s2,tp
    8000072a:	0fad8803          	lb	a6,250(s11)
    8000072e:	03ae533b          	divuw	t1,t3,s10
    80000732:	00665ab3          	srl	s5,a2,t1
    80000736:	01ddc283          	lbu	t0,29(s11)
    8000073a:	017ea3b3          	slt	t2,t4,s7
    8000073e:	f34db983          	ld	s3,-204(s11)
    80000742:	0fbd81a3          	sb	s11,227(s11)
    80000746:	008d8803          	lb	a6,8(s11)
    8000074a:	0d75                	addi	s10,s10,29
    8000074c:	ffbd83a3          	sb	s11,-25(s11)
    80000750:	fcadc283          	lbu	t0,-54(s11)
    80000754:	0a0d9f23          	sh	zero,190(s11)
    80000758:	d4f78c9b          	addiw	s9,a5,-689
    8000075c:	0b0d8803          	lb	a6,176(s11)
    80000760:	d4f78c9b          	addiw	s9,a5,-689
    80000764:	f66d8803          	lb	a6,-154(s11)
    80000768:	3074b9b7          	lui	s3,0x3074b
    8000076c:	055daa23          	sw	s5,84(s11)
    80000770:	f35dc283          	lbu	t0,-203(s11)
    80000774:	892a                	mv	s2,a0
    80000776:	f3bd86a3          	sb	s11,-211(s11)
    8000077a:	41b5d01b          	sraiw	zero,a1,0x1b
    8000077e:	fafdc283          	lbu	t0,-81(s11)
    80000782:	8eb5                	xor	a3,a3,a3
    80000784:	011dc283          	lbu	t0,17(s11)
    80000788:	030d84bb          	mulw	s1,s11,a6
    8000078c:	f34db983          	ld	s3,-204(s11)
    80000790:	0c2d9c03          	lh	s8,194(s11)
    80000794:	f86d9c03          	lh	s8,-122(s11)
    80000798:	f1bd8123          	sb	s11,-254(s11)
    8000079c:	55d0ab93          	slti	s7,ra,1373
    800007a0:	03ed8803          	lb	a6,62(s11)
    800007a4:	6fd9                	lui	t6,0x16
    800007a6:	02ad6a33          	rem	s4,s10,a0
    800007aa:	4e85                	li	t4,1
    800007ac:	892a                	mv	s2,a0
    800007ae:	065d8803          	lb	a6,101(s11)

00000000800007b2 <main_22>:
    800007b2:	020000ef          	jal	800007d2 <main_22+0x20>
    800007b6:	a015                	j	800007da <main_22+0x28>
    800007b8:	00a000ef          	jal	800007c2 <main_22+0x10>
    800007bc:	a829                	j	800007d6 <main_22+0x24>
    800007be:	a039                	j	800007cc <main_22+0x1a>
    800007c0:	bff5                	j	800007bc <main_22+0xa>
    800007c2:	ffdff0ef          	jal	800007be <main_22+0xc>
    800007c6:	a029                	j	800007d0 <main_22+0x1e>
    800007c8:	ff1ff0ef          	jal	800007b8 <main_22+0x6>
    800007cc:	bfed                	j	800007c6 <main_22+0x14>
    800007ce:	bfed                	j	800007c8 <main_22+0x16>
    800007d0:	b7dd                	j	800007b6 <main_22+0x4>
    800007d2:	fefff0ef          	jal	800007c0 <main_22+0xe>
    800007d6:	ff9ff0ef          	jal	800007ce <main_22+0x1c>
    800007da:	40d0deb3          	sra	t4,ra,a3
    800007de:	00015b97          	auipc	s7,0x15
    800007e2:	5f1b8b93          	addi	s7,s7,1521 # 80015dcf <region_1+0x2d87>
    800007e6:	892a                	mv	s2,a0
    800007e8:	ff5b9c83          	lh	s9,-11(s7)
    800007ec:	ffeb8803          	lb	a6,-2(s7)
    800007f0:	ffbb8fa3          	sb	s11,-1(s7)
    800007f4:	00d5863b          	addw	a2,a1,a3
    800007f8:	ffab8803          	lb	a6,-6(s7)
    800007fc:	ff1bb983          	ld	s3,-15(s7)
    80000800:	007780b3          	add	ra,a5,t2
    80000804:	55d0ac13          	slti	s8,ra,1373
    80000808:	007b8803          	lb	a6,7(s7)
    8000080c:	41950a3b          	subw	s4,a0,s9
    80000810:	000b92a3          	sh	zero,5(s7)
    80000814:	8a19                	andi	a2,a2,6
    80000816:	ffcb8803          	lb	a6,-4(s7)
    8000081a:	00494c33          	xor	s8,s2,tp
    8000081e:	194deb17          	auipc	s6,0x194de
    80000822:	ffab8803          	lb	a6,-6(s7)
    80000826:	0001                	nop
    80000828:	007780b3          	add	ra,a5,t2
    8000082c:	ff5baea3          	sw	s5,-3(s7)
    80000830:	194deb17          	auipc	s6,0x194de
    80000834:	0310a033          	mulhsu	zero,ra,a7
    80000838:	0001                	nop
    8000083a:	41b5d01b          	sraiw	zero,a1,0x1b
    8000083e:	004b8803          	lb	a6,4(s7)
    80000842:	55d0ac13          	slti	s8,ra,1373
    80000846:	01dc549b          	srliw	s1,s8,0x1d
    8000084a:	004bc283          	lbu	t0,4(s7)
    8000084e:	030d84bb          	mulw	s1,s11,a6
    80000852:	00119f9b          	slliw	t6,gp,0x1
    80000856:	ff7bd803          	lhu	a6,-9(s7)
    8000085a:	9e11                	subw	a2,a2,a2
    8000085c:	01bb84a3          	sb	s11,9(s7)
    80000860:	fe0b9da3          	sh	zero,-5(s7)
    80000864:	03e1f23b          	remuw	tp,gp,t5
    80000868:	007bc283          	lbu	t0,7(s7)
    8000086c:	8ef1                	and	a3,a3,a2
    8000086e:	02e5b5b3          	mulhu	a1,a1,a4
    80000872:	00d5863b          	addw	a2,a1,a3
    80000876:	02d440bb          	divw	ra,s0,a3
    8000087a:	ffbb8ca3          	sb	s11,-7(s7)
    8000087e:	ff8bc283          	lbu	t0,-8(s7)
    80000882:	ff5b8803          	lb	a6,-11(s7)
    80000886:	03b1fd33          	remu	s10,gp,s11
    8000088a:	40d0df33          	sra	t5,ra,a3
    8000088e:	e15cee13          	ori	t3,s9,-491
    80000892:	004b8803          	lb	a6,4(s7)
    80000896:	fe0b99a3          	sh	zero,-13(s7)
    8000089a:	413cd4bb          	sraw	s1,s9,s3
    8000089e:	3afd                	addiw	s5,s5,-1
    800008a0:	002bc283          	lbu	t0,2(s7)

00000000800008a4 <main_37>:
    800008a4:	046000ef          	jal	800008ea <main_37+0x46>
    800008a8:	010000ef          	jal	800008b8 <main_37+0x14>
    800008ac:	a82d                	j	800008e6 <main_37+0x42>
    800008ae:	bffd                	j	800008ac <main_37+0x8>
    800008b0:	038000ef          	jal	800008e8 <main_37+0x44>
    800008b4:	026000ef          	jal	800008da <main_37+0x36>
    800008b8:	a02d                	j	800008e2 <main_37+0x3e>
    800008ba:	ffbff0ef          	jal	800008b4 <main_37+0x10>
    800008be:	ffdff0ef          	jal	800008ba <main_37+0x16>
    800008c2:	a80d                	j	800008f4 <main_37+0x50>
    800008c4:	a021                	j	800008cc <main_37+0x28>
    800008c6:	028000ef          	jal	800008ee <main_37+0x4a>
    800008ca:	bfd5                	j	800008be <main_37+0x1a>
    800008cc:	b7d5                	j	800008b0 <main_37+0xc>
    800008ce:	006000ef          	jal	800008d4 <main_37+0x30>
    800008d2:	bfc5                	j	800008c2 <main_37+0x1e>
    800008d4:	ff7ff0ef          	jal	800008ca <main_37+0x26>
    800008d8:	bfd9                	j	800008ae <main_37+0xa>
    800008da:	fedff0ef          	jal	800008c6 <main_37+0x22>
    800008de:	ffbff0ef          	jal	800008d8 <main_37+0x34>
    800008e2:	b7f5                	j	800008ce <main_37+0x2a>
    800008e4:	b7c5                	j	800008c4 <main_37+0x20>
    800008e6:	a029                	j	800008f0 <main_37+0x4c>
    800008e8:	b7c1                	j	800008a8 <main_37+0x4>
    800008ea:	ffbff0ef          	jal	800008e4 <main_37+0x40>
    800008ee:	bfc5                	j	800008de <main_37+0x3a>
    800008f0:	fe3ff0ef          	jal	800008d2 <main_37+0x2e>
    800008f4:	039b56b3          	divu	a3,s6,s9
    800008f8:	0001e697          	auipc	a3,0x1e
    800008fc:	abb68693          	addi	a3,a3,-1349 # 8001e3b3 <region_1+0xb36b>
    80000900:	8175                	srli	a0,a0,0x1d
    80000902:	e7c68903          	lb	s2,-388(a3)
    80000906:	bbb68d23          	sb	s11,-1094(a3)
    8000090a:	dbb68623          	sb	s11,-596(a3)
    8000090e:	27b685a3          	sb	s11,619(a3)
    80000912:	6486c283          	lbu	t0,1608(a3)
    80000916:	b0c9fb13          	andi	s6,s3,-1268
    8000091a:	00d5863b          	addw	a2,a1,a3
    8000091e:	03ae533b          	divuw	t1,t3,s10
    80000922:	b0c9fb13          	andi	s6,s3,-1268
    80000926:	dc06c283          	lbu	t0,-576(a3)
    8000092a:	f1b68023          	sb	s11,-256(a3)
    8000092e:	29b68b23          	sb	s11,662(a3)
    80000932:	c636c283          	lbu	t0,-925(a3)
    80000936:	52d6a803          	lw	a6,1325(a3)
    8000093a:	6b56a6a3          	sw	s5,1709(a3)
    8000093e:	41b5d01b          	sraiw	zero,a1,0x1b
    80000942:	02ad6ab3          	rem	s5,s10,a0
    80000946:	ca26c283          	lbu	t0,-862(a3)
    8000094a:	0df5                	addi	s11,s11,29
    8000094c:	003b3db3          	sltu	s11,s6,gp
    80000950:	5bb68623          	sb	s11,1452(a3)
    80000954:	d4f78d1b          	addiw	s10,a5,-689
    80000958:	02e99f13          	slli	t5,s3,0x2e
    8000095c:	55d0ac13          	slti	s8,ra,1373
    80000960:	4096a803          	lw	a6,1033(a3)
    80000964:	00d5863b          	addw	a2,a1,a3
    80000968:	01a4d293          	srli	t0,s1,0x1a
    8000096c:	c796c283          	lbu	t0,-903(a3)
    80000970:	5aa6c283          	lbu	t0,1450(a3)
    80000974:	0001                	nop
    80000976:	b0c9fb13          	andi	s6,s3,-1268
    8000097a:	13e6c283          	lbu	t0,318(a3)
    8000097e:	f36d3393          	sltiu	t2,s10,-202
    80000982:	b5a68903          	lb	s2,-1190(a3)
    80000986:	6456e083          	lwu	ra,1605(a3)
    8000098a:	b306c283          	lbu	t0,-1232(a3)
    8000098e:	8999                	andi	a1,a1,6
    80000990:	19b68423          	sb	s11,392(a3)
    80000994:	c2c68903          	lb	s2,-980(a3)
    80000998:	03e1f23b          	remuw	tp,gp,t5
    8000099c:	2f969c83          	lh	s9,761(a3)
    800009a0:	6c86c283          	lbu	t0,1736(a3)
    800009a4:	01a4d293          	srli	t0,s1,0x1a
    800009a8:	40168cb3          	sub	s9,a3,ra
    800009ac:	017ea3b3          	slt	t2,t4,s7
    800009b0:	01a4d293          	srli	t0,s1,0x1a
    800009b4:	0261653b          	remw	a0,sp,t1
    800009b8:	9156aaa3          	sw	s5,-1771(a3)
    800009bc:	437ad213          	srai	tp,s5,0x37
    800009c0:	5c96d903          	lhu	s2,1481(a3)
    800009c4:	c336c283          	lbu	t0,-973(a3)
    800009c8:	69b683a3          	sb	s11,1671(a3)
    800009cc:	2b56aca3          	sw	s5,697(a3)
    800009d0:	0001b717          	auipc	a4,0x1b
    800009d4:	a5c70713          	addi	a4,a4,-1444 # 8001b42c <region_1+0x83e4>
    800009d8:	00d70903          	lb	s2,13(a4)
    800009dc:	02399e33          	mulh	t3,s3,gp
    800009e0:	00e74283          	lbu	t0,14(a4)
    800009e4:	00119f9b          	slliw	t6,gp,0x1
    800009e8:	02ad6ab3          	rem	s5,s10,a0
    800009ec:	01ff553b          	srlw	a0,t5,t6
    800009f0:	ff875903          	lhu	s2,-8(a4)
    800009f4:	00770903          	lb	s2,7(a4)
    800009f8:	00875903          	lhu	s2,8(a4)
    800009fc:	ffe71c83          	lh	s9,-2(a4)
    80000a00:	ff570903          	lb	s2,-11(a4)
    80000a04:	00119f9b          	slliw	t6,gp,0x1
    80000a08:	01873623          	sd	s8,12(a4)
    80000a0c:	ffb70f23          	sb	s11,-2(a4)
    80000a10:	9d91                	subw	a1,a1,a2
    80000a12:	9d91                	subw	a1,a1,a2
    80000a14:	00071223          	sh	zero,4(a4)
    80000a18:	039b56b3          	divu	a3,s6,s9
    80000a1c:	02984033          	div	zero,a6,s1
    80000a20:	007780b3          	add	ra,a5,t2
    80000a24:	00c74283          	lbu	t0,12(a4)
    80000a28:	ff374283          	lbu	t0,-13(a4)
    80000a2c:	039b56b3          	divu	a3,s6,s9
    80000a30:	ffe70903          	lb	s2,-2(a4)
    80000a34:	02399e33          	mulh	t3,s3,gp
    80000a38:	00e70903          	lb	s2,14(a4)
    80000a3c:	ff471c83          	lh	s9,-12(a4)
    80000a40:	02e99f13          	slli	t5,s3,0x2e
    80000a44:	00119f9b          	slliw	t6,gp,0x1
    80000a48:	fe071923          	sh	zero,-14(a4)
    80000a4c:	8175                	srli	a0,a0,0x1d
    80000a4e:	ffb70903          	lb	s2,-5(a4)
    80000a52:	01b70823          	sb	s11,16(a4)
    80000a56:	ffb70ca3          	sb	s11,-7(a4)
    80000a5a:	ff174283          	lbu	t0,-15(a4)
    80000a5e:	00271c83          	lh	s9,2(a4)
    80000a62:	6fd9                	lui	t6,0x16
    80000a64:	40d0df33          	sra	t5,ra,a3
    80000a68:	e15cee13          	ori	t3,s9,-491
    80000a6c:	007780b3          	add	ra,a5,t2
    80000a70:	01a4d293          	srli	t0,s1,0x1a
    80000a74:	01b702a3          	sb	s11,5(a4)
    80000a78:	fe071e23          	sh	zero,-4(a4)
    80000a7c:	717d                	addi	sp,sp,-16
    80000a7e:	01b70123          	sb	s11,2(a4)
    80000a82:	ff476083          	lwu	ra,-12(a4)
    80000a86:	02e99f13          	slli	t5,s3,0x2e
    80000a8a:	ffb70ba3          	sb	s11,-9(a4)
    80000a8e:	ff870903          	lb	s2,-8(a4)
    80000a92:	55d0ac13          	slti	s8,ra,1373
    80000a96:	ffb709a3          	sb	s11,-13(a4)
    80000a9a:	8e59                	or	a2,a2,a4
    80000a9c:	9166                	add	sp,sp,s9
    80000a9e:	ff370903          	lb	s2,-13(a4)
    80000aa2:	02ad6ab3          	rem	s5,s10,a0
    80000aa6:	ffb70823          	sb	s11,-16(a4)
    80000aaa:	00012497          	auipc	s1,0x12
    80000aae:	3d248493          	addi	s1,s1,978 # 80012e7c <region_0+0xe34>
    80000ab2:	07b48903          	lb	s2,123(s1)
    80000ab6:	0fb48aa3          	sb	s11,245(s1)
    80000aba:	03e1f23b          	remuw	tp,gp,t5
    80000abe:	01b484a3          	sb	s11,9(s1)
    80000ac2:	02d440bb          	divw	ra,s0,a3
    80000ac6:	b0c9fb13          	andi	s6,s3,-1268
    80000aca:	03e1f23b          	remuw	tp,gp,t5
    80000ace:	fdb48aa3          	sb	s11,-43(s1)
    80000ad2:	437ad213          	srai	tp,s5,0x37
    80000ad6:	f7b48aa3          	sb	s11,-139(s1)
    80000ada:	02984033          	div	zero,a6,s1
    80000ade:	fc049e23          	sh	zero,-36(s1)
    80000ae2:	030d853b          	mulw	a0,s11,a6
    80000ae6:	fd249c83          	lh	s9,-46(s1)
    80000aea:	0e14c283          	lbu	t0,225(s1)
    80000aee:	f8948903          	lb	s2,-119(s1)
    80000af2:	f194c283          	lbu	t0,-231(s1)
    80000af6:	6fd9                	lui	t6,0x16
    80000af8:	0514c283          	lbu	t0,81(s1)
    80000afc:	03b1fd33          	remu	s10,gp,s11
    80000b00:	40168cb3          	sub	s9,a3,ra
    80000b04:	437ad213          	srai	tp,s5,0x37
    80000b08:	02399e33          	mulh	t3,s3,gp
    80000b0c:	89aa                	mv	s3,a0
    80000b0e:	02d440bb          	divw	ra,s0,a3
    80000b12:	01b48ba3          	sb	s11,23(s1)
    80000b16:	02984033          	div	zero,a6,s1
    80000b1a:	40d0df33          	sra	t5,ra,a3
    80000b1e:	03e1f23b          	remuw	tp,gp,t5
    80000b22:	fec4c283          	lbu	t0,-20(s1)
    80000b26:	d4f78d1b          	addiw	s10,a5,-689
    80000b2a:	0310a033          	mulhsu	zero,ra,a7
    80000b2e:	02ad6ab3          	rem	s5,s10,a0
    80000b32:	02e5b633          	mulhu	a2,a1,a4
    80000b36:	02e99f13          	slli	t5,s3,0x2e
    80000b3a:	017ea3b3          	slt	t2,t4,s7
    80000b3e:	9ebd                	addw	a3,a3,a5
    80000b40:	8ed9                	or	a3,a3,a4
    80000b42:	9e11                	subw	a2,a2,a2
    80000b44:	fc649c83          	lh	s9,-58(s1)
    80000b48:	9ebd                	addw	a3,a3,a5
    80000b4a:	a1c90393          	addi	t2,s2,-1508
    80000b4e:	f0e4c283          	lbu	t0,-242(s1)
    80000b52:	00012617          	auipc	a2,0x12
    80000b56:	45a60613          	addi	a2,a2,1114 # 80012fac <region_0+0xf64>
    80000b5a:	3b7d                	addiw	s6,s6,-1 # ffffffff994de82f <_end+0xffffffff194a9ea7>
    80000b5c:	e15cee13          	ori	t3,s9,-491
    80000b60:	f36d3393          	sltiu	t2,s10,-202
    80000b64:	0df5                	addi	s11,s11,29
    80000b66:	e15cee13          	ori	t3,s9,-491
    80000b6a:	f7261c83          	lh	s9,-142(a2)
    80000b6e:	9d91                	subw	a1,a1,a2
    80000b70:	fc061223          	sh	zero,-60(a2)
    80000b74:	9ead                	addw	a3,a3,a1
    80000b76:	02e99f13          	slli	t5,s3,0x2e
    80000b7a:	9ebd                	addw	a3,a3,a5
    80000b7c:	05760903          	lb	s2,87(a2)
    80000b80:	fdb60523          	sb	s11,-54(a2)
    80000b84:	01dc549b          	srliw	s1,s8,0x1d
    80000b88:	07b60ba3          	sb	s11,119(a2)
    80000b8c:	f1b60aa3          	sb	s11,-235(a2)
    80000b90:	05d60903          	lb	s2,93(a2)
    80000b94:	a1c90393          	addi	t2,s2,-1508
    80000b98:	f7160903          	lb	s2,-143(a2)
    80000b9c:	f1e60903          	lb	s2,-226(a2)
    80000ba0:	f1160903          	lb	s2,-239(a2)
    80000ba4:	f7b64283          	lbu	t0,-133(a2)
    80000ba8:	f0f60903          	lb	s2,-241(a2)
    80000bac:	ffb604a3          	sb	s11,-23(a2)
    80000bb0:	413cd4bb          	sraw	s1,s9,s3
    80000bb4:	09964283          	lbu	t0,153(a2)
    80000bb8:	01b64283          	lbu	t0,27(a2)
    80000bbc:	ffb60ea3          	sb	s11,-3(a2)
    80000bc0:	9ead                	addw	a3,a3,a1
    80000bc2:	f6360903          	lb	s2,-157(a2)
    80000bc6:	e15cee13          	ori	t3,s9,-491
    80000bca:	f6e64283          	lbu	t0,-146(a2)
    80000bce:	02984033          	div	zero,a6,s1
    80000bd2:	413cd4bb          	sraw	s1,s9,s3
    80000bd6:	00119f9b          	slliw	t6,gp,0x1
    80000bda:	f5661c83          	lh	s9,-170(a2)
    80000bde:	55d0ac13          	slti	s8,ra,1373
    80000be2:	717d                	addi	sp,sp,-16
    80000be4:	07b60ea3          	sb	s11,125(a2)
    80000be8:	55d0ac13          	slti	s8,ra,1373
    80000bec:	fbb60c23          	sb	s11,-72(a2)
    80000bf0:	05a65903          	lhu	s2,90(a2)
    80000bf4:	194deb97          	auipc	s7,0x194de
    80000bf8:	d4f78d1b          	addiw	s10,a5,-689
    80000bfc:	3b7d                	addiw	s6,s6,-1
    80000bfe:	02e60903          	lb	s2,46(a2)
    80000c02:	02399e33          	mulh	t3,s3,gp
    80000c06:	09964283          	lbu	t0,153(a2)
    80000c0a:	fb164283          	lbu	t0,-79(a2)
    80000c0e:	f7160903          	lb	s2,-143(a2)
    80000c12:	f1b60d23          	sb	s11,-230(a2)

0000000080000c16 <main_29>:
    80000c16:	048000ef          	jal	80000c5e <main_29+0x48>
    80000c1a:	a0b9                	j	80000c68 <main_29+0x52>
    80000c1c:	a83d                	j	80000c5a <main_29+0x44>
    80000c1e:	a825                	j	80000c56 <main_29+0x40>
    80000c20:	018000ef          	jal	80000c38 <main_29+0x22>
    80000c24:	042000ef          	jal	80000c66 <main_29+0x50>
    80000c28:	a815                	j	80000c5c <main_29+0x46>
    80000c2a:	bfd5                	j	80000c1e <main_29+0x8>
    80000c2c:	ff9ff0ef          	jal	80000c24 <main_29+0xe>
    80000c30:	018000ef          	jal	80000c48 <main_29+0x32>
    80000c34:	ff9ff0ef          	jal	80000c2c <main_29+0x16>
    80000c38:	a039                	j	80000c46 <main_29+0x30>
    80000c3a:	b7dd                	j	80000c20 <main_29+0xa>
    80000c3c:	fedff0ef          	jal	80000c28 <main_29+0x12>
    80000c40:	a00d                	j	80000c62 <main_29+0x4c>
    80000c42:	bffd                	j	80000c40 <main_29+0x2a>
    80000c44:	b7dd                	j	80000c2a <main_29+0x14>
    80000c46:	b7fd                	j	80000c34 <main_29+0x1e>
    80000c48:	00c000ef          	jal	80000c54 <main_29+0x3e>
    80000c4c:	ff7ff0ef          	jal	80000c42 <main_29+0x2c>
    80000c50:	fedff0ef          	jal	80000c3c <main_29+0x26>
    80000c54:	b7e1                	j	80000c1c <main_29+0x6>
    80000c56:	ffbff0ef          	jal	80000c50 <main_29+0x3a>
    80000c5a:	a029                	j	80000c64 <main_29+0x4e>
    80000c5c:	bf7d                	j	80000c1a <main_29+0x4>
    80000c5e:	fefff0ef          	jal	80000c4c <main_29+0x36>
    80000c62:	b7f9                	j	80000c30 <main_29+0x1a>
    80000c64:	bfd9                	j	80000c3a <main_29+0x24>
    80000c66:	bff9                	j	80000c44 <main_29+0x2e>
    80000c68:	02ad6a33          	rem	s4,s10,a0

0000000080000c6c <main_36>:
    80000c6c:	022000ef          	jal	80000c8e <main_36+0x22>
    80000c70:	008000ef          	jal	80000c78 <main_36+0xc>
    80000c74:	a811                	j	80000c88 <main_36+0x1c>
    80000c76:	a831                	j	80000c92 <main_36+0x26>
    80000c78:	a029                	j	80000c82 <main_36+0x16>
    80000c7a:	016000ef          	jal	80000c90 <main_36+0x24>
    80000c7e:	018000ef          	jal	80000c96 <main_36+0x2a>
    80000c82:	ffdff0ef          	jal	80000c7e <main_36+0x12>
    80000c86:	a011                	j	80000c8a <main_36+0x1e>
    80000c88:	bfcd                	j	80000c7a <main_36+0xe>
    80000c8a:	fe7ff0ef          	jal	80000c70 <main_36+0x4>
    80000c8e:	b7e5                	j	80000c76 <main_36+0xa>
    80000c90:	bfdd                	j	80000c86 <main_36+0x1a>
    80000c92:	a009                	j	80000c94 <main_36+0x28>
    80000c94:	b7c5                	j	80000c74 <main_36+0x8>
    80000c96:	02e99e93          	slli	t4,s3,0x2e
    80000c9a:	00019117          	auipc	sp,0x19
    80000c9e:	76d10113          	addi	sp,sp,1901 # 8001a407 <region_1+0x73bf>
    80000ca2:	8a19                	andi	a2,a2,6
    80000ca4:	3074ba37          	lui	s4,0x3074b
    80000ca8:	007780b3          	add	ra,a5,t2
    80000cac:	d7b10223          	sb	s11,-668(sp)
    80000cb0:	039b5733          	divu	a4,s6,s9
    80000cb4:	03e1f2bb          	remuw	t0,gp,t5
    80000cb8:	f9a10903          	lb	s2,-102(sp)
    80000cbc:	6f59                	lui	t5,0x16
    80000cbe:	8ef1                	and	a3,a3,a2
    80000cc0:	02e5b633          	mulhu	a2,a1,a4
    80000cc4:	02399e33          	mulh	t3,s3,gp
    80000cc8:	00119f9b          	slliw	t6,gp,0x1
    80000ccc:	8bb107a3          	sb	s11,-1873(sp)
    80000cd0:	66011fa3          	sh	zero,1663(sp)
    80000cd4:	03f882b3          	mul	t0,a7,t6
    80000cd8:	8f59                	or	a4,a4,a4
    80000cda:	8a19                	andi	a2,a2,6
    80000cdc:	400117a3          	sh	zero,1039(sp)
    80000ce0:	6b8134a3          	sd	s8,1705(sp)
    80000ce4:	2a315903          	lhu	s2,675(sp)
    80000ce8:	00494c33          	xor	s8,s2,tp
    80000cec:	85f5                	srai	a1,a1,0x1d
    80000cee:	039b5733          	divu	a4,s6,s9
    80000cf2:	6f59                	lui	t5,0x16
    80000cf4:	01dc551b          	srliw	a0,s8,0x1d
    80000cf8:	03ae53bb          	divuw	t2,t3,s10
    80000cfc:	8db10623          	sb	s11,-1844(sp)
    80000d00:	01ff55bb          	srlw	a1,t5,t6
    80000d04:	01e11933          	sll	s2,sp,t5
    80000d08:	70214303          	lbu	t1,1794(sp)
    80000d0c:	14b10903          	lb	s2,331(sp)
    80000d10:	00013117          	auipc	sp,0x13
    80000d14:	7a710113          	addi	sp,sp,1959 # 800144b7 <region_1+0x146f>
    80000d18:	00010903          	lb	s2,0(sp)
    80000d1c:	03ae53bb          	divuw	t2,t3,s10
    80000d20:	8eb5                	xor	a3,a3,a3
    80000d22:	ffb10b23          	sb	s11,-10(sp)
    80000d26:	01b102a3          	sb	s11,5(sp)
    80000d2a:	ff916083          	lwu	ra,-7(sp)
    80000d2e:	02d440bb          	divw	ra,s0,a3
    80000d32:	db3e4a13          	xori	s4,t3,-589
    80000d36:	03ae53bb          	divuw	t2,t3,s10
    80000d3a:	01a4d313          	srli	t1,s1,0x1a
    80000d3e:	026165bb          	remw	a1,sp,t1
    80000d42:	00010903          	lb	s2,0(sp)
    80000d46:	00314303          	lbu	t1,3(sp)
    80000d4a:	00665b33          	srl	s6,a2,t1
    80000d4e:	ffb10f23          	sb	s11,-2(sp)
    80000d52:	0001                	nop
    80000d54:	ffb10903          	lb	s2,-5(sp)
    80000d58:	ffb10da3          	sb	s11,-5(sp)
    80000d5c:	00e10903          	lb	s2,14(sp)
    80000d60:	00114303          	lbu	t1,1(sp)
    80000d64:	ff914303          	lbu	t1,-7(sp)
    80000d68:	8f59                	or	a4,a4,a4
    80000d6a:	02e99f13          	slli	t5,s3,0x2e
    80000d6e:	55d0ac13          	slti	s8,ra,1373
    80000d72:	02399e33          	mulh	t3,s3,gp
    80000d76:	00512803          	lw	a6,5(sp)
    80000d7a:	ff314303          	lbu	t1,-13(sp)
    80000d7e:	8f59                	or	a4,a4,a4
    80000d80:	ffb10c23          	sb	s11,-8(sp)
    80000d84:	6f59                	lui	t5,0x16
    80000d86:	db3e4a13          	xori	s4,t3,-589
    80000d8a:	00814303          	lbu	t1,8(sp)
    80000d8e:	ff710903          	lb	s2,-9(sp)
    80000d92:	ff714303          	lbu	t1,-9(sp)
    80000d96:	413cd53b          	sraw	a0,s9,s3
    80000d9a:	0806                	slli	a6,a6,0x1
    80000d9c:	01f764b3          	or	s1,a4,t6
    80000da0:	01e11933          	sll	s2,sp,t5
    80000da4:	01a4d313          	srli	t1,s1,0x1a
    80000da8:	00d10903          	lb	s2,13(sp)
    80000dac:	018130a3          	sd	s8,1(sp)
    80000db0:	000113a3          	sh	zero,7(sp)
    80000db4:	ff714303          	lbu	t1,-9(sp)
    80000db8:	ff512aa3          	sw	s5,-11(sp)
    80000dbc:	9e11                	subw	a2,a2,a2
    80000dbe:	00114303          	lbu	t1,1(sp)
    80000dc2:	01dc551b          	srliw	a0,s8,0x1d
    80000dc6:	ff610903          	lb	s2,-10(sp)
    80000dca:	413cd53b          	sraw	a0,s9,s3
    80000dce:	3b7d                	addiw	s6,s6,-1
    80000dd0:	00610903          	lb	s2,6(sp)
    80000dd4:	00f14303          	lbu	t1,15(sp)
    80000dd8:	8eb5                	xor	a3,a3,a3
    80000dda:	02399e33          	mulh	t3,s3,gp
    80000dde:	8a19                	andi	a2,a2,6
    80000de0:	01b10023          	sb	s11,0(sp)
    80000de4:	01010903          	lb	s2,16(sp)
    80000de8:	ff510903          	lb	s2,-11(sp)
    80000dec:	56d9                	li	a3,-10
    80000dee:	01f764b3          	or	s1,a4,t6
    80000df2:	0001                	nop

0000000080000df4 <main_258_1_t>:
    80000df4:	02d4413b          	divw	sp,s0,a3
    80000df8:	06a9                	addi	a3,a3,10
    80000dfa:	45a9                	li	a1,10
    80000dfc:	1a88                	addi	a0,sp,368
    80000dfe:	4e4d                	li	t3,19

0000000080000e00 <main_258_0_t>:
    80000e00:	029840b3          	div	ra,a6,s1
    80000e04:	059d                	addi	a1,a1,7
    80000e06:	ffc5cde3          	blt	a1,t3,80000e00 <main_258_0_t>
    80000e0a:	f6ed                	bnez	a3,80000df4 <main_258_1_t>
    80000e0c:	3bfd                	addiw	s7,s7,-1 # ffffffff994debf3 <_end+0xffffffff194aa26b>
    80000e0e:	00012f97          	auipc	t6,0x12
    80000e12:	d02f8f93          	addi	t6,t6,-766 # 80012b10 <region_0+0xac8>
    80000e16:	413cd4bb          	sraw	s1,s9,s3
    80000e1a:	8f59                	or	a4,a4,a4
    80000e1c:	008974b3          	and	s1,s2,s0
    80000e20:	9166                	add	sp,sp,s9
    80000e22:	f36d3393          	sltiu	t2,s10,-202
    80000e26:	40d0deb3          	sra	t4,ra,a3
    80000e2a:	f36d3393          	sltiu	t2,s10,-202
    80000e2e:	1a88                	addi	a0,sp,368
    80000e30:	c90fd803          	lhu	a6,-880(t6)
    80000e34:	01dc549b          	srliw	s1,s8,0x1d
    80000e38:	517f8803          	lb	a6,1303(t6)
    80000e3c:	3afd                	addiw	s5,s5,-1
    80000e3e:	01e11833          	sll	a6,sp,t5
    80000e42:	eb6f8803          	lb	a6,-330(t6)
    80000e46:	9e9fc283          	lbu	t0,-1559(t6)
    80000e4a:	00119f1b          	slliw	t5,gp,0x1
    80000e4e:	ce7f8803          	lb	a6,-793(t6)
    80000e52:	039b56b3          	divu	a3,s6,s9
    80000e56:	f36d3393          	sltiu	t2,s10,-202
    80000e5a:	6f59                	lui	t5,0x16
    80000e5c:	fdbf8323          	sb	s11,-58(t6)
    80000e60:	01bf88a3          	sb	s11,17(t6)
    80000e64:	803fc283          	lbu	t0,-2045(t6)
    80000e68:	411f8803          	lb	a6,1041(t6)
    80000e6c:	03f88233          	mul	tp,a7,t6
    80000e70:	0001                	nop
    80000e72:	49bf88a3          	sb	s11,1169(t6)
    80000e76:	0310a033          	mulhsu	zero,ra,a7
    80000e7a:	007780b3          	add	ra,a5,t2
    80000e7e:	dfbf8923          	sb	s11,-526(t6)
    80000e82:	02e5b5b3          	mulhu	a1,a1,a4
    80000e86:	00665ab3          	srl	s5,a2,t1
    80000e8a:	717d                	addi	sp,sp,-16
    80000e8c:	a9bf82a3          	sb	s11,-1403(t6)
    80000e90:	2d1f8803          	lb	a6,721(t6)
    80000e94:	03b1fcb3          	remu	s9,gp,s11
    80000e98:	02ad6a33          	rem	s4,s10,a0
    80000e9c:	03e1f23b          	remuw	tp,gp,t5
    80000ea0:	b60fb983          	ld	s3,-1184(t6)
    80000ea4:	00012817          	auipc	a6,0x12
    80000ea8:	f6780813          	addi	a6,a6,-153 # 80012e0b <region_0+0xdc3>
    80000eac:	02ad6ab3          	rem	s5,s10,a0
    80000eb0:	9d3d                	addw	a0,a0,a5
    80000eb2:	a4d85903          	lhu	s2,-1459(a6)
    80000eb6:	6fd9                	lui	t6,0x16
    80000eb8:	0001                	nop
    80000eba:	03f88233          	mul	tp,a7,t6
    80000ebe:	83182703          	lw	a4,-1999(a6)
    80000ec2:	01dc549b          	srliw	s1,s8,0x1d
    80000ec6:	f36d3393          	sltiu	t2,s10,-202
    80000eca:	9d3d                	addw	a0,a0,a5
    80000ecc:	ad585903          	lhu	s2,-1323(a6)
    80000ed0:	ac080903          	lb	s2,-1344(a6)
    80000ed4:	0001                	nop
    80000ed6:	f2784283          	lbu	t0,-217(a6)
    80000eda:	8cd85903          	lhu	s2,-1843(a6)
    80000ede:	02e5b5b3          	mulhu	a1,a1,a4
    80000ee2:	40d0df33          	sra	t5,ra,a3
    80000ee6:	cd985903          	lhu	s2,-807(a6)
    80000eea:	3074ba37          	lui	s4,0x3074b
    80000eee:	02984033          	div	zero,a6,s1
    80000ef2:	413cd4bb          	sraw	s1,s9,s3
    80000ef6:	003b3db3          	sltu	s11,s6,gp
    80000efa:	93b80823          	sb	s11,-1744(a6)
    80000efe:	22582703          	lw	a4,549(a6)
    80000f02:	03b1fd33          	remu	s10,gp,s11
    80000f06:	0d680903          	lb	s2,214(a6)
    80000f0a:	194deb97          	auipc	s7,0x194de
    80000f0e:	413cd4bb          	sraw	s1,s9,s3
    80000f12:	017ea3b3          	slt	t2,t4,s7
    80000f16:	afb803a3          	sb	s11,-1305(a6)

0000000080000f1a <main_21>:
    80000f1a:	014000ef          	jal	80000f2e <main_21+0x14>
    80000f1e:	a011                	j	80000f22 <main_21+0x8>
    80000f20:	a011                	j	80000f24 <main_21+0xa>
    80000f22:	a039                	j	80000f30 <main_21+0x16>
    80000f24:	a011                	j	80000f28 <main_21+0xe>
    80000f26:	a821                	j	80000f3e <main_21+0x24>
    80000f28:	a831                	j	80000f44 <main_21+0x2a>
    80000f2a:	010000ef          	jal	80000f3a <main_21+0x20>
    80000f2e:	bfc5                	j	80000f1e <main_21+0x4>
    80000f30:	a009                	j	80000f32 <main_21+0x18>
    80000f32:	004000ef          	jal	80000f36 <main_21+0x1c>
    80000f36:	ff5ff0ef          	jal	80000f2a <main_21+0x10>
    80000f3a:	006000ef          	jal	80000f40 <main_21+0x26>
    80000f3e:	b7cd                	j	80000f20 <main_21+0x6>
    80000f40:	fe7ff0ef          	jal	80000f26 <main_21+0xc>
    80000f44:	00665ab3          	srl	s5,a2,t1
    80000f48:	00011117          	auipc	sp,0x11
    80000f4c:	50310113          	addi	sp,sp,1283 # 8001244b <region_0+0x403>
    80000f50:	fc111c83          	lh	s9,-63(sp)
    80000f54:	194deb97          	auipc	s7,0x194de
    80000f58:	03ae53bb          	divuw	t2,t3,s10
    80000f5c:	03b106a3          	sb	s11,45(sp)
    80000f60:	01b10e23          	sb	s11,28(sp)
    80000f64:	03b15903          	lhu	s2,59(sp)
    80000f68:	fdb10623          	sb	s11,-52(sp)
    80000f6c:	194deb97          	auipc	s7,0x194de
    80000f70:	01b10823          	sb	s11,16(sp)
    80000f74:	a1c90493          	addi	s1,s2,-1508
    80000f78:	40168cb3          	sub	s9,a3,ra
    80000f7c:	41b5d01b          	sraiw	zero,a1,0x1b
    80000f80:	40168cb3          	sub	s9,a3,ra
    80000f84:	01d13a03          	ld	s4,29(sp)
    80000f88:	01b10e23          	sb	s11,28(sp)
    80000f8c:	413cd53b          	sraw	a0,s9,s3
    80000f90:	03514303          	lbu	t1,53(sp)
    80000f94:	ffd11c83          	lh	s9,-3(sp)
    80000f98:	fc111c83          	lh	s9,-63(sp)
    80000f9c:	8a19                	andi	a2,a2,6
    80000f9e:	00119f9b          	slliw	t6,gp,0x1
    80000fa2:	8ef1                	and	a3,a3,a2
    80000fa4:	02d440bb          	divw	ra,s0,a3
    80000fa8:	b0c9fb13          	andi	s6,s3,-1268
    80000fac:	03a10903          	lb	s2,58(sp)
    80000fb0:	00251b3b          	sllw	s6,a0,sp
    80000fb4:	003b3db3          	sltu	s11,s6,gp
    80000fb8:	ff115903          	lhu	s2,-15(sp)
    80000fbc:	fd512ca3          	sw	s5,-39(sp)
    80000fc0:	02984033          	div	zero,a6,s1
    80000fc4:	01dc551b          	srliw	a0,s8,0x1d
    80000fc8:	01b100a3          	sb	s11,1(sp)
    80000fcc:	89aa                	mv	s3,a0
    80000fce:	91e6                	add	gp,gp,s9
    80000fd0:	6f59                	lui	t5,0x16
    80000fd2:	fc414303          	lbu	t1,-60(sp)
    80000fd6:	03e1f2bb          	remuw	t0,gp,t5
    80000fda:	01dc551b          	srliw	a0,s8,0x1d
    80000fde:	ffb10723          	sb	s11,-18(sp)
    80000fe2:	00011d97          	auipc	s11,0x11
    80000fe6:	399d8d93          	addi	s11,s11,921 # 8001237b <region_0+0x333>
    80000fea:	ff3d9c03          	lh	s8,-13(s11)
    80000fee:	194deb17          	auipc	s6,0x194de
    80000ff2:	008974b3          	and	s1,s2,s0
    80000ff6:	40168c33          	sub	s8,a3,ra
    80000ffa:	03f88233          	mul	tp,a7,t6
    80000ffe:	01dc549b          	srliw	s1,s8,0x1d
    80001002:	41b5d01b          	sraiw	zero,a1,0x1b
    80001006:	db3e4993          	xori	s3,t3,-589
    8000100a:	020d9ca3          	sh	zero,57(s11)
    8000100e:	03bd8b23          	sb	s11,54(s11)
    80001012:	40168c33          	sub	s8,a3,ra
    80001016:	fe0d91a3          	sh	zero,-29(s11)
    8000101a:	fe0dc283          	lbu	t0,-32(s11)
    8000101e:	020d9ca3          	sh	zero,57(s11)
    80001022:	0001                	nop
    80001024:	039b56b3          	divu	a3,s6,s9
    80001028:	fe8dc283          	lbu	t0,-24(s11)
    8000102c:	02bd8803          	lb	a6,43(s11)
    80001030:	9e11                	subw	a2,a2,a2
    80001032:	9e11                	subw	a2,a2,a2
    80001034:	ff0dc283          	lbu	t0,-16(s11)
    80001038:	03e1f23b          	remuw	tp,gp,t5
    8000103c:	000d9fa3          	sh	zero,31(s11)
    80001040:	9e11                	subw	a2,a2,a2
    80001042:	3afd                	addiw	s5,s5,-1
    80001044:	02e5b5b3          	mulhu	a1,a1,a4
    80001048:	0261653b          	remw	a0,sp,t1
    8000104c:	03b1fcb3          	remu	s9,gp,s11
    80001050:	03bd8fa3          	sb	s11,63(s11)
    80001054:	03f88233          	mul	tp,a7,t6
    80001058:	000dc283          	lbu	t0,0(s11)
    8000105c:	0001ac97          	auipc	s9,0x1a
    80001060:	06dc8c93          	addi	s9,s9,109 # 8001b0c9 <region_1+0x8081>
    80001064:	03b1fd33          	remu	s10,gp,s11
    80001068:	017ea3b3          	slt	t2,t4,s7
    8000106c:	0706                	slli	a4,a4,0x1
    8000106e:	55d0ab93          	slti	s7,ra,1373
    80001072:	aa3c8803          	lb	a6,-1373(s9)
    80001076:	41950a3b          	subw	s4,a0,s9
    8000107a:	6fd9                	lui	t6,0x16
    8000107c:	017ea3b3          	slt	t2,t4,s7
    80001080:	d38cc283          	lbu	t0,-712(s9)
    80001084:	db3e4993          	xori	s3,t3,-589
    80001088:	447cc283          	lbu	t0,1095(s9)
    8000108c:	db3e4993          	xori	s3,t3,-589
    80001090:	030d84bb          	mulw	s1,s11,a6
    80001094:	e51cd803          	lhu	a6,-431(s9)
    80001098:	003b3db3          	sltu	s11,s6,gp
    8000109c:	9166                	add	sp,sp,s9
    8000109e:	a80c9fa3          	sh	zero,-1377(s9)
    800010a2:	a80c9da3          	sh	zero,-1381(s9)
    800010a6:	0df5                	addi	s11,s11,29
    800010a8:	3074b9b7          	lui	s3,0x3074b
    800010ac:	afbca703          	lw	a4,-1285(s9)
    800010b0:	02984033          	div	zero,a6,s1
    800010b4:	db2c8803          	lb	a6,-590(s9)
    800010b8:	e15cee13          	ori	t3,s9,-491
    800010bc:	0dbc8023          	sb	s11,192(s9)
    800010c0:	0001                	nop
    800010c2:	3074b9b7          	lui	s3,0x3074b
    800010c6:	1a88                	addi	a0,sp,368
    800010c8:	bfbc8a23          	sb	s11,-1036(s9)
    800010cc:	040c9aa3          	sh	zero,85(s9)
    800010d0:	b0c9fa93          	andi	s5,s3,-1268
    800010d4:	2bbc8723          	sb	s11,686(s9)
    800010d8:	6fd9                	lui	t6,0x16
    800010da:	87dcd803          	lhu	a6,-1923(s9)
    800010de:	55bc81a3          	sb	s11,1347(s9)
    800010e2:	8f05                	sub	a4,a4,s1
    800010e4:	1f4cc283          	lbu	t0,500(s9)
    800010e8:	bdbc8723          	sb	s11,-1074(s9)
    800010ec:	41b5d01b          	sraiw	zero,a1,0x1b
    800010f0:	5f9c9c03          	lh	s8,1529(s9)
    800010f4:	8f05                	sub	a4,a4,s1
    800010f6:	575c9c03          	lh	s8,1397(s9)
    800010fa:	ee0c9fa3          	sh	zero,-257(s9)
    800010fe:	edbc8803          	lb	a6,-293(s9)
    80001102:	95bc8723          	sb	s11,-1714(s9)
    80001106:	bfbc8ea3          	sb	s11,-1027(s9)
    8000110a:	00012117          	auipc	sp,0x12
    8000110e:	85e10113          	addi	sp,sp,-1954 # 80012968 <region_0+0x920>
    80001112:	ffb10903          	lb	s2,-5(sp)
    80001116:	c652                	sw	s4,12(sp)
    80001118:	8ef1                	and	a3,a3,a2
    8000111a:	85f5                	srai	a1,a1,0x1d
    8000111c:	02ad6ab3          	rem	s5,s10,a0
    80001120:	e15cee13          	ori	t3,s9,-491
    80001124:	01b104a3          	sb	s11,9(sp)
    80001128:	01dc551b          	srliw	a0,s8,0x1d
    8000112c:	00251b3b          	sllw	s6,a0,sp
    80001130:	e07a                	sd	t5,0(sp)
    80001132:	d4f78d1b          	addiw	s10,a5,-689
    80001136:	ff114303          	lbu	t1,-15(sp)
    8000113a:	007780b3          	add	ra,a5,t2
    8000113e:	4612                	lw	a2,4(sp)
    80001140:	0001                	nop
    80001142:	ff211c83          	lh	s9,-14(sp)
    80001146:	3074ba37          	lui	s4,0x3074b
    8000114a:	e87a                	sd	t5,16(sp)
    8000114c:	003b3db3          	sltu	s11,s6,gp
    80001150:	ffb10923          	sb	s11,-14(sp)
    80001154:	194deb97          	auipc	s7,0x194de
    80001158:	ffb10903          	lb	s2,-5(sp)
    8000115c:	ffa10903          	lb	s2,-6(sp)
    80001160:	ffb10923          	sb	s11,-14(sp)
    80001164:	00f10903          	lb	s2,15(sp)
    80001168:	02399e33          	mulh	t3,s3,gp
    8000116c:	d4f78d1b          	addiw	s10,a5,-689
    80001170:	01ff55bb          	srlw	a1,t5,t6
    80001174:	41b5d01b          	sraiw	zero,a1,0x1b
    80001178:	ff310903          	lb	s2,-13(sp)
    8000117c:	fe011f23          	sh	zero,-2(sp)
    80001180:	e15cee13          	ori	t3,s9,-491
    80001184:	00114303          	lbu	t1,1(sp)
    80001188:	6622                	ld	a2,8(sp)
    8000118a:	4e85                	li	t4,1
    8000118c:	00011523          	sh	zero,10(sp)
    80001190:	ff615903          	lhu	s2,-10(sp)
    80001194:	50f5                	li	ra,-3
    80001196:	412d                	li	sp,11
    80001198:	03e1f3bb          	remuw	t2,gp,t5
    8000119c:	a1c90613          	addi	a2,s2,-1508

00000000800011a0 <main_247_1_t>:
    800011a0:	0261673b          	remw	a4,sp,t1
    800011a4:	8e71                	and	a2,a2,a2
    800011a6:	0089                	addi	ra,ra,2
    800011a8:	00665cb3          	srl	s9,a2,t1
    800011ac:	8e85                	sub	a3,a3,s1
    800011ae:	54dd                	li	s1,-9
    800011b0:	0001                	nop

00000000800011b2 <main_247_0_t>:
    800011b2:	00778233          	add	tp,a5,t2
    800011b6:	40d0dcb3          	sra	s9,ra,a3
    800011ba:	01e11ab3          	sll	s5,sp,t5
    800011be:	03e1f3bb          	remuw	t2,gp,t5
    800011c2:	04a5                	addi	s1,s1,9
    800011c4:	d4fd                	beqz	s1,800011b2 <main_247_0_t>
    800011c6:	fc209de3          	bne	ra,sp,800011a0 <main_247_1_t>
    800011ca:	02e99613          	slli	a2,s3,0x2e
    800011ce:	00014617          	auipc	a2,0x14
    800011d2:	3f860613          	addi	a2,a2,1016 # 800155c6 <region_1+0x257e>
    800011d6:	0c464283          	lbu	t0,196(a2)
    800011da:	89aa                	mv	s3,a0
    800011dc:	05160903          	lb	s2,81(a2)
    800011e0:	0ce62803          	lw	a6,206(a2)
    800011e4:	1a98                	addi	a4,sp,368
    800011e6:	8e85                	sub	a3,a3,s1
    800011e8:	01a4d293          	srli	t0,s1,0x1a
    800011ec:	ffb64283          	lbu	t0,-5(a2)
    800011f0:	b0c9fb13          	andi	s6,s3,-1268
    800011f4:	f3b604a3          	sb	s11,-215(a2)
    800011f8:	0db60ea3          	sb	s11,221(a2)
    800011fc:	fe661c83          	lh	s9,-26(a2)
    80001200:	f5b60e23          	sb	s11,-164(a2)
    80001204:	8575                	srai	a0,a0,0x1d
    80001206:	01ff553b          	srlw	a0,t5,t6
    8000120a:	f5562b23          	sw	s5,-170(a2)
    8000120e:	00494c33          	xor	s8,s2,tp
    80001212:	8df1                	and	a1,a1,a2
    80001214:	f2266083          	lwu	ra,-222(a2)
    80001218:	0fb60ea3          	sb	s11,253(a2)
    8000121c:	01964283          	lbu	t0,25(a2)
    80001220:	faf64283          	lbu	t0,-81(a2)
    80001224:	0d364283          	lbu	t0,211(a2)
    80001228:	f6764283          	lbu	t0,-153(a2)
    8000122c:	f0460903          	lb	s2,-252(a2)
    80001230:	fd460903          	lb	s2,-44(a2)
    80001234:	0e465903          	lhu	s2,228(a2)
    80001238:	f0e64283          	lbu	t0,-242(a2)
    8000123c:	007780b3          	add	ra,a5,t2
    80001240:	1a98                	addi	a4,sp,368
    80001242:	f4160903          	lb	s2,-191(a2)
    80001246:	00864283          	lbu	t0,8(a2)
    8000124a:	f3364283          	lbu	t0,-205(a2)
    8000124e:	0001e117          	auipc	sp,0x1e
    80001252:	3ba10113          	addi	sp,sp,954 # 8001f608 <region_1+0xc5c0>
    80001256:	6f59                	lui	t5,0x16
    80001258:	8b714303          	lbu	t1,-1865(sp)
    8000125c:	89aa                	mv	s3,a0
    8000125e:	70910903          	lb	s2,1801(sp)
    80001262:	00494c33          	xor	s8,s2,tp
    80001266:	9d811c83          	lh	s9,-1576(sp)
    8000126a:	41950abb          	subw	s5,a0,s9
    8000126e:	03f10903          	lb	s2,63(sp)
    80001272:	91411c83          	lh	s9,-1772(sp)
    80001276:	a5510903          	lb	s2,-1451(sp)
    8000127a:	3b7d                	addiw	s6,s6,-1 # ffffffff994defed <_end+0xffffffff194aa665>
    8000127c:	3074ba37          	lui	s4,0x3074b
    80001280:	79b14303          	lbu	t1,1947(sp)
    80001284:	03910903          	lb	s2,57(sp)
    80001288:	91e6                	add	gp,gp,s9
    8000128a:	92914303          	lbu	t1,-1751(sp)
    8000128e:	8fb10ba3          	sb	s11,-1801(sp)
    80001292:	80714303          	lbu	t1,-2041(sp)
    80001296:	aed14303          	lbu	t1,-1299(sp)
    8000129a:	0001                	nop
    8000129c:	17f14303          	lbu	t1,383(sp)
    800012a0:	dc812803          	lw	a6,-568(sp)
    800012a4:	03b1fd33          	remu	s10,gp,s11
    800012a8:	7ab14303          	lbu	t1,1963(sp)
    800012ac:	db3e4a13          	xori	s4,t3,-589
    800012b0:	8f59                	or	a4,a4,a4
    800012b2:	03b10323          	sb	s11,38(sp)
    800012b6:	d4f78d1b          	addiw	s10,a5,-689
    800012ba:	4c514303          	lbu	t1,1221(sp)
    800012be:	56e14303          	lbu	t1,1390(sp)
    800012c2:	85f5                	srai	a1,a1,0x1d
    800012c4:	8ef1                	and	a3,a3,a2
    800012c6:	abb14303          	lbu	t1,-1349(sp)
    800012ca:	36811c83          	lh	s9,872(sp)
    800012ce:	0df5                	addi	s11,s11,29
    800012d0:	8ef1                	and	a3,a3,a2
    800012d2:	b0c9fb13          	andi	s6,s3,-1268
    800012d6:	ccb14303          	lbu	t1,-821(sp)
    800012da:	02984033          	div	zero,a6,s1
    800012de:	02984033          	div	zero,a6,s1
    800012e2:	66011b23          	sh	zero,1654(sp)
    800012e6:	6a011023          	sh	zero,1696(sp)
    800012ea:	9a514303          	lbu	t1,-1627(sp)
    800012ee:	88011823          	sh	zero,-1904(sp)
    800012f2:	0df5                	addi	s11,s11,29
    800012f4:	85f5                	srai	a1,a1,0x1d
    800012f6:	00251b3b          	sllw	s6,a0,sp
    800012fa:	8ef1                	and	a3,a3,a2
    800012fc:	a1c90493          	addi	s1,s2,-1508
    80001300:	94215903          	lhu	s2,-1726(sp)
    80001304:	00012117          	auipc	sp,0x12
    80001308:	bfe10113          	addi	sp,sp,-1026 # 80012f02 <region_0+0xeba>
    8000130c:	0df5                	addi	s11,s11,29
    8000130e:	02c11c83          	lh	s9,44(sp)
    80001312:	d4f78d1b          	addiw	s10,a5,-689
    80001316:	4e85                	li	t4,1
    80001318:	4e85                	li	t4,1
    8000131a:	007780b3          	add	ra,a5,t2
    8000131e:	f9c10903          	lb	s2,-100(sp)
    80001322:	07c10903          	lb	s2,124(sp)
    80001326:	0ea14303          	lbu	t1,234(sp)
    8000132a:	0001                	nop
    8000132c:	413cd53b          	sraw	a0,s9,s3
    80001330:	9e11                	subw	a2,a2,a2
    80001332:	01ff55bb          	srlw	a1,t5,t6
    80001336:	6f59                	lui	t5,0x16
    80001338:	f8010903          	lb	s2,-128(sp)
    8000133c:	8eb5                	xor	a3,a3,a3
    8000133e:	3074ba37          	lui	s4,0x3074b
    80001342:	00119f9b          	slliw	t6,gp,0x1
    80001346:	01e11933          	sll	s2,sp,t5
    8000134a:	08f14303          	lbu	t1,143(sp)
    8000134e:	f36d3493          	sltiu	s1,s10,-202
    80001352:	007780b3          	add	ra,a5,t2
    80001356:	3074ba37          	lui	s4,0x3074b
    8000135a:	0ed14303          	lbu	t1,237(sp)
    8000135e:	03b103a3          	sb	s11,39(sp)
    80001362:	fb114303          	lbu	t1,-79(sp)
    80001366:	f7c10903          	lb	s2,-132(sp)
    8000136a:	6f59                	lui	t5,0x16
    8000136c:	fad10903          	lb	s2,-83(sp)
    80001370:	8375                	srli	a4,a4,0x1d
    80001372:	00665b33          	srl	s6,a2,t1
    80001376:	01a4d313          	srli	t1,s1,0x1a
    8000137a:	0310a033          	mulhsu	zero,ra,a7
    8000137e:	02e10903          	lb	s2,46(sp)
    80001382:	0001d397          	auipc	t2,0x1d
    80001386:	cf238393          	addi	t2,t2,-782 # 8001e074 <region_1+0xb02c>
    8000138a:	03f88233          	mul	tp,a7,t6
    8000138e:	02e5b633          	mulhu	a2,a1,a4
    80001392:	01a4d293          	srli	t0,s1,0x1a
    80001396:	0043ba03          	ld	s4,4(t2)
    8000139a:	194deb97          	auipc	s7,0x194de
    8000139e:	fd53a223          	sw	s5,-60(t2)
    800013a2:	02984033          	div	zero,a6,s1
    800013a6:	fdf3c283          	lbu	t0,-33(t2)
    800013aa:	ffb38fa3          	sb	s11,-1(t2)
    800013ae:	fd538903          	lb	s2,-43(t2)
    800013b2:	03ae533b          	divuw	t1,t3,s10
    800013b6:	8375                	srli	a4,a4,0x1d
    800013b8:	3074ba37          	lui	s4,0x3074b
    800013bc:	01b38ea3          	sb	s11,29(t2)
    800013c0:	02ad6ab3          	rem	s5,s10,a0
    800013c4:	ffb38da3          	sb	s11,-5(t2)
    800013c8:	03b383a3          	sb	s11,39(t2)
    800013cc:	01ff55bb          	srlw	a1,t5,t6
    800013d0:	6fd9                	lui	t6,0x16
    800013d2:	03b38ba3          	sb	s11,55(t2)
    800013d6:	02ad6ab3          	rem	s5,s10,a0
    800013da:	02039d23          	sh	zero,58(t2)
    800013de:	413cd53b          	sraw	a0,s9,s3
    800013e2:	00665b33          	srl	s6,a2,t1
    800013e6:	4e85                	li	t4,1
    800013e8:	01e11933          	sll	s2,sp,t5
    800013ec:	8ef1                	and	a3,a3,a2
    800013ee:	03f88233          	mul	tp,a7,t6
    800013f2:	00665b33          	srl	s6,a2,t1
    800013f6:	0001                	nop
    800013f8:	8eb5                	xor	a3,a3,a3
    800013fa:	fd138903          	lb	s2,-47(t2)
    800013fe:	00011117          	auipc	sp,0x11
    80001402:	5cd10113          	addi	sp,sp,1485 # 800129cb <region_0+0x983>
    80001406:	8f05                	sub	a4,a4,s1
    80001408:	09e14303          	lbu	t1,158(sp)
    8000140c:	01d14303          	lbu	t1,29(sp)
    80001410:	437ad293          	srai	t0,s5,0x37
    80001414:	09610903          	lb	s2,150(sp)
    80001418:	fbd11c83          	lh	s9,-67(sp)
    8000141c:	030d853b          	mulw	a0,s11,a6
    80001420:	00251b3b          	sllw	s6,a0,sp
    80001424:	fdb100a3          	sb	s11,-63(sp)
    80001428:	fa614303          	lbu	t1,-90(sp)
    8000142c:	e15cee13          	ori	t3,s9,-491
    80001430:	00494c33          	xor	s8,s2,tp
    80001434:	03e1f2bb          	remuw	t0,gp,t5
    80001438:	41b5d01b          	sraiw	zero,a1,0x1b
    8000143c:	00494c33          	xor	s8,s2,tp
    80001440:	9ead                	addw	a3,a3,a1
    80001442:	f6414303          	lbu	t1,-156(sp)
    80001446:	3074ba37          	lui	s4,0x3074b
    8000144a:	8f59                	or	a4,a4,a4
    8000144c:	03b10223          	sb	s11,36(sp)
    80001450:	194deb97          	auipc	s7,0x194de
    80001454:	0df5                	addi	s11,s11,29
    80001456:	e15cee13          	ori	t3,s9,-491
    8000145a:	8eb5                	xor	a3,a3,a3
    8000145c:	8f05                	sub	a4,a4,s1
    8000145e:	f5a10903          	lb	s2,-166(sp)
    80001462:	fdf15903          	lhu	s2,-33(sp)
    80001466:	41b5d01b          	sraiw	zero,a1,0x1b
    8000146a:	00897533          	and	a0,s2,s0
    8000146e:	02e5b633          	mulhu	a2,a1,a4
    80001472:	0db10b23          	sb	s11,214(sp)
    80001476:	437ad293          	srai	t0,s5,0x37
    8000147a:	4e85                	li	t4,1
    8000147c:	f5614303          	lbu	t1,-170(sp)
    80001480:	01b10fa3          	sb	s11,31(sp)
    80001484:	0001                	nop
    80001486:	f7b10923          	sb	s11,-142(sp)
    8000148a:	0310a033          	mulhsu	zero,ra,a7
    8000148e:	02d440bb          	divw	ra,s0,a3
    80001492:	f2014303          	lbu	t1,-224(sp)
    80001496:	0bb10fa3          	sb	s11,191(sp)
    8000149a:	0db10da3          	sb	s11,219(sp)
    8000149e:	0001                	nop
    800014a0:	0df5                	addi	s11,s11,29
    800014a2:	8a19                	andi	a2,a2,6
    800014a4:	8f59                	or	a4,a4,a4
    800014a6:	017ea4b3          	slt	s1,t4,s7
    800014aa:	00814303          	lbu	t1,8(sp)

00000000800014ae <main_31>:
    800014ae:	038000ef          	jal	800014e6 <main_31+0x38>
    800014b2:	a811                	j	800014c6 <main_31+0x18>
    800014b4:	a83d                	j	800014f2 <main_31+0x44>
    800014b6:	a019                	j	800014bc <main_31+0xe>
    800014b8:	00a000ef          	jal	800014c2 <main_31+0x14>
    800014bc:	a009                	j	800014be <main_31+0x10>
    800014be:	01e000ef          	jal	800014dc <main_31+0x2e>
    800014c2:	ff5ff0ef          	jal	800014b6 <main_31+0x8>
    800014c6:	a839                	j	800014e4 <main_31+0x36>
    800014c8:	028000ef          	jal	800014f0 <main_31+0x42>
    800014cc:	00c000ef          	jal	800014d8 <main_31+0x2a>
    800014d0:	b7cd                	j	800014b2 <main_31+0x4>
    800014d2:	b7dd                	j	800014b8 <main_31+0xa>
    800014d4:	fffff0ef          	jal	800014d2 <main_31+0x24>
    800014d8:	006000ef          	jal	800014de <main_31+0x30>
    800014dc:	a019                	j	800014e2 <main_31+0x34>
    800014de:	010000ef          	jal	800014ee <main_31+0x40>
    800014e2:	a021                	j	800014ea <main_31+0x3c>
    800014e4:	b7e5                	j	800014cc <main_31+0x1e>
    800014e6:	fefff0ef          	jal	800014d4 <main_31+0x26>
    800014ea:	fdfff0ef          	jal	800014c8 <main_31+0x1a>
    800014ee:	b7d9                	j	800014b4 <main_31+0x6>
    800014f0:	b7c5                	j	800014d0 <main_31+0x22>
    800014f2:	3074b9b7          	lui	s3,0x3074b
    800014f6:	0001b117          	auipc	sp,0x1b
    800014fa:	41d10113          	addi	sp,sp,1053 # 8001c913 <region_1+0x98cb>
    800014fe:	fe911c83          	lh	s9,-23(sp)
    80001502:	0001                	nop
    80001504:	003b3db3          	sltu	s11,s6,gp
    80001508:	9ead                	addw	a3,a3,a1
    8000150a:	85f5                	srai	a1,a1,0x1d
    8000150c:	00897533          	and	a0,s2,s0
    80001510:	01dc551b          	srliw	a0,s8,0x1d
    80001514:	6f59                	lui	t5,0x16
    80001516:	02e5b633          	mulhu	a2,a1,a4
    8000151a:	38014303          	lbu	t1,896(sp)
    8000151e:	02e99f13          	slli	t5,s3,0x2e
    80001522:	39e14303          	lbu	t1,926(sp)
    80001526:	b4214303          	lbu	t1,-1214(sp)
    8000152a:	41b5d01b          	sraiw	zero,a1,0x1b
    8000152e:	02399e33          	mulh	t3,s3,gp
    80001532:	6db10a23          	sb	s11,1748(sp)
    80001536:	40814303          	lbu	t1,1032(sp)
    8000153a:	194deb97          	auipc	s7,0x194de
    8000153e:	413cd53b          	sraw	a0,s9,s3
    80001542:	dfb10ea3          	sb	s11,-515(sp)
    80001546:	c5b15903          	lhu	s2,-933(sp)
    8000154a:	00665b33          	srl	s6,a2,t1
    8000154e:	38f15903          	lhu	s2,911(sp)
    80001552:	ad911c83          	lh	s9,-1319(sp)
    80001556:	41950abb          	subw	s5,a0,s9
    8000155a:	8f05                	sub	a4,a4,s1
    8000155c:	ad610903          	lb	s2,-1322(sp)
    80001560:	9e11                	subw	a2,a2,a2
    80001562:	41950abb          	subw	s5,a0,s9
    80001566:	32214303          	lbu	t1,802(sp)
    8000156a:	0310a033          	mulhsu	zero,ra,a7
    8000156e:	8f05                	sub	a4,a4,s1
    80001570:	4e85                	li	t4,1
    80001572:	01ff55bb          	srlw	a1,t5,t6
    80001576:	8f05                	sub	a4,a4,s1
    80001578:	87915903          	lhu	s2,-1927(sp)
    8000157c:	03b1fd33          	remu	s10,gp,s11
    80001580:	89aa                	mv	s3,a0
    80001582:	03f882b3          	mul	t0,a7,t6
    80001586:	01e11933          	sll	s2,sp,t5
    8000158a:	02984033          	div	zero,a6,s1
    8000158e:	dc0119a3          	sh	zero,-557(sp)
    80001592:	e4912803          	lw	a6,-439(sp)
    80001596:	00011e97          	auipc	t4,0x11
    8000159a:	b25e8e93          	addi	t4,t4,-1243 # 800120bb <region_0+0x73>
    8000159e:	5c7ec283          	lbu	t0,1479(t4)
    800015a2:	1dbe8423          	sb	s11,456(t4)
    800015a6:	54de8803          	lb	a6,1357(t4)
    800015aa:	9e11                	subw	a2,a2,a2
    800015ac:	413cd4bb          	sraw	s1,s9,s3
    800015b0:	55d0ab93          	slti	s7,ra,1373
    800015b4:	1ece8803          	lb	a6,492(t4)
    800015b8:	00665ab3          	srl	s5,a2,t1
    800015bc:	00119f9b          	slliw	t6,gp,0x1
    800015c0:	3074b9b7          	lui	s3,0x3074b
    800015c4:	37be8f23          	sb	s11,894(t4)
    800015c8:	6fd9                	lui	t6,0x16
    800015ca:	233ed803          	lhu	a6,563(t4)
    800015ce:	2fae8803          	lb	a6,762(t4)
    800015d2:	451ed803          	lhu	a6,1105(t4)
    800015d6:	0310a033          	mulhsu	zero,ra,a7
    800015da:	5e3ec283          	lbu	t0,1507(t4)
    800015de:	00d5863b          	addw	a2,a1,a3
    800015e2:	566e8803          	lb	a6,1382(t4)
    800015e6:	2b7ed803          	lhu	a6,695(t4)
    800015ea:	41be8823          	sb	s11,1040(t4)
    800015ee:	b0c9fa93          	andi	s5,s3,-1268
    800015f2:	02e5b5b3          	mulhu	a1,a1,a4
    800015f6:	03b1fcb3          	remu	s9,gp,s11
    800015fa:	6beec283          	lbu	t0,1726(t4)
    800015fe:	589ea703          	lw	a4,1417(t4)
    80001602:	57fec283          	lbu	t0,1407(t4)
    80001606:	02e99f13          	slli	t5,s3,0x2e
    8000160a:	16be9c03          	lh	s8,363(t4)
    8000160e:	242e8803          	lb	a6,578(t4)
    80001612:	00119f9b          	slliw	t6,gp,0x1
    80001616:	43be84a3          	sb	s11,1065(t4)
    8000161a:	51be8ea3          	sb	s11,1309(t4)
    8000161e:	5e2e8803          	lb	a6,1506(t4)
    80001622:	1b5ea703          	lw	a4,437(t4)
    80001626:	31be8423          	sb	s11,776(t4)
    8000162a:	40d0df33          	sra	t5,ra,a3
    8000162e:	0706                	slli	a4,a4,0x1
    80001630:	1c0e9da3          	sh	zero,475(t4)
    80001634:	6a9e8803          	lb	a6,1705(t4)
    80001638:	611ea703          	lw	a4,1553(t4)
    8000163c:	9d3d                	addw	a0,a0,a5
    8000163e:	09eec283          	lbu	t0,158(t4)
    80001642:	f9be8c23          	sb	s11,-104(t4)
    80001646:	8375                	srli	a4,a4,0x1d
    80001648:	3d6ec283          	lbu	t0,982(t4)
    8000164c:	00011117          	auipc	sp,0x11
    80001650:	c8510113          	addi	sp,sp,-891 # 800122d1 <region_0+0x289>
    80001654:	40d0df33          	sra	t5,ra,a3
    80001658:	00665b33          	srl	s6,a2,t1
    8000165c:	00d10903          	lb	s2,13(sp)
    80001660:	194deb97          	auipc	s7,0x194de
    80001664:	85f5                	srai	a1,a1,0x1d
    80001666:	026165bb          	remw	a1,sp,t1
    8000166a:	01dc551b          	srliw	a0,s8,0x1d
    8000166e:	01a4d313          	srli	t1,s1,0x1a
    80001672:	ff410903          	lb	s2,-12(sp)
    80001676:	03ae53bb          	divuw	t2,t3,s10
    8000167a:	d4f78d1b          	addiw	s10,a5,-689
    8000167e:	ff910903          	lb	s2,-7(sp)
    80001682:	413cd53b          	sraw	a0,s9,s3
    80001686:	ffe14303          	lbu	t1,-2(sp)
    8000168a:	00251b3b          	sllw	s6,a0,sp
    8000168e:	00494c33          	xor	s8,s2,tp
    80001692:	02984033          	div	zero,a6,s1
    80001696:	4e85                	li	t4,1
    80001698:	03ae53bb          	divuw	t2,t3,s10
    8000169c:	00014303          	lbu	t1,0(sp)
    800016a0:	00614303          	lbu	t1,6(sp)
    800016a4:	00665b33          	srl	s6,a2,t1
    800016a8:	02ad6ab3          	rem	s5,s10,a0
    800016ac:	03ae53bb          	divuw	t2,t3,s10
    800016b0:	b0c9fb13          	andi	s6,s3,-1268
    800016b4:	01e11933          	sll	s2,sp,t5
    800016b8:	01e11933          	sll	s2,sp,t5
    800016bc:	000115a3          	sh	zero,11(sp)
    800016c0:	b0c9fb13          	andi	s6,s3,-1268
    800016c4:	ff814303          	lbu	t1,-8(sp)
    800016c8:	41b5d01b          	sraiw	zero,a1,0x1b
    800016cc:	003b3db3          	sltu	s11,s6,gp
    800016d0:	ffd11c83          	lh	s9,-3(sp)
    800016d4:	039b5733          	divu	a4,s6,s9
    800016d8:	00897533          	and	a0,s2,s0
    800016dc:	00911c83          	lh	s9,9(sp)
    800016e0:	02984033          	div	zero,a6,s1
    800016e4:	01b10423          	sb	s11,8(sp)
    800016e8:	4685                	li	a3,1
    800016ea:	413cd5bb          	sraw	a1,s9,s3
    800016ee:	0001                	nop
    800016f0:	0001                	nop
    800016f2:	0001                	nop
    800016f4:	03ae54bb          	divuw	s1,t3,s10
    800016f8:	008975b3          	and	a1,s2,s0

00000000800016fc <main_253_1_t>:
    800016fc:	8919                	andi	a0,a0,6
    800016fe:	8cb5                	xor	s1,s1,a3
    80001700:	16fd                	addi	a3,a3,-1
    80001702:	02e5b833          	mulhu	a6,a1,a4
    80001706:	576d                	li	a4,-5
    80001708:	1a88                	addi	a0,sp,368
    8000170a:	02d4413b          	divw	sp,s0,a3
    8000170e:	6fd9                	lui	t6,0x16
    80001710:	01a4d393          	srli	t2,s1,0x1a
    80001714:	42c9                	li	t0,18
    80001716:	8cb5                	xor	s1,s1,a3
    80001718:	00778133          	add	sp,a5,t2

000000008000171c <main_253_0_t>:
    8000171c:	02e5b833          	mulhu	a6,a1,a4
    80001720:	6fd9                	lui	t6,0x16
    80001722:	0721                	addi	a4,a4,8
    80001724:	84f5                	srai	s1,s1,0x1d
    80001726:	d4f78e9b          	addiw	t4,a5,-689
    8000172a:	fe5769e3          	bltu	a4,t0,8000171c <main_253_0_t>
    8000172e:	717d                	addi	sp,sp,-16
    80001730:	717d                	addi	sp,sp,-16
    80001732:	d6e9                	beqz	a3,800016fc <main_253_1_t>
    80001734:	008975b3          	and	a1,s2,s0
    80001738:	00021117          	auipc	sp,0x21
    8000173c:	26c10113          	addi	sp,sp,620 # 800229a4 <region_1+0xf95c>
    80001740:	fe214303          	lbu	t1,-30(sp)
    80001744:	00714303          	lbu	t1,7(sp)
    80001748:	fe211c83          	lh	s9,-30(sp)
    8000174c:	01d10903          	lb	s2,29(sp)
    80001750:	003b3db3          	sltu	s11,s6,gp
    80001754:	0310a033          	mulhsu	zero,ra,a7
    80001758:	b0c9fb13          	andi	s6,s3,-1268
    8000175c:	01215903          	lhu	s2,18(sp)
    80001760:	89aa                	mv	s3,a0
    80001762:	55d0ac13          	slti	s8,ra,1373
    80001766:	030d853b          	mulw	a0,s11,a6
    8000176a:	55d0ac13          	slti	s8,ra,1373
    8000176e:	8f59                	or	a4,a4,a4
    80001770:	fc914303          	lbu	t1,-55(sp)
    80001774:	3b7d                	addiw	s6,s6,-1
    80001776:	8375                	srli	a4,a4,0x1d
    80001778:	007780b3          	add	ra,a5,t2
    8000177c:	ffb10ea3          	sb	s11,-3(sp)
    80001780:	d4f78d1b          	addiw	s10,a5,-689
    80001784:	3074ba37          	lui	s4,0x3074b
    80001788:	91e6                	add	gp,gp,s9
    8000178a:	fc011723          	sh	zero,-50(sp)
    8000178e:	8375                	srli	a4,a4,0x1d
    80001790:	02d440bb          	divw	ra,s0,a3
    80001794:	02e99f13          	slli	t5,s3,0x2e
    80001798:	0806                	slli	a6,a6,0x1
    8000179a:	413cd53b          	sraw	a0,s9,s3
    8000179e:	fd814303          	lbu	t1,-40(sp)
    800017a2:	8f05                	sub	a4,a4,s1
    800017a4:	b0c9fb13          	andi	s6,s3,-1268
    800017a8:	01c13a03          	ld	s4,28(sp)
    800017ac:	00012297          	auipc	t0,0x12
    800017b0:	7a628293          	addi	t0,t0,1958 # 80013f52 <region_1+0xf0a>
    800017b4:	85a28903          	lb	s2,-1958(t0)
    800017b8:	0f82b323          	sd	s8,230(t0)
    800017bc:	9d3d                	addw	a0,a0,a5
    800017be:	24328903          	lb	s2,579(t0)
    800017c2:	f4029a23          	sh	zero,-172(t0)
    800017c6:	f8029423          	sh	zero,-120(t0)
    800017ca:	e2628903          	lb	s2,-474(t0)
    800017ce:	8442d903          	lhu	s2,-1980(t0)
    800017d2:	8ef1                	and	a3,a3,a2
    800017d4:	9b528903          	lb	s2,-1611(t0)
    800017d8:	8375                	srli	a4,a4,0x1d
    800017da:	030d853b          	mulw	a0,s11,a6
    800017de:	08c2c303          	lbu	t1,140(t0)
    800017e2:	b9b28123          	sb	s11,-1150(t0)
    800017e6:	4db282a3          	sb	s11,1221(t0)
    800017ea:	3e029623          	sh	zero,1004(t0)
    800017ee:	1a88                	addi	a0,sp,368
    800017f0:	1a88                	addi	a0,sp,368
    800017f2:	4a029f23          	sh	zero,1214(t0)
    800017f6:	36f28903          	lb	s2,879(t0)
    800017fa:	63b281a3          	sb	s11,1571(t0)
    800017fe:	02d440bb          	divw	ra,s0,a3
    80001802:	6102c303          	lbu	t1,1552(t0)
    80001806:	69b28e23          	sb	s11,1692(t0)
    8000180a:	00251b3b          	sllw	s6,a0,sp
    8000180e:	ebc28903          	lb	s2,-324(t0)
    80001812:	e15cee13          	ori	t3,s9,-491
    80001816:	7ce2a803          	lw	a6,1998(t0)
    8000181a:	8f05                	sub	a4,a4,s1
    8000181c:	02e5b633          	mulhu	a2,a1,a4
    80001820:	02984033          	div	zero,a6,s1
    80001824:	68029c23          	sh	zero,1688(t0)
    80001828:	41b5d01b          	sraiw	zero,a1,0x1b
    8000182c:	00494c33          	xor	s8,s2,tp
    80001830:	1752a523          	sw	s5,362(t0)
    80001834:	039b5733          	divu	a4,s6,s9
    80001838:	03b1fd33          	remu	s10,gp,s11
    8000183c:	40d0df33          	sra	t5,ra,a3
    80001840:	dfb28ea3          	sb	s11,-515(t0)
    80001844:	d1a29c83          	lh	s9,-742(t0)
    80001848:	72528903          	lb	s2,1829(t0)
    8000184c:	03b28da3          	sb	s11,59(t0)
    80001850:	030d853b          	mulw	a0,s11,a6
    80001854:	2bb28aa3          	sb	s11,693(t0)
    80001858:	9702c303          	lbu	t1,-1680(t0)

000000008000185c <main_32>:
    8000185c:	01e000ef          	jal	8000187a <main_32+0x1e>
    80001860:	01e000ef          	jal	8000187e <main_32+0x22>
    80001864:	004000ef          	jal	80001868 <main_32+0xc>
    80001868:	ff9ff0ef          	jal	80001860 <main_32+0x4>
    8000186c:	004000ef          	jal	80001870 <main_32+0x14>
    80001870:	008000ef          	jal	80001878 <main_32+0x1c>
    80001874:	a009                	j	80001876 <main_32+0x1a>
    80001876:	a031                	j	80001882 <main_32+0x26>
    80001878:	b7f5                	j	80001864 <main_32+0x8>
    8000187a:	ff3ff0ef          	jal	8000186c <main_32+0x10>
    8000187e:	ff7ff0ef          	jal	80001874 <main_32+0x18>
    80001882:	0986                	slli	s3,s3,0x1
    80001884:	00011217          	auipc	tp,0x11
    80001888:	ce820213          	addi	tp,tp,-792 # 8001256c <region_0+0x524>
    8000188c:	03f882b3          	mul	t0,a7,t6
    80001890:	9d3d                	addw	a0,a0,a5
    80001892:	01820903          	lb	s2,24(tp) # 18 <_start-0x7fffffe8>
    80001896:	09c25903          	lhu	s2,156(tp) # 9c <_start-0x7fffff64>
    8000189a:	f5320903          	lb	s2,-173(tp) # ffffffffffffff53 <_end+0xffffffff7ffcb5cb>
    8000189e:	03b1fd33          	remu	s10,gp,s11
    800018a2:	3074ba37          	lui	s4,0x3074b
    800018a6:	06e21c83          	lh	s9,110(tp) # 6e <_start-0x7fffff92>
    800018aa:	f9225903          	lhu	s2,-110(tp) # ffffffffffffff92 <_end+0xffffffff7ffcb60a>
    800018ae:	8a19                	andi	a2,a2,6
    800018b0:	f5b20b23          	sb	s11,-170(tp) # ffffffffffffff56 <_end+0xffffffff7ffcb5ce>
    800018b4:	1a88                	addi	a0,sp,368
    800018b6:	00251b3b          	sllw	s6,a0,sp
    800018ba:	00b20903          	lb	s2,11(tp) # b <_start-0x7ffffff5>
    800018be:	0b825903          	lhu	s2,184(tp) # b8 <_start-0x7fffff48>
    800018c2:	05624303          	lbu	t1,86(tp) # 56 <_start-0x7fffffaa>
    800018c6:	fbb207a3          	sb	s11,-81(tp) # ffffffffffffffaf <_end+0xffffffff7ffcb627>
    800018ca:	02399e33          	mulh	t3,s3,gp
    800018ce:	fca25903          	lhu	s2,-54(tp) # ffffffffffffffca <_end+0xffffffff7ffcb642>
    800018d2:	03ae53bb          	divuw	t2,t3,s10
    800018d6:	01f764b3          	or	s1,a4,t6
    800018da:	03e1f2bb          	remuw	t0,gp,t5
    800018de:	00897533          	and	a0,s2,s0
    800018e2:	00251b3b          	sllw	s6,a0,sp
    800018e6:	09320903          	lb	s2,147(tp) # 93 <_start-0x7fffff6d>
    800018ea:	01dc551b          	srliw	a0,s8,0x1d
    800018ee:	02e5b633          	mulhu	a2,a1,a4
    800018f2:	01821c83          	lh	s9,24(tp) # 18 <_start-0x7fffffe8>
    800018f6:	8ef1                	and	a3,a3,a2
    800018f8:	41950abb          	subw	s5,a0,s9
    800018fc:	fbb24303          	lbu	t1,-69(tp) # ffffffffffffffbb <_end+0xffffffff7ffcb633>
    80001900:	8f05                	sub	a4,a4,s1
    80001902:	00494c33          	xor	s8,s2,tp
    80001906:	e15cee13          	ori	t3,s9,-491
    8000190a:	03ae53bb          	divuw	t2,t3,s10
    8000190e:	026165bb          	remw	a1,sp,t1
    80001912:	8f59                	or	a4,a4,a4
    80001914:	f2d24303          	lbu	t1,-211(tp) # ffffffffffffff2d <_end+0xffffffff7ffcb5a5>
    80001918:	f2221c83          	lh	s9,-222(tp) # ffffffffffffff22 <_end+0xffffffff7ffcb59a>
    8000191c:	d4f78d1b          	addiw	s10,a5,-689
    80001920:	8375                	srli	a4,a4,0x1d
    80001922:	f9a24303          	lbu	t1,-102(tp) # ffffffffffffff9a <_end+0xffffffff7ffcb612>
    80001926:	02984033          	div	zero,a6,s1
    8000192a:	f5724303          	lbu	t1,-169(tp) # ffffffffffffff57 <_end+0xffffffff7ffcb5cf>
    8000192e:	03f882b3          	mul	t0,a7,t6
    80001932:	f36d3493          	sltiu	s1,s10,-202
    80001936:	04c24303          	lbu	t1,76(tp) # 4c <_start-0x7fffffb4>
    8000193a:	04320903          	lb	s2,67(tp) # 43 <_start-0x7fffffbd>
    8000193e:	0001b297          	auipc	t0,0x1b
    80001942:	16928293          	addi	t0,t0,361 # 8001caa7 <region_1+0x9a5f>
    80001946:	00494c33          	xor	s8,s2,tp
    8000194a:	00729c83          	lh	s9,7(t0)
    8000194e:	ffb28d23          	sb	s11,-6(t0)
    80001952:	00028903          	lb	s2,0(t0)
    80001956:	ffb289a3          	sb	s11,-13(t0)
    8000195a:	8375                	srli	a4,a4,0x1d
    8000195c:	02e99f13          	slli	t5,s3,0x2e
    80001960:	ffb28d23          	sb	s11,-6(t0)
    80001964:	02399e33          	mulh	t3,s3,gp
    80001968:	ff22c303          	lbu	t1,-14(t0)
    8000196c:	3074ba37          	lui	s4,0x3074b
    80001970:	00251b3b          	sllw	s6,a0,sp
    80001974:	01b28623          	sb	s11,12(t0)
    80001978:	413cd53b          	sraw	a0,s9,s3
    8000197c:	41950abb          	subw	s5,a0,s9
    80001980:	9ead                	addw	a3,a3,a1
    80001982:	00128903          	lb	s2,1(t0)
    80001986:	01a4d313          	srli	t1,s1,0x1a
    8000198a:	fff2c303          	lbu	t1,-1(t0)
    8000198e:	ff228903          	lb	s2,-14(t0)
    80001992:	9d3d                	addw	a0,a0,a5
    80001994:	ffb28f23          	sb	s11,-2(t0)
    80001998:	ffb2c303          	lbu	t1,-5(t0)
    8000199c:	01b28123          	sb	s11,2(t0)
    800019a0:	01b28023          	sb	s11,0(t0)
    800019a4:	00328903          	lb	s2,3(t0)
    800019a8:	01a4d313          	srli	t1,s1,0x1a
    800019ac:	717d                	addi	sp,sp,-16
    800019ae:	00665b33          	srl	s6,a2,t1
    800019b2:	00929c83          	lh	s9,9(t0)
    800019b6:	03f88233          	mul	tp,a7,t6
    800019ba:	0022c303          	lbu	t1,2(t0)
    800019be:	ffb28923          	sb	s11,-14(t0)
    800019c2:	01028903          	lb	s2,16(t0)
    800019c6:	ffa28903          	lb	s2,-6(t0)
    800019ca:	00d28903          	lb	s2,13(t0)
    800019ce:	ffc28903          	lb	s2,-4(t0)
    800019d2:	00329c83          	lh	s9,3(t0)
    800019d6:	00011697          	auipc	a3,0x11
    800019da:	b7e68693          	addi	a3,a3,-1154 # 80012554 <region_0+0x50c>
    800019de:	fe069b23          	sh	zero,-10(a3)
    800019e2:	01b680a3          	sb	s11,1(a3)
    800019e6:	ffb68903          	lb	s2,-5(a3)
    800019ea:	01e11933          	sll	s2,sp,t5
    800019ee:	ff66c283          	lbu	t0,-10(a3)
    800019f2:	00f68903          	lb	s2,15(a3)
    800019f6:	0056c283          	lbu	t0,5(a3)
    800019fa:	00269c83          	lh	s9,2(a3)
    800019fe:	00f6c283          	lbu	t0,15(a3)
    80001a02:	8999                	andi	a1,a1,6
    80001a04:	0106a803          	lw	a6,16(a3)
    80001a08:	413cd4bb          	sraw	s1,s9,s3
    80001a0c:	00e69c83          	lh	s9,14(a3)
    80001a10:	00069723          	sh	zero,14(a3)
    80001a14:	01b684a3          	sb	s11,9(a3)
    80001a18:	ff468903          	lb	s2,-12(a3)
    80001a1c:	0026c283          	lbu	t0,2(a3)
    80001a20:	ffb68f23          	sb	s11,-2(a3)
    80001a24:	007780b3          	add	ra,a5,t2
    80001a28:	ffb68903          	lb	s2,-5(a3)
    80001a2c:	0076c283          	lbu	t0,7(a3)
    80001a30:	4e85                	li	t4,1
    80001a32:	00d6c283          	lbu	t0,13(a3)
    80001a36:	02ad6ab3          	rem	s5,s10,a0
    80001a3a:	00665b33          	srl	s6,a2,t1
    80001a3e:	00c6ba03          	ld	s4,12(a3)
    80001a42:	8999                	andi	a1,a1,6
    80001a44:	ff86d903          	lhu	s2,-8(a3)
    80001a48:	e15cee13          	ori	t3,s9,-491
    80001a4c:	008974b3          	and	s1,s2,s0
    80001a50:	00368903          	lb	s2,3(a3)
    80001a54:	d4f78d1b          	addiw	s10,a5,-689
    80001a58:	01f763b3          	or	t2,a4,t6
    80001a5c:	ffb68fa3          	sb	s11,-1(a3)
    80001a60:	0106d903          	lhu	s2,16(a3)
    80001a64:	00f6c283          	lbu	t0,15(a3)
    80001a68:	00069723          	sh	zero,14(a3)
    80001a6c:	00c6c283          	lbu	t0,12(a3)
    80001a70:	ffb68d23          	sb	s11,-6(a3)
    80001a74:	0001b117          	auipc	sp,0x1b
    80001a78:	44010113          	addi	sp,sp,1088 # 8001ceb4 <region_1+0x9e6c>
    80001a7c:	8f59                	or	a4,a4,a4
    80001a7e:	01e11933          	sll	s2,sp,t5
    80001a82:	00f10903          	lb	s2,15(sp)
    80001a86:	003b3db3          	sltu	s11,s6,gp
    80001a8a:	55d0ac13          	slti	s8,ra,1373
    80001a8e:	039b5733          	divu	a4,s6,s9
    80001a92:	003b3db3          	sltu	s11,s6,gp
    80001a96:	01ff55bb          	srlw	a1,t5,t6
    80001a9a:	e15cee13          	ori	t3,s9,-491
    80001a9e:	00c16083          	lwu	ra,12(sp)
    80001aa2:	db3e4a13          	xori	s4,t3,-589
    80001aa6:	ffb10ba3          	sb	s11,-9(sp)
    80001aaa:	00119f9b          	slliw	t6,gp,0x1
    80001aae:	b0c9fb13          	andi	s6,s3,-1268
    80001ab2:	026165bb          	remw	a1,sp,t1
    80001ab6:	55d0ac13          	slti	s8,ra,1373
    80001aba:	0001                	nop
    80001abc:	c252                	sw	s4,4(sp)
    80001abe:	ff512a23          	sw	s5,-12(sp)
    80001ac2:	01ff55bb          	srlw	a1,t5,t6
    80001ac6:	02399e33          	mulh	t3,s3,gp
    80001aca:	41950abb          	subw	s5,a0,s9
    80001ace:	00510903          	lb	s2,5(sp)
    80001ad2:	194deb97          	auipc	s7,0x194de
    80001ad6:	ffb10aa3          	sb	s11,-11(sp)
    80001ada:	ffb10923          	sb	s11,-14(sp)
    80001ade:	01b104a3          	sb	s11,9(sp)
    80001ae2:	413cd53b          	sraw	a0,s9,s3
    80001ae6:	02d440bb          	divw	ra,s0,a3
    80001aea:	03ae53bb          	divuw	t2,t3,s10
    80001aee:	00665b33          	srl	s6,a2,t1
    80001af2:	01ff55bb          	srlw	a1,t5,t6
    80001af6:	91e6                	add	gp,gp,s9
    80001af8:	00d10903          	lb	s2,13(sp)
    80001afc:	3074ba37          	lui	s4,0x3074b
    80001b00:	ffd14303          	lbu	t1,-3(sp)
    80001b04:	8375                	srli	a4,a4,0x1d
    80001b06:	00494c33          	xor	s8,s2,tp
    80001b0a:	00e14303          	lbu	t1,14(sp)
    80001b0e:	0001c117          	auipc	sp,0x1c
    80001b12:	5bb10113          	addi	sp,sp,1467 # 8001e0c9 <region_1+0xb081>
    80001b16:	01d14303          	lbu	t1,29(sp)
    80001b1a:	55d0ac13          	slti	s8,ra,1373
    80001b1e:	01e11933          	sll	s2,sp,t5
    80001b22:	039b5733          	divu	a4,s6,s9
    80001b26:	194deb97          	auipc	s7,0x194de
    80001b2a:	0df5                	addi	s11,s11,29
    80001b2c:	01e11933          	sll	s2,sp,t5
    80001b30:	8375                	srli	a4,a4,0x1d
    80001b32:	fd511c83          	lh	s9,-43(sp)
    80001b36:	fd014303          	lbu	t1,-48(sp)
    80001b3a:	fce14303          	lbu	t1,-50(sp)
    80001b3e:	85f5                	srai	a1,a1,0x1d
    80001b40:	01410903          	lb	s2,20(sp)
    80001b44:	00911c83          	lh	s9,9(sp)
    80001b48:	01c14303          	lbu	t1,28(sp)
    80001b4c:	026165bb          	remw	a1,sp,t1
    80001b50:	03f882b3          	mul	t0,a7,t6
    80001b54:	194deb97          	auipc	s7,0x194de
    80001b58:	00119f9b          	slliw	t6,gp,0x1
    80001b5c:	02e99f13          	slli	t5,s3,0x2e
    80001b60:	003b3db3          	sltu	s11,s6,gp
    80001b64:	9d3d                	addw	a0,a0,a5
    80001b66:	8375                	srli	a4,a4,0x1d
    80001b68:	41b5d01b          	sraiw	zero,a1,0x1b
    80001b6c:	039b5733          	divu	a4,s6,s9
    80001b70:	41b5d01b          	sraiw	zero,a1,0x1b
    80001b74:	00010903          	lb	s2,0(sp)
    80001b78:	40168cb3          	sub	s9,a3,ra
    80001b7c:	4e85                	li	t4,1
    80001b7e:	fdb108a3          	sb	s11,-47(sp)
    80001b82:	02e99f13          	slli	t5,s3,0x2e
    80001b86:	00494c33          	xor	s8,s2,tp
    80001b8a:	02e99f13          	slli	t5,s3,0x2e
    80001b8e:	02984033          	div	zero,a6,s1
    80001b92:	91e6                	add	gp,gp,s9
    80001b94:	91e6                	add	gp,gp,s9
    80001b96:	ffb104a3          	sb	s11,-23(sp)
    80001b9a:	00020e97          	auipc	t4,0x20
    80001b9e:	bd4e8e93          	addi	t4,t4,-1068 # 8002176e <region_1+0xe726>
    80001ba2:	01be81a3          	sb	s11,3(t4)
    80001ba6:	55d0ab93          	slti	s7,ra,1373
    80001baa:	01dc549b          	srliw	s1,s8,0x1d
    80001bae:	000e9523          	sh	zero,10(t4)
    80001bb2:	d4f78c9b          	addiw	s9,a5,-689
    80001bb6:	a1c90393          	addi	t2,s2,-1508
    80001bba:	ffbe8ca3          	sb	s11,-7(t4)
    80001bbe:	ffbe8da3          	sb	s11,-5(t4)
    80001bc2:	02e99f13          	slli	t5,s3,0x2e
    80001bc6:	0001                	nop
    80001bc8:	a1c90393          	addi	t2,s2,-1508
    80001bcc:	ff8e9c03          	lh	s8,-8(t4)
    80001bd0:	02e5b5b3          	mulhu	a1,a1,a4
    80001bd4:	005e8803          	lb	a6,5(t4)
    80001bd8:	db3e4993          	xori	s3,t3,-589
    80001bdc:	01be8023          	sb	s11,0(t4)
    80001be0:	01be83a3          	sb	s11,7(t4)
    80001be4:	ff7e8803          	lb	a6,-9(t4)
    80001be8:	00bec283          	lbu	t0,11(t4)
    80001bec:	007780b3          	add	ra,a5,t2
    80001bf0:	02e99f13          	slli	t5,s3,0x2e
    80001bf4:	02984033          	div	zero,a6,s1
    80001bf8:	008974b3          	and	s1,s2,s0
    80001bfc:	009ec283          	lbu	t0,9(t4)
    80001c00:	4e05                	li	t3,1
    80001c02:	01e11833          	sll	a6,sp,t5
    80001c06:	ff1e8803          	lb	a6,-15(t4)
    80001c0a:	0d75                	addi	s10,s10,29
    80001c0c:	017ea3b3          	slt	t2,t4,s7
    80001c10:	00fe8803          	lb	a6,15(t4)
    80001c14:	01e11833          	sll	a6,sp,t5
    80001c18:	03e1f23b          	remuw	tp,gp,t5
    80001c1c:	01f763b3          	or	t2,a4,t6
    80001c20:	8a19                	andi	a2,a2,6
    80001c22:	b0c9fa93          	andi	s5,s3,-1268
    80001c26:	00ce8803          	lb	a6,12(t4)
    80001c2a:	8f59                	or	a4,a4,a4
    80001c2c:	ffbe8fa3          	sb	s11,-1(t4)
    80001c30:	ffaed803          	lhu	a6,-6(t4)
    80001c34:	00011117          	auipc	sp,0x11
    80001c38:	08710113          	addi	sp,sp,135 # 80012cbb <region_0+0xc73>
    80001c3c:	b0c9fb13          	andi	s6,s3,-1268
    80001c40:	800114a3          	sh	zero,-2039(sp)
    80001c44:	d5214303          	lbu	t1,-686(sp)
    80001c48:	01f764b3          	or	s1,a4,t6
    80001c4c:	8f05                	sub	a4,a4,s1
    80001c4e:	17414303          	lbu	t1,372(sp)
    80001c52:	02e99f13          	slli	t5,s3,0x2e
    80001c56:	bc714303          	lbu	t1,-1081(sp)
    80001c5a:	bfa14303          	lbu	t1,-1030(sp)
    80001c5e:	00665b33          	srl	s6,a2,t1
    80001c62:	9e11                	subw	a2,a2,a2
    80001c64:	ac315903          	lhu	s2,-1341(sp)
    80001c68:	30210903          	lb	s2,770(sp)
    80001c6c:	f55128a3          	sw	s5,-175(sp)
    80001c70:	03f882b3          	mul	t0,a7,t6
    80001c74:	e0c14303          	lbu	t1,-500(sp)
    80001c78:	01dc551b          	srliw	a0,s8,0x1d
    80001c7c:	e15cee13          	ori	t3,s9,-491
    80001c80:	03b1fd33          	remu	s10,gp,s11
    80001c84:	9ead                	addw	a3,a3,a1
    80001c86:	3b7d                	addiw	s6,s6,-1
    80001c88:	00119f9b          	slliw	t6,gp,0x1
    80001c8c:	24110903          	lb	s2,577(sp)
    80001c90:	6f59                	lui	t5,0x16
    80001c92:	0af10903          	lb	s2,175(sp)
    80001c96:	37f14303          	lbu	t1,895(sp)
    80001c9a:	00251b3b          	sllw	s6,a0,sp
    80001c9e:	02e5b633          	mulhu	a2,a1,a4
    80001ca2:	bb410903          	lb	s2,-1100(sp)
    80001ca6:	0806                	slli	a6,a6,0x1
    80001ca8:	c7111c83          	lh	s9,-911(sp)
    80001cac:	da814303          	lbu	t1,-600(sp)
    80001cb0:	0b710903          	lb	s2,183(sp)
    80001cb4:	03ae53bb          	divuw	t2,t3,s10
    80001cb8:	03ae53bb          	divuw	t2,t3,s10
    80001cbc:	a1b10d23          	sb	s11,-1510(sp)
    80001cc0:	1bb14303          	lbu	t1,443(sp)
    80001cc4:	02d440bb          	divw	ra,s0,a3
    80001cc8:	89aa                	mv	s3,a0
    80001cca:	02984033          	div	zero,a6,s1
    80001cce:	03e1f2bb          	remuw	t0,gp,t5
    80001cd2:	55d0ac13          	slti	s8,ra,1373
    80001cd6:	00494c33          	xor	s8,s2,tp
    80001cda:	82e14303          	lbu	t1,-2002(sp)
    80001cde:	437ad293          	srai	t0,s5,0x37
    80001ce2:	c6910903          	lb	s2,-919(sp)
    80001ce6:	026165bb          	remw	a1,sp,t1
    80001cea:	bf510903          	lb	s2,-1035(sp)
    80001cee:	499d                	li	s3,7
    80001cf0:	4fa9                	li	t6,10

0000000080001cf2 <main_276_1_t>:
    80001cf2:	41950b3b          	subw	s6,a0,s9
    80001cf6:	0991                	addi	s3,s3,4 # 3074b004 <_start-0x4f8b4ffc>
    80001cf8:	4a85                	li	s5,1
    80001cfa:	5cc5                	li	s9,-15
    80001cfc:	4285                	li	t0,1

0000000080001cfe <main_276_0_t>:
    80001cfe:	003b3eb3          	sltu	t4,s6,gp
    80001d02:	1af9                	addi	s5,s5,-2
    80001d04:	8375                	srli	a4,a4,0x1d
    80001d06:	ff9a8ce3          	beq	s5,s9,80001cfe <main_276_0_t>
    80001d0a:	fff9e4e3          	bltu	s3,t6,80001cf2 <main_276_1_t>
    80001d0e:	03f88233          	mul	tp,a7,t6
    80001d12:	0001b117          	auipc	sp,0x1b
    80001d16:	37a10113          	addi	sp,sp,890 # 8001d08c <region_1+0xa044>
    80001d1a:	00251b3b          	sllw	s6,a0,sp
    80001d1e:	85f5                	srai	a1,a1,0x1d
    80001d20:	f7b10823          	sb	s11,-144(sp)
    80001d24:	01813a23          	sd	s8,20(sp)
    80001d28:	05314303          	lbu	t1,83(sp)
    80001d2c:	da52                	sw	s4,52(sp)
    80001d2e:	194deb97          	auipc	s7,0x194de
    80001d32:	f0310903          	lb	s2,-253(sp)
    80001d36:	3074ba37          	lui	s4,0x3074b
    80001d3a:	09b10aa3          	sb	s11,149(sp)
    80001d3e:	0bd14303          	lbu	t1,189(sp)
    80001d42:	f7b10023          	sb	s11,-160(sp)
    80001d46:	fc910903          	lb	s2,-55(sp)
    80001d4a:	f7012803          	lw	a6,-144(sp)
    80001d4e:	fad10903          	lb	s2,-83(sp)
    80001d52:	07d14303          	lbu	t1,125(sp)
    80001d56:	0001                	nop
    80001d58:	fd614303          	lbu	t1,-42(sp)
    80001d5c:	e15cee13          	ori	t3,s9,-491
    80001d60:	f7b10ba3          	sb	s11,-137(sp)
    80001d64:	03f10903          	lb	s2,63(sp)
    80001d68:	0001                	nop
    80001d6a:	ffb108a3          	sb	s11,-15(sp)
    80001d6e:	0ff14303          	lbu	t1,255(sp)
    80001d72:	0bb10123          	sb	s11,162(sp)
    80001d76:	194deb97          	auipc	s7,0x194de
    80001d7a:	01ff55bb          	srlw	a1,t5,t6
    80001d7e:	fdb10f23          	sb	s11,-34(sp)
    80001d82:	fbb101a3          	sb	s11,-93(sp)
    80001d86:	00119f9b          	slliw	t6,gp,0x1
    80001d8a:	9d3d                	addw	a0,a0,a5
    80001d8c:	f9b100a3          	sb	s11,-127(sp)
    80001d90:	00011297          	auipc	t0,0x11
    80001d94:	a0f28293          	addi	t0,t0,-1521 # 8001279f <region_0+0x757>
    80001d98:	00f28903          	lb	s2,15(t0)
    80001d9c:	01b28423          	sb	s11,8(t0)
    80001da0:	01b28223          	sb	s11,4(t0)
    80001da4:	0062c303          	lbu	t1,6(t0)
    80001da8:	ffc28903          	lb	s2,-4(t0)
    80001dac:	ffb28c23          	sb	s11,-8(t0)
    80001db0:	ff228903          	lb	s2,-14(t0)
    80001db4:	ff52a803          	lw	a6,-11(t0)
    80001db8:	fff28903          	lb	s2,-1(t0)
    80001dbc:	fe0299a3          	sh	zero,-13(t0)
    80001dc0:	40d0df33          	sra	t5,ra,a3
    80001dc4:	ff028903          	lb	s2,-16(t0)
    80001dc8:	3b7d                	addiw	s6,s6,-1
    80001dca:	0102c303          	lbu	t1,16(t0)
    80001dce:	ff32d903          	lhu	s2,-13(t0)
    80001dd2:	ffb28a23          	sb	s11,-12(t0)
    80001dd6:	ff828903          	lb	s2,-8(t0)
    80001dda:	437ad213          	srai	tp,s5,0x37
    80001dde:	00897533          	and	a0,s2,s0
    80001de2:	00e2c303          	lbu	t1,14(t0)
    80001de6:	0001                	nop
    80001de8:	ff828903          	lb	s2,-8(t0)
    80001dec:	ffb28ca3          	sb	s11,-7(t0)
    80001df0:	fe029aa3          	sh	zero,-11(t0)
    80001df4:	000297a3          	sh	zero,15(t0)
    80001df8:	ff52aaa3          	sw	s5,-11(t0)
    80001dfc:	00e28903          	lb	s2,14(t0)
    80001e00:	fe029ba3          	sh	zero,-9(t0)
    80001e04:	fe0299a3          	sh	zero,-13(t0)
    80001e08:	03b1fd33          	remu	s10,gp,s11
    80001e0c:	ffb28da3          	sb	s11,-5(t0)
    80001e10:	9ead                	addw	a3,a3,a1
    80001e12:	ff12c303          	lbu	t1,-15(t0)
    80001e16:	41b5d01b          	sraiw	zero,a1,0x1b
    80001e1a:	a1c90493          	addi	s1,s2,-1508
    80001e1e:	8375                	srli	a4,a4,0x1d
    80001e20:	0062c303          	lbu	t1,6(t0)
    80001e24:	ffd28903          	lb	s2,-3(t0)
    80001e28:	000296a3          	sh	zero,13(t0)
    80001e2c:	ff92e083          	lwu	ra,-7(t0)
    80001e30:	00011c17          	auipc	s8,0x11
    80001e34:	aa2c0c13          	addi	s8,s8,-1374 # 800128d2 <region_0+0x88a>
    80001e38:	07fc4283          	lbu	t0,127(s8)
    80001e3c:	ffbc0ba3          	sb	s11,-9(s8)
    80001e40:	02ec5803          	lhu	a6,46(s8)
    80001e44:	9e11                	subw	a2,a2,a2
    80001e46:	fbbc0323          	sb	s11,-90(s8)
    80001e4a:	070c4283          	lbu	t0,112(s8)
    80001e4e:	ff5c0803          	lb	a6,-11(s8)
    80001e52:	f55c2d23          	sw	s5,-166(s8)
    80001e56:	00494bb3          	xor	s7,s2,tp
    80001e5a:	03f88233          	mul	tp,a7,t6
    80001e5e:	f56c2703          	lw	a4,-170(s8)
    80001e62:	039b56b3          	divu	a3,s6,s9
    80001e66:	f56c0803          	lb	a6,-170(s8)
    80001e6a:	0bbc0e23          	sb	s11,188(s8)
    80001e6e:	8ef1                	and	a3,a3,a2
    80001e70:	008974b3          	and	s1,s2,s0
    80001e74:	02d440bb          	divw	ra,s0,a3
    80001e78:	07bc04a3          	sb	s11,105(s8)
    80001e7c:	06cc0803          	lb	a6,108(s8)
    80001e80:	0b6c6083          	lwu	ra,182(s8)
    80001e84:	f58c4283          	lbu	t0,-168(s8)
    80001e88:	40168cb3          	sub	s9,a3,ra
    80001e8c:	f6dc4283          	lbu	t0,-147(s8)
    80001e90:	0bcc4283          	lbu	t0,188(s8)
    80001e94:	086c4283          	lbu	t0,134(s8)
    80001e98:	feec3983          	ld	s3,-18(s8)
    80001e9c:	9166                	add	sp,sp,s9
    80001e9e:	1a88                	addi	a0,sp,368
    80001ea0:	194deb17          	auipc	s6,0x194de
    80001ea4:	f67c4283          	lbu	t0,-153(s8)
    80001ea8:	fbbc0ba3          	sb	s11,-73(s8)
    80001eac:	03ae533b          	divuw	t1,t3,s10
    80001eb0:	db3e4993          	xori	s3,t3,-589
    80001eb4:	717d                	addi	sp,sp,-16
    80001eb6:	40d0df33          	sra	t5,ra,a3
    80001eba:	0261653b          	remw	a0,sp,t1
    80001ebe:	b0c9fa93          	andi	s5,s3,-1268
    80001ec2:	01a4d293          	srli	t0,s1,0x1a
    80001ec6:	f9bc0023          	sb	s11,-128(s8)
    80001eca:	0706                	slli	a4,a4,0x1
    80001ecc:	f36d3393          	sltiu	t2,s10,-202
    80001ed0:	00119f9b          	slliw	t6,gp,0x1
    80001ed4:	02399e33          	mulh	t3,s3,gp
    80001ed8:	01dc549b          	srliw	s1,s8,0x1d
    80001edc:	40168cb3          	sub	s9,a3,ra
    80001ee0:	fa0c1f23          	sh	zero,-66(s8)
    80001ee4:	fbbc0aa3          	sb	s11,-75(s8)
    80001ee8:	437ad213          	srai	tp,s5,0x37
    80001eec:	f3bc0803          	lb	a6,-197(s8)

0000000080001ef0 <main_6>:
    80001ef0:	042000ef          	jal	80001f32 <main_6+0x42>
    80001ef4:	044000ef          	jal	80001f38 <main_6+0x48>
    80001ef8:	a0a1                	j	80001f40 <main_6+0x50>
    80001efa:	a819                	j	80001f10 <main_6+0x20>
    80001efc:	032000ef          	jal	80001f2e <main_6+0x3e>
    80001f00:	a005                	j	80001f20 <main_6+0x30>
    80001f02:	bfe5                	j	80001efa <main_6+0xa>
    80001f04:	032000ef          	jal	80001f36 <main_6+0x46>
    80001f08:	bfed                	j	80001f02 <main_6+0x12>
    80001f0a:	a005                	j	80001f2a <main_6+0x3a>
    80001f0c:	b7f5                	j	80001ef8 <main_6+0x8>
    80001f0e:	a029                	j	80001f18 <main_6+0x28>
    80001f10:	ff1ff0ef          	jal	80001f00 <main_6+0x10>
    80001f14:	ff7ff0ef          	jal	80001f0a <main_6+0x1a>
    80001f18:	fedff0ef          	jal	80001f04 <main_6+0x14>
    80001f1c:	b7f5                	j	80001f08 <main_6+0x18>
    80001f1e:	bfc5                	j	80001f0e <main_6+0x1e>
    80001f20:	fd5ff0ef          	jal	80001ef4 <main_6+0x4>
    80001f24:	a011                	j	80001f28 <main_6+0x38>
    80001f26:	bfe5                	j	80001f1e <main_6+0x2e>
    80001f28:	b7f5                	j	80001f14 <main_6+0x24>
    80001f2a:	ffdff0ef          	jal	80001f26 <main_6+0x36>
    80001f2e:	fdfff0ef          	jal	80001f0c <main_6+0x1c>
    80001f32:	00c000ef          	jal	80001f3e <main_6+0x4e>
    80001f36:	a011                	j	80001f3a <main_6+0x4a>
    80001f38:	b7d1                	j	80001efc <main_6+0xc>
    80001f3a:	fe3ff0ef          	jal	80001f1c <main_6+0x2c>
    80001f3e:	b7dd                	j	80001f24 <main_6+0x34>
    80001f40:	01ff553b          	srlw	a0,t5,t6

0000000080001f44 <main_13>:
    80001f44:	03a000ef          	jal	80001f7e <main_13+0x3a>
    80001f48:	a839                	j	80001f66 <main_13+0x22>
    80001f4a:	008000ef          	jal	80001f52 <main_13+0xe>
    80001f4e:	040000ef          	jal	80001f8e <main_13+0x4a>
    80001f52:	026000ef          	jal	80001f78 <main_13+0x34>
    80001f56:	034000ef          	jal	80001f8a <main_13+0x46>
    80001f5a:	bfc5                	j	80001f4a <main_13+0x6>
    80001f5c:	a009                	j	80001f5e <main_13+0x1a>
    80001f5e:	b7ed                	j	80001f48 <main_13+0x4>
    80001f60:	fefff0ef          	jal	80001f4e <main_13+0xa>
    80001f64:	bfdd                	j	80001f5a <main_13+0x16>
    80001f66:	bffd                	j	80001f64 <main_13+0x20>
    80001f68:	a009                	j	80001f6a <main_13+0x26>
    80001f6a:	012000ef          	jal	80001f7c <main_13+0x38>
    80001f6e:	ffbff0ef          	jal	80001f68 <main_13+0x24>
    80001f72:	b7ed                	j	80001f5c <main_13+0x18>
    80001f74:	014000ef          	jal	80001f88 <main_13+0x44>
    80001f78:	ff7ff0ef          	jal	80001f6e <main_13+0x2a>
    80001f7c:	a019                	j	80001f82 <main_13+0x3e>
    80001f7e:	fd9ff0ef          	jal	80001f56 <main_13+0x12>
    80001f82:	ff3ff0ef          	jal	80001f74 <main_13+0x30>
    80001f86:	bfe9                	j	80001f60 <main_13+0x1c>
    80001f88:	bffd                	j	80001f86 <main_13+0x42>
    80001f8a:	fe9ff0ef          	jal	80001f72 <main_13+0x2e>
    80001f8e:	8675                	srai	a2,a2,0x1d
    80001f90:	00010a97          	auipc	s5,0x10
    80001f94:	178a8a93          	addi	s5,s5,376 # 80012108 <region_0+0xc0>
    80001f98:	008ad803          	lhu	a6,8(s5)
    80001f9c:	010ae083          	lwu	ra,16(s5)
    80001fa0:	03b1fd33          	remu	s10,gp,s11
    80001fa4:	006ad803          	lhu	a6,6(s5)
    80001fa8:	ff7a8803          	lb	a6,-9(s5)
    80001fac:	3b7d                	addiw	s6,s6,-1 # ffffffff994dfe9f <_end+0xffffffff194ab517>
    80001fae:	000a9323          	sh	zero,6(s5)
    80001fb2:	ff8a8803          	lb	a6,-8(s5)
    80001fb6:	8a19                	andi	a2,a2,6
    80001fb8:	ff4a8803          	lb	a6,-12(s5)
    80001fbc:	f36d3393          	sltiu	t2,s10,-202
    80001fc0:	9166                	add	sp,sp,s9
    80001fc2:	40168cb3          	sub	s9,a3,ra
    80001fc6:	0df5                	addi	s11,s11,29
    80001fc8:	00d5863b          	addw	a2,a1,a3
    80001fcc:	01ba83a3          	sb	s11,7(s5)
    80001fd0:	4e85                	li	t4,1
    80001fd2:	006ac283          	lbu	t0,6(s5)
    80001fd6:	01a4d293          	srli	t0,s1,0x1a
    80001fda:	00d5863b          	addw	a2,a1,a3
    80001fde:	41950a3b          	subw	s4,a0,s9
    80001fe2:	00eac283          	lbu	t0,14(s5)
    80001fe6:	3074b9b7          	lui	s3,0x3074b
    80001fea:	0001                	nop
    80001fec:	01ba81a3          	sb	s11,3(s5)
    80001ff0:	e15cee13          	ori	t3,s9,-491
    80001ff4:	8a19                	andi	a2,a2,6
    80001ff6:	008ad803          	lhu	a6,8(s5)
    80001ffa:	00494c33          	xor	s8,s2,tp
    80001ffe:	00d5863b          	addw	a2,a1,a3
    80002002:	4e85                	li	t4,1
    80002004:	1a88                	addi	a0,sp,368
    80002006:	8f59                	or	a4,a4,a4
    80002008:	40d0df33          	sra	t5,ra,a3
    8000200c:	02d440bb          	divw	ra,s0,a3
    80002010:	005ac283          	lbu	t0,5(s5)
    80002014:	000a9523          	sh	zero,10(s5)
    80002018:	00ba8803          	lb	a6,11(s5)
    8000201c:	01ba82a3          	sb	s11,5(s5)
    80002020:	ffdac283          	lbu	t0,-3(s5)
    80002024:	6fd9                	lui	t6,0x16
    80002026:	0310a033          	mulhsu	zero,ra,a7
    8000202a:	03b1fd33          	remu	s10,gp,s11
    8000202e:	007780b3          	add	ra,a5,t2
    80002032:	01ff553b          	srlw	a0,t5,t6
    80002036:	ff5ac283          	lbu	t0,-11(s5)
    8000203a:	0001a117          	auipc	sp,0x1a
    8000203e:	22e10113          	addi	sp,sp,558 # 8001c268 <region_1+0x9220>
    80002042:	db3e4a13          	xori	s4,t3,-589
    80002046:	9e11                	subw	a2,a2,a2
    80002048:	01ff55bb          	srlw	a1,t5,t6
    8000204c:	25412803          	lw	a6,596(sp)
    80002050:	48812803          	lw	a6,1160(sp)
    80002054:	b0c9fb13          	andi	s6,s3,-1268
    80002058:	8a19                	andi	a2,a2,6
    8000205a:	6aa10903          	lb	s2,1706(sp)
    8000205e:	79314303          	lbu	t1,1939(sp)
    80002062:	d4f78d1b          	addiw	s10,a5,-689
    80002066:	52a11c83          	lh	s9,1322(sp)
    8000206a:	413cd53b          	sraw	a0,s9,s3
    8000206e:	10011f23          	sh	zero,286(sp)
    80002072:	e8c10903          	lb	s2,-372(sp)
    80002076:	8f05                	sub	a4,a4,s1
    80002078:	49f10903          	lb	s2,1183(sp)
    8000207c:	9b013a03          	ld	s4,-1616(sp)
    80002080:	d5710903          	lb	s2,-681(sp)
    80002084:	7df10903          	lb	s2,2015(sp)
    80002088:	9d3d                	addw	a0,a0,a5
    8000208a:	20011d23          	sh	zero,538(sp)
    8000208e:	09110903          	lb	s2,145(sp)
    80002092:	02399e33          	mulh	t3,s3,gp
    80002096:	29110903          	lb	s2,657(sp)
    8000209a:	67b10da3          	sb	s11,1659(sp)
    8000209e:	030d853b          	mulw	a0,s11,a6
    800020a2:	0df5                	addi	s11,s11,29
    800020a4:	14e10903          	lb	s2,334(sp)
    800020a8:	a1c90493          	addi	s1,s2,-1508
    800020ac:	91e6                	add	gp,gp,s9
    800020ae:	39b102a3          	sb	s11,901(sp)
    800020b2:	73b109a3          	sb	s11,1843(sp)
    800020b6:	6db10fa3          	sb	s11,1759(sp)
    800020ba:	00011317          	auipc	t1,0x11
    800020be:	d7f30313          	addi	t1,t1,-641 # 80012e39 <region_0+0xdf1>
    800020c2:	09530903          	lb	s2,149(t1)
    800020c6:	f1b30323          	sb	s11,-250(t1)
    800020ca:	f36d3493          	sltiu	s1,s10,-202
    800020ce:	03f88233          	mul	tp,a7,t6
    800020d2:	fbb30923          	sb	s11,-78(t1)
    800020d6:	fdb34283          	lbu	t0,-37(t1)
    800020da:	03e1f23b          	remuw	tp,gp,t5
    800020de:	05e34283          	lbu	t0,94(t1)
    800020e2:	00534283          	lbu	t0,5(t1)
    800020e6:	03f31c83          	lh	s9,63(t1)
    800020ea:	01234283          	lbu	t0,18(t1)
    800020ee:	fdb30423          	sb	s11,-56(t1)
    800020f2:	07830903          	lb	s2,120(t1)
    800020f6:	f3b302a3          	sb	s11,-219(t1)
    800020fa:	fb434283          	lbu	t0,-76(t1)
    800020fe:	ffb304a3          	sb	s11,-23(t1)
    80002102:	ffd35903          	lhu	s2,-3(t1)
    80002106:	05030903          	lb	s2,80(t1)
    8000210a:	0db30623          	sb	s11,204(t1)
    8000210e:	04331c83          	lh	s9,67(t1)
    80002112:	05230903          	lb	s2,82(t1)
    80002116:	02e99f13          	slli	t5,s3,0x2e
    8000211a:	0df5                	addi	s11,s11,29
    8000211c:	09b30223          	sb	s11,132(t1)
    80002120:	01f764b3          	or	s1,a4,t6
    80002124:	08034283          	lbu	t0,128(t1)
    80002128:	01ff55bb          	srlw	a1,t5,t6
    8000212c:	f00319a3          	sh	zero,-237(t1)
    80002130:	0fb30aa3          	sb	s11,245(t1)
    80002134:	f36d3493          	sltiu	s1,s10,-202
    80002138:	f5532ba3          	sw	s5,-169(t1)
    8000213c:	6fd9                	lui	t6,0x16
    8000213e:	ff634283          	lbu	t0,-10(t1)
    80002142:	09434283          	lbu	t0,148(t1)
    80002146:	01634283          	lbu	t0,22(t1)
    8000214a:	039b5733          	divu	a4,s6,s9
    8000214e:	0d5327a3          	sw	s5,207(t1)
    80002152:	ffb30f23          	sb	s11,-2(t1)
    80002156:	00014d17          	auipc	s10,0x14
    8000215a:	8f5d0d13          	addi	s10,s10,-1803 # 80015a4b <region_1+0x2a03>
    8000215e:	021d2703          	lw	a4,33(s10)
    80002162:	01dd6083          	lwu	ra,29(s10)
    80002166:	00119f9b          	slliw	t6,gp,0x1
    8000216a:	40d0df33          	sra	t5,ra,a3
    8000216e:	fe4d0803          	lb	a6,-28(s10)
    80002172:	01f763b3          	or	t2,a4,t6
    80002176:	ffbd0e23          	sb	s11,-4(s10)
    8000217a:	ffcd4283          	lbu	t0,-4(s10)
    8000217e:	02ad6a33          	rem	s4,s10,a0
    80002182:	0df5                	addi	s11,s11,29
    80002184:	00ed4283          	lbu	t0,14(s10)
    80002188:	8f05                	sub	a4,a4,s1
    8000218a:	030d84bb          	mulw	s1,s11,a6
    8000218e:	027d5803          	lhu	a6,39(s10)
    80002192:	8a19                	andi	a2,a2,6
    80002194:	01e11833          	sll	a6,sp,t5
    80002198:	02984033          	div	zero,a6,s1
    8000219c:	8f59                	or	a4,a4,a4
    8000219e:	ff2d0803          	lb	a6,-14(s10)
    800021a2:	fc6d0803          	lb	a6,-58(s10)
    800021a6:	01bd0623          	sb	s11,12(s10)
    800021aa:	8f05                	sub	a4,a4,s1
    800021ac:	01e11833          	sll	a6,sp,t5
    800021b0:	026d0803          	lb	a6,38(s10)
    800021b4:	d4f78c9b          	addiw	s9,a5,-689
    800021b8:	85f5                	srai	a1,a1,0x1d
    800021ba:	1a88                	addi	a0,sp,368
    800021bc:	00494bb3          	xor	s7,s2,tp
    800021c0:	fecd0803          	lb	a6,-20(s10)
    800021c4:	ffbd0a23          	sb	s11,-12(s10)
    800021c8:	03f88233          	mul	tp,a7,t6
    800021cc:	41b5d01b          	sraiw	zero,a1,0x1b
    800021d0:	008974b3          	and	s1,s2,s0
    800021d4:	febd4283          	lbu	t0,-21(s10)
    800021d8:	ff4d4283          	lbu	t0,-12(s10)
    800021dc:	029d5803          	lhu	a6,41(s10)
    800021e0:	fccd0803          	lb	a6,-52(s10)
    800021e4:	02984033          	div	zero,a6,s1
    800021e8:	fdbd0803          	lb	a6,-37(s10)
    800021ec:	017ea3b3          	slt	t2,t4,s7
    800021f0:	003b3db3          	sltu	s11,s6,gp
    800021f4:	0261653b          	remw	a0,sp,t1
    800021f8:	00d5863b          	addw	a2,a1,a3
    800021fc:	e15cee13          	ori	t3,s9,-491
    80002200:	03f88233          	mul	tp,a7,t6
    80002204:	028d0803          	lb	a6,40(s10)
    80002208:	02cd4283          	lbu	t0,44(s10)
    8000220c:	0001c117          	auipc	sp,0x1c
    80002210:	ae610113          	addi	sp,sp,-1306 # 8001dcf2 <region_1+0xacaa>
    80002214:	00c15903          	lhu	s2,12(sp)
    80002218:	9d3d                	addw	a0,a0,a5
    8000221a:	02ad6ab3          	rem	s5,s10,a0
    8000221e:	91e6                	add	gp,gp,s9
    80002220:	01f764b3          	or	s1,a4,t6
    80002224:	01b102a3          	sb	s11,5(sp)
    80002228:	8375                	srli	a4,a4,0x1d
    8000222a:	ffb10da3          	sb	s11,-5(sp)
    8000222e:	41b5d01b          	sraiw	zero,a1,0x1b
    80002232:	9e11                	subw	a2,a2,a2
    80002234:	003b3db3          	sltu	s11,s6,gp
    80002238:	00215903          	lhu	s2,2(sp)
    8000223c:	01a4d313          	srli	t1,s1,0x1a
    80002240:	0df5                	addi	s11,s11,29
    80002242:	03b1fd33          	remu	s10,gp,s11
    80002246:	0310a033          	mulhsu	zero,ra,a7
    8000224a:	ffb10fa3          	sb	s11,-1(sp)
    8000224e:	02e5b633          	mulhu	a2,a1,a4
    80002252:	8f05                	sub	a4,a4,s1
    80002254:	00815903          	lhu	s2,8(sp)
    80002258:	ff114303          	lbu	t1,-15(sp)
    8000225c:	40d0df33          	sra	t5,ra,a3
    80002260:	01b10823          	sb	s11,16(sp)
    80002264:	8a19                	andi	a2,a2,6
    80002266:	ffb10ba3          	sb	s11,-9(sp)
    8000226a:	55d0ac13          	slti	s8,ra,1373
    8000226e:	55d0ac13          	slti	s8,ra,1373
    80002272:	413cd53b          	sraw	a0,s9,s3
    80002276:	ffd10903          	lb	s2,-3(sp)
    8000227a:	03ae53bb          	divuw	t2,t3,s10
    8000227e:	b0c9fb13          	andi	s6,s3,-1268
    80002282:	ffd14303          	lbu	t1,-3(sp)
    80002286:	ffb10823          	sb	s11,-16(sp)
    8000228a:	ffd14303          	lbu	t1,-3(sp)
    8000228e:	02984033          	div	zero,a6,s1
    80002292:	db3e4a13          	xori	s4,t3,-589
    80002296:	02e5b633          	mulhu	a2,a1,a4
    8000229a:	ffd10903          	lb	s2,-3(sp)
    8000229e:	00010697          	auipc	a3,0x10
    800022a2:	25668693          	addi	a3,a3,598 # 800124f4 <region_0+0x4ac>
    800022a6:	2626d903          	lhu	s2,610(a3)
    800022aa:	05b685a3          	sb	s11,75(a3)
    800022ae:	7c069623          	sh	zero,1996(a3)
    800022b2:	02d440bb          	divw	ra,s0,a3
    800022b6:	77b682a3          	sb	s11,1893(a3)
    800022ba:	fcb6c283          	lbu	t0,-53(a3)
    800022be:	413cd4bb          	sraw	s1,s9,s3
    800022c2:	ed26d903          	lhu	s2,-302(a3)
    800022c6:	437ad213          	srai	tp,s5,0x37
    800022ca:	0806                	slli	a6,a6,0x1
    800022cc:	008974b3          	and	s1,s2,s0
    800022d0:	28e6d903          	lhu	s2,654(a3)
    800022d4:	4fb682a3          	sb	s11,1253(a3)
    800022d8:	56a6d903          	lhu	s2,1386(a3)
    800022dc:	dc86a803          	lw	a6,-568(a3)
    800022e0:	3fb683a3          	sb	s11,999(a3)
    800022e4:	4506d903          	lhu	s2,1104(a3)
    800022e8:	02e99f13          	slli	t5,s3,0x2e
    800022ec:	039b5733          	divu	a4,s6,s9
    800022f0:	03f88233          	mul	tp,a7,t6
    800022f4:	56069723          	sh	zero,1390(a3)
    800022f8:	c0d68903          	lb	s2,-1011(a3)
    800022fc:	54f68903          	lb	s2,1359(a3)
    80002300:	03ae533b          	divuw	t1,t3,s10
    80002304:	00251b3b          	sllw	s6,a0,sp
    80002308:	3a56c283          	lbu	t0,933(a3)
    8000230c:	01068903          	lb	s2,16(a3)
    80002310:	03b1fd33          	remu	s10,gp,s11
    80002314:	02d440bb          	divw	ra,s0,a3
    80002318:	030d84bb          	mulw	s1,s11,a6
    8000231c:	0026c283          	lbu	t0,2(a3)
    80002320:	7d86be23          	sd	s8,2012(a3)
    80002324:	0310a033          	mulhsu	zero,ra,a7
    80002328:	02e99f13          	slli	t5,s3,0x2e
    8000232c:	8175                	srli	a0,a0,0x1d
    8000232e:	7846a803          	lw	a6,1924(a3)
    80002332:	717d                	addi	sp,sp,-16
    80002334:	01e11933          	sll	s2,sp,t5
    80002338:	017ea3b3          	slt	t2,t4,s7
    8000233c:	46668903          	lb	s2,1126(a3)
    80002340:	e8069623          	sh	zero,-372(a3)
    80002344:	5db68903          	lb	s2,1499(a3)
    80002348:	ca26c283          	lbu	t0,-862(a3)
    8000234c:	437ad213          	srai	tp,s5,0x37
    80002350:	194deb97          	auipc	s7,0x194de
    80002354:	0d168903          	lb	s2,209(a3)
    80002358:	02d440bb          	divw	ra,s0,a3
    8000235c:	21b68fa3          	sb	s11,543(a3)
    80002360:	1056c283          	lbu	t0,261(a3)
    80002364:	0001b597          	auipc	a1,0x1b
    80002368:	84058593          	addi	a1,a1,-1984 # 8001cba4 <region_1+0x9b5c>
    8000236c:	0045c283          	lbu	t0,4(a1)
    80002370:	0df5                	addi	s11,s11,29
    80002372:	039b5733          	divu	a4,s6,s9
    80002376:	1a98                	addi	a4,sp,368
    80002378:	0095c283          	lbu	t0,9(a1)
    8000237c:	03b1fd33          	remu	s10,gp,s11
    80002380:	3b7d                	addiw	s6,s6,-1
    80002382:	3074ba37          	lui	s4,0x3074b
    80002386:	01ff553b          	srlw	a0,t5,t6
    8000238a:	db3e4a13          	xori	s4,t3,-589
    8000238e:	ffb58ba3          	sb	s11,-9(a1)
    80002392:	41b5d01b          	sraiw	zero,a1,0x1b
    80002396:	55d0ac13          	slti	s8,ra,1373
    8000239a:	ffb58903          	lb	s2,-5(a1)
    8000239e:	194deb97          	auipc	s7,0x194de
    800023a2:	ffb58ca3          	sb	s11,-7(a1)
    800023a6:	0001                	nop
    800023a8:	007780b3          	add	ra,a5,t2
    800023ac:	8d35                	xor	a0,a0,a3
    800023ae:	ff95c283          	lbu	t0,-7(a1)
    800023b2:	00259c83          	lh	s9,2(a1)
    800023b6:	41950abb          	subw	s5,a0,s9
    800023ba:	8a19                	andi	a2,a2,6
    800023bc:	0806                	slli	a6,a6,0x1
    800023be:	00251b3b          	sllw	s6,a0,sp
    800023c2:	40168cb3          	sub	s9,a3,ra
    800023c6:	0085a803          	lw	a6,8(a1)
    800023ca:	ff05a803          	lw	a6,-16(a1)
    800023ce:	0806                	slli	a6,a6,0x1
    800023d0:	00b58903          	lb	s2,11(a1)
    800023d4:	fe059923          	sh	zero,-14(a1)
    800023d8:	02399e33          	mulh	t3,s3,gp
    800023dc:	41b5d01b          	sraiw	zero,a1,0x1b
    800023e0:	ff758903          	lb	s2,-9(a1)
    800023e4:	ffb588a3          	sb	s11,-15(a1)
    800023e8:	0085c283          	lbu	t0,8(a1)
    800023ec:	01ff553b          	srlw	a0,t5,t6
    800023f0:	ff75c283          	lbu	t0,-9(a1)
    800023f4:	00059123          	sh	zero,2(a1)
    800023f8:	3b7d                	addiw	s6,s6,-1
    800023fa:	0045ba03          	ld	s4,4(a1)
    800023fe:	ff75c283          	lbu	t0,-9(a1)
    80002402:	ffc5e083          	lwu	ra,-4(a1)
    80002406:	00059523          	sh	zero,10(a1)
    8000240a:	039b5733          	divu	a4,s6,s9
    8000240e:	ffb589a3          	sb	s11,-13(a1)
    80002412:	0015c283          	lbu	t0,1(a1)
    80002416:	ffc5e083          	lwu	ra,-4(a1)
    8000241a:	01b582a3          	sb	s11,5(a1)
    8000241e:	00010117          	auipc	sp,0x10
    80002422:	15310113          	addi	sp,sp,339 # 80012571 <region_0+0x529>
    80002426:	15d15903          	lhu	s2,349(sp)
    8000242a:	9d3d                	addw	a0,a0,a5
    8000242c:	8eb5                	xor	a3,a3,a3
    8000242e:	02e5b633          	mulhu	a2,a1,a4
    80002432:	c5e14303          	lbu	t1,-930(sp)
    80002436:	41950abb          	subw	s5,a0,s9
    8000243a:	030d853b          	mulw	a0,s11,a6
    8000243e:	03f882b3          	mul	t0,a7,t6
    80002442:	55610903          	lb	s2,1366(sp)
    80002446:	6be14303          	lbu	t1,1726(sp)
    8000244a:	56210903          	lb	s2,1378(sp)
    8000244e:	2bb10523          	sb	s11,682(sp)
    80002452:	9ead                	addw	a3,a3,a1
    80002454:	55d0ac13          	slti	s8,ra,1373
    80002458:	db3e4a13          	xori	s4,t3,-589
    8000245c:	02e99f13          	slli	t5,s3,0x2e
    80002460:	d4f78d1b          	addiw	s10,a5,-689
    80002464:	b5515903          	lhu	s2,-1195(sp)
    80002468:	100114a3          	sh	zero,265(sp)
    8000246c:	40168cb3          	sub	s9,a3,ra
    80002470:	0df5                	addi	s11,s11,29
    80002472:	194deb97          	auipc	s7,0x194de
    80002476:	017ea4b3          	slt	s1,t4,s7
    8000247a:	4e85                	li	t4,1
    8000247c:	8ef1                	and	a3,a3,a2
    8000247e:	4fd10903          	lb	s2,1277(sp)
    80002482:	2eb10903          	lb	s2,747(sp)
    80002486:	c7b100a3          	sb	s11,-927(sp)
    8000248a:	02d440bb          	divw	ra,s0,a3
    8000248e:	8f05                	sub	a4,a4,s1
    80002490:	09610903          	lb	s2,150(sp)
    80002494:	d3c14303          	lbu	t1,-708(sp)
    80002498:	e15cee13          	ori	t3,s9,-491
    8000249c:	1fb100a3          	sb	s11,481(sp)
    800024a0:	01ff55bb          	srlw	a1,t5,t6
    800024a4:	4e85                	li	t4,1
    800024a6:	00251b3b          	sllw	s6,a0,sp
    800024aa:	cfd14303          	lbu	t1,-771(sp)
    800024ae:	017ea4b3          	slt	s1,t4,s7
    800024b2:	03e1f2bb          	remuw	t0,gp,t5
    800024b6:	01f764b3          	or	s1,a4,t6
    800024ba:	5e711c83          	lh	s9,1511(sp)
    800024be:	00011717          	auipc	a4,0x11
    800024c2:	8ac70713          	addi	a4,a4,-1876 # 80012d6a <region_0+0xd22>
    800024c6:	01f763b3          	or	t2,a4,t6
    800024ca:	0bb70a23          	sb	s11,180(a4)
    800024ce:	b0c9fb13          	andi	s6,s3,-1268
    800024d2:	0df5                	addi	s11,s11,29
    800024d4:	fd870903          	lb	s2,-40(a4)
    800024d8:	ff471c83          	lh	s9,-12(a4)
    800024dc:	f36d3393          	sltiu	t2,s10,-202
    800024e0:	8575                	srai	a0,a0,0x1d
    800024e2:	3b7d                	addiw	s6,s6,-1
    800024e4:	55d0ac13          	slti	s8,ra,1373
    800024e8:	02870903          	lb	s2,40(a4)
    800024ec:	008974b3          	and	s1,s2,s0
    800024f0:	55d0ac13          	slti	s8,ra,1373
    800024f4:	a1c90393          	addi	t2,s2,-1508
    800024f8:	02c74283          	lbu	t0,44(a4)
    800024fc:	0d374283          	lbu	t0,211(a4)
    80002500:	8e59                	or	a2,a2,a4
    80002502:	fdc71c83          	lh	s9,-36(a4)
    80002506:	f0071623          	sh	zero,-244(a4)
    8000250a:	0e374283          	lbu	t0,227(a4)
    8000250e:	02984033          	div	zero,a6,s1
    80002512:	003b3db3          	sltu	s11,s6,gp
    80002516:	00494c33          	xor	s8,s2,tp
    8000251a:	f9070903          	lb	s2,-112(a4)
    8000251e:	03e1f23b          	remuw	tp,gp,t5
    80002522:	4e85                	li	t4,1
    80002524:	0f570903          	lb	s2,245(a4)
    80002528:	0fc71c83          	lh	s9,252(a4)
    8000252c:	03ae533b          	divuw	t1,t3,s10
    80002530:	09970903          	lb	s2,153(a4)
    80002534:	09873b23          	sd	s8,150(a4)
    80002538:	6fd9                	lui	t6,0x16
    8000253a:	f9275903          	lhu	s2,-110(a4)
    8000253e:	08c74283          	lbu	t0,140(a4)
    80002542:	ffb70ea3          	sb	s11,-3(a4)
    80002546:	8d35                	xor	a0,a0,a3
    80002548:	08075903          	lhu	s2,128(a4)
    8000254c:	07974283          	lbu	t0,121(a4)
    80002550:	03b70e23          	sb	s11,60(a4)
    80002554:	0e670903          	lb	s2,230(a4)
    80002558:	03ae533b          	divuw	t1,t3,s10
    8000255c:	07370903          	lb	s2,115(a4)
    80002560:	8e05                	sub	a2,a2,s1
    80002562:	8d35                	xor	a0,a0,a3
    80002564:	8e05                	sub	a2,a2,s1
    80002566:	8e05                	sub	a2,a2,s1
    80002568:	08170903          	lb	s2,129(a4)
    8000256c:	0a374283          	lbu	t0,163(a4)
    80002570:	194deb97          	auipc	s7,0x194de
    80002574:	40168cb3          	sub	s9,a3,ra
    80002578:	03f88233          	mul	tp,a7,t6
    8000257c:	8d35                	xor	a0,a0,a3
    8000257e:	039b56b3          	divu	a3,s6,s9
    80002582:	007780b3          	add	ra,a5,t2
    80002586:	02370903          	lb	s2,35(a4)
    8000258a:	00020c17          	auipc	s8,0x20
    8000258e:	46dc0c13          	addi	s8,s8,1133 # 800229f7 <region_1+0xf9af>
    80002592:	001c4283          	lbu	t0,1(s8)
    80002596:	0310a033          	mulhsu	zero,ra,a7
    8000259a:	01bc0323          	sb	s11,6(s8)
    8000259e:	03f88233          	mul	tp,a7,t6
    800025a2:	001c4283          	lbu	t0,1(s8)
    800025a6:	00ec0803          	lb	a6,14(s8)
    800025aa:	ff9c3983          	ld	s3,-7(s8)
    800025ae:	00d5863b          	addw	a2,a1,a3
    800025b2:	03e1f23b          	remuw	tp,gp,t5
    800025b6:	ffbc1c83          	lh	s9,-5(s8)
    800025ba:	ff7c5803          	lhu	a6,-9(s8)
    800025be:	000c17a3          	sh	zero,15(s8)
    800025c2:	0706                	slli	a4,a4,0x1
    800025c4:	00ac4283          	lbu	t0,10(s8)
    800025c8:	fe0c1fa3          	sh	zero,-1(s8)
    800025cc:	0001                	nop
    800025ce:	ff1c3983          	ld	s3,-15(s8)
    800025d2:	ff7c1c83          	lh	s9,-9(s8)
    800025d6:	00665ab3          	srl	s5,a2,t1
    800025da:	41b5d01b          	sraiw	zero,a1,0x1b
    800025de:	ffbc0a23          	sb	s11,-12(s8)
    800025e2:	03e1f23b          	remuw	tp,gp,t5
    800025e6:	006c4283          	lbu	t0,6(s8)
    800025ea:	004c4283          	lbu	t0,4(s8)
    800025ee:	3afd                	addiw	s5,s5,-1
    800025f0:	0001                	nop
    800025f2:	0001                	nop
    800025f4:	00665ab3          	srl	s5,a2,t1
    800025f8:	00ec4283          	lbu	t0,14(s8)
    800025fc:	ff7c1c83          	lh	s9,-9(s8)
    80002600:	437ad213          	srai	tp,s5,0x37
    80002604:	ff6c0803          	lb	a6,-10(s8)
    80002608:	000c0803          	lb	a6,0(s8)
    8000260c:	a1c90393          	addi	t2,s2,-1508
    80002610:	ff6c4283          	lbu	t0,-10(s8)
    80002614:	007c0803          	lb	a6,7(s8)
    80002618:	00dc1c83          	lh	s9,13(s8)
    8000261c:	0261653b          	remw	a0,sp,t1
    80002620:	008c4283          	lbu	t0,8(s8)
    80002624:	00011a97          	auipc	s5,0x11
    80002628:	1bfa8a93          	addi	s5,s5,447 # 800137e3 <region_1+0x79b>
    8000262c:	3f5aa2a3          	sw	s5,997(s5)
    80002630:	7f3ad803          	lhu	a6,2035(s5)
    80002634:	6fd9                	lui	t6,0x16
    80002636:	00119f9b          	slliw	t6,gp,0x1
    8000263a:	315aaca3          	sw	s5,793(s5)
    8000263e:	8a19                	andi	a2,a2,6
    80002640:	0001                	nop
    80002642:	488ac283          	lbu	t0,1160(s5)
    80002646:	c51a9c83          	lh	s9,-943(s5)
    8000264a:	97ba8ba3          	sb	s11,-1673(s5)
    8000264e:	728a8803          	lb	a6,1832(s5)
    80002652:	b2fad803          	lhu	a6,-1233(s5)
    80002656:	cbba8da3          	sb	s11,-837(s5)
    8000265a:	f36d3393          	sltiu	t2,s10,-202
    8000265e:	5dba8123          	sb	s11,1474(s5)
    80002662:	41950a3b          	subw	s4,a0,s9
    80002666:	bb5aaca3          	sw	s5,-1095(s5)
    8000266a:	9e11                	subw	a2,a2,a2
    8000266c:	a37ac283          	lbu	t0,-1481(s5)
    80002670:	40bad803          	lhu	a6,1035(s5)
    80002674:	8eb5                	xor	a3,a3,a3
    80002676:	41ba8e23          	sb	s11,1052(s5)
    8000267a:	423ad803          	lhu	a6,1059(s5)
    8000267e:	6c4ac283          	lbu	t0,1732(s5)
    80002682:	02e5b5b3          	mulhu	a1,a1,a4
    80002686:	237ad803          	lhu	a6,567(s5)
    8000268a:	9d3d                	addw	a0,a0,a5
    8000268c:	e19a9c83          	lh	s9,-487(s5)
    80002690:	e67ac283          	lbu	t0,-409(s5)
    80002694:	008974b3          	and	s1,s2,s0
    80002698:	f7ba8aa3          	sb	s11,-139(s5)
    8000269c:	e5ca8803          	lb	a6,-420(s5)
    800026a0:	adba8c23          	sb	s11,-1320(s5)
    800026a4:	ffba8da3          	sb	s11,-5(s5)
    800026a8:	01f763b3          	or	t2,a4,t6
    800026ac:	8bba8023          	sb	s11,-1888(s5)
    800026b0:	2dba88a3          	sb	s11,721(s5)
    800026b4:	e15cee13          	ori	t3,s9,-491
    800026b8:	4e85                	li	t4,1
    800026ba:	d5aa8803          	lb	a6,-678(s5)
    800026be:	3074b9b7          	lui	s3,0x3074b
    800026c2:	db3e4993          	xori	s3,t3,-589
    800026c6:	c9cac283          	lbu	t0,-868(s5)
    800026ca:	007780b3          	add	ra,a5,t2
    800026ce:	226a8803          	lb	a6,550(s5)
    800026d2:	0001cc97          	auipc	s9,0x1c
    800026d6:	a91c8c93          	addi	s9,s9,-1391 # 8001e163 <region_1+0xb11b>
    800026da:	f83cc283          	lbu	t0,-125(s9)
    800026de:	024cc283          	lbu	t0,36(s9)
    800026e2:	9e11                	subw	a2,a2,a2
    800026e4:	fc0cc283          	lbu	t0,-64(s9)
    800026e8:	0b7c9c03          	lh	s8,183(s9)
    800026ec:	b0c9fa93          	andi	s5,s3,-1268
    800026f0:	85f5                	srai	a1,a1,0x1d
    800026f2:	09dc9c03          	lh	s8,157(s9)
    800026f6:	f53c9c03          	lh	s8,-173(s9)
    800026fa:	0dbc89a3          	sb	s11,211(s9)
    800026fe:	8ef1                	and	a3,a3,a2
    80002700:	03bc8803          	lb	a6,59(s9)
    80002704:	85f5                	srai	a1,a1,0x1d
    80002706:	8a19                	andi	a2,a2,6
    80002708:	01f763b3          	or	t2,a4,t6
    8000270c:	018cc283          	lbu	t0,24(s9)
    80002710:	0001                	nop
    80002712:	0001                	nop
    80002714:	02e5b5b3          	mulhu	a1,a1,a4
    80002718:	db3e4993          	xori	s3,t3,-589
    8000271c:	064cc283          	lbu	t0,100(s9)
    80002720:	a1c90393          	addi	t2,s2,-1508
    80002724:	717d                	addi	sp,sp,-16
    80002726:	029ca703          	lw	a4,41(s9)
    8000272a:	03b1fd33          	remu	s10,gp,s11
    8000272e:	41b5d01b          	sraiw	zero,a1,0x1b
    80002732:	03f88233          	mul	tp,a7,t6
    80002736:	db3e4993          	xori	s3,t3,-589
    8000273a:	01a4d293          	srli	t0,s1,0x1a
    8000273e:	3074b9b7          	lui	s3,0x3074b
    80002742:	f36d3393          	sltiu	t2,s10,-202
    80002746:	0df5                	addi	s11,s11,29
    80002748:	8f05                	sub	a4,a4,s1
    8000274a:	00665ab3          	srl	s5,a2,t1
    8000274e:	194deb17          	auipc	s6,0x194de
    80002752:	f10cc283          	lbu	t0,-240(s9)
    80002756:	0bbc8423          	sb	s11,168(s9)
    8000275a:	00020717          	auipc	a4,0x20
    8000275e:	f6e70713          	addi	a4,a4,-146 # 800226c8 <region_1+0xf680>
    80002762:	003b3db3          	sltu	s11,s6,gp
    80002766:	3b7d                	addiw	s6,s6,-1 # ffffffff994e074d <_end+0xffffffff194abdc5>
    80002768:	02ad6ab3          	rem	s5,s10,a0
    8000276c:	01dc549b          	srliw	s1,s8,0x1d
    80002770:	0df5                	addi	s11,s11,29
    80002772:	27b704a3          	sb	s11,617(a4)
    80002776:	0001                	nop
    80002778:	c5470903          	lb	s2,-940(a4)
    8000277c:	00251b3b          	sllw	s6,a0,sp
    80002780:	35374283          	lbu	t0,851(a4)
    80002784:	41950abb          	subw	s5,a0,s9
    80002788:	db3e4a13          	xori	s4,t3,-589
    8000278c:	b3b70623          	sb	s11,-1236(a4)
    80002790:	c6275903          	lhu	s2,-926(a4)
    80002794:	017ea3b3          	slt	t2,t4,s7
    80002798:	02984033          	div	zero,a6,s1
    8000279c:	00494c33          	xor	s8,s2,tp
    800027a0:	b3c72803          	lw	a6,-1220(a4)
    800027a4:	41b5d01b          	sraiw	zero,a1,0x1b
    800027a8:	02d440bb          	divw	ra,s0,a3
    800027ac:	02e5b5b3          	mulhu	a1,a1,a4
    800027b0:	03b1fd33          	remu	s10,gp,s11
    800027b4:	e3b705a3          	sb	s11,-469(a4)
    800027b8:	0806                	slli	a6,a6,0x1
    800027ba:	039b56b3          	divu	a3,s6,s9
    800027be:	07b70e23          	sb	s11,124(a4)
    800027c2:	02d440bb          	divw	ra,s0,a3
    800027c6:	4e85                	li	t4,1
    800027c8:	01dc549b          	srliw	s1,s8,0x1d
    800027cc:	ad174283          	lbu	t0,-1327(a4)
    800027d0:	c4c75903          	lhu	s2,-948(a4)
    800027d4:	a4076083          	lwu	ra,-1472(a4)
    800027d8:	4591                	li	a1,4
    800027da:	8e85                	sub	a3,a3,s1
    800027dc:	8e85                	sub	a3,a3,s1
    800027de:	89aa                	mv	s3,a0
    800027e0:	3074ba37          	lui	s4,0x3074b
    800027e4:	4aa9                	li	s5,10
    800027e6:	003b3e33          	sltu	t3,s6,gp

00000000800027ea <main_266_0_t>:
    800027ea:	8a19                	andi	a2,a2,6
    800027ec:	058d                	addi	a1,a1,3
    800027ee:	9166                	add	sp,sp,s9
    800027f0:	ff558de3          	beq	a1,s5,800027ea <main_266_0_t>
    800027f4:	3bfd                	addiw	s7,s7,-1 # ffffffff994e056f <_end+0xffffffff194abbe7>

00000000800027f6 <main_1>:
    800027f6:	012000ef          	jal	80002808 <main_1+0x12>
    800027fa:	a819                	j	80002810 <main_1+0x1a>
    800027fc:	01a000ef          	jal	80002816 <main_1+0x20>
    80002800:	a031                	j	8000280c <main_1+0x16>
    80002802:	a009                	j	80002804 <main_1+0xe>
    80002804:	a039                	j	80002812 <main_1+0x1c>
    80002806:	bff5                	j	80002802 <main_1+0xc>
    80002808:	fffff0ef          	jal	80002806 <main_1+0x10>
    8000280c:	fefff0ef          	jal	800027fa <main_1+0x4>
    80002810:	b7f5                	j	800027fc <main_1+0x6>
    80002812:	fefff0ef          	jal	80002800 <main_1+0xa>
    80002816:	3074b9b7          	lui	s3,0x3074b
    8000281a:	00017e97          	auipc	t4,0x17
    8000281e:	3b2e8e93          	addi	t4,t4,946 # 80019bcc <region_1+0x6b84>
    80002822:	01be85a3          	sb	s11,11(t4)
    80002826:	a1c90393          	addi	t2,s2,-1508
    8000282a:	00119f9b          	slliw	t6,gp,0x1
    8000282e:	00494bb3          	xor	s7,s2,tp
    80002832:	ffbe8923          	sb	s11,-14(t4)
    80002836:	006e9c03          	lh	s8,6(t4)
    8000283a:	ffbe8fa3          	sb	s11,-1(t4)
    8000283e:	8ef1                	and	a3,a3,a2
    80002840:	ff2ec283          	lbu	t0,-14(t4)
    80002844:	00ae8803          	lb	a6,10(t4)
    80002848:	ffeec283          	lbu	t0,-2(t4)
    8000284c:	ff1e8803          	lb	a6,-15(t4)
    80002850:	9e11                	subw	a2,a2,a2
    80002852:	85f5                	srai	a1,a1,0x1d
    80002854:	8375                	srli	a4,a4,0x1d
    80002856:	017ea3b3          	slt	t2,t4,s7
    8000285a:	0001                	nop
    8000285c:	8ef1                	and	a3,a3,a2
    8000285e:	00665ab3          	srl	s5,a2,t1
    80002862:	ffce8803          	lb	a6,-4(t4)
    80002866:	00fe8803          	lb	a6,15(t4)
    8000286a:	03f88233          	mul	tp,a7,t6
    8000286e:	ff5ec283          	lbu	t0,-11(t4)
    80002872:	007780b3          	add	ra,a5,t2
    80002876:	ffae8803          	lb	a6,-6(t4)
    8000287a:	02d440bb          	divw	ra,s0,a3
    8000287e:	02ad6a33          	rem	s4,s10,a0
    80002882:	01be8123          	sb	s11,2(t4)
    80002886:	001e8803          	lb	a6,1(t4)
    8000288a:	b0c9fa93          	andi	s5,s3,-1268
    8000288e:	fe0e9d23          	sh	zero,-6(t4)
    80002892:	01be86a3          	sb	s11,13(t4)
    80002896:	d4f78c9b          	addiw	s9,a5,-689
    8000289a:	41b5d01b          	sraiw	zero,a1,0x1b
    8000289e:	01be82a3          	sb	s11,5(t4)
    800028a2:	40d0df33          	sra	t5,ra,a3
    800028a6:	00494bb3          	xor	s7,s2,tp
    800028aa:	00bec283          	lbu	t0,11(t4)
    800028ae:	01be87a3          	sb	s11,15(t4)
    800028b2:	ffeec283          	lbu	t0,-2(t4)
    800028b6:	008974b3          	and	s1,s2,s0
    800028ba:	8f59                	or	a4,a4,a4
    800028bc:	01e11833          	sll	a6,sp,t5
    800028c0:	ff2e9c03          	lh	s8,-14(t4)
    800028c4:	008974b3          	and	s1,s2,s0
    800028c8:	00cea703          	lw	a4,12(t4)
    800028cc:	ff8ec283          	lbu	t0,-8(t4)
    800028d0:	005e8803          	lb	a6,5(t4)
    800028d4:	01f763b3          	or	t2,a4,t6
    800028d8:	02399db3          	mulh	s11,s3,gp
    800028dc:	ff7ec283          	lbu	t0,-9(t4)
    800028e0:	b0c9fa93          	andi	s5,s3,-1268
    800028e4:	437ad213          	srai	tp,s5,0x37
    800028e8:	01e11833          	sll	a6,sp,t5
    800028ec:	4e05                	li	t3,1
    800028ee:	ffbe89a3          	sb	s11,-13(t4)
    800028f2:	01be85a3          	sb	s11,11(t4)
    800028f6:	00013f97          	auipc	t6,0x13
    800028fa:	495f8f93          	addi	t6,t6,1173 # 80015d8b <region_1+0x2d43>
    800028fe:	fbdfe083          	lwu	ra,-67(t6)
    80002902:	02ad6a33          	rem	s4,s10,a0
    80002906:	00665ab3          	srl	s5,a2,t1
    8000290a:	b0c9fa93          	andi	s5,s3,-1268
    8000290e:	fdef8803          	lb	a6,-34(t6)
    80002912:	3afd                	addiw	s5,s5,-1
    80002914:	e15ced93          	ori	s11,s9,-491
    80002918:	01dc549b          	srliw	s1,s8,0x1d
    8000291c:	003b3d33          	sltu	s10,s6,gp
    80002920:	8f05                	sub	a4,a4,s1
    80002922:	e15ced93          	ori	s11,s9,-491
    80002926:	01f763b3          	or	t2,a4,t6
    8000292a:	9d3d                	addw	a0,a0,a5
    8000292c:	0001                	nop
    8000292e:	03ef8803          	lb	a6,62(t6)
    80002932:	85f5                	srai	a1,a1,0x1d
    80002934:	00251abb          	sllw	s5,a0,sp
    80002938:	fcbf9c03          	lh	s8,-53(t6)
    8000293c:	717d                	addi	sp,sp,-16
    8000293e:	db3e4993          	xori	s3,t3,-589
    80002942:	03bf8023          	sb	s11,32(t6)
    80002946:	fd5f8803          	lb	a6,-43(t6)
    8000294a:	9e11                	subw	a2,a2,a2
    8000294c:	0d75                	addi	s10,s10,29
    8000294e:	0001                	nop
    80002950:	0abf9c03          	lh	s8,171(t6)
    80002954:	02cf8803          	lb	a6,44(t6)
    80002958:	041f8803          	lb	a6,65(t6)
    8000295c:	007780b3          	add	ra,a5,t2
    80002960:	039b56b3          	divu	a3,s6,s9
    80002964:	f5ef8803          	lb	a6,-162(t6)
    80002968:	3074b9b7          	lui	s3,0x3074b
    8000296c:	00d5863b          	addw	a2,a1,a3
    80002970:	f75fa0a3          	sw	s5,-159(t6)
    80002974:	8f05                	sub	a4,a4,s1
    80002976:	f8efc283          	lbu	t0,-114(t6)
    8000297a:	9166                	add	sp,sp,s9
    8000297c:	02e99e93          	slli	t4,s3,0x2e
    80002980:	f7bfd803          	lhu	a6,-133(t6)
    80002984:	059fd803          	lhu	a6,89(t6)
    80002988:	fd0fc283          	lbu	t0,-48(t6)
    8000298c:	f96fc283          	lbu	t0,-106(t6)
    80002990:	fe3f9c03          	lh	s8,-29(t6)
    80002994:	0fcfc283          	lbu	t0,252(t6)
    80002998:	00665ab3          	srl	s5,a2,t1
    8000299c:	03cf8803          	lb	a6,60(t6)
    800029a0:	00010e17          	auipc	t3,0x10
    800029a4:	b64e0e13          	addi	t3,t3,-1180 # 80012504 <region_0+0x4bc>
    800029a8:	0706                	slli	a4,a4,0x1
    800029aa:	40d0df33          	sra	t5,ra,a3
    800029ae:	008e4283          	lbu	t0,8(t3)
    800029b2:	02399db3          	mulh	s11,s3,gp
    800029b6:	01be0323          	sb	s11,6(t3)
    800029ba:	40168c33          	sub	s8,a3,ra
    800029be:	ff3e4283          	lbu	t0,-13(t3)
    800029c2:	004e4283          	lbu	t0,4(t3)
    800029c6:	6fd9                	lui	t6,0x16
    800029c8:	00d5863b          	addw	a2,a1,a3
    800029cc:	01e11833          	sll	a6,sp,t5
    800029d0:	01be06a3          	sb	s11,13(t3)
    800029d4:	ff1e0803          	lb	a6,-15(t3)
    800029d8:	1a88                	addi	a0,sp,368
    800029da:	ffbe0ea3          	sb	s11,-3(t3)
    800029de:	d4f78c9b          	addiw	s9,a5,-689
    800029e2:	01ff553b          	srlw	a0,t5,t6
    800029e6:	ffbe0ca3          	sb	s11,-7(t3)
    800029ea:	03ae533b          	divuw	t1,t3,s10
    800029ee:	40d0df33          	sra	t5,ra,a3
    800029f2:	02399db3          	mulh	s11,s3,gp
    800029f6:	000e1423          	sh	zero,8(t3)
    800029fa:	ffbe0da3          	sb	s11,-5(t3)
    800029fe:	ffbe0923          	sb	s11,-14(t3)
    80002a02:	1a88                	addi	a0,sp,368
    80002a04:	ff1e0803          	lb	a6,-15(t3)
    80002a08:	ffbe0923          	sb	s11,-14(t3)
    80002a0c:	03b1fcb3          	remu	s9,gp,s11
    80002a10:	ffde4283          	lbu	t0,-3(t3)
    80002a14:	0310a033          	mulhsu	zero,ra,a7
    80002a18:	03e1f23b          	remuw	tp,gp,t5
    80002a1c:	ffbe0aa3          	sb	s11,-11(t3)
    80002a20:	ffce0803          	lb	a6,-4(t3)
    80002a24:	9d3d                	addw	a0,a0,a5
    80002a26:	02984033          	div	zero,a6,s1
    80002a2a:	007e4283          	lbu	t0,7(t3)
    80002a2e:	b0c9fa93          	andi	s5,s3,-1268
    80002a32:	194deb17          	auipc	s6,0x194de
    80002a36:	03b1fcb3          	remu	s9,gp,s11
    80002a3a:	9d3d                	addw	a0,a0,a5
    80002a3c:	007e4283          	lbu	t0,7(t3)
    80002a40:	41950a3b          	subw	s4,a0,s9
    80002a44:	00d5863b          	addw	a2,a1,a3
    80002a48:	892a                	mv	s2,a0
    80002a4a:	02ad6a33          	rem	s4,s10,a0
    80002a4e:	ffbe0aa3          	sb	s11,-11(t3)
    80002a52:	00010e17          	auipc	t3,0x10
    80002a56:	e3fe0e13          	addi	t3,t3,-449 # 80012891 <region_0+0x849>
    80002a5a:	f7be0b23          	sb	s11,-138(t3)
    80002a5e:	194deb17          	auipc	s6,0x194de
    80002a62:	f58e4283          	lbu	t0,-168(t3)
    80002a66:	00119f9b          	slliw	t6,gp,0x1
    80002a6a:	f40e19a3          	sh	zero,-173(t3)
    80002a6e:	09be04a3          	sb	s11,137(t3)
    80002a72:	f41e0803          	lb	a6,-191(t3)
    80002a76:	05be0e23          	sb	s11,92(t3)
    80002a7a:	003b3d33          	sltu	s10,s6,gp
    80002a7e:	41950a3b          	subw	s4,a0,s9
    80002a82:	4e85                	li	t4,1
    80002a84:	55d0ab93          	slti	s7,ra,1373
    80002a88:	09be4283          	lbu	t0,155(t3)
    80002a8c:	039b56b3          	divu	a3,s6,s9
    80002a90:	011e4283          	lbu	t0,17(t3)
    80002a94:	f22e4283          	lbu	t0,-222(t3)
    80002a98:	0261653b          	remw	a0,sp,t1
    80002a9c:	01e11833          	sll	a6,sp,t5
    80002aa0:	0d75                	addi	s10,s10,29
    80002aa2:	000e18a3          	sh	zero,17(t3)
    80002aa6:	05ce4283          	lbu	t0,92(t3)
    80002aaa:	85f5                	srai	a1,a1,0x1d
    80002aac:	d4f78c9b          	addiw	s9,a5,-689
    80002ab0:	078e0803          	lb	a6,120(t3)
    80002ab4:	f2de4283          	lbu	t0,-211(t3)
    80002ab8:	02e5b5b3          	mulhu	a1,a1,a4
    80002abc:	02984033          	div	zero,a6,s1
    80002ac0:	0310a033          	mulhsu	zero,ra,a7
    80002ac4:	717d                	addi	sp,sp,-16
    80002ac6:	892a                	mv	s2,a0
    80002ac8:	03ae533b          	divuw	t1,t3,s10
    80002acc:	00119f9b          	slliw	t6,gp,0x1
    80002ad0:	d4f78c9b          	addiw	s9,a5,-689
    80002ad4:	01ff553b          	srlw	a0,t5,t6
    80002ad8:	065e0803          	lb	a6,101(t3)
    80002adc:	555d                	li	a0,-9
    80002ade:	8e85                	sub	a3,a3,s1
    80002ae0:	0001                	nop
    80002ae2:	a1c90493          	addi	s1,s2,-1508
    80002ae6:	02e5b6b3          	mulhu	a3,a1,a4

0000000080002aea <main_242_0_t>:
    80002aea:	db3e4a93          	xori	s5,t3,-589
    80002aee:	03e1f2bb          	remuw	t0,gp,t5
    80002af2:	0310a0b3          	mulhsu	ra,ra,a7
    80002af6:	029840b3          	div	ra,a6,s1
    80002afa:	02e5b6b3          	mulhu	a3,a1,a4
    80002afe:	00778133          	add	sp,a5,t2
    80002b02:	050d                	addi	a0,a0,3
    80002b04:	0806                	slli	a6,a6,0x1
    80002b06:	9e11                	subw	a2,a2,a2
    80002b08:	89aa                	mv	s3,a0
    80002b0a:	41b5d09b          	sraiw	ra,a1,0x1b
    80002b0e:	6fd9                	lui	t6,0x16
    80002b10:	f36d3493          	sltiu	s1,s10,-202
    80002b14:	437ad293          	srai	t0,s5,0x37
    80002b18:	d969                	beqz	a0,80002aea <main_242_0_t>
    80002b1a:	030d85bb          	mulw	a1,s11,a6
    80002b1e:	00010c97          	auipc	s9,0x10
    80002b22:	d00c8c93          	addi	s9,s9,-768 # 8001281e <region_0+0x7d6>
    80002b26:	ff8c8803          	lb	a6,-8(s9)
    80002b2a:	ff9c8803          	lb	a6,-7(s9)
    80002b2e:	ff8cd803          	lhu	a6,-8(s9)
    80002b32:	003cc283          	lbu	t0,3(s9)
    80002b36:	007780b3          	add	ra,a5,t2
    80002b3a:	9d3d                	addw	a0,a0,a5
    80002b3c:	ffecd803          	lhu	a6,-2(s9)
    80002b40:	001cc283          	lbu	t0,1(s9)
    80002b44:	01bc8423          	sb	s11,8(s9)
    80002b48:	ff1c8803          	lb	a6,-15(s9)
    80002b4c:	3afd                	addiw	s5,s5,-1
    80002b4e:	007c8803          	lb	a6,7(s9)
    80002b52:	01bc8823          	sb	s11,16(s9)
    80002b56:	ff0c9c03          	lh	s8,-16(s9)
    80002b5a:	194deb17          	auipc	s6,0x194de
    80002b5e:	000c8803          	lb	a6,0(s9)
    80002b62:	ff9cc283          	lbu	t0,-7(s9)
    80002b66:	55d0ab93          	slti	s7,ra,1373
    80002b6a:	8f05                	sub	a4,a4,s1
    80002b6c:	002c9c03          	lh	s8,2(s9)
    80002b70:	55d0ab93          	slti	s7,ra,1373
    80002b74:	ffbc8aa3          	sb	s11,-11(s9)
    80002b78:	ff6c9c03          	lh	s8,-10(s9)
    80002b7c:	007cc283          	lbu	t0,7(s9)
    80002b80:	8eb5                	xor	a3,a3,a3
    80002b82:	006cd803          	lhu	a6,6(s9)
    80002b86:	01f763b3          	or	t2,a4,t6
    80002b8a:	01bc83a3          	sb	s11,7(s9)
    80002b8e:	8eb5                	xor	a3,a3,a3
    80002b90:	005c8803          	lb	a6,5(s9)
    80002b94:	01bc8423          	sb	s11,8(s9)
    80002b98:	007cc283          	lbu	t0,7(s9)
    80002b9c:	ffcc8803          	lb	a6,-4(s9)
    80002ba0:	0001c817          	auipc	a6,0x1c
    80002ba4:	78480813          	addi	a6,a6,1924 # 8001f324 <region_1+0xc2dc>
    80002ba8:	08384283          	lbu	t0,131(a6)
    80002bac:	00665b33          	srl	s6,a2,t1
    80002bb0:	fbb84283          	lbu	t0,-69(a6)
    80002bb4:	8ef1                	and	a3,a3,a2
    80002bb6:	f6482703          	lw	a4,-156(a6)
    80002bba:	003b3db3          	sltu	s11,s6,gp
    80002bbe:	41950abb          	subw	s5,a0,s9
    80002bc2:	e15cee13          	ori	t3,s9,-491
    80002bc6:	f9b80903          	lb	s2,-101(a6)
    80002bca:	01481c83          	lh	s9,20(a6)
    80002bce:	003b3db3          	sltu	s11,s6,gp
    80002bd2:	1a88                	addi	a0,sp,368
    80002bd4:	0a384283          	lbu	t0,163(a6)
    80002bd8:	f1c84283          	lbu	t0,-228(a6)
    80002bdc:	fbb80823          	sb	s11,-80(a6)
    80002be0:	e15cee13          	ori	t3,s9,-491
    80002be4:	039b56b3          	divu	a3,s6,s9
    80002be8:	8f05                	sub	a4,a4,s1
    80002bea:	00251b3b          	sllw	s6,a0,sp
    80002bee:	f1984283          	lbu	t0,-231(a6)
    80002bf2:	02081823          	sh	zero,48(a6)
    80002bf6:	02b84283          	lbu	t0,43(a6)
    80002bfa:	00015e17          	auipc	t3,0x15
    80002bfe:	34ce0e13          	addi	t3,t3,844 # 80017f46 <region_1+0x4efe>
    80002c02:	ff9e4283          	lbu	t0,-7(t3)
    80002c06:	000e5803          	lhu	a6,0(t3)
    80002c0a:	ff6e0803          	lb	a6,-10(t3)
    80002c0e:	00ee2703          	lw	a4,14(t3)
    80002c12:	002e2703          	lw	a4,2(t3)
    80002c16:	ff1e0803          	lb	a6,-15(t3)
    80002c1a:	0001                	nop
    80002c1c:	85f5                	srai	a1,a1,0x1d
    80002c1e:	007e0803          	lb	a6,7(t3)
    80002c22:	0001                	nop
    80002c24:	00be4283          	lbu	t0,11(t3)
    80002c28:	8eb5                	xor	a3,a3,a3
    80002c2a:	0706                	slli	a4,a4,0x1
    80002c2c:	ff6e0803          	lb	a6,-10(t3)
    80002c30:	0001                	nop
    80002c32:	01dc549b          	srliw	s1,s8,0x1d
    80002c36:	40d0df33          	sra	t5,ra,a3
    80002c3a:	8f05                	sub	a4,a4,s1
    80002c3c:	0310a033          	mulhsu	zero,ra,a7
    80002c40:	030d84bb          	mulw	s1,s11,a6
    80002c44:	ff6e5803          	lhu	a6,-10(t3)
    80002c48:	ff5e0803          	lb	a6,-11(t3)
    80002c4c:	fe0e1823          	sh	zero,-16(t3)
    80002c50:	194deb17          	auipc	s6,0x194de
    80002c54:	001e0803          	lb	a6,1(t3)
    80002c58:	03e1f23b          	remuw	tp,gp,t5
    80002c5c:	000e1523          	sh	zero,10(t3)
    80002c60:	8a19                	andi	a2,a2,6
    80002c62:	005e4283          	lbu	t0,5(t3)
    80002c66:	01ff553b          	srlw	a0,t5,t6
    80002c6a:	ffce1c03          	lh	s8,-4(t3)
    80002c6e:	e15ced93          	ori	s11,s9,-491
    80002c72:	00251abb          	sllw	s5,a0,sp
    80002c76:	005e4283          	lbu	t0,5(t3)
    80002c7a:	0d75                	addi	s10,s10,29
    80002c7c:	00fe0803          	lb	a6,15(t3)
    80002c80:	ffde0803          	lb	a6,-3(t3)
    80002c84:	01be0523          	sb	s11,10(t3)

0000000080002c88 <main_24>:
    80002c88:	02c000ef          	jal	80002cb4 <main_24+0x2c>
    80002c8c:	01a000ef          	jal	80002ca6 <main_24+0x1e>
    80002c90:	a831                	j	80002cac <main_24+0x24>
    80002c92:	026000ef          	jal	80002cb8 <main_24+0x30>
    80002c96:	00e000ef          	jal	80002ca4 <main_24+0x1c>
    80002c9a:	006000ef          	jal	80002ca0 <main_24+0x18>
    80002c9e:	a031                	j	80002caa <main_24+0x22>
    80002ca0:	00e000ef          	jal	80002cae <main_24+0x26>
    80002ca4:	a821                	j	80002cbc <main_24+0x34>
    80002ca6:	fedff0ef          	jal	80002c92 <main_24+0xa>
    80002caa:	a019                	j	80002cb0 <main_24+0x28>
    80002cac:	b7ed                	j	80002c96 <main_24+0xe>
    80002cae:	bfc5                	j	80002c9e <main_24+0x16>
    80002cb0:	fe1ff0ef          	jal	80002c90 <main_24+0x8>
    80002cb4:	fd9ff0ef          	jal	80002c8c <main_24+0x4>
    80002cb8:	fe3ff0ef          	jal	80002c9a <main_24+0x12>
    80002cbc:	3c7d                	addiw	s8,s8,-1
    80002cbe:	0001db97          	auipc	s7,0x1d
    80002cc2:	438b8b93          	addi	s7,s7,1080 # 800200f6 <region_1+0xd0ae>
    80002cc6:	0b3b8803          	lb	a6,179(s7)
    80002cca:	f3db8803          	lb	a6,-195(s7)
    80002cce:	08fb8803          	lb	a6,143(s7)
    80002cd2:	8a19                	andi	a2,a2,6
    80002cd4:	fffb8803          	lb	a6,-1(s7)
    80002cd8:	05bb8223          	sb	s11,68(s7)
    80002cdc:	0d1bc283          	lbu	t0,209(s7)
    80002ce0:	017ea3b3          	slt	t2,t4,s7
    80002ce4:	55d0ac13          	slti	s8,ra,1373
    80002ce8:	006bd803          	lhu	a6,6(s7)
    80002cec:	55d0ac13          	slti	s8,ra,1373
    80002cf0:	3074b9b7          	lui	s3,0x3074b
    80002cf4:	09bb8ca3          	sb	s11,153(s7)
    80002cf8:	3afd                	addiw	s5,s5,-1
    80002cfa:	0df5                	addi	s11,s11,29
    80002cfc:	db3e4993          	xori	s3,t3,-589
    80002d00:	02984033          	div	zero,a6,s1
    80002d04:	0261653b          	remw	a0,sp,t1
    80002d08:	8f05                	sub	a4,a4,s1
    80002d0a:	f36d3393          	sltiu	t2,s10,-202
    80002d0e:	0706                	slli	a4,a4,0x1
    80002d10:	4e85                	li	t4,1
    80002d12:	03bb84a3          	sb	s11,41(s7)
    80002d16:	03f88233          	mul	tp,a7,t6
    80002d1a:	00d5863b          	addw	a2,a1,a3
    80002d1e:	0bbb8c23          	sb	s11,184(s7)
    80002d22:	00010b17          	auipc	s6,0x10
    80002d26:	01eb0b13          	addi	s6,s6,30 # 80012d40 <region_0+0xcf8>
    80002d2a:	9166                	add	sp,sp,s9
    80002d2c:	000b1123          	sh	zero,2(s6)
    80002d30:	01bb0723          	sb	s11,14(s6)
    80002d34:	02ad6a33          	rem	s4,s10,a0
    80002d38:	ffbb4283          	lbu	t0,-5(s6)
    80002d3c:	03ae533b          	divuw	t1,t3,s10
    80002d40:	005b0803          	lb	a6,5(s6)
    80002d44:	03f88233          	mul	tp,a7,t6
    80002d48:	ff1b0803          	lb	a6,-15(s6)
    80002d4c:	fe0b1e23          	sh	zero,-4(s6)
    80002d50:	6fd9                	lui	t6,0x16
    80002d52:	ff9b4283          	lbu	t0,-7(s6)
    80002d56:	015b2223          	sw	s5,4(s6)
    80002d5a:	85f5                	srai	a1,a1,0x1d
    80002d5c:	00db4283          	lbu	t0,13(s6)
    80002d60:	015b2023          	sw	s5,0(s6)
    80002d64:	0df5                	addi	s11,s11,29
    80002d66:	ffcb4283          	lbu	t0,-4(s6)
    80002d6a:	f36d3393          	sltiu	t2,s10,-202
    80002d6e:	ff6b5803          	lhu	a6,-10(s6)
    80002d72:	01bb0623          	sb	s11,12(s6)
    80002d76:	ff8b2703          	lw	a4,-8(s6)
    80002d7a:	9e11                	subw	a2,a2,a2
    80002d7c:	015b2223          	sw	s5,4(s6)
    80002d80:	00cb5803          	lhu	a6,12(s6)
    80002d84:	00ab5803          	lhu	a6,10(s6)
    80002d88:	03f88233          	mul	tp,a7,t6
    80002d8c:	02e99f13          	slli	t5,s3,0x2e
    80002d90:	ffab4283          	lbu	t0,-6(s6)
    80002d94:	ff4b1c83          	lh	s9,-12(s6)
    80002d98:	01bb06a3          	sb	s11,13(s6)
    80002d9c:	015b2223          	sw	s5,4(s6)
    80002da0:	ff3b0803          	lb	a6,-13(s6)
    80002da4:	01bb04a3          	sb	s11,9(s6)
    80002da8:	ffcb0803          	lb	a6,-4(s6)
    80002dac:	00017117          	auipc	sp,0x17
    80002db0:	b7310113          	addi	sp,sp,-1165 # 8001991f <region_1+0x68d7>
    80002db4:	e15cee13          	ori	t3,s9,-491
    80002db8:	00897533          	and	a0,s2,s0
    80002dbc:	0db10723          	sb	s11,206(sp)
    80002dc0:	04c14303          	lbu	t1,76(sp)
    80002dc4:	00119f9b          	slliw	t6,gp,0x1
    80002dc8:	0df5                	addi	s11,s11,29
    80002dca:	437ad293          	srai	t0,s5,0x37
    80002dce:	00814303          	lbu	t1,8(sp)
    80002dd2:	f3a10903          	lb	s2,-198(sp)
    80002dd6:	0001                	nop
    80002dd8:	f7c10903          	lb	s2,-132(sp)
    80002ddc:	03b1fd33          	remu	s10,gp,s11
    80002de0:	0f311c83          	lh	s9,243(sp)
    80002de4:	0b914303          	lbu	t1,185(sp)
    80002de8:	40168cb3          	sub	s9,a3,ra
    80002dec:	0bf11c83          	lh	s9,191(sp)
    80002df0:	f8a14303          	lbu	t1,-118(sp)
    80002df4:	00251b3b          	sllw	s6,a0,sp
    80002df8:	02ad6ab3          	rem	s5,s10,a0
    80002dfc:	0806                	slli	a6,a6,0x1
    80002dfe:	f9b10ca3          	sb	s11,-103(sp)
    80002e02:	01014303          	lbu	t1,16(sp)
    80002e06:	9e11                	subw	a2,a2,a2
    80002e08:	09b10d23          	sb	s11,154(sp)
    80002e0c:	e15cee13          	ori	t3,s9,-491
    80002e10:	f8214303          	lbu	t1,-126(sp)
    80002e14:	e15cee13          	ori	t3,s9,-491
    80002e18:	01e11933          	sll	s2,sp,t5
    80002e1c:	f9914303          	lbu	t1,-103(sp)
    80002e20:	007780b3          	add	ra,a5,t2
    80002e24:	db3e4a13          	xori	s4,t3,-589
    80002e28:	437ad293          	srai	t0,s5,0x37
    80002e2c:	03e1f2bb          	remuw	t0,gp,t5
    80002e30:	0f5128a3          	sw	s5,241(sp)
    80002e34:	09115903          	lhu	s2,145(sp)
    80002e38:	0001f117          	auipc	sp,0x1f
    80002e3c:	f6210113          	addi	sp,sp,-158 # 80021d9a <region_1+0xed52>
    80002e40:	9db109a3          	sb	s11,-1581(sp)
    80002e44:	01f764b3          	or	s1,a4,t6
    80002e48:	01f764b3          	or	s1,a4,t6
    80002e4c:	02399e33          	mulh	t3,s3,gp
    80002e50:	0ae14303          	lbu	t1,174(sp)
    80002e54:	eba10903          	lb	s2,-326(sp)
    80002e58:	41b5d01b          	sraiw	zero,a1,0x1b
    80002e5c:	9e11                	subw	a2,a2,a2
    80002e5e:	0310a033          	mulhsu	zero,ra,a7
    80002e62:	01b10623          	sb	s11,12(sp)
    80002e66:	83212803          	lw	a6,-1998(sp)
    80002e6a:	61b107a3          	sb	s11,1551(sp)
    80002e6e:	cc011823          	sh	zero,-816(sp)
    80002e72:	bc514303          	lbu	t1,-1083(sp)
    80002e76:	00119f9b          	slliw	t6,gp,0x1
    80002e7a:	026165bb          	remw	a1,sp,t1
    80002e7e:	3db10023          	sb	s11,960(sp)
    80002e82:	23814303          	lbu	t1,568(sp)
    80002e86:	b3b10aa3          	sb	s11,-1227(sp)
    80002e8a:	6a011923          	sh	zero,1714(sp)
    80002e8e:	03ae53bb          	divuw	t2,t3,s10
    80002e92:	03b1fd33          	remu	s10,gp,s11
    80002e96:	48510903          	lb	s2,1157(sp)
    80002e9a:	02399e33          	mulh	t3,s3,gp
    80002e9e:	01f764b3          	or	s1,a4,t6
    80002ea2:	8375                	srli	a4,a4,0x1d
    80002ea4:	b5815903          	lhu	s2,-1192(sp)
    80002ea8:	91e6                	add	gp,gp,s9
    80002eaa:	79b101a3          	sb	s11,1923(sp)
    80002eae:	6b010903          	lb	s2,1712(sp)
    80002eb2:	8375                	srli	a4,a4,0x1d
    80002eb4:	67f10903          	lb	s2,1663(sp)
    80002eb8:	f36d3493          	sltiu	s1,s10,-202
    80002ebc:	89aa                	mv	s3,a0
    80002ebe:	cd015903          	lhu	s2,-816(sp)
    80002ec2:	0df5                	addi	s11,s11,29
    80002ec4:	03e1f2bb          	remuw	t0,gp,t5
    80002ec8:	4ea10903          	lb	s2,1258(sp)
    80002ecc:	02984033          	div	zero,a6,s1
    80002ed0:	e5411c83          	lh	s9,-428(sp)
    80002ed4:	48914303          	lbu	t1,1161(sp)
    80002ed8:	19b10123          	sb	s11,386(sp)
    80002edc:	00251b3b          	sllw	s6,a0,sp
    80002ee0:	10815903          	lhu	s2,264(sp)
    80002ee4:	9e11                	subw	a2,a2,a2
    80002ee6:	b6211c83          	lh	s9,-1182(sp)
    80002eea:	f9a15903          	lhu	s2,-102(sp)
    80002eee:	003b3db3          	sltu	s11,s6,gp
    80002ef2:	017ea4b3          	slt	s1,t4,s7
    80002ef6:	02ad6ab3          	rem	s5,s10,a0
    80002efa:	dbb10123          	sb	s11,-606(sp)
    80002efe:	437ad293          	srai	t0,s5,0x37
    80002f02:	00897533          	and	a0,s2,s0
    80002f06:	00811c83          	lh	s9,8(sp)
    80002f0a:	0000f117          	auipc	sp,0xf
    80002f0e:	64410113          	addi	sp,sp,1604 # 8001254e <region_0+0x506>
    80002f12:	413cd53b          	sraw	a0,s9,s3
    80002f16:	07f10903          	lb	s2,127(sp)
    80002f1a:	00665b33          	srl	s6,a2,t1
    80002f1e:	fa011223          	sh	zero,-92(sp)
    80002f22:	fa615903          	lhu	s2,-90(sp)
    80002f26:	85f5                	srai	a1,a1,0x1d
    80002f28:	01dc551b          	srliw	a0,s8,0x1d
    80002f2c:	003b3db3          	sltu	s11,s6,gp
    80002f30:	00251b3b          	sllw	s6,a0,sp
    80002f34:	003b3db3          	sltu	s11,s6,gp
    80002f38:	03414303          	lbu	t1,52(sp)
    80002f3c:	0d914303          	lbu	t1,217(sp)
    80002f40:	194deb97          	auipc	s7,0x194de
    80002f44:	02ad6ab3          	rem	s5,s10,a0
    80002f48:	00119f9b          	slliw	t6,gp,0x1
    80002f4c:	f7f10903          	lb	s2,-129(sp)
    80002f50:	3074ba37          	lui	s4,0x3074b
    80002f54:	b0c9fb13          	andi	s6,s3,-1268
    80002f58:	db3e4a13          	xori	s4,t3,-589
    80002f5c:	8375                	srli	a4,a4,0x1d
    80002f5e:	40168cb3          	sub	s9,a3,ra
    80002f62:	41b5d01b          	sraiw	zero,a1,0x1b
    80002f66:	f4510903          	lb	s2,-187(sp)
    80002f6a:	01e12803          	lw	a6,30(sp)
    80002f6e:	0e615903          	lhu	s2,230(sp)
    80002f72:	04a14303          	lbu	t1,74(sp)
    80002f76:	0db10f23          	sb	s11,222(sp)
    80002f7a:	3b7d                	addiw	s6,s6,-1
    80002f7c:	f6611c83          	lh	s9,-154(sp)
    80002f80:	8375                	srli	a4,a4,0x1d
    80002f82:	db3e4a13          	xori	s4,t3,-589
    80002f86:	0ef10903          	lb	s2,239(sp)
    80002f8a:	03b1fd33          	remu	s10,gp,s11
    80002f8e:	01e11933          	sll	s2,sp,t5
    80002f92:	40d0df33          	sra	t5,ra,a3
    80002f96:	89aa                	mv	s3,a0
    80002f98:	00494c33          	xor	s8,s2,tp
    80002f9c:	f9411c83          	lh	s9,-108(sp)
    80002fa0:	07c11c83          	lh	s9,124(sp)
    80002fa4:	413cd53b          	sraw	a0,s9,s3
    80002fa8:	fbf14303          	lbu	t1,-65(sp)
    80002fac:	0df5                	addi	s11,s11,29
    80002fae:	e15cee13          	ori	t3,s9,-491
    80002fb2:	02d440bb          	divw	ra,s0,a3
    80002fb6:	fa010903          	lb	s2,-96(sp)
    80002fba:	89aa                	mv	s3,a0
    80002fbc:	a1c90493          	addi	s1,s2,-1508
    80002fc0:	0bb102a3          	sb	s11,165(sp)
    80002fc4:	00010997          	auipc	s3,0x10
    80002fc8:	8b998993          	addi	s3,s3,-1863 # 8001287d <region_0+0x835>
    80002fcc:	01e11833          	sll	a6,sp,t5
    80002fd0:	8375                	srli	a4,a4,0x1d
    80002fd2:	02d440bb          	divw	ra,s0,a3
    80002fd6:	f1d9d803          	lhu	a6,-227(s3)
    80002fda:	64999c83          	lh	s9,1609(s3)
    80002fde:	20e9c283          	lbu	t0,526(s3)
    80002fe2:	eb898803          	lb	a6,-328(s3)
    80002fe6:	a7b9c283          	lbu	t0,-1413(s3)
    80002fea:	41b5d01b          	sraiw	zero,a1,0x1b
    80002fee:	9ff98803          	lb	a6,-1537(s3)
    80002ff2:	69d99c83          	lh	s9,1693(s3)
    80002ff6:	0df5                	addi	s11,s11,29
    80002ff8:	d3b98623          	sb	s11,-724(s3)
    80002ffc:	85f5                	srai	a1,a1,0x1d
    80002ffe:	f36d3393          	sltiu	t2,s10,-202
    80003002:	b0c9fb13          	andi	s6,s3,-1268
    80003006:	00665b33          	srl	s6,a2,t1
    8000300a:	0261653b          	remw	a0,sp,t1
    8000300e:	3074ba37          	lui	s4,0x3074b
    80003012:	4e85                	li	t4,1
    80003014:	8a19                	andi	a2,a2,6
    80003016:	87b987a3          	sb	s11,-1937(s3)
    8000301a:	039b56b3          	divu	a3,s6,s9
    8000301e:	e40992a3          	sh	zero,-443(s3)
    80003022:	6fd9                	lui	t6,0x16
    80003024:	d4498803          	lb	a6,-700(s3)
    80003028:	b1198803          	lb	a6,-1263(s3)
    8000302c:	41950abb          	subw	s5,a0,s9
    80003030:	f6099ca3          	sh	zero,-135(s3)
    80003034:	87b98803          	lb	a6,-1925(s3)
    80003038:	008974b3          	and	s1,s2,s0
    8000303c:	dc59d803          	lhu	a6,-571(s3)
    80003040:	db3e4a13          	xori	s4,t3,-589
    80003044:	02d440bb          	divw	ra,s0,a3
    80003048:	ed39ba03          	ld	s4,-301(s3)
    8000304c:	d0099aa3          	sh	zero,-747(s3)
    80003050:	40d0df33          	sra	t5,ra,a3
    80003054:	d579d803          	lhu	a6,-681(s3)
    80003058:	ff298803          	lb	a6,-14(s3)
    8000305c:	5579                	li	a0,-2
    8000305e:	0001                	nop

0000000080003060 <main_277_0_t>:
    80003060:	02ad6b33          	rem	s6,s10,a0
    80003064:	1a98                	addi	a4,sp,368
    80003066:	0505                	addi	a0,a0,1
    80003068:	fd65                	bnez	a0,80003060 <main_277_0_t>
    8000306a:	194dec17          	auipc	s8,0x194de
    8000306e:	00014e97          	auipc	t4,0x14
    80003072:	b2be8e93          	addi	t4,t4,-1237 # 80016b99 <region_1+0x3b51>
    80003076:	01ded803          	lhu	a6,29(t4)
    8000307a:	194deb17          	auipc	s6,0x194de
    8000307e:	fdbe8923          	sb	s11,-46(t4)
    80003082:	ff5eada3          	sw	s5,-5(t4)
    80003086:	ffbe8423          	sb	s11,-24(t4)
    8000308a:	fe9e9c03          	lh	s8,-23(t4)
    8000308e:	02feb983          	ld	s3,47(t4)
    80003092:	892a                	mv	s2,a0
    80003094:	00119f9b          	slliw	t6,gp,0x1
    80003098:	015ea5a3          	sw	s5,11(t4)
    8000309c:	007780b3          	add	ra,a5,t2
    800030a0:	fecec283          	lbu	t0,-20(t4)
    800030a4:	00119f9b          	slliw	t6,gp,0x1
    800030a8:	8375                	srli	a4,a4,0x1d
    800030aa:	01dc549b          	srliw	s1,s8,0x1d
    800030ae:	03be85a3          	sb	s11,43(t4)
    800030b2:	fe0e90a3          	sh	zero,-31(t4)
    800030b6:	ff3ed803          	lhu	a6,-13(t4)
    800030ba:	00494bb3          	xor	s7,s2,tp
    800030be:	fd6e8803          	lb	a6,-42(t4)
    800030c2:	8eb5                	xor	a3,a3,a3
    800030c4:	fc0e93a3          	sh	zero,-57(t4)
    800030c8:	fd7e9c03          	lh	s8,-41(t4)
    800030cc:	ffbe8f23          	sb	s11,-2(t4)
    800030d0:	fece8803          	lb	a6,-20(t4)
    800030d4:	fc0ec283          	lbu	t0,-64(t4)
    800030d8:	e15ced93          	ori	s11,s9,-491
    800030dc:	ff5ec283          	lbu	t0,-11(t4)
    800030e0:	03b1fcb3          	remu	s9,gp,s11
    800030e4:	ffbe8a23          	sb	s11,-12(t4)
    800030e8:	03be8c23          	sb	s11,56(t4)
    800030ec:	fe0e96a3          	sh	zero,-19(t4)
    800030f0:	ffbe8a23          	sb	s11,-12(t4)
    800030f4:	fd6e8803          	lb	a6,-42(t4)
    800030f8:	02d440bb          	divw	ra,s0,a3
    800030fc:	f36d3393          	sltiu	t2,s10,-202
    80003100:	fc9e9c03          	lh	s8,-55(t4)
    80003104:	01be8c23          	sb	s11,24(t4)
    80003108:	01a4d293          	srli	t0,s1,0x1a
    8000310c:	03be8423          	sb	s11,40(t4)
    80003110:	01f763b3          	or	t2,a4,t6
    80003114:	ffbe8723          	sb	s11,-18(t4)
    80003118:	0001                	nop
    8000311a:	004e8803          	lb	a6,4(t4)
    8000311e:	00010117          	auipc	sp,0x10
    80003122:	b2210113          	addi	sp,sp,-1246 # 80012c40 <region_0+0xbf8>
    80003126:	02d440bb          	divw	ra,s0,a3
    8000312a:	04510903          	lb	s2,69(sp)
    8000312e:	00f10903          	lb	s2,15(sp)
    80003132:	00251b3b          	sllw	s6,a0,sp
    80003136:	41b5d01b          	sraiw	zero,a1,0x1b
    8000313a:	4e85                	li	t4,1
    8000313c:	026165bb          	remw	a1,sp,t1
    80003140:	03d10903          	lb	s2,61(sp)
    80003144:	437ad293          	srai	t0,s5,0x37
    80003148:	0fb14303          	lbu	t1,251(sp)
    8000314c:	9e11                	subw	a2,a2,a2
    8000314e:	0e011f23          	sh	zero,254(sp)
    80003152:	017ea4b3          	slt	s1,t4,s7
    80003156:	02d440bb          	divw	ra,s0,a3
    8000315a:	02e99f13          	slli	t5,s3,0x2e
    8000315e:	8ef1                	and	a3,a3,a2
    80003160:	413cd53b          	sraw	a0,s9,s3
    80003164:	8ef1                	and	a3,a3,a2
    80003166:	e15cee13          	ori	t3,s9,-491
    8000316a:	05b10d23          	sb	s11,90(sp)
    8000316e:	d4f78d1b          	addiw	s10,a5,-689
    80003172:	017ea4b3          	slt	s1,t4,s7
    80003176:	017ea4b3          	slt	s1,t4,s7
    8000317a:	8f05                	sub	a4,a4,s1
    8000317c:	f1214303          	lbu	t1,-238(sp)
    80003180:	8f05                	sub	a4,a4,s1
    80003182:	f3914303          	lbu	t1,-199(sp)
    80003186:	40168cb3          	sub	s9,a3,ra
    8000318a:	01f764b3          	or	s1,a4,t6
    8000318e:	01b10ea3          	sb	s11,29(sp)
    80003192:	f7b109a3          	sb	s11,-141(sp)
    80003196:	fbb105a3          	sb	s11,-85(sp)
    8000319a:	e15cee13          	ori	t3,s9,-491
    8000319e:	01e11933          	sll	s2,sp,t5
    800031a2:	0001                	nop
    800031a4:	0001                	nop
    800031a6:	6f59                	lui	t5,0x16
    800031a8:	ca52                	sw	s4,20(sp)
    800031aa:	4819                	li	a6,6
    800031ac:	8375                	srli	a4,a4,0x1d
    800031ae:	6f59                	lui	t5,0x16
    800031b0:	007780b3          	add	ra,a5,t2
    800031b4:	41b5d01b          	sraiw	zero,a1,0x1b
    800031b8:	030d853b          	mulw	a0,s11,a6
    800031bc:	026165bb          	remw	a1,sp,t1
    800031c0:	01ff55bb          	srlw	a1,t5,t6
    800031c4:	0310a033          	mulhsu	zero,ra,a7
    800031c8:	51f9                	li	gp,-2
    800031ca:	8a19                	andi	a2,a2,6
    800031cc:	85f5                	srai	a1,a1,0x1d
    800031ce:	3bfd                	addiw	s7,s7,-1 # ffffffff994e0f3f <_end+0xffffffff194ac5b7>
    800031d0:	02ad6b33          	rem	s6,s10,a0

00000000800031d4 <main_274_0_t>:
    800031d4:	e15cee93          	ori	t4,s9,-491
    800031d8:	8ef1                	and	a3,a3,a2
    800031da:	1861                	addi	a6,a6,-8
    800031dc:	01f764b3          	or	s1,a4,t6
    800031e0:	017ea4b3          	slt	s1,t4,s7
    800031e4:	02e99f93          	slli	t6,s3,0x2e
    800031e8:	01e119b3          	sll	s3,sp,t5
    800031ec:	01f764b3          	or	s1,a4,t6
    800031f0:	85f5                	srai	a1,a1,0x1d
    800031f2:	fe3811e3          	bne	a6,gp,800031d4 <main_274_0_t>
    800031f6:	8a2a                	mv	s4,a0
    800031f8:	0000fb97          	auipc	s7,0xf
    800031fc:	330b8b93          	addi	s7,s7,816 # 80012528 <region_0+0x4e0>
    80003200:	0c2bc283          	lbu	t0,194(s7)
    80003204:	00251abb          	sllw	s5,a0,sp
    80003208:	02ad6a33          	rem	s4,s10,a0
    8000320c:	078bc283          	lbu	t0,120(s7)
    80003210:	00119f9b          	slliw	t6,gp,0x1
    80003214:	8ef1                	and	a3,a3,a2
    80003216:	00494c33          	xor	s8,s2,tp
    8000321a:	f3ebc283          	lbu	t0,-194(s7)
    8000321e:	08fbc283          	lbu	t0,143(s7)
    80003222:	40168cb3          	sub	s9,a3,ra
    80003226:	8ef1                	and	a3,a3,a2
    80003228:	03ae533b          	divuw	t1,t3,s10
    8000322c:	f78ba703          	lw	a4,-136(s7)
    80003230:	067b8803          	lb	a6,103(s7)
    80003234:	194deb17          	auipc	s6,0x194de
    80003238:	8375                	srli	a4,a4,0x1d
    8000323a:	00d5863b          	addw	a2,a1,a3
    8000323e:	fc8bb983          	ld	s3,-56(s7)
    80003242:	03f88233          	mul	tp,a7,t6
    80003246:	02984033          	div	zero,a6,s1
    8000324a:	0a0bd803          	lhu	a6,160(s7)
    8000324e:	f35bac23          	sw	s5,-200(s7)
    80003252:	09cba703          	lw	a4,156(s7)
    80003256:	f76bd803          	lhu	a6,-138(s7)
    8000325a:	09bb8f23          	sb	s11,158(s7)
    8000325e:	fe6b9c83          	lh	s9,-26(s7)
    80003262:	0bbb80a3          	sb	s11,161(s7)
    80003266:	a1c90393          	addi	t2,s2,-1508
    8000326a:	0706                	slli	a4,a4,0x1
    8000326c:	07bb8923          	sb	s11,114(s7)
    80003270:	4d25                	li	s10,9
    80003272:	8e71                	and	a2,a2,a2
    80003274:	02399fb3          	mulh	t6,s3,gp
    80003278:	480d                	li	a6,3
    8000327a:	1a98                	addi	a4,sp,368
    8000327c:	003b3f33          	sltu	t5,s6,gp
    80003280:	d4f78e9b          	addiw	t4,a5,-689
    80003284:	026165bb          	remw	a1,sp,t1
    80003288:	03e1f23b          	remuw	tp,gp,t5

000000008000328c <main_259_1_t>:
    8000328c:	01f763b3          	or	t2,a4,t6
    80003290:	b0c9fb93          	andi	s7,s3,-1268
    80003294:	413cd4bb          	sraw	s1,s9,s3
    80003298:	01ff55bb          	srlw	a1,t5,t6
    8000329c:	1d7d                	addi	s10,s10,-1
    8000329e:	8a19                	andi	a2,a2,6
    800032a0:	4515                	li	a0,5
    800032a2:	0001                	nop
    800032a4:	03e1f23b          	remuw	tp,gp,t5
    800032a8:	85f5                	srai	a1,a1,0x1d
    800032aa:	01dc549b          	srliw	s1,s8,0x1d
    800032ae:	4e15                	li	t3,5

00000000800032b0 <main_259_0_t>:
    800032b0:	02984033          	div	zero,a6,s1
    800032b4:	01dc549b          	srliw	s1,s8,0x1d
    800032b8:	3bfd                	addiw	s7,s7,-1
    800032ba:	69d9                	lui	s3,0x16
    800032bc:	157d                	addi	a0,a0,-1
    800032be:	ffc579e3          	bgeu	a0,t3,800032b0 <main_259_0_t>
    800032c2:	007780b3          	add	ra,a5,t2
    800032c6:	40d0dbb3          	sra	s7,ra,a3
    800032ca:	194dec17          	auipc	s8,0x194de
    800032ce:	fb0d7fe3          	bgeu	s10,a6,8000328c <main_259_1_t>
    800032d2:	030d84bb          	mulw	s1,s11,a6
    800032d6:	00020117          	auipc	sp,0x20
    800032da:	d1110113          	addi	sp,sp,-751 # 80022fe7 <region_1+0xff9f>
    800032de:	ffb10123          	sb	s11,-30(sp)
    800032e2:	04410903          	lb	s2,68(sp)
    800032e6:	fbb103a3          	sb	s11,-89(sp)
    800032ea:	03ae53bb          	divuw	t2,t3,s10
    800032ee:	00897533          	and	a0,s2,s0
    800032f2:	f0f11c83          	lh	s9,-241(sp)
    800032f6:	85f5                	srai	a1,a1,0x1d
    800032f8:	fb112803          	lw	a6,-79(sp)
    800032fc:	035122a3          	sw	s5,37(sp)
    80003300:	01ff55bb          	srlw	a1,t5,t6
    80003304:	02984033          	div	zero,a6,s1
    80003308:	fe113a03          	ld	s4,-31(sp)
    8000330c:	f0810903          	lb	s2,-248(sp)
    80003310:	0001                	nop
    80003312:	40d0df33          	sra	t5,ra,a3
    80003316:	fbb10b23          	sb	s11,-74(sp)
    8000331a:	02e5b633          	mulhu	a2,a1,a4
    8000331e:	db3e4a13          	xori	s4,t3,-589
    80003322:	fb210903          	lb	s2,-78(sp)
    80003326:	f6414303          	lbu	t1,-156(sp)
    8000332a:	f0b10903          	lb	s2,-245(sp)
    8000332e:	40d0df33          	sra	t5,ra,a3
    80003332:	01f14303          	lbu	t1,31(sp)
    80003336:	f5314303          	lbu	t1,-173(sp)
    8000333a:	01f764b3          	or	s1,a4,t6
    8000333e:	03b10a23          	sb	s11,52(sp)
    80003342:	fea10903          	lb	s2,-22(sp)
    80003346:	db3e4a13          	xori	s4,t3,-589
    8000334a:	f1b10523          	sb	s11,-246(sp)
    8000334e:	01810903          	lb	s2,24(sp)
    80003352:	89aa                	mv	s3,a0
    80003354:	f7610903          	lb	s2,-138(sp)
    80003358:	0df5                	addi	s11,s11,29
    8000335a:	6f59                	lui	t5,0x16
    8000335c:	f7b10d23          	sb	s11,-134(sp)
    80003360:	8eb5                	xor	a3,a3,a3
    80003362:	fbb10323          	sb	s11,-90(sp)
    80003366:	f3d12803          	lw	a6,-195(sp)
    8000336a:	0001                	nop
    8000336c:	01b10da3          	sb	s11,27(sp)
    80003370:	55d0ac13          	slti	s8,ra,1373
    80003374:	f0a10903          	lb	s2,-246(sp)
    80003378:	0001b197          	auipc	gp,0x1b
    8000337c:	add18193          	addi	gp,gp,-1315 # 8001de55 <region_1+0xae0d>
    80003380:	0806                	slli	a6,a6,0x1
    80003382:	0df5                	addi	s11,s11,29
    80003384:	fbb183a3          	sb	s11,-89(gp)
    80003388:	01b18c23          	sb	s11,24(gp)
    8000338c:	717d                	addi	sp,sp,-16
    8000338e:	f1b18123          	sb	s11,-254(gp)
    80003392:	05b18723          	sb	s11,78(gp)
    80003396:	02984033          	div	zero,a6,s1
    8000339a:	413cd53b          	sraw	a0,s9,s3
    8000339e:	55d0ac13          	slti	s8,ra,1373
    800033a2:	f7b183a3          	sb	s11,-153(gp)
    800033a6:	db3e4a13          	xori	s4,t3,-589
    800033aa:	04719c83          	lh	s9,71(gp)
    800033ae:	039b5733          	divu	a4,s6,s9
    800033b2:	03618903          	lb	s2,54(gp)
    800033b6:	0db18123          	sb	s11,194(gp)
    800033ba:	fbf18903          	lb	s2,-65(gp)
    800033be:	0021c303          	lbu	t1,2(gp)
    800033c2:	3074ba37          	lui	s4,0x3074b
    800033c6:	6fd9                	lui	t6,0x16
    800033c8:	f761c303          	lbu	t1,-138(gp)
    800033cc:	3074ba37          	lui	s4,0x3074b
    800033d0:	fad1d903          	lhu	s2,-83(gp)
    800033d4:	f351aba3          	sw	s5,-201(gp)
    800033d8:	41950abb          	subw	s5,a0,s9
    800033dc:	d4f78d1b          	addiw	s10,a5,-689
    800033e0:	a1c90493          	addi	s1,s2,-1508
    800033e4:	ffa1c303          	lbu	t1,-6(gp)
    800033e8:	00494c33          	xor	s8,s2,tp
    800033ec:	017ea4b3          	slt	s1,t4,s7
    800033f0:	8eb5                	xor	a3,a3,a3
    800033f2:	b0c9fb13          	andi	s6,s3,-1268
    800033f6:	02ad6ab3          	rem	s5,s10,a0
    800033fa:	0f318903          	lb	s2,243(gp)
    800033fe:	f411d903          	lhu	s2,-191(gp)
    80003402:	9ead                	addw	a3,a3,a1
    80003404:	3b7d                	addiw	s6,s6,-1 # ffffffff994e1233 <_end+0xffffffff194ac8ab>
    80003406:	3074ba37          	lui	s4,0x3074b
    8000340a:	08b1e083          	lwu	ra,139(gp)
    8000340e:	00019817          	auipc	a6,0x19
    80003412:	bba80813          	addi	a6,a6,-1094 # 8001bfc8 <region_1+0x8f80>
    80003416:	b0c9fb13          	andi	s6,s3,-1268
    8000341a:	01b80fa3          	sb	s11,31(a6)
    8000341e:	f9082703          	lw	a4,-112(a6)
    80003422:	08980903          	lb	s2,137(a6)
    80003426:	feb84283          	lbu	t0,-21(a6)
    8000342a:	08284283          	lbu	t0,130(a6)
    8000342e:	02e99f13          	slli	t5,s3,0x2e
    80003432:	0d883a03          	ld	s4,216(a6)
    80003436:	f8081223          	sh	zero,-124(a6)
    8000343a:	0bb80123          	sb	s11,162(a6)
    8000343e:	41b5d01b          	sraiw	zero,a1,0x1b
    80003442:	413cd4bb          	sraw	s1,s9,s3
    80003446:	09b806a3          	sb	s11,141(a6)
    8000344a:	01ff553b          	srlw	a0,t5,t6
    8000344e:	00082703          	lw	a4,0(a6)
    80003452:	0bb84283          	lbu	t0,187(a6)
    80003456:	85f5                	srai	a1,a1,0x1d
    80003458:	0fb800a3          	sb	s11,225(a6)
    8000345c:	6fd9                	lui	t6,0x16
    8000345e:	05b80123          	sb	s11,66(a6)
    80003462:	f3b84283          	lbu	t0,-197(a6)
    80003466:	4e85                	li	t4,1
    80003468:	00e80903          	lb	s2,14(a6)
    8000346c:	06081e23          	sh	zero,124(a6)
    80003470:	0c184283          	lbu	t0,193(a6)
    80003474:	55d0ac13          	slti	s8,ra,1373
    80003478:	3074ba37          	lui	s4,0x3074b
    8000347c:	06685903          	lhu	s2,102(a6)
    80003480:	0db802a3          	sb	s11,197(a6)
    80003484:	f9684283          	lbu	t0,-106(a6)
    80003488:	f3b80fa3          	sb	s11,-193(a6)
    8000348c:	f1a85903          	lhu	s2,-230(a6)
    80003490:	10082703          	lw	a4,256(a6)
    80003494:	f0086083          	lwu	ra,-256(a6)
    80003498:	0000f117          	auipc	sp,0xf
    8000349c:	d5d10113          	addi	sp,sp,-675 # 800121f5 <region_0+0x1ad>
    800034a0:	f3a14303          	lbu	t1,-198(sp)
    800034a4:	017ea4b3          	slt	s1,t4,s7
    800034a8:	f8a14303          	lbu	t1,-118(sp)
    800034ac:	07915903          	lhu	s2,121(sp)
    800034b0:	8375                	srli	a4,a4,0x1d
    800034b2:	03f882b3          	mul	t0,a7,t6
    800034b6:	00251b3b          	sllw	s6,a0,sp
    800034ba:	3074ba37          	lui	s4,0x3074b
    800034be:	007780b3          	add	ra,a5,t2
    800034c2:	9e11                	subw	a2,a2,a2
    800034c4:	007780b3          	add	ra,a5,t2
    800034c8:	02e99f13          	slli	t5,s3,0x2e
    800034cc:	f36d3493          	sltiu	s1,s10,-202
    800034d0:	41b5d01b          	sraiw	zero,a1,0x1b
    800034d4:	8ef1                	and	a3,a3,a2
    800034d6:	00251b3b          	sllw	s6,a0,sp
    800034da:	e15cee13          	ori	t3,s9,-491
    800034de:	007780b3          	add	ra,a5,t2
    800034e2:	f3b10e23          	sb	s11,-196(sp)
    800034e6:	41950abb          	subw	s5,a0,s9
    800034ea:	05b10223          	sb	s11,68(sp)
    800034ee:	9ead                	addw	a3,a3,a1
    800034f0:	f5b106a3          	sb	s11,-179(sp)
    800034f4:	01b10123          	sb	s11,2(sp)
    800034f8:	01e11933          	sll	s2,sp,t5
    800034fc:	007780b3          	add	ra,a5,t2
    80003500:	0310a033          	mulhsu	zero,ra,a7
    80003504:	03515903          	lhu	s2,53(sp)
    80003508:	00897533          	and	a0,s2,s0
    8000350c:	00251b3b          	sllw	s6,a0,sp
    80003510:	03ae53bb          	divuw	t2,t3,s10
    80003514:	03614303          	lbu	t1,54(sp)
    80003518:	db3e4a13          	xori	s4,t3,-589
    8000351c:	89aa                	mv	s3,a0
    8000351e:	8f59                	or	a4,a4,a4
    80003520:	0001                	nop
    80003522:	0d111c83          	lh	s9,209(sp)
    80003526:	00494c33          	xor	s8,s2,tp
    8000352a:	0da10903          	lb	s2,218(sp)
    8000352e:	00019117          	auipc	sp,0x19
    80003532:	44710113          	addi	sp,sp,1095 # 8001c975 <region_1+0x992d>
    80003536:	026165bb          	remw	a1,sp,t1
    8000353a:	02b13a03          	ld	s4,43(sp)
    8000353e:	08915903          	lhu	s2,137(sp)
    80003542:	f9312803          	lw	a6,-109(sp)
    80003546:	05b10423          	sb	s11,72(sp)
    8000354a:	b0c9fb13          	andi	s6,s3,-1268
    8000354e:	b0c9fb13          	andi	s6,s3,-1268
    80003552:	fcb15903          	lhu	s2,-53(sp)
    80003556:	f8911c83          	lh	s9,-119(sp)
    8000355a:	e15cee13          	ori	t3,s9,-491
    8000355e:	fb311c83          	lh	s9,-77(sp)
    80003562:	0001                	nop
    80003564:	40d0df33          	sra	t5,ra,a3
    80003568:	d4f78d1b          	addiw	s10,a5,-689
    8000356c:	feb15903          	lhu	s2,-21(sp)
    80003570:	f8711c83          	lh	s9,-121(sp)
    80003574:	f36d3493          	sltiu	s1,s10,-202
    80003578:	003b3db3          	sltu	s11,s6,gp
    8000357c:	09b10aa3          	sb	s11,149(sp)
    80003580:	f1b106a3          	sb	s11,-243(sp)
    80003584:	fdb10ca3          	sb	s11,-39(sp)
    80003588:	0db10e23          	sb	s11,220(sp)
    8000358c:	fcc14303          	lbu	t1,-52(sp)
    80003590:	03b1fd33          	remu	s10,gp,s11
    80003594:	03e1f2bb          	remuw	t0,gp,t5
    80003598:	8eb5                	xor	a3,a3,a3
    8000359a:	0b512ba3          	sw	s5,183(sp)
    8000359e:	000113a3          	sh	zero,7(sp)
    800035a2:	fbb10f23          	sb	s11,-66(sp)
    800035a6:	f5b10823          	sb	s11,-176(sp)
    800035aa:	6f59                	lui	t5,0x16
    800035ac:	fcc14303          	lbu	t1,-52(sp)
    800035b0:	f2e14303          	lbu	t1,-210(sp)
    800035b4:	f4114303          	lbu	t1,-191(sp)
    800035b8:	ffb10023          	sb	s11,-32(sp)
    800035bc:	0000f617          	auipc	a2,0xf
    800035c0:	cac60613          	addi	a2,a2,-852 # 80012268 <region_0+0x220>
    800035c4:	8e85                	sub	a3,a3,s1
    800035c6:	00665b33          	srl	s6,a2,t1
    800035ca:	4e85                	li	t4,1
    800035cc:	9166                	add	sp,sp,s9
    800035ce:	01b60ca3          	sb	s11,25(a2)
    800035d2:	03660903          	lb	s2,54(a2)
    800035d6:	89aa                	mv	s3,a0
    800035d8:	02d440bb          	divw	ra,s0,a3
    800035dc:	030d84bb          	mulw	s1,s11,a6
    800035e0:	00e61c83          	lh	s9,14(a2)
    800035e4:	03b60b23          	sb	s11,54(a2)
    800035e8:	007780b3          	add	ra,a5,t2
    800035ec:	ffb60923          	sb	s11,-14(a2)
    800035f0:	02260903          	lb	s2,34(a2)
    800035f4:	0806                	slli	a6,a6,0x1
    800035f6:	db3e4a13          	xori	s4,t3,-589
    800035fa:	03b1fd33          	remu	s10,gp,s11
    800035fe:	00060903          	lb	s2,0(a2)
    80003602:	fff64283          	lbu	t0,-1(a2)
    80003606:	e15cee13          	ori	t3,s9,-491
    8000360a:	01e11933          	sll	s2,sp,t5
    8000360e:	8999                	andi	a1,a1,6
    80003610:	3b7d                	addiw	s6,s6,-1
    80003612:	03865903          	lhu	s2,56(a2)
    80003616:	00a64283          	lbu	t0,10(a2)
    8000361a:	ffb60ea3          	sb	s11,-3(a2)
    8000361e:	01dc549b          	srliw	s1,s8,0x1d
    80003622:	007780b3          	add	ra,a5,t2
    80003626:	fc564283          	lbu	t0,-59(a2)
    8000362a:	fcc60903          	lb	s2,-52(a2)
    8000362e:	fd360903          	lb	s2,-45(a2)
    80003632:	ff665903          	lhu	s2,-10(a2)
    80003636:	0310a033          	mulhsu	zero,ra,a7
    8000363a:	41b5d01b          	sraiw	zero,a1,0x1b
    8000363e:	9166                	add	sp,sp,s9
    80003640:	fdd60903          	lb	s2,-35(a2)
    80003644:	6fd9                	lui	t6,0x16
    80003646:	03560903          	lb	s2,53(a2)
    8000364a:	03b60f23          	sb	s11,62(a2)
    8000364e:	fd465903          	lhu	s2,-44(a2)
    80003652:	8ed9                	or	a3,a3,a4
    80003654:	fe364283          	lbu	t0,-29(a2)
    80003658:	00760903          	lb	s2,7(a2)
    8000365c:	01a4d293          	srli	t0,s1,0x1a
    80003660:	039b5733          	divu	a4,s6,s9
    80003664:	437ad213          	srai	tp,s5,0x37
    80003668:	01b60f23          	sb	s11,30(a2)
    8000366c:	00260903          	lb	s2,2(a2)
    80003670:	e15cee13          	ori	t3,s9,-491
    80003674:	fed60903          	lb	s2,-19(a2)
    80003678:	01b60b23          	sb	s11,22(a2)
    8000367c:	0000f217          	auipc	tp,0xf
    80003680:	26420213          	addi	tp,tp,612 # 800128e0 <region_0+0x898>
    80003684:	0ff24303          	lbu	t1,255(tp) # ff <_start-0x7fffff01>
    80003688:	9166                	add	sp,sp,s9
    8000368a:	6fd9                	lui	t6,0x16
    8000368c:	6fd9                	lui	t6,0x16
    8000368e:	0e225903          	lhu	s2,226(tp) # e2 <_start-0x7fffff1e>
    80003692:	02984033          	div	zero,a6,s1
    80003696:	fb824303          	lbu	t1,-72(tp) # ffffffffffffffb8 <_end+0xffffffff7ffcb630>
    8000369a:	0db20fa3          	sb	s11,223(tp) # df <_start-0x7fffff21>
    8000369e:	0df5                	addi	s11,s11,29
    800036a0:	026165bb          	remw	a1,sp,t1
    800036a4:	1a88                	addi	a0,sp,368
    800036a6:	fa020903          	lb	s2,-96(tp) # ffffffffffffffa0 <_end+0xffffffff7ffcb618>
    800036aa:	fa826083          	lwu	ra,-88(tp) # ffffffffffffffa8 <_end+0xffffffff7ffcb620>
    800036ae:	1a88                	addi	a0,sp,368
    800036b0:	030d853b          	mulw	a0,s11,a6
    800036b4:	41950abb          	subw	s5,a0,s9
    800036b8:	00665b33          	srl	s6,a2,t1
    800036bc:	0ce24303          	lbu	t1,206(tp) # ce <_start-0x7fffff32>
    800036c0:	017ea4b3          	slt	s1,t4,s7
    800036c4:	01e11933          	sll	s2,sp,t5
    800036c8:	03823023          	sd	s8,32(tp) # 20 <_start-0x7fffffe0>
    800036cc:	9ead                	addw	a3,a3,a1
    800036ce:	1a88                	addi	a0,sp,368
    800036d0:	db3e4a13          	xori	s4,t3,-589
    800036d4:	b0c9fb13          	andi	s6,s3,-1268
    800036d8:	02421c83          	lh	s9,36(tp) # 24 <_start-0x7fffffdc>
    800036dc:	f1824303          	lbu	t1,-232(tp) # ffffffffffffff18 <_end+0xffffffff7ffcb590>
    800036e0:	f36d3493          	sltiu	s1,s10,-202
    800036e4:	9d3d                	addw	a0,a0,a5
    800036e6:	413cd53b          	sraw	a0,s9,s3
    800036ea:	0b724303          	lbu	t1,183(tp) # b7 <_start-0x7fffff49>
    800036ee:	f6021d23          	sh	zero,-134(tp) # ffffffffffffff7a <_end+0xffffffff7ffcb5f2>
    800036f2:	00120903          	lb	s2,1(tp) # 1 <_start-0x7fffffff>
    800036f6:	01ff55bb          	srlw	a1,t5,t6
    800036fa:	02d440bb          	divw	ra,s0,a3
    800036fe:	026165bb          	remw	a1,sp,t1
    80003702:	f9920903          	lb	s2,-103(tp) # ffffffffffffff99 <_end+0xffffffff7ffcb611>
    80003706:	e15cee13          	ori	t3,s9,-491
    8000370a:	09b208a3          	sb	s11,145(tp) # 91 <_start-0x7fffff6f>
    8000370e:	f2520903          	lb	s2,-219(tp) # ffffffffffffff25 <_end+0xffffffff7ffcb59d>

0000000080003712 <main_3>:
    80003712:	00e000ef          	jal	80003720 <main_3+0xe>
    80003716:	a81d                	j	8000374c <main_3+0x3a>
    80003718:	038000ef          	jal	80003750 <main_3+0x3e>
    8000371c:	012000ef          	jal	8000372e <main_3+0x1c>
    80003720:	024000ef          	jal	80003744 <main_3+0x32>
    80003724:	024000ef          	jal	80003748 <main_3+0x36>
    80003728:	ff5ff0ef          	jal	8000371c <main_3+0xa>
    8000372c:	b7f5                	j	80003718 <main_3+0x6>
    8000372e:	a01d                	j	80003754 <main_3+0x42>
    80003730:	b7dd                	j	80003716 <main_3+0x4>
    80003732:	bfcd                	j	80003724 <main_3+0x12>
    80003734:	00a000ef          	jal	8000373e <main_3+0x2c>
    80003738:	a009                	j	8000373a <main_3+0x28>
    8000373a:	fefff0ef          	jal	80003728 <main_3+0x16>
    8000373e:	ff3ff0ef          	jal	80003730 <main_3+0x1e>
    80003742:	bfc5                	j	80003732 <main_3+0x20>
    80003744:	a009                	j	80003746 <main_3+0x34>
    80003746:	a031                	j	80003752 <main_3+0x40>
    80003748:	ff1ff0ef          	jal	80003738 <main_3+0x26>
    8000374c:	ff7ff0ef          	jal	80003742 <main_3+0x30>
    80003750:	b7d5                	j	80003734 <main_3+0x22>
    80003752:	bfe9                	j	8000372c <main_3+0x1a>
    80003754:	3c7d                	addiw	s8,s8,-1 # ffffffff994e12c9 <_end+0xffffffff194ac941>
    80003756:	0001d117          	auipc	sp,0x1d
    8000375a:	aeb10113          	addi	sp,sp,-1301 # 80020241 <region_1+0xd1f9>
    8000375e:	02ad6ab3          	rem	s5,s10,a0
    80003762:	82410903          	lb	s2,-2012(sp)
    80003766:	c1614303          	lbu	t1,-1002(sp)
    8000376a:	4db10c23          	sb	s11,1240(sp)
    8000376e:	00251b3b          	sllw	s6,a0,sp
    80003772:	79b10223          	sb	s11,1924(sp)
    80003776:	f36d3493          	sltiu	s1,s10,-202
    8000377a:	8fb10623          	sb	s11,-1812(sp)
    8000377e:	02e99f13          	slli	t5,s3,0x2e
    80003782:	71f15903          	lhu	s2,1823(sp)
    80003786:	01b11c83          	lh	s9,27(sp)
    8000378a:	ac115903          	lhu	s2,-1343(sp)
    8000378e:	69b10923          	sb	s11,1682(sp)
    80003792:	01f764b3          	or	s1,a4,t6
    80003796:	8ef1                	and	a3,a3,a2
    80003798:	8375                	srli	a4,a4,0x1d
    8000379a:	46f10903          	lb	s2,1135(sp)
    8000379e:	04910903          	lb	s2,73(sp)
    800037a2:	0fb104a3          	sb	s11,233(sp)
    800037a6:	00494c33          	xor	s8,s2,tp
    800037aa:	00494c33          	xor	s8,s2,tp
    800037ae:	41b5d01b          	sraiw	zero,a1,0x1b
    800037b2:	5a713a03          	ld	s4,1447(sp)
    800037b6:	03f882b3          	mul	t0,a7,t6
    800037ba:	5f515903          	lhu	s2,1525(sp)
    800037be:	0310a033          	mulhsu	zero,ra,a7
    800037c2:	15a14303          	lbu	t1,346(sp)
    800037c6:	4c85                	li	s9,1
    800037c8:	0e75                	addi	t3,t3,29
    800037ca:	0001                	nop
    800037cc:	8a19                	andi	a2,a2,6
    800037ce:	717d                	addi	sp,sp,-16
    800037d0:	9ead                	addw	a3,a3,a1
    800037d2:	4f05                	li	t5,1
    800037d4:	0310a033          	mulhsu	zero,ra,a7
    800037d8:	9166                	add	sp,sp,s9
    800037da:	9ebd                	addw	a3,a3,a5
    800037dc:	40168d33          	sub	s10,a3,ra
    800037e0:	01ff55bb          	srlw	a1,t5,t6
    800037e4:	030d853b          	mulw	a0,s11,a6
    800037e8:	02d440bb          	divw	ra,s0,a3
    800037ec:	1a98                	addi	a4,sp,368
    800037ee:	194deb97          	auipc	s7,0x194de
    800037f2:	54f9                	li	s1,-2
    800037f4:	02e5b633          	mulhu	a2,a1,a4
    800037f8:	41b5d01b          	sraiw	zero,a1,0x1b
    800037fc:	0001                	nop
    800037fe:	8a19                	andi	a2,a2,6
    80003800:	039b5733          	divu	a4,s6,s9

0000000080003804 <main_264_0_t>:
    80003804:	0001                	nop
    80003806:	40d0dfb3          	sra	t6,ra,a3
    8000380a:	a1c90393          	addi	t2,s2,-1508
    8000380e:	1cf5                	addi	s9,s9,-3
    80003810:	00665b33          	srl	s6,a2,t1
    80003814:	02ad6ab3          	rem	s5,s10,a0
    80003818:	fe9c96e3          	bne	s9,s1,80003804 <main_264_0_t>
    8000381c:	02d440bb          	divw	ra,s0,a3
    80003820:	5d59                	li	s10,-10
    80003822:	717d                	addi	sp,sp,-16
    80003824:	40168cb3          	sub	s9,a3,ra
    80003828:	89aa                	mv	s3,a0
    8000382a:	54fd                	li	s1,-1
    8000382c:	00119f1b          	slliw	t5,gp,0x1
    80003830:	b0c9fb13          	andi	s6,s3,-1268

0000000080003834 <main_256_0_t>:
    80003834:	40168cb3          	sub	s9,a3,ra
    80003838:	030d853b          	mulw	a0,s11,a6
    8000383c:	0d11                	addi	s10,s10,4
    8000383e:	0001                	nop
    80003840:	03e1f23b          	remuw	tp,gp,t5
    80003844:	02d440bb          	divw	ra,s0,a3
    80003848:	41950abb          	subw	s5,a0,s9
    8000384c:	41b5d01b          	sraiw	zero,a1,0x1b
    80003850:	00494c33          	xor	s8,s2,tp
    80003854:	00897533          	and	a0,s2,s0
    80003858:	1a98                	addi	a4,sp,368
    8000385a:	717d                	addi	sp,sp,-16
    8000385c:	02399eb3          	mulh	t4,s3,gp
    80003860:	fc9d4ae3          	blt	s10,s1,80003834 <main_256_0_t>
    80003864:	413cd53b          	sraw	a0,s9,s3

0000000080003868 <main_39>:
    80003868:	01c000ef          	jal	80003884 <main_39+0x1c>
    8000386c:	a031                	j	80003878 <main_39+0x10>
    8000386e:	024000ef          	jal	80003892 <main_39+0x2a>
    80003872:	018000ef          	jal	8000388a <main_39+0x22>
    80003876:	a025                	j	8000389e <main_39+0x36>
    80003878:	02c000ef          	jal	800038a4 <main_39+0x3c>
    8000387c:	bfc5                	j	8000386c <main_39+0x4>
    8000387e:	a829                	j	80003898 <main_39+0x30>
    80003880:	a829                	j	8000389a <main_39+0x32>
    80003882:	bfc5                	j	80003872 <main_39+0xa>
    80003884:	a009                	j	80003886 <main_39+0x1e>
    80003886:	ff9ff0ef          	jal	8000387e <main_39+0x16>
    8000388a:	004000ef          	jal	8000388e <main_39+0x26>
    8000388e:	fe1ff0ef          	jal	8000386e <main_39+0x6>
    80003892:	016000ef          	jal	800038a8 <main_39+0x40>
    80003896:	a031                	j	800038a2 <main_39+0x3a>
    80003898:	bffd                	j	80003896 <main_39+0x2e>
    8000389a:	fddff0ef          	jal	80003876 <main_39+0xe>
    8000389e:	fdfff0ef          	jal	8000387c <main_39+0x14>
    800038a2:	bff9                	j	80003880 <main_39+0x18>
    800038a4:	fdfff0ef          	jal	80003882 <main_39+0x1a>
    800038a8:	004000ef          	jal	800038ac <main_39+0x44>
    800038ac:	0310a033          	mulhsu	zero,ra,a7
    800038b0:	5ce9                	li	s9,-6
    800038b2:	4149                	li	sp,18

00000000800038b4 <main_252_1_t>:
    800038b4:	e15cef93          	ori	t6,s9,-491
    800038b8:	0ca1                	addi	s9,s9,8
    800038ba:	030d853b          	mulw	a0,s11,a6
    800038be:	4a25                	li	s4,9
    800038c0:	4609                	li	a2,2

00000000800038c2 <main_252_0_t>:
    800038c2:	9c66                	add	s8,s8,s9
    800038c4:	1a7d                	addi	s4,s4,-1 # 3074afff <_start-0x4f8b5001>
    800038c6:	feca7ee3          	bgeu	s4,a2,800038c2 <main_252_0_t>
    800038ca:	fe2c85e3          	beq	s9,sp,800038b4 <main_252_1_t>
    800038ce:	db3e4b13          	xori	s6,t3,-589
    800038d2:	4ba9                	li	s7,10
    800038d4:	3afd                	addiw	s5,s5,-1
    800038d6:	194dec17          	auipc	s8,0x194de
    800038da:	9166                	add	sp,sp,s9
    800038dc:	4b21                	li	s6,8
    800038de:	00251abb          	sllw	s5,a0,sp
    800038e2:	00119f1b          	slliw	t5,gp,0x1
    800038e6:	a1c90393          	addi	t2,s2,-1508
    800038ea:	437ad213          	srai	tp,s5,0x37

00000000800038ee <main_241_0_t>:
    800038ee:	4f05                	li	t5,1
    800038f0:	8f59                	or	a4,a4,a4
    800038f2:	d4f78d9b          	addiw	s11,a5,-689
    800038f6:	039b56b3          	divu	a3,s6,s9
    800038fa:	00119f1b          	slliw	t5,gp,0x1
    800038fe:	0001                	nop
    80003900:	1bed                	addi	s7,s7,-5 # 994e17e9 <_end+0x194ace61>
    80003902:	01a4d293          	srli	t0,s1,0x1a
    80003906:	db3e4993          	xori	s3,t3,-589
    8000390a:	8eb5                	xor	a3,a3,a3
    8000390c:	017ea3b3          	slt	t2,t4,s7
    80003910:	1a88                	addi	a0,sp,368
    80003912:	0001                	nop
    80003914:	55d0ac93          	slti	s9,ra,1373
    80003918:	fd6bfbe3          	bgeu	s7,s6,800038ee <main_241_0_t>
    8000391c:	413cd4bb          	sraw	s1,s9,s3
    80003920:	0000fe17          	auipc	t3,0xf
    80003924:	f10e0e13          	addi	t3,t3,-240 # 80012830 <region_0+0x7e8>
    80003928:	f89e0803          	lb	a6,-119(t3)
    8000392c:	0001                	nop
    8000392e:	db3e4993          	xori	s3,t3,-589
    80003932:	f75e2223          	sw	s5,-156(t3)
    80003936:	08ee4283          	lbu	t0,142(t3)
    8000393a:	f24e0803          	lb	a6,-220(t3)
    8000393e:	8ef1                	and	a3,a3,a2
    80003940:	00665ab3          	srl	s5,a2,t1
    80003944:	3afd                	addiw	s5,s5,-1
    80003946:	f9ce4283          	lbu	t0,-100(t3)
    8000394a:	fffe0803          	lb	a6,-1(t3)
    8000394e:	f9ee4283          	lbu	t0,-98(t3)
    80003952:	01dc549b          	srliw	s1,s8,0x1d
    80003956:	f7be09a3          	sb	s11,-141(t3)
    8000395a:	41b5d01b          	sraiw	zero,a1,0x1b
    8000395e:	0f9e4283          	lbu	t0,249(t3)
    80003962:	41b5d01b          	sraiw	zero,a1,0x1b
    80003966:	437ad213          	srai	tp,s5,0x37
    8000396a:	03b1fcb3          	remu	s9,gp,s11
    8000396e:	f28e0803          	lb	a6,-216(t3)
    80003972:	437ad213          	srai	tp,s5,0x37
    80003976:	0c0e2703          	lw	a4,192(t3)
    8000397a:	f23e4283          	lbu	t0,-221(t3)
    8000397e:	fd5e2c23          	sw	s5,-40(t3)
    80003982:	413cd4bb          	sraw	s1,s9,s3
    80003986:	00d5863b          	addw	a2,a1,a3
    8000398a:	08fe4283          	lbu	t0,143(t3)
    8000398e:	fe0e3983          	ld	s3,-32(t3)
    80003992:	0001c717          	auipc	a4,0x1c
    80003996:	74070713          	addi	a4,a4,1856 # 800200d2 <region_1+0xd08a>
    8000399a:	02ad6ab3          	rem	s5,s10,a0
    8000399e:	ffa70903          	lb	s2,-6(a4)
    800039a2:	02e5b5b3          	mulhu	a1,a1,a4
    800039a6:	02399e33          	mulh	t3,s3,gp
    800039aa:	007780b3          	add	ra,a5,t2
    800039ae:	ffb70aa3          	sb	s11,-11(a4)
    800039b2:	00d74283          	lbu	t0,13(a4)
    800039b6:	e15cee13          	ori	t3,s9,-491
    800039ba:	db3e4a13          	xori	s4,t3,-589
    800039be:	fff74283          	lbu	t0,-1(a4)
    800039c2:	ff570903          	lb	s2,-11(a4)
    800039c6:	ff474283          	lbu	t0,-12(a4)
    800039ca:	00574283          	lbu	t0,5(a4)
    800039ce:	6fd9                	lui	t6,0x16
    800039d0:	8df1                	and	a1,a1,a2
    800039d2:	00475903          	lhu	s2,4(a4)
    800039d6:	fe071f23          	sh	zero,-2(a4)
    800039da:	b0c9fb13          	andi	s6,s3,-1268
    800039de:	01ff553b          	srlw	a0,t5,t6
    800039e2:	00275903          	lhu	s2,2(a4)
    800039e6:	f36d3393          	sltiu	t2,s10,-202
    800039ea:	ff673a03          	ld	s4,-10(a4)
    800039ee:	01075903          	lhu	s2,16(a4)
    800039f2:	8575                	srai	a0,a0,0x1d
    800039f4:	1a94                	addi	a3,sp,368
    800039f6:	ff770903          	lb	s2,-9(a4)
    800039fa:	194deb97          	auipc	s7,0x194de
    800039fe:	02ad6ab3          	rem	s5,s10,a0
    80003a02:	ff774283          	lbu	t0,-9(a4)
    80003a06:	ff074283          	lbu	t0,-16(a4)
    80003a0a:	00870903          	lb	s2,8(a4)
    80003a0e:	00d74283          	lbu	t0,13(a4)
    80003a12:	01e11933          	sll	s2,sp,t5
    80003a16:	00c74283          	lbu	t0,12(a4)
    80003a1a:	8999                	andi	a1,a1,6
    80003a1c:	ff070903          	lb	s2,-16(a4)
    80003a20:	ffb70823          	sb	s11,-16(a4)
    80003a24:	e15cee13          	ori	t3,s9,-491
    80003a28:	00770903          	lb	s2,7(a4)
    80003a2c:	00014117          	auipc	sp,0x14
    80003a30:	ab610113          	addi	sp,sp,-1354 # 800174e2 <region_1+0x449a>
    80003a34:	ff512923          	sw	s5,-14(sp)
    80003a38:	00815903          	lhu	s2,8(sp)
    80003a3c:	ff414303          	lbu	t1,-12(sp)
    80003a40:	02399e33          	mulh	t3,s3,gp
    80003a44:	ff611c83          	lh	s9,-10(sp)
    80003a48:	00914303          	lbu	t1,9(sp)
    80003a4c:	003b3db3          	sltu	s11,s6,gp
    80003a50:	01b104a3          	sb	s11,9(sp)
    80003a54:	01b107a3          	sb	s11,15(sp)
    80003a58:	00411c83          	lh	s9,4(sp)
    80003a5c:	03ae53bb          	divuw	t2,t3,s10
    80003a60:	00e14303          	lbu	t1,14(sp)
    80003a64:	89aa                	mv	s3,a0
    80003a66:	ff514303          	lbu	t1,-11(sp)
    80003a6a:	9d3d                	addw	a0,a0,a5
    80003a6c:	0806                	slli	a6,a6,0x1
    80003a6e:	8ef1                	and	a3,a3,a2
    80003a70:	ffa15903          	lhu	s2,-6(sp)
    80003a74:	6f59                	lui	t5,0x16
    80003a76:	02399e33          	mulh	t3,s3,gp
    80003a7a:	55d0ac13          	slti	s8,ra,1373
    80003a7e:	01b105a3          	sb	s11,11(sp)
    80003a82:	0001                	nop
    80003a84:	03b1fd33          	remu	s10,gp,s11
    80003a88:	ff910903          	lb	s2,-7(sp)
    80003a8c:	ff615903          	lhu	s2,-10(sp)
    80003a90:	ffb10da3          	sb	s11,-5(sp)
    80003a94:	ff410903          	lb	s2,-12(sp)
    80003a98:	ffb109a3          	sb	s11,-13(sp)
    80003a9c:	ff110903          	lb	s2,-15(sp)
    80003aa0:	00018117          	auipc	sp,0x18
    80003aa4:	b3410113          	addi	sp,sp,-1228 # 8001b5d4 <region_1+0x858c>
    80003aa8:	039b5733          	divu	a4,s6,s9
    80003aac:	d4e10903          	lb	s2,-690(sp)
    80003ab0:	194deb97          	auipc	s7,0x194de
    80003ab4:	5aa10903          	lb	s2,1450(sp)
    80003ab8:	8f05                	sub	a4,a4,s1
    80003aba:	cb510903          	lb	s2,-843(sp)
    80003abe:	e15cee13          	ori	t3,s9,-491
    80003ac2:	aa412803          	lw	a6,-1372(sp)
    80003ac6:	49b10ba3          	sb	s11,1175(sp)
    80003aca:	00494c33          	xor	s8,s2,tp
    80003ace:	89aa                	mv	s3,a0
    80003ad0:	9e11                	subw	a2,a2,a2
    80003ad2:	01ff55bb          	srlw	a1,t5,t6
    80003ad6:	8dc12803          	lw	a6,-1828(sp)
    80003ada:	02e99f13          	slli	t5,s3,0x2e
    80003ade:	03f882b3          	mul	t0,a7,t6
    80003ae2:	9e11                	subw	a2,a2,a2
    80003ae4:	03b1fd33          	remu	s10,gp,s11
    80003ae8:	00665b33          	srl	s6,a2,t1
    80003aec:	f36d3493          	sltiu	s1,s10,-202
    80003af0:	8eb5                	xor	a3,a3,a3
    80003af2:	89aa                	mv	s3,a0
    80003af4:	03f882b3          	mul	t0,a7,t6
    80003af8:	40d0df33          	sra	t5,ra,a3
    80003afc:	84011123          	sh	zero,-1982(sp)
    80003b00:	0001                	nop
    80003b02:	69512823          	sw	s5,1680(sp)
    80003b06:	413cd53b          	sraw	a0,s9,s3
    80003b0a:	02ad6ab3          	rem	s5,s10,a0
    80003b0e:	02ad6ab3          	rem	s5,s10,a0
    80003b12:	54615903          	lhu	s2,1350(sp)
    80003b16:	b0c9fb13          	andi	s6,s3,-1268
    80003b1a:	03ae53bb          	divuw	t2,t3,s10
    80003b1e:	8a19                	andi	a2,a2,6
    80003b20:	b0c9fb13          	andi	s6,s3,-1268
    80003b24:	003b3db3          	sltu	s11,s6,gp
    80003b28:	a5a10903          	lb	s2,-1446(sp)

0000000080003b2c <main_7>:
    80003b2c:	046000ef          	jal	80003b72 <main_7+0x46>
    80003b30:	006000ef          	jal	80003b36 <main_7+0xa>
    80003b34:	a0a9                	j	80003b7e <main_7+0x52>
    80003b36:	a031                	j	80003b42 <main_7+0x16>
    80003b38:	a801                	j	80003b48 <main_7+0x1c>
    80003b3a:	a80d                	j	80003b6c <main_7+0x40>
    80003b3c:	a025                	j	80003b64 <main_7+0x38>
    80003b3e:	022000ef          	jal	80003b60 <main_7+0x34>
    80003b42:	032000ef          	jal	80003b74 <main_7+0x48>
    80003b46:	a029                	j	80003b50 <main_7+0x24>
    80003b48:	020000ef          	jal	80003b68 <main_7+0x3c>
    80003b4c:	024000ef          	jal	80003b70 <main_7+0x44>
    80003b50:	fedff0ef          	jal	80003b3c <main_7+0x10>
    80003b54:	fe5ff0ef          	jal	80003b38 <main_7+0xc>
    80003b58:	ffdff0ef          	jal	80003b54 <main_7+0x28>
    80003b5c:	fe3ff0ef          	jal	80003b3e <main_7+0x12>
    80003b60:	a029                	j	80003b6a <main_7+0x3e>
    80003b62:	bfe1                	j	80003b3a <main_7+0xe>
    80003b64:	fcdff0ef          	jal	80003b30 <main_7+0x4>
    80003b68:	bff9                	j	80003b46 <main_7+0x1a>
    80003b6a:	b7cd                	j	80003b4c <main_7+0x20>
    80003b6c:	ff1ff0ef          	jal	80003b5c <main_7+0x30>
    80003b70:	a021                	j	80003b78 <main_7+0x4c>
    80003b72:	bfc5                	j	80003b62 <main_7+0x36>
    80003b74:	fc1ff0ef          	jal	80003b34 <main_7+0x8>
    80003b78:	004000ef          	jal	80003b7c <main_7+0x50>
    80003b7c:	bff1                	j	80003b58 <main_7+0x2c>
    80003b7e:	81f5                	srli	a1,a1,0x1d
    80003b80:	0000f697          	auipc	a3,0xf
    80003b84:	fb168693          	addi	a3,a3,-79 # 80012b31 <region_0+0xae9>
    80003b88:	0db68023          	sb	s11,192(a3)
    80003b8c:	0310a033          	mulhsu	zero,ra,a7
    80003b90:	f006c283          	lbu	t0,-256(a3)
    80003b94:	02399e33          	mulh	t3,s3,gp
    80003b98:	f1b683a3          	sb	s11,-249(a3)
    80003b9c:	fd56a3a3          	sw	s5,-57(a3)
    80003ba0:	f0468903          	lb	s2,-252(a3)
    80003ba4:	9e3d                	addw	a2,a2,a5
    80003ba6:	03668903          	lb	s2,54(a3)
    80003baa:	0b268903          	lb	s2,178(a3)
    80003bae:	0206c283          	lbu	t0,32(a3)
    80003bb2:	03ae533b          	divuw	t1,t3,s10
    80003bb6:	0156d903          	lhu	s2,21(a3)
    80003bba:	40168cb3          	sub	s9,a3,ra
    80003bbe:	8175                	srli	a0,a0,0x1d
    80003bc0:	b0c9fb13          	andi	s6,s3,-1268
    80003bc4:	f2e6c283          	lbu	t0,-210(a3)
    80003bc8:	0fb68a23          	sb	s11,244(a3)
    80003bcc:	fbb68ba3          	sb	s11,-73(a3)
    80003bd0:	05b681a3          	sb	s11,67(a3)
    80003bd4:	41950abb          	subw	s5,a0,s9
    80003bd8:	3b7d                	addiw	s6,s6,-1
    80003bda:	0f76a803          	lw	a6,247(a3)
    80003bde:	03b68823          	sb	s11,48(a3)
    80003be2:	0186c283          	lbu	t0,24(a3)
    80003be6:	f4768903          	lb	s2,-185(a3)
    80003bea:	00e6c283          	lbu	t0,14(a3)
    80003bee:	f376ba03          	ld	s4,-201(a3)
    80003bf2:	01ff553b          	srlw	a0,t5,t6
    80003bf6:	fdf6e083          	lwu	ra,-33(a3)
    80003bfa:	fac68903          	lb	s2,-84(a3)
    80003bfe:	f5b68023          	sb	s11,-192(a3)
    80003c02:	00017597          	auipc	a1,0x17
    80003c06:	35a58593          	addi	a1,a1,858 # 8001af5c <region_1+0x7f14>
    80003c0a:	00e58903          	lb	s2,14(a1)
    80003c0e:	00659c83          	lh	s9,6(a1)
    80003c12:	01dc549b          	srliw	s1,s8,0x1d
    80003c16:	413cd4bb          	sraw	s1,s9,s3
    80003c1a:	003b3db3          	sltu	s11,s6,gp
    80003c1e:	02e5b633          	mulhu	a2,a1,a4
    80003c22:	01ff553b          	srlw	a0,t5,t6
    80003c26:	01b58123          	sb	s11,2(a1)
    80003c2a:	00a58903          	lb	s2,10(a1)
    80003c2e:	01e11933          	sll	s2,sp,t5
    80003c32:	0001                	nop
    80003c34:	437ad213          	srai	tp,s5,0x37
    80003c38:	02399e33          	mulh	t3,s3,gp
    80003c3c:	1a98                	addi	a4,sp,368
    80003c3e:	00558903          	lb	s2,5(a1)
    80003c42:	f36d3393          	sltiu	t2,s10,-202
    80003c46:	ff45e083          	lwu	ra,-12(a1)
    80003c4a:	41950abb          	subw	s5,a0,s9
    80003c4e:	00251b3b          	sllw	s6,a0,sp
    80003c52:	ff558903          	lb	s2,-11(a1)
    80003c56:	03b1fd33          	remu	s10,gp,s11
    80003c5a:	0001                	nop
    80003c5c:	00c5c283          	lbu	t0,12(a1)
    80003c60:	ffd5c283          	lbu	t0,-3(a1)
    80003c64:	003b3db3          	sltu	s11,s6,gp
    80003c68:	02ad6ab3          	rem	s5,s10,a0
    80003c6c:	00119f9b          	slliw	t6,gp,0x1
    80003c70:	0005c283          	lbu	t0,0(a1)
    80003c74:	00758903          	lb	s2,7(a1)
    80003c78:	01b58123          	sb	s11,2(a1)
    80003c7c:	a1c90393          	addi	t2,s2,-1508
    80003c80:	8ed9                	or	a3,a3,a4
    80003c82:	8175                	srli	a0,a0,0x1d
    80003c84:	9ebd                	addw	a3,a3,a5
    80003c86:	db3e4a13          	xori	s4,t3,-589
    80003c8a:	03e1f23b          	remuw	tp,gp,t5
    80003c8e:	00494c33          	xor	s8,s2,tp
    80003c92:	41b5d01b          	sraiw	zero,a1,0x1b
    80003c96:	0055c283          	lbu	t0,5(a1)
    80003c9a:	00f5c283          	lbu	t0,15(a1)
    80003c9e:	0155a823          	sw	s5,16(a1)
    80003ca2:	5759                	li	a4,-10
    80003ca4:	9166                	add	sp,sp,s9
    80003ca6:	0001                	nop
    80003ca8:	003b3e33          	sltu	t3,s6,gp
    80003cac:	194dec17          	auipc	s8,0x194de

0000000080003cb0 <main_268_0_t>:
    80003cb0:	03f882b3          	mul	t0,a7,t6
    80003cb4:	03ae53bb          	divuw	t2,t3,s10
    80003cb8:	00119f1b          	slliw	t5,gp,0x1
    80003cbc:	00494cb3          	xor	s9,s2,tp
    80003cc0:	9e3d                	addw	a2,a2,a5
    80003cc2:	8d35                	xor	a0,a0,a3
    80003cc4:	03e1f2bb          	remuw	t0,gp,t5
    80003cc8:	02e99f93          	slli	t6,s3,0x2e
    80003ccc:	9e3d                	addw	a2,a2,a5
    80003cce:	0806                	slli	a6,a6,0x1
    80003cd0:	a1c90493          	addi	s1,s2,-1508
    80003cd4:	3074bab7          	lui	s5,0x3074b
    80003cd8:	8e05                	sub	a2,a2,s1
    80003cda:	003b3e33          	sltu	t3,s6,gp
    80003cde:	d4f78d9b          	addiw	s11,a5,-689
    80003ce2:	0df5                	addi	s11,s11,29
    80003ce4:	0001                	nop
    80003ce6:	0715                	addi	a4,a4,5
    80003ce8:	9d91                	subw	a1,a1,a2
    80003cea:	00251bbb          	sllw	s7,a0,sp
    80003cee:	00494cb3          	xor	s9,s2,tp
    80003cf2:	ff5d                	bnez	a4,80003cb0 <main_268_0_t>
    80003cf4:	02e99f93          	slli	t6,s3,0x2e
    80003cf8:	51d9                	li	gp,-10
    80003cfa:	585d                	li	a6,-9

0000000080003cfc <main_262_1_t>:
    80003cfc:	02d440bb          	divw	ra,s0,a3
    80003d00:	03e1f2bb          	remuw	t0,gp,t5
    80003d04:	0185                	addi	gp,gp,1
    80003d06:	4d01                	li	s10,0
    80003d08:	03b1feb3          	remu	t4,gp,s11
    80003d0c:	01dc551b          	srliw	a0,s8,0x1d
    80003d10:	473d                	li	a4,15

0000000080003d12 <main_262_0_t>:
    80003d12:	4305                	li	t1,1
    80003d14:	0d1d                	addi	s10,s10,7
    80003d16:	feed4ee3          	blt	s10,a4,80003d12 <main_262_0_t>
    80003d1a:	017ea4b3          	slt	s1,t4,s7
    80003d1e:	fd01cfe3          	blt	gp,a6,80003cfc <main_262_1_t>
    80003d22:	03b1feb3          	remu	t4,gp,s11
    80003d26:	0000f117          	auipc	sp,0xf
    80003d2a:	84110113          	addi	sp,sp,-1983 # 80012567 <region_0+0x51f>
    80003d2e:	f5014303          	lbu	t1,-176(sp)
    80003d32:	fab14303          	lbu	t1,-85(sp)
    80003d36:	fdb10223          	sb	s11,-60(sp)
    80003d3a:	09210903          	lb	s2,146(sp)
    80003d3e:	00e10903          	lb	s2,14(sp)
    80003d42:	fae10903          	lb	s2,-82(sp)
    80003d46:	f7111c83          	lh	s9,-143(sp)
    80003d4a:	437ad293          	srai	t0,s5,0x37
    80003d4e:	01e11933          	sll	s2,sp,t5
    80003d52:	f0f11c83          	lh	s9,-241(sp)
    80003d56:	8a19                	andi	a2,a2,6
    80003d58:	03ae53bb          	divuw	t2,t3,s10
    80003d5c:	f2c10903          	lb	s2,-212(sp)
    80003d60:	b0c9fb13          	andi	s6,s3,-1268
    80003d64:	01e11933          	sll	s2,sp,t5
    80003d68:	f7310903          	lb	s2,-141(sp)
    80003d6c:	00897533          	and	a0,s2,s0
    80003d70:	fdb15903          	lhu	s2,-37(sp)
    80003d74:	0310a033          	mulhsu	zero,ra,a7
    80003d78:	fc011da3          	sh	zero,-37(sp)
    80003d7c:	0eb15903          	lhu	s2,235(sp)
    80003d80:	f9b10423          	sb	s11,-120(sp)
    80003d84:	194deb97          	auipc	s7,0x194de
    80003d88:	55d0ac13          	slti	s8,ra,1373
    80003d8c:	8f59                	or	a4,a4,a4
    80003d8e:	f0010903          	lb	s2,-256(sp)
    80003d92:	04b14303          	lbu	t1,75(sp)
    80003d96:	f5711c83          	lh	s9,-169(sp)
    80003d9a:	8f59                	or	a4,a4,a4
    80003d9c:	fe014303          	lbu	t1,-32(sp)
    80003da0:	03e1f2bb          	remuw	t0,gp,t5
    80003da4:	a1c90493          	addi	s1,s2,-1508
    80003da8:	ffe10903          	lb	s2,-2(sp)
    80003dac:	0310a033          	mulhsu	zero,ra,a7
    80003db0:	fd814303          	lbu	t1,-40(sp)
    80003db4:	f5b10da3          	sb	s11,-165(sp)
    80003db8:	05b10223          	sb	s11,68(sp)
    80003dbc:	8f05                	sub	a4,a4,s1
    80003dbe:	55d0ac13          	slti	s8,ra,1373
    80003dc2:	9ead                	addw	a3,a3,a1
    80003dc4:	ff214303          	lbu	t1,-14(sp)
    80003dc8:	04814303          	lbu	t1,72(sp)
    80003dcc:	0001                	nop
    80003dce:	0bb104a3          	sb	s11,169(sp)
    80003dd2:	4e85                	li	t4,1
    80003dd4:	0a610903          	lb	s2,166(sp)
    80003dd8:	0dc14303          	lbu	t1,220(sp)
    80003ddc:	026165bb          	remw	a1,sp,t1
    80003de0:	55d0ac13          	slti	s8,ra,1373
    80003de4:	01e11933          	sll	s2,sp,t5
    80003de8:	8f59                	or	a4,a4,a4
    80003dea:	faf14303          	lbu	t1,-81(sp)
    80003dee:	01a4d313          	srli	t1,s1,0x1a
    80003df2:	f60115a3          	sh	zero,-149(sp)
    80003df6:	55d9                	li	a1,-10
    80003df8:	0001                	nop

0000000080003dfa <main_249_0_t>:
    80003dfa:	89aa                	mv	s3,a0
    80003dfc:	f36d3493          	sltiu	s1,s10,-202
    80003e00:	0595                	addi	a1,a1,5
    80003e02:	fde5                	bnez	a1,80003dfa <main_249_0_t>
    80003e04:	03e1f2bb          	remuw	t0,gp,t5
    80003e08:	00019597          	auipc	a1,0x19
    80003e0c:	a8758593          	addi	a1,a1,-1401 # 8001c88f <region_1+0x9847>
    80003e10:	9ebd                	addw	a3,a3,a5
    80003e12:	01b58223          	sb	s11,4(a1)
    80003e16:	8a19                	andi	a2,a2,6
    80003e18:	ff95d903          	lhu	s2,-7(a1)
    80003e1c:	00494c33          	xor	s8,s2,tp
    80003e20:	01b58423          	sb	s11,8(a1)
    80003e24:	413cd4bb          	sraw	s1,s9,s3
    80003e28:	03b1fd33          	remu	s10,gp,s11
    80003e2c:	00e58903          	lb	s2,14(a1)
    80003e30:	fe059ba3          	sh	zero,-9(a1)
    80003e34:	0310a033          	mulhsu	zero,ra,a7
    80003e38:	01058903          	lb	s2,16(a1)
    80003e3c:	008974b3          	and	s1,s2,s0
    80003e40:	0310a033          	mulhsu	zero,ra,a7
    80003e44:	8e71                	and	a2,a2,a2
    80003e46:	41950abb          	subw	s5,a0,s9
    80003e4a:	03e1f23b          	remuw	tp,gp,t5
    80003e4e:	0001                	nop
    80003e50:	1a98                	addi	a4,sp,368
    80003e52:	02ad6ab3          	rem	s5,s10,a0
    80003e56:	03e1f23b          	remuw	tp,gp,t5
    80003e5a:	3b7d                	addiw	s6,s6,-1
    80003e5c:	ffb58923          	sb	s11,-14(a1)
    80003e60:	40168cb3          	sub	s9,a3,ra
    80003e64:	ffb58fa3          	sb	s11,-1(a1)
    80003e68:	00b58903          	lb	s2,11(a1)
    80003e6c:	fe059ea3          	sh	zero,-3(a1)
    80003e70:	8d35                	xor	a0,a0,a3
    80003e72:	00251b3b          	sllw	s6,a0,sp
    80003e76:	01b58623          	sb	s11,12(a1)
    80003e7a:	01b58723          	sb	s11,14(a1)
    80003e7e:	9166                	add	sp,sp,s9
    80003e80:	0085c283          	lbu	t0,8(a1)
    80003e84:	ffb58f23          	sb	s11,-2(a1)
    80003e88:	6fd9                	lui	t6,0x16
    80003e8a:	ffb58b23          	sb	s11,-10(a1)
    80003e8e:	00b5c283          	lbu	t0,11(a1)
    80003e92:	ffc5c283          	lbu	t0,-4(a1)
    80003e96:	ffb58d23          	sb	s11,-6(a1)
    80003e9a:	9e11                	subw	a2,a2,a2
    80003e9c:	ffc5c283          	lbu	t0,-4(a1)
    80003ea0:	000595a3          	sh	zero,11(a1)
    80003ea4:	0001                	nop
    80003ea6:	9ead                	addw	a3,a3,a1
    80003ea8:	1a98                	addi	a4,sp,368
    80003eaa:	00a58903          	lb	s2,10(a1)
    80003eae:	9ead                	addw	a3,a3,a1
    80003eb0:	d4f78d1b          	addiw	s10,a5,-689
    80003eb4:	8575                	srai	a0,a0,0x1d
    80003eb6:	00058903          	lb	s2,0(a1)
    80003eba:	437ad213          	srai	tp,s5,0x37
    80003ebe:	ff05c283          	lbu	t0,-16(a1)
    80003ec2:	00f59c83          	lh	s9,15(a1)
    80003ec6:	00013117          	auipc	sp,0x13
    80003eca:	31610113          	addi	sp,sp,790 # 800171dc <region_1+0x4194>
    80003ece:	03f882b3          	mul	t0,a7,t6
    80003ed2:	fdb103a3          	sb	s11,-57(sp)
    80003ed6:	ffb102a3          	sb	s11,-27(sp)
    80003eda:	ff615903          	lhu	s2,-10(sp)
    80003ede:	02399e33          	mulh	t3,s3,gp
    80003ee2:	03b14303          	lbu	t1,59(sp)
    80003ee6:	0df5                	addi	s11,s11,29
    80003ee8:	fdf14303          	lbu	t1,-33(sp)
    80003eec:	01b10aa3          	sb	s11,21(sp)
    80003ef0:	fdb100a3          	sb	s11,-63(sp)
    80003ef4:	00b10903          	lb	s2,11(sp)
    80003ef8:	00e14303          	lbu	t1,14(sp)
    80003efc:	00119f9b          	slliw	t6,gp,0x1
    80003f00:	40d0df33          	sra	t5,ra,a3
    80003f04:	4642                	lw	a2,16(sp)
    80003f06:	fe310903          	lb	s2,-29(sp)
    80003f0a:	ff110903          	lb	s2,-15(sp)
    80003f0e:	02d440bb          	divw	ra,s0,a3
    80003f12:	03314303          	lbu	t1,51(sp)
    80003f16:	0001                	nop
    80003f18:	fd414303          	lbu	t1,-44(sp)
    80003f1c:	01dc551b          	srliw	a0,s8,0x1d
    80003f20:	00897533          	and	a0,s2,s0
    80003f24:	fd714303          	lbu	t1,-41(sp)
    80003f28:	8f05                	sub	a4,a4,s1
    80003f2a:	fc812803          	lw	a6,-56(sp)
    80003f2e:	85f5                	srai	a1,a1,0x1d
    80003f30:	02b14303          	lbu	t1,43(sp)
    80003f34:	02011f23          	sh	zero,62(sp)
    80003f38:	437ad293          	srai	t0,s5,0x37
    80003f3c:	01b10123          	sb	s11,2(sp)
    80003f40:	0001a117          	auipc	sp,0x1a
    80003f44:	d0510113          	addi	sp,sp,-763 # 8001dc45 <region_1+0xabfd>
    80003f48:	f36d3493          	sltiu	s1,s10,-202
    80003f4c:	1a315903          	lhu	s2,419(sp)
    80003f50:	db3e4a13          	xori	s4,t3,-589
    80003f54:	9ead                	addw	a3,a3,a1
    80003f56:	36414303          	lbu	t1,868(sp)
    80003f5a:	8ef1                	and	a3,a3,a2
    80003f5c:	7bd15903          	lhu	s2,1981(sp)
    80003f60:	59711c83          	lh	s9,1431(sp)
    80003f64:	4e85                	li	t4,1
    80003f66:	413cd53b          	sraw	a0,s9,s3
    80003f6a:	89214303          	lbu	t1,-1902(sp)
    80003f6e:	00251b3b          	sllw	s6,a0,sp
    80003f72:	200110a3          	sh	zero,513(sp)
    80003f76:	039b5733          	divu	a4,s6,s9
    80003f7a:	01f764b3          	or	s1,a4,t6
    80003f7e:	8ed11c83          	lh	s9,-1811(sp)
    80003f82:	8bb10723          	sb	s11,-1874(sp)
    80003f86:	40d0df33          	sra	t5,ra,a3
    80003f8a:	0d010903          	lb	s2,208(sp)
    80003f8e:	4c510903          	lb	s2,1221(sp)
    80003f92:	41b5d01b          	sraiw	zero,a1,0x1b
    80003f96:	413cd53b          	sraw	a0,s9,s3
    80003f9a:	29f10903          	lb	s2,671(sp)
    80003f9e:	ce011ea3          	sh	zero,-771(sp)
    80003fa2:	fbb10ba3          	sb	s11,-73(sp)
    80003fa6:	69b10623          	sb	s11,1676(sp)
    80003faa:	e9f12803          	lw	a6,-353(sp)
    80003fae:	01f764b3          	or	s1,a4,t6
    80003fb2:	6f59                	lui	t5,0x16
    80003fb4:	00119f9b          	slliw	t6,gp,0x1
    80003fb8:	03f882b3          	mul	t0,a7,t6
    80003fbc:	65414303          	lbu	t1,1620(sp)
    80003fc0:	f0c10903          	lb	s2,-244(sp)
    80003fc4:	52313a03          	ld	s4,1315(sp)
    80003fc8:	8f814303          	lbu	t1,-1800(sp)
    80003fcc:	08b13a03          	ld	s4,139(sp)
    80003fd0:	b0c9fb13          	andi	s6,s3,-1268
    80003fd4:	87410903          	lb	s2,-1932(sp)
    80003fd8:	02e99f13          	slli	t5,s3,0x2e
    80003fdc:	10614303          	lbu	t1,262(sp)
    80003fe0:	00494c33          	xor	s8,s2,tp
    80003fe4:	b8911c83          	lh	s9,-1143(sp)
    80003fe8:	dbb10823          	sb	s11,-592(sp)
    80003fec:	93b10023          	sb	s11,-1760(sp)
    80003ff0:	e15cee13          	ori	t3,s9,-491
    80003ff4:	0310a033          	mulhsu	zero,ra,a7
    80003ff8:	00494c33          	xor	s8,s2,tp
    80003ffc:	6f010903          	lb	s2,1776(sp)
    80004000:	db3e4a13          	xori	s4,t3,-589
    80004004:	01dc551b          	srliw	a0,s8,0x1d
    80004008:	03b10423          	sb	s11,40(sp)

000000008000400c <main_38>:
    8000400c:	010000ef          	jal	8000401c <main_38+0x10>
    80004010:	004000ef          	jal	80004014 <main_38+0x8>
    80004014:	a039                	j	80004022 <main_38+0x16>
    80004016:	a801                	j	80004026 <main_38+0x1a>
    80004018:	014000ef          	jal	8000402c <main_38+0x20>
    8000401c:	00e000ef          	jal	8000402a <main_38+0x1e>
    80004020:	bfc5                	j	80004010 <main_38+0x4>
    80004022:	a009                	j	80004024 <main_38+0x18>
    80004024:	bfd5                	j	80004018 <main_38+0xc>
    80004026:	ffbff0ef          	jal	80004020 <main_38+0x14>
    8000402a:	b7f5                	j	80004016 <main_38+0xa>
    8000402c:	003b3d33          	sltu	s10,s6,gp

0000000080004030 <main_10>:
    80004030:	026000ef          	jal	80004056 <main_10+0x26>
    80004034:	00a000ef          	jal	8000403e <main_10+0xe>
    80004038:	a039                	j	80004046 <main_10+0x16>
    8000403a:	018000ef          	jal	80004052 <main_10+0x22>
    8000403e:	a809                	j	80004050 <main_10+0x20>
    80004040:	a005                	j	80004060 <main_10+0x30>
    80004042:	00c000ef          	jal	8000404e <main_10+0x1e>
    80004046:	bfd5                	j	8000403a <main_10+0xa>
    80004048:	bfc5                	j	80004038 <main_10+0x8>
    8000404a:	014000ef          	jal	8000405e <main_10+0x2e>
    8000404e:	bff5                	j	8000404a <main_10+0x1a>
    80004050:	bfcd                	j	80004042 <main_10+0x12>
    80004052:	006000ef          	jal	80004058 <main_10+0x28>
    80004056:	bff9                	j	80004034 <main_10+0x4>
    80004058:	a009                	j	8000405a <main_10+0x2a>
    8000405a:	fe7ff0ef          	jal	80004040 <main_10+0x10>
    8000405e:	b7ed                	j	80004048 <main_10+0x18>
    80004060:	017ea3b3          	slt	t2,t4,s7
    80004064:	00011a97          	auipc	s5,0x11
    80004068:	9f0a8a93          	addi	s5,s5,-1552 # 80014a54 <region_1+0x1a0c>
    8000406c:	892a                	mv	s2,a0
    8000406e:	039a8803          	lb	a6,57(s5)
    80004072:	fe0a9423          	sh	zero,-24(s5)
    80004076:	194deb97          	auipc	s7,0x194de
    8000407a:	01ba8fa3          	sb	s11,31(s5)
    8000407e:	0310a033          	mulhsu	zero,ra,a7
    80004082:	1a88                	addi	a0,sp,368
    80004084:	fd2a8803          	lb	a6,-46(s5)
    80004088:	8f05                	sub	a4,a4,s1
    8000408a:	00dac283          	lbu	t0,13(s5)
    8000408e:	40168cb3          	sub	s9,a3,ra
    80004092:	03bac283          	lbu	t0,59(s5)
    80004096:	0706                	slli	a4,a4,0x1
    80004098:	ffba88a3          	sb	s11,-15(s5)
    8000409c:	ffba87a3          	sb	s11,-17(s5)
    800040a0:	01ff553b          	srlw	a0,t5,t6
    800040a4:	02e99f13          	slli	t5,s3,0x2e
    800040a8:	028ac283          	lbu	t0,40(s5)
    800040ac:	d4f78d1b          	addiw	s10,a5,-689
    800040b0:	017ea3b3          	slt	t2,t4,s7
    800040b4:	9e11                	subw	a2,a2,a2
    800040b6:	0706                	slli	a4,a4,0x1
    800040b8:	00d5863b          	addw	a2,a1,a3
    800040bc:	ffba80a3          	sb	s11,-31(s5)
    800040c0:	9e11                	subw	a2,a2,a2
    800040c2:	fe7ac283          	lbu	t0,-25(s5)
    800040c6:	fc0a9c83          	lh	s9,-64(s5)
    800040ca:	8f05                	sub	a4,a4,s1
    800040cc:	039ac283          	lbu	t0,57(s5)
    800040d0:	437ad213          	srai	tp,s5,0x37
    800040d4:	fdfa8803          	lb	a6,-33(s5)
    800040d8:	018ac283          	lbu	t0,24(s5)
    800040dc:	ff5a8803          	lb	a6,-11(s5)
    800040e0:	d4f78d1b          	addiw	s10,a5,-689
    800040e4:	00da8803          	lb	a6,13(s5)
    800040e8:	ff4a9c83          	lh	s9,-12(s5)
    800040ec:	fdda8803          	lb	a6,-35(s5)
    800040f0:	717d                	addi	sp,sp,-16
    800040f2:	024ab983          	ld	s3,36(s5)
    800040f6:	e15cee13          	ori	t3,s9,-491
    800040fa:	01e11833          	sll	a6,sp,t5
    800040fe:	ffba8aa3          	sb	s11,-11(s5)
    80004102:	e15cee13          	ori	t3,s9,-491
    80004106:	03caa703          	lw	a4,60(s5)
    8000410a:	0310a033          	mulhsu	zero,ra,a7
    8000410e:	00119f9b          	slliw	t6,gp,0x1
    80004112:	03b1fd33          	remu	s10,gp,s11
    80004116:	0001                	nop
    80004118:	8375                	srli	a4,a4,0x1d
    8000411a:	006ac283          	lbu	t0,6(s5)
    8000411e:	01ba85a3          	sb	s11,11(s5)
    80004122:	01dc549b          	srliw	s1,s8,0x1d
    80004126:	ff1ac283          	lbu	t0,-15(s5)
    8000412a:	fd5aae23          	sw	s5,-36(s5)
    8000412e:	b0c9fb13          	andi	s6,s3,-1268
    80004132:	fd4a8803          	lb	a6,-44(s5)
    80004136:	021a8803          	lb	a6,33(s5)
    8000413a:	033ac283          	lbu	t0,51(s5)
    8000413e:	018ab623          	sd	s8,12(s5)
    80004142:	0000f117          	auipc	sp,0xf
    80004146:	96710113          	addi	sp,sp,-1689 # 80012aa9 <region_0+0xa61>
    8000414a:	4e85                	li	t4,1
    8000414c:	8fb10423          	sb	s11,-1816(sp)
    80004150:	c6d14303          	lbu	t1,-915(sp)
    80004154:	4d511c83          	lh	s9,1237(sp)
    80004158:	0fe10903          	lb	s2,254(sp)
    8000415c:	48514303          	lbu	t1,1157(sp)
    80004160:	413cd53b          	sraw	a0,s9,s3
    80004164:	b2610903          	lb	s2,-1242(sp)
    80004168:	8375                	srli	a4,a4,0x1d
    8000416a:	21514303          	lbu	t1,533(sp)
    8000416e:	030d853b          	mulw	a0,s11,a6
    80004172:	32614303          	lbu	t1,806(sp)
    80004176:	01f764b3          	or	s1,a4,t6
    8000417a:	900111a3          	sh	zero,-1789(sp)
    8000417e:	40168cb3          	sub	s9,a3,ra
    80004182:	0df5                	addi	s11,s11,29
    80004184:	01a4d313          	srli	t1,s1,0x1a
    80004188:	41950abb          	subw	s5,a0,s9
    8000418c:	94011ea3          	sh	zero,-1699(sp)
    80004190:	54614303          	lbu	t1,1350(sp)
    80004194:	8d110903          	lb	s2,-1839(sp)
    80004198:	39b10623          	sb	s11,908(sp)
    8000419c:	bf515903          	lhu	s2,-1035(sp)
    800041a0:	01e11933          	sll	s2,sp,t5
    800041a4:	ab911c83          	lh	s9,-1351(sp)
    800041a8:	bdb10a23          	sb	s11,-1068(sp)
    800041ac:	99b10623          	sb	s11,-1652(sp)
    800041b0:	d4a10903          	lb	s2,-694(sp)
    800041b4:	96b11c83          	lh	s9,-1685(sp)
    800041b8:	8b610903          	lb	s2,-1866(sp)
    800041bc:	30312803          	lw	a6,771(sp)
    800041c0:	a0614303          	lbu	t1,-1530(sp)
    800041c4:	84b12803          	lw	a6,-1973(sp)
    800041c8:	026165bb          	remw	a1,sp,t1
    800041cc:	53b14303          	lbu	t1,1339(sp)
    800041d0:	9e11                	subw	a2,a2,a2
    800041d2:	1a0115a3          	sh	zero,427(sp)
    800041d6:	8ef1                	and	a3,a3,a2
    800041d8:	815121a3          	sw	s5,-2045(sp)
    800041dc:	22712803          	lw	a6,551(sp)
    800041e0:	27b10e23          	sb	s11,636(sp)
    800041e4:	fc214303          	lbu	t1,-62(sp)
    800041e8:	26a10903          	lb	s2,618(sp)
    800041ec:	0000e917          	auipc	s2,0xe
    800041f0:	70690913          	addi	s2,s2,1798 # 800128f2 <region_0+0x8aa>
    800041f4:	01ff553b          	srlw	a0,t5,t6
    800041f8:	03b1fd33          	remu	s10,gp,s11
    800041fc:	4e85                	li	t4,1
    800041fe:	00665b33          	srl	s6,a2,t1
    80004202:	00e96083          	lwu	ra,14(s2)
    80004206:	194deb97          	auipc	s7,0x194de
    8000420a:	ffa90803          	lb	a6,-6(s2)
    8000420e:	00091723          	sh	zero,14(s2)
    80004212:	02399e33          	mulh	t3,s3,gp
    80004216:	01dc549b          	srliw	s1,s8,0x1d
    8000421a:	8f05                	sub	a4,a4,s1
    8000421c:	003b3db3          	sltu	s11,s6,gp
    80004220:	0df5                	addi	s11,s11,29
    80004222:	017ea3b3          	slt	t2,t4,s7
    80004226:	9e11                	subw	a2,a2,a2
    80004228:	8eb5                	xor	a3,a3,a3
    8000422a:	ffb90ca3          	sb	s11,-7(s2)
    8000422e:	8375                	srli	a4,a4,0x1d
    80004230:	00994283          	lbu	t0,9(s2)
    80004234:	0310a033          	mulhsu	zero,ra,a7
    80004238:	0706                	slli	a4,a4,0x1
    8000423a:	ffb90da3          	sb	s11,-5(s2)
    8000423e:	ff190803          	lb	a6,-15(s2)
    80004242:	01e11833          	sll	a6,sp,t5
    80004246:	8ef1                	and	a3,a3,a2
    80004248:	00090803          	lb	a6,0(s2)
    8000424c:	0706                	slli	a4,a4,0x1
    8000424e:	ff994283          	lbu	t0,-7(s2)
    80004252:	01893723          	sd	s8,14(s2)
    80004256:	007780b3          	add	ra,a5,t2
    8000425a:	717d                	addi	sp,sp,-16
    8000425c:	8eb5                	xor	a3,a3,a3
    8000425e:	03f88233          	mul	tp,a7,t6
    80004262:	b0c9fb13          	andi	s6,s3,-1268
    80004266:	00c91c83          	lh	s9,12(s2)
    8000426a:	00017e17          	auipc	t3,0x17
    8000426e:	9b5e0e13          	addi	t3,t3,-1611 # 8001ac1f <region_1+0x7bd7>
    80004272:	ffae0803          	lb	a6,-6(t3)
    80004276:	01be0223          	sb	s11,4(t3)
    8000427a:	017ea3b3          	slt	t2,t4,s7
    8000427e:	009e3983          	ld	s3,9(t3)
    80004282:	003e5803          	lhu	a6,3(t3)
    80004286:	03b1fcb3          	remu	s9,gp,s11
    8000428a:	010e0803          	lb	a6,16(t3)
    8000428e:	fe0e18a3          	sh	zero,-15(t3)
    80004292:	ff7e0803          	lb	a6,-9(t3)
    80004296:	002e0803          	lb	a6,2(t3)
    8000429a:	ffbe0f23          	sb	s11,-2(t3)
    8000429e:	01be0423          	sb	s11,8(t3)
    800042a2:	ff4e0803          	lb	a6,-12(t3)
    800042a6:	002e0803          	lb	a6,2(t3)
    800042aa:	ff2e0803          	lb	a6,-14(t3)
    800042ae:	01be03a3          	sb	s11,7(t3)
    800042b2:	00fe5803          	lhu	a6,15(t3)
    800042b6:	005e4283          	lbu	t0,5(t3)
    800042ba:	fe0e1aa3          	sh	zero,-11(t3)
    800042be:	003b3d33          	sltu	s10,s6,gp
    800042c2:	85f5                	srai	a1,a1,0x1d
    800042c4:	3afd                	addiw	s5,s5,-1
    800042c6:	ff4e4283          	lbu	t0,-12(t3)
    800042ca:	db3e4993          	xori	s3,t3,-589
    800042ce:	001e3983          	ld	s3,1(t3)
    800042d2:	00494bb3          	xor	s7,s2,tp
    800042d6:	02e99f13          	slli	t5,s3,0x2e
    800042da:	40d0df33          	sra	t5,ra,a3
    800042de:	3074b9b7          	lui	s3,0x3074b
    800042e2:	000e4283          	lbu	t0,0(t3)
    800042e6:	fe0e18a3          	sh	zero,-15(t3)
    800042ea:	ff4e0803          	lb	a6,-12(t3)
    800042ee:	4d15                	li	s10,5
    800042f0:	4285                	li	t0,1
    800042f2:	017ea3b3          	slt	t2,t4,s7
    800042f6:	437ad213          	srai	tp,s5,0x37
    800042fa:	89aa                	mv	s3,a0
    800042fc:	4f91                	li	t6,4

00000000800042fe <main_271_1_t>:
    800042fe:	00d5863b          	addw	a2,a1,a3
    80004302:	00665bb3          	srl	s7,a2,t1
    80004306:	55d0ac93          	slti	s9,ra,1373
    8000430a:	1d79                	addi	s10,s10,-2
    8000430c:	e15cef13          	ori	t5,s9,-491
    80004310:	01dc549b          	srliw	s1,s8,0x1d
    80004314:	039b5733          	divu	a4,s6,s9
    80004318:	4aa5                	li	s5,9
    8000431a:	4691                	li	a3,4

000000008000431c <main_271_0_t>:
    8000431c:	0001                	nop
    8000431e:	03f88233          	mul	tp,a7,t6
    80004322:	717d                	addi	sp,sp,-16
    80004324:	00d5863b          	addw	a2,a1,a3
    80004328:	3074ba37          	lui	s4,0x3074b
    8000432c:	8df1                	and	a1,a1,a2
    8000432e:	1afd                	addi	s5,s5,-1
    80004330:	01e11933          	sll	s2,sp,t5
    80004334:	41950b3b          	subw	s6,a0,s9
    80004338:	003b3eb3          	sltu	t4,s6,gp
    8000433c:	fedaf0e3          	bgeu	s5,a3,8000431c <main_271_0_t>
    80004340:	fbfd7fe3          	bgeu	s10,t6,800042fe <main_271_1_t>
    80004344:	02d440bb          	divw	ra,s0,a3
    80004348:	0000e697          	auipc	a3,0xe
    8000434c:	e4368693          	addi	a3,a3,-445 # 8001218b <region_0+0x143>
    80004350:	28868903          	lb	s2,648(a3)
    80004354:	f7b68623          	sb	s11,-148(a3)
    80004358:	02d440bb          	divw	ra,s0,a3
    8000435c:	717d                	addi	sp,sp,-16
    8000435e:	5fd6c283          	lbu	t0,1533(a3)
    80004362:	00665b33          	srl	s6,a2,t1
    80004366:	1e36c283          	lbu	t0,483(a3)
    8000436a:	5436d903          	lhu	s2,1347(a3)
    8000436e:	74069da3          	sh	zero,1883(a3)
    80004372:	3816a803          	lw	a6,897(a3)
    80004376:	4bf69c83          	lh	s9,1215(a3)
    8000437a:	6fd9                	lui	t6,0x16
    8000437c:	8e05                	sub	a2,a2,s1
    8000437e:	53b68423          	sb	s11,1320(a3)
    80004382:	89aa                	mv	s3,a0
    80004384:	73b68723          	sb	s11,1838(a3)
    80004388:	f5b68123          	sb	s11,-190(a3)
    8000438c:	0fb68fa3          	sb	s11,255(a3)
    80004390:	7856a803          	lw	a6,1925(a3)
    80004394:	0df5                	addi	s11,s11,29
    80004396:	6b56e083          	lwu	ra,1717(a3)
    8000439a:	f2b6c283          	lbu	t0,-213(a3)
    8000439e:	6b36c283          	lbu	t0,1715(a3)
    800043a2:	30b68903          	lb	s2,779(a3)
    800043a6:	01dc549b          	srliw	s1,s8,0x1d
    800043aa:	4a26c283          	lbu	t0,1186(a3)
    800043ae:	4896a803          	lw	a6,1161(a3)
    800043b2:	0261653b          	remw	a0,sp,t1
    800043b6:	4376d903          	lhu	s2,1079(a3)
    800043ba:	7bb68623          	sb	s11,1964(a3)
    800043be:	f1b68223          	sb	s11,-252(a3)
    800043c2:	0001                	nop
    800043c4:	feb6d903          	lhu	s2,-21(a3)
    800043c8:	25d69c83          	lh	s9,605(a3)
    800043cc:	1cb68903          	lb	s2,459(a3)
    800043d0:	55d0ac13          	slti	s8,ra,1373
    800043d4:	017ea3b3          	slt	t2,t4,s7
    800043d8:	7e0691a3          	sh	zero,2019(a3)
    800043dc:	0000e917          	auipc	s2,0xe
    800043e0:	4dc90913          	addi	s2,s2,1244 # 800128b8 <region_0+0x870>
    800043e4:	b0c9fb13          	andi	s6,s3,-1268
    800043e8:	00990803          	lb	a6,9(s2)
    800043ec:	00494c33          	xor	s8,s2,tp
    800043f0:	003b3db3          	sltu	s11,s6,gp
    800043f4:	0db90aa3          	sb	s11,213(s2)
    800043f8:	717d                	addi	sp,sp,-16
    800043fa:	03b90d23          	sb	s11,58(s2)
    800043fe:	0d592423          	sw	s5,200(s2)
    80004402:	06c95803          	lhu	a6,108(s2)
    80004406:	06790803          	lb	a6,103(s2)
    8000440a:	039b56b3          	divu	a3,s6,s9
    8000440e:	f9390803          	lb	a6,-109(s2)
    80004412:	03b1fd33          	remu	s10,gp,s11
    80004416:	a1c90393          	addi	t2,s2,-1508
    8000441a:	02399e33          	mulh	t3,s3,gp
    8000441e:	0706                	slli	a4,a4,0x1
    80004420:	007780b3          	add	ra,a5,t2
    80004424:	55d0ac13          	slti	s8,ra,1373
    80004428:	00665b33          	srl	s6,a2,t1
    8000442c:	0fa95803          	lhu	a6,250(s2)
    80004430:	04190803          	lb	a6,65(s2)
    80004434:	fc894283          	lbu	t0,-56(s2)
    80004438:	4e85                	li	t4,1
    8000443a:	fda90803          	lb	a6,-38(s2)
    8000443e:	f3694283          	lbu	t0,-202(s2)
    80004442:	55d0ac13          	slti	s8,ra,1373
    80004446:	01b90f23          	sb	s11,30(s2)
    8000444a:	08590803          	lb	a6,133(s2)
    8000444e:	00119f9b          	slliw	t6,gp,0x1
    80004452:	04d90803          	lb	a6,77(s2)
    80004456:	f7790803          	lb	a6,-137(s2)
    8000445a:	02b94283          	lbu	t0,43(s2)
    8000445e:	8375                	srli	a4,a4,0x1d
    80004460:	03e1f23b          	remuw	tp,gp,t5
    80004464:	0b690803          	lb	a6,182(s2)
    80004468:	01f763b3          	or	t2,a4,t6
    8000446c:	ffb90123          	sb	s11,-30(s2)
    80004470:	f1890803          	lb	a6,-232(s2)
    80004474:	db3e4a13          	xori	s4,t3,-589
    80004478:	fbb90ca3          	sb	s11,-71(s2)
    8000447c:	03491c83          	lh	s9,52(s2)
    80004480:	4a89                	li	s5,2
    80004482:	5775                	li	a4,-3
    80004484:	02e5b633          	mulhu	a2,a1,a4

0000000080004488 <main_267_1_t>:
    80004488:	8a2a                	mv	s4,a0
    8000448a:	8e05                	sub	a2,a2,s1
    8000448c:	1ad9                	addi	s5,s5,-10
    8000448e:	429d                	li	t0,7
    80004490:	9e3d                	addw	a2,a2,a5
    80004492:	4d91                	li	s11,4
    80004494:	8e05                	sub	a2,a2,s1

0000000080004496 <main_267_0_t>:
    80004496:	00494d33          	xor	s10,s2,tp
    8000449a:	413cd53b          	sraw	a0,s9,s3
    8000449e:	12fd                	addi	t0,t0,-1
    800044a0:	03b1feb3          	remu	t4,gp,s11
    800044a4:	ffb2f9e3          	bgeu	t0,s11,80004496 <main_267_0_t>
    800044a8:	8df1                	and	a1,a1,a2
    800044aa:	40d0dc33          	sra	s8,ra,a3
    800044ae:	9d91                	subw	a1,a1,a2
    800044b0:	fceadce3          	bge	s5,a4,80004488 <main_267_1_t>
    800044b4:	e15cef93          	ori	t6,s9,-491
    800044b8:	00011697          	auipc	a3,0x11
    800044bc:	7e668693          	addi	a3,a3,2022 # 80015c9e <region_1+0x2c56>
    800044c0:	8e59                	or	a2,a2,a4
    800044c2:	fed68903          	lb	s2,-19(a3)
    800044c6:	09b68b23          	sb	s11,150(a3)
    800044ca:	06f68903          	lb	s2,111(a3)
    800044ce:	02e5b5b3          	mulhu	a1,a1,a4
    800044d2:	8d35                	xor	a0,a0,a3
    800044d4:	07b680a3          	sb	s11,97(a3)
    800044d8:	fa069023          	sh	zero,-96(a3)
    800044dc:	017ea3b3          	slt	t2,t4,s7
    800044e0:	f186bd23          	sd	s8,-230(a3)
    800044e4:	0ed6c283          	lbu	t0,237(a3)
    800044e8:	f836c283          	lbu	t0,-125(a3)
    800044ec:	fbb68823          	sb	s11,-80(a3)
    800044f0:	1a98                	addi	a4,sp,368
    800044f2:	4e85                	li	t4,1
    800044f4:	f1b68ca3          	sb	s11,-231(a3)
    800044f8:	9e3d                	addw	a2,a2,a5
    800044fa:	437ad213          	srai	tp,s5,0x37
    800044fe:	1a98                	addi	a4,sp,368
    80004500:	02399e33          	mulh	t3,s3,gp
    80004504:	9d91                	subw	a1,a1,a2
    80004506:	02d440bb          	divw	ra,s0,a3
    8000450a:	437ad213          	srai	tp,s5,0x37
    8000450e:	f026ba03          	ld	s4,-254(a3)
    80004512:	03c68903          	lb	s2,60(a3)
    80004516:	55d0ac13          	slti	s8,ra,1373
    8000451a:	02e5b5b3          	mulhu	a1,a1,a4
    8000451e:	9166                	add	sp,sp,s9
    80004520:	413cd4bb          	sraw	s1,s9,s3
    80004524:	008974b3          	and	s1,s2,s0
    80004528:	55d0ac13          	slti	s8,ra,1373
    8000452c:	0001                	nop
    8000452e:	02e5b5b3          	mulhu	a1,a1,a4
    80004532:	8e05                	sub	a2,a2,s1
    80004534:	01ff553b          	srlw	a0,t5,t6
    80004538:	f7f6c283          	lbu	t0,-129(a3)
    8000453c:	0df5                	addi	s11,s11,29
    8000453e:	f5b68423          	sb	s11,-184(a3)
    80004542:	f5b685a3          	sb	s11,-181(a3)
    80004546:	0816c283          	lbu	t0,129(a3)
    8000454a:	0a068903          	lb	s2,160(a3)
    8000454e:	0a668903          	lb	s2,166(a3)
    80004552:	f4f68903          	lb	s2,-177(a3)
    80004556:	fb26ba03          	ld	s4,-78(a3)
    8000455a:	0f669c83          	lh	s9,246(a3)
    8000455e:	02ad6ab3          	rem	s5,s10,a0
    80004562:	40168cb3          	sub	s9,a3,ra
    80004566:	f1568903          	lb	s2,-235(a3)
    8000456a:	ff36c283          	lbu	t0,-13(a3)
    8000456e:	03b68e23          	sb	s11,60(a3)
    80004572:	00015117          	auipc	sp,0x15
    80004576:	75810113          	addi	sp,sp,1880 # 80019cca <region_1+0x6c82>
    8000457a:	fdd10903          	lb	s2,-35(sp)
    8000457e:	01a10903          	lb	s2,26(sp)
    80004582:	fed10903          	lb	s2,-19(sp)
    80004586:	01512323          	sw	s5,6(sp)
    8000458a:	9ead                	addw	a3,a3,a1
    8000458c:	8eb5                	xor	a3,a3,a3
    8000458e:	017ea4b3          	slt	s1,t4,s7
    80004592:	db3e4a13          	xori	s4,t3,-589
    80004596:	03b1fd33          	remu	s10,gp,s11
    8000459a:	03b10023          	sb	s11,32(sp)
    8000459e:	db3e4a13          	xori	s4,t3,-589
    800045a2:	6f59                	lui	t5,0x16
    800045a4:	ffb106a3          	sb	s11,-19(sp)
    800045a8:	e15cee13          	ori	t3,s9,-491
    800045ac:	fde11c83          	lh	s9,-34(sp)
    800045b0:	fd710903          	lb	s2,-41(sp)
    800045b4:	02ad6ab3          	rem	s5,s10,a0
    800045b8:	02ad6ab3          	rem	s5,s10,a0
    800045bc:	01b108a3          	sb	s11,17(sp)
    800045c0:	8f05                	sub	a4,a4,s1
    800045c2:	02410903          	lb	s2,36(sp)
