
riscv_arithmetic_basic_test_0.o:     file format elf64-littleriscv


Disassembly of section .text:

0000000080000000 <_start>:
    80000000:	f14022f3          	csrr	t0,mhartid
    80000004:	4301                	li	t1,0
    80000006:	00628263          	beq	t0,t1,8000000a <_start+0xa>
    8000000a:	00000d17          	auipc	s10,0x0
    8000000e:	00cd0d13          	addi	s10,s10,12 # 80000016 <h0_start>
    80000012:	000d0067          	jr	s10

0000000080000016 <h0_start>:
    80000016:	fff00e1b          	addiw	t3,zero,-1
    8000001a:	1e4e                	slli	t3,t3,0x33
    8000001c:	0e05                	addi	t3,t3,1
    8000001e:	0e32                	slli	t3,t3,0xc
    80000020:	104e0e13          	addi	t3,t3,260
    80000024:	301e1073          	csrw	misa,t3

0000000080000028 <kernel_sp>:
    80000028:	0003b217          	auipc	tp,0x3b
    8000002c:	95820213          	addi	tp,tp,-1704 # 8003a980 <kernel_stack_end>

0000000080000030 <trap_vec_init>:
    80000030:	00018e17          	auipc	t3,0x18
    80000034:	990e0e13          	addi	t3,t3,-1648 # 800179c0 <mtvec_handler>
    80000038:	001e6e13          	ori	t3,t3,1
    8000003c:	305e1073          	csrw	mtvec,t3

0000000080000040 <mepc_setup>:
    80000040:	00000e17          	auipc	t3,0x0
    80000044:	022e0e13          	addi	t3,t3,34 # 80000062 <init>
    80000048:	341e1073          	csrw	mepc,t3

000000008000004c <custom_csr_setup>:
    8000004c:	0001                	nop

000000008000004e <init_machine_mode>:
    8000004e:	6e09                	lui	t3,0x2
    80000050:	800e0e1b          	addiw	t3,t3,-2048 # 1800 <_start-0x7fffe800>
    80000054:	300e1073          	csrw	mstatus,t3
    80000058:	4e01                	li	t3,0
    8000005a:	304e1073          	csrw	mie,t3
    8000005e:	30200073          	mret

0000000080000062 <init>:
    80000062:	00058037          	lui	zero,0x58
    80000066:	0f70001b          	addiw	zero,zero,247
    8000006a:	00d01013          	slli	zero,zero,0xd
    8000006e:	97000013          	li	zero,-1680
    80000072:	000f20b7          	lui	ra,0xf2
    80000076:	93b0809b          	addiw	ra,ra,-1733 # f193b <_start-0x7ff0e6c5>
    8000007a:	00b2                	slli	ra,ra,0xc
    8000007c:	e7a08093          	addi	ra,ra,-390
    80000080:	000f9137          	lui	sp,0xf9
    80000084:	7f51011b          	addiw	sp,sp,2037 # f97f5 <_start-0x7ff0680b>
    80000088:	0132                	slli	sp,sp,0xc
    8000008a:	15f10113          	addi	sp,sp,351
    8000008e:	4181                	li	gp,0
    80000090:	0010029b          	addiw	t0,zero,1
    80000094:	02fe                	slli	t0,t0,0x1f
    80000096:	4301                	li	t1,0
    80000098:	4401                	li	s0,0
    8000009a:	22efe4b7          	lui	s1,0x22efe
    8000009e:	8ad4849b          	addiw	s1,s1,-1875 # 22efd8ad <_start-0x5d102753>
    800000a2:	0003d537          	lui	a0,0x3d
    800000a6:	ce35051b          	addiw	a0,a0,-797 # 3cce3 <_start-0x7ffc331d>
    800000aa:	053a                	slli	a0,a0,0xe
    800000ac:	c3d50513          	addi	a0,a0,-963
    800000b0:	4581                	li	a1,0
    800000b2:	463d                	li	a2,15
    800000b4:	46bd                	li	a3,15
    800000b6:	0010071b          	addiw	a4,zero,1
    800000ba:	077e                	slli	a4,a4,0x1f
    800000bc:	0010079b          	addiw	a5,zero,1
    800000c0:	07fe                	slli	a5,a5,0x1f
    800000c2:	0003e837          	lui	a6,0x3e
    800000c6:	3d58081b          	addiw	a6,a6,981 # 3e3d5 <_start-0x7ffc1c2b>
    800000ca:	083a                	slli	a6,a6,0xe
    800000cc:	4fc80813          	addi	a6,a6,1276
    800000d0:	4881                	li	a7,0
    800000d2:	4901                	li	s2,0
    800000d4:	4981                	li	s3,0
    800000d6:	0007fa37          	lui	s4,0x7f
    800000da:	3a2d                	addiw	s4,s4,-21 # 7efeb <_start-0x7ff81015>
    800000dc:	0a36                	slli	s4,s4,0xd
    800000de:	b18a0a13          	addi	s4,s4,-1256
    800000e2:	4a81                	li	s5,0
    800000e4:	00100b1b          	addiw	s6,zero,1
    800000e8:	0b7e                	slli	s6,s6,0x1f
    800000ea:	4b9d                	li	s7,7
    800000ec:	00100c1b          	addiw	s8,zero,1
    800000f0:	0c7e                	slli	s8,s8,0x1f
    800000f2:	1720bcb7          	lui	s9,0x1720b
    800000f6:	d2cc8c9b          	addiw	s9,s9,-724 # 1720ad2c <_start-0x68df52d4>
    800000fa:	00100d1b          	addiw	s10,zero,1
    800000fe:	0d7e                	slli	s10,s10,0x1f
    80000100:	00100d9b          	addiw	s11,zero,1
    80000104:	0dfe                	slli	s11,s11,0x1f
    80000106:	00100e1b          	addiw	t3,zero,1
    8000010a:	0e7e                	slli	t3,t3,0x1f
    8000010c:	0003deb7          	lui	t4,0x3d
    80000110:	595e8e9b          	addiw	t4,t4,1429 # 3d595 <_start-0x7ffc2a6b>
    80000114:	0eba                	slli	t4,t4,0xe
    80000116:	dc9e8e93          	addi	t4,t4,-567
    8000011a:	4f29                	li	t5,10
    8000011c:	4f81                	li	t6,0
    8000011e:	00033397          	auipc	t2,0x33
    80000122:	b6238393          	addi	t2,t2,-1182 # 80032c80 <user_stack_end>

0000000080000126 <main>:
    80000126:	5965                	li	s2,-7
    80000128:	85b5                	srai	a1,a1,0xd
    8000012a:	0bd9                	addi	s7,s7,22
    8000012c:	9e01                	subw	a2,a2,s0
    8000012e:	401e5893          	srai	a7,t3,0x1
    80000132:	44a5                	li	s1,9
    80000134:	018042b3          	xor	t0,zero,s8
    80000138:	00be5ab3          	srl	s5,t3,a1

000000008000013c <main_233_1_t>:
    8000013c:	2e25                	addiw	t3,t3,9
    8000013e:	0915                	addi	s2,s2,5
    80000140:	02fd7f33          	remu	t5,s10,a5
    80000144:	4681                	li	a3,0
    80000146:	4ca1                	li	s9,8
    80000148:	4049d03b          	sraw	zero,s3,tp

000000008000014c <main_233_0_t>:
    8000014c:	002f6c33          	or	s8,t5,sp
    80000150:	0685                	addi	a3,a3,1
    80000152:	ff969de3          	bne	a3,s9,8000014c <main_233_0_t>
    80000156:	fe9963e3          	bltu	s2,s1,8000013c <main_233_1_t>
    8000015a:	ef697513          	andi	a0,s2,-266
    8000015e:	40a9                	li	ra,10
    80000160:	4529                	li	a0,10

0000000080000162 <main_264_0_t>:
    80000162:	e9870593          	addi	a1,a4,-360
    80000166:	10ed                	addi	ra,ra,-5
    80000168:	fea0fde3          	bgeu	ra,a0,80000162 <main_264_0_t>
    8000016c:	01375e3b          	srlw	t3,a4,s3

0000000080000170 <main_38>:
    80000170:	03a00eef          	jal	t4,800001aa <main_38+0x3a>
    80000174:	032000ef          	jal	800001a6 <main_38+0x36>
    80000178:	a835                	j	800001b4 <main_38+0x44>
    8000017a:	048000ef          	jal	800001c2 <main_38+0x52>
    8000017e:	a839                	j	8000019c <main_38+0x2c>
    80000180:	a03d                	j	800001ae <main_38+0x3e>
    80000182:	a835                	j	800001be <main_38+0x4e>
    80000184:	00e000ef          	jal	80000192 <main_38+0x22>
    80000188:	004000ef          	jal	8000018c <main_38+0x1c>
    8000018c:	a01d                	j	800001b2 <main_38+0x42>
    8000018e:	fe7ff0ef          	jal	80000174 <main_38+0x4>
    80000192:	008000ef          	jal	8000019a <main_38+0x2a>
    80000196:	030000ef          	jal	800001c6 <main_38+0x56>
    8000019a:	a809                	j	800001ac <main_38+0x3c>
    8000019c:	004000ef          	jal	800001a0 <main_38+0x30>
    800001a0:	fe3ff0ef          	jal	80000182 <main_38+0x12>
    800001a4:	b7ed                	j	8000018e <main_38+0x1e>
    800001a6:	fd9ff0ef          	jal	8000017e <main_38+0xe>
    800001aa:	bfe9                	j	80000184 <main_38+0x14>
    800001ac:	bfe5                	j	800001a4 <main_38+0x34>
    800001ae:	a021                	j	800001b6 <main_38+0x46>
    800001b0:	bfe1                	j	80000188 <main_38+0x18>
    800001b2:	a029                	j	800001bc <main_38+0x4c>
    800001b4:	b7f1                	j	80000180 <main_38+0x10>
    800001b6:	014000ef          	jal	800001ca <main_38+0x5a>
    800001ba:	bfdd                	j	800001b0 <main_38+0x40>
    800001bc:	bfe9                	j	80000196 <main_38+0x26>
    800001be:	ffdff0ef          	jal	800001ba <main_38+0x4a>
    800001c2:	fb7ff0ef          	jal	80000178 <main_38+0x8>
    800001c6:	fb5ff0ef          	jal	8000017a <main_38+0xa>
    800001ca:	03b6c83b          	divw	a6,a3,s11
    800001ce:	587d                	li	a6,-1
    800001d0:	d1534593          	xori	a1,t1,-747
    800001d4:	4fa9                	li	t6,10
    800001d6:	8435                	srai	s0,s0,0xd
    800001d8:	005e9433          	sll	s0,t4,t0
    800001dc:	018042b3          	xor	t0,zero,s8
    800001e0:	fbe33e93          	sltiu	t4,t1,-66
    800001e4:	00be59b3          	srl	s3,t3,a1

00000000800001e8 <main_365_0_t>:
    800001e8:	fbe33e93          	sltiu	t4,t1,-66
    800001ec:	997d                	andi	a0,a0,-1
    800001ee:	02e482bb          	mulw	t0,s1,a4
    800001f2:	823d                	srli	a2,a2,0xf
    800001f4:	00be59b3          	srl	s3,t3,a1
    800001f8:	080d                	addi	a6,a6,3
    800001fa:	44b5                	li	s1,13
    800001fc:	9b3a                	add	s6,s6,a4
    800001fe:	0005d11b          	srliw	sp,a1,0x0
    80000202:	8f3d                	xor	a4,a4,a5
    80000204:	44b5                	li	s1,13
    80000206:	02e482bb          	mulw	t0,s1,a4
    8000020a:	02e482bb          	mulw	t0,s1,a4
    8000020e:	0001                	nop
    80000210:	fdf84ce3          	blt	a6,t6,800001e8 <main_365_0_t>
    80000214:	e9870493          	addi	s1,a4,-360
    80000218:	57f1                	li	a5,-4
    8000021a:	0114fdb3          	and	s11,s1,a7
    8000021e:	02fd7e33          	remu	t3,s10,a5
    80000222:	0001                	nop
    80000224:	01d1b6b3          	sltu	a3,gp,t4
    80000228:	020519b3          	mulh	s3,a0,zero
    8000022c:	02fd7e33          	remu	t3,s10,a5
    80000230:	0ad9                	addi	s5,s5,22
    80000232:	41f8569b          	sraiw	a3,a6,0x1f
    80000236:	9b3a                	add	s6,s6,a4
    80000238:	0001                	nop
    8000023a:	008f1d93          	slli	s11,t5,0x8
    8000023e:	9b3a                	add	s6,s6,a4
    80000240:	8cbd                	xor	s1,s1,a5

0000000080000242 <main_341_0_t>:
    80000242:	4db5                	li	s11,13
    80000244:	005e94b3          	sll	s1,t4,t0
    80000248:	406d073b          	subw	a4,s10,t1
    8000024c:	0791                	addi	a5,a5,4
    8000024e:	0130a0b3          	slt	ra,ra,s3
    80000252:	dbe5                	beqz	a5,80000242 <main_341_0_t>
    80000254:	01375e3b          	srlw	t3,a4,s3
    80000258:	586d                	li	a6,-5
    8000025a:	ef697513          	andi	a0,s2,-266
    8000025e:	4a3d                	li	s4,15
    80000260:	03693533          	mulhu	a0,s2,s6

0000000080000264 <main_338_1_t>:
    80000264:	2da5                	addiw	s11,s11,9
    80000266:	0811                	addi	a6,a6,4
    80000268:	02e4833b          	mulw	t1,s1,a4
    8000026c:	813d                	srli	a0,a0,0xf
    8000026e:	02e4833b          	mulw	t1,s1,a4
    80000272:	ef697513          	andi	a0,s2,-266
    80000276:	fbe33513          	sltiu	a0,t1,-66
    8000027a:	5769                	li	a4,-6
    8000027c:	cc360d9b          	addiw	s11,a2,-829
    80000280:	03a8dcbb          	divuw	s9,a7,s10
    80000284:	03646333          	rem	t1,s0,s6
    80000288:	01804333          	xor	t1,zero,s8
    8000028c:	0114feb3          	and	t4,s1,a7
    80000290:	d6bdfbb7          	lui	s7,0xd6bdf
    80000294:	0001                	nop
    80000296:	035efcbb          	remuw	s9,t4,s5
    8000029a:	016f1c3b          	sllw	s8,t5,s6

000000008000029e <main_338_0_t>:
    8000029e:	0001                	nop
    800002a0:	8cbd                	xor	s1,s1,a5
    800002a2:	070d                	addi	a4,a4,3
    800002a4:	ff6d                	bnez	a4,8000029e <main_338_0_t>
    800002a6:	8cbd                	xor	s1,s1,a5
    800002a8:	9bfd                	andi	a5,a5,-1
    800002aa:	fb481de3          	bne	a6,s4,80000264 <main_338_1_t>
    800002ae:	03b6c9bb          	divw	s3,a3,s11
    800002b2:	4489                	li	s1,2
    800002b4:	0001                	nop
    800002b6:	4001dcb3          	sra	s9,gp,zero
    800002ba:	8d3d                	xor	a0,a0,a5

00000000800002bc <main_220_0_t>:
    800002bc:	ef697593          	andi	a1,s2,-266
    800002c0:	14f9                	addi	s1,s1,-2
    800002c2:	406d07bb          	subw	a5,s10,t1
    800002c6:	8735                	srai	a4,a4,0xd
    800002c8:	0001                	nop
    800002ca:	0a88                	addi	a0,sp,336
    800002cc:	d8e5                	beqz	s1,800002bc <main_220_0_t>
    800002ce:	9b3a                	add	s6,s6,a4
    800002d0:	5569                	li	a0,-6
    800002d2:	01d1b733          	sltu	a4,gp,t4
    800002d6:	03b6c93b          	divw	s2,a3,s11
    800002da:	03580eb3          	mul	t4,a6,s5
    800002de:	008f1d93          	slli	s11,t5,0x8
    800002e2:	0001                	nop
    800002e4:	006e00bb          	addw	ra,t3,t1
    800002e8:	2571e313          	ori	t1,gp,599
    800002ec:	9b3a                	add	s6,s6,a4
    800002ee:	03434cb3          	div	s9,t1,s4
    800002f2:	8cbd                	xor	s1,s1,a5
    800002f4:	006d0a33          	add	s4,s10,t1
    800002f8:	ef697593          	andi	a1,s2,-266
    800002fc:	9b3a                	add	s6,s6,a4
    800002fe:	6a55                	lui	s4,0x15
    80000300:	0348dc33          	divu	s8,a7,s4

0000000080000304 <main_325_0_t>:
    80000304:	82c6                	mv	t0,a7
    80000306:	0a84                	addi	s1,sp,336
    80000308:	036935b3          	mulhu	a1,s2,s6
    8000030c:	cc360c1b          	addiw	s8,a2,-829
    80000310:	01804333          	xor	t1,zero,s8
    80000314:	0a84                	addi	s1,sp,336
    80000316:	020519b3          	mulh	s3,a0,zero
    8000031a:	d1534693          	xori	a3,t1,-747
    8000031e:	0509                	addi	a0,a0,2
    80000320:	9b3a                	add	s6,s6,a4
    80000322:	d16d                	beqz	a0,80000304 <main_325_0_t>
    80000324:	03b6c93b          	divw	s2,a3,s11

0000000080000328 <main_191>:
    80000328:	03200eef          	jal	t4,8000035a <main_191+0x32>
    8000032c:	008000ef          	jal	80000334 <main_191+0xc>
    80000330:	a805                	j	80000360 <main_191+0x38>
    80000332:	bfed                	j	8000032c <main_191+0x4>
    80000334:	032000ef          	jal	80000366 <main_191+0x3e>
    80000338:	ffbff0ef          	jal	80000332 <main_191+0xa>
    8000033c:	020000ef          	jal	8000035c <main_191+0x34>
    80000340:	bff5                	j	8000033c <main_191+0x14>
    80000342:	02a000ef          	jal	8000036c <main_191+0x44>
    80000346:	a839                	j	80000364 <main_191+0x3c>
    80000348:	004000ef          	jal	8000034c <main_191+0x24>
    8000034c:	01e000ef          	jal	8000036a <main_191+0x42>
    80000350:	fe1ff0ef          	jal	80000330 <main_191+0x8>
    80000354:	ff5ff0ef          	jal	80000348 <main_191+0x20>
    80000358:	a029                	j	80000362 <main_191+0x3a>
    8000035a:	bfed                	j	80000354 <main_191+0x2c>
    8000035c:	bfd5                	j	80000350 <main_191+0x28>
    8000035e:	b7cd                	j	80000340 <main_191+0x18>
    80000360:	b7dd                	j	80000346 <main_191+0x1e>
    80000362:	bff5                	j	8000035e <main_191+0x36>
    80000364:	bfd1                	j	80000338 <main_191+0x10>
    80000366:	fddff0ef          	jal	80000342 <main_191+0x1a>
    8000036a:	b7fd                	j	80000358 <main_191+0x30>
    8000036c:	018042b3          	xor	t0,zero,s8

0000000080000370 <main_26>:
    80000370:	00800eef          	jal	t4,80000378 <main_26+0x8>
    80000374:	a031                	j	80000380 <main_26+0x10>
    80000376:	a021                	j	8000037e <main_26+0xe>
    80000378:	bffd                	j	80000376 <main_26+0x6>
    8000037a:	010000ef          	jal	8000038a <main_26+0x1a>
    8000037e:	bff5                	j	8000037a <main_26+0xa>
    80000380:	006000ef          	jal	80000386 <main_26+0x16>
    80000384:	a011                	j	80000388 <main_26+0x18>
    80000386:	a019                	j	8000038c <main_26+0x1c>
    80000388:	b7f5                	j	80000374 <main_26+0x4>
    8000038a:	a011                	j	8000038e <main_26+0x1e>
    8000038c:	a019                	j	80000392 <main_26+0x22>
    8000038e:	ff7ff0ef          	jal	80000384 <main_26+0x14>
    80000392:	00be5933          	srl	s2,t3,a1

0000000080000396 <main_36>:
    80000396:	02600eef          	jal	t4,800003bc <main_36+0x26>
    8000039a:	020000ef          	jal	800003ba <main_36+0x24>
    8000039e:	a029                	j	800003a8 <main_36+0x12>
    800003a0:	a011                	j	800003a4 <main_36+0xe>
    800003a2:	bff5                	j	8000039e <main_36+0x8>
    800003a4:	006000ef          	jal	800003aa <main_36+0x14>
    800003a8:	a039                	j	800003b6 <main_36+0x20>
    800003aa:	a831                	j	800003c6 <main_36+0x30>
    800003ac:	00c000ef          	jal	800003b8 <main_36+0x22>
    800003b0:	febff0ef          	jal	8000039a <main_36+0x4>
    800003b4:	b7fd                	j	800003a2 <main_36+0xc>
    800003b6:	bfdd                	j	800003ac <main_36+0x16>
    800003b8:	a019                	j	800003be <main_36+0x28>
    800003ba:	a019                	j	800003c0 <main_36+0x2a>
    800003bc:	bfe5                	j	800003b4 <main_36+0x1e>
    800003be:	a011                	j	800003c2 <main_36+0x2c>
    800003c0:	b7c5                	j	800003a0 <main_36+0xa>
    800003c2:	fefff0ef          	jal	800003b0 <main_36+0x1a>
    800003c6:	2ba5                	addiw	s7,s7,9 # ffffffffd6bdf009 <_end+0xffffffff56ba4681>

00000000800003c8 <main_62>:
    800003c8:	03400eef          	jal	t4,800003fc <main_62+0x34>
    800003cc:	00a000ef          	jal	800003d6 <main_62+0xe>
    800003d0:	a829                	j	800003ea <main_62+0x22>
    800003d2:	ffbff0ef          	jal	800003cc <main_62+0x4>
    800003d6:	a805                	j	80000406 <main_62+0x3e>
    800003d8:	040000ef          	jal	80000418 <main_62+0x50>
    800003dc:	04a000ef          	jal	80000426 <main_62+0x5e>
    800003e0:	040000ef          	jal	80000420 <main_62+0x58>
    800003e4:	fefff0ef          	jal	800003d2 <main_62+0xa>
    800003e8:	a819                	j	800003fe <main_62+0x36>
    800003ea:	004000ef          	jal	800003ee <main_62+0x26>
    800003ee:	bfdd                	j	800003e4 <main_62+0x1c>
    800003f0:	01c000ef          	jal	8000040c <main_62+0x44>
    800003f4:	00c000ef          	jal	80000400 <main_62+0x38>
    800003f8:	bfe5                	j	800003f0 <main_62+0x28>
    800003fa:	b7cd                	j	800003dc <main_62+0x14>
    800003fc:	bffd                	j	800003fa <main_62+0x32>
    800003fe:	a839                	j	8000041c <main_62+0x54>
    80000400:	004000ef          	jal	80000404 <main_62+0x3c>
    80000404:	b7f1                	j	800003d0 <main_62+0x8>
    80000406:	fe3ff0ef          	jal	800003e8 <main_62+0x20>
    8000040a:	bfd9                	j	800003e0 <main_62+0x18>
    8000040c:	004000ef          	jal	80000410 <main_62+0x48>
    80000410:	fe5ff0ef          	jal	800003f4 <main_62+0x2c>
    80000414:	fe5ff0ef          	jal	800003f8 <main_62+0x30>
    80000418:	bff5                	j	80000414 <main_62+0x4c>
    8000041a:	bfc5                	j	8000040a <main_62+0x42>
    8000041c:	006000ef          	jal	80000422 <main_62+0x5a>
    80000420:	a029                	j	8000042a <main_62+0x62>
    80000422:	ff9ff0ef          	jal	8000041a <main_62+0x52>
    80000426:	fb3ff0ef          	jal	800003d8 <main_62+0x10>
    8000042a:	4049d03b          	sraw	zero,s3,tp
    8000042e:	4b8d                	li	s7,3
    80000430:	57e9                	li	a5,-6

0000000080000432 <main_360_1_t>:
    80000432:	03693533          	mulhu	a0,s2,s6
    80000436:	1bdd                	addi	s7,s7,-9
    80000438:	4409                	li	s0,2
    8000043a:	5b6d                	li	s6,-5

000000008000043c <main_360_0_t>:
    8000043c:	2e25                	addiw	t3,t3,9
    8000043e:	1465                	addi	s0,s0,-7
    80000440:	ff640ee3          	beq	s0,s6,8000043c <main_360_0_t>
    80000444:	fefb87e3          	beq	s7,a5,80000432 <main_360_1_t>
    80000448:	6ad5                	lui	s5,0x15
    8000044a:	4ba5                	li	s7,9
    8000044c:	0348dc33          	divu	s8,a7,s4
    80000450:	9c31                	addw	s0,s0,a2
    80000452:	9c31                	addw	s0,s0,a2
    80000454:	fbe33f13          	sltiu	t5,t1,-66
    80000458:	44b5                	li	s1,13
    8000045a:	02eadd93          	srli	s11,s5,0x2e
    8000045e:	4049d03b          	sraw	zero,s3,tp
    80000462:	03fe2b33          	mulhsu	s6,t3,t6
    80000466:	4921                	li	s2,8
    80000468:	002f6b33          	or	s6,t5,sp
    8000046c:	8fd1                	or	a5,a5,a2

000000008000046e <main_242_0_t>:
    8000046e:	03b6c83b          	divw	a6,a3,s11
    80000472:	0a84                	addi	s1,sp,336
    80000474:	006e003b          	addw	zero,t3,t1
    80000478:	03580eb3          	mul	t4,a6,s5
    8000047c:	1bf1                	addi	s7,s7,-4
    8000047e:	03b6c83b          	divw	a6,a3,s11
    80000482:	d1534593          	xori	a1,t1,-747
    80000486:	d6bdfa37          	lui	s4,0xd6bdf
    8000048a:	03580eb3          	mul	t4,a6,s5
    8000048e:	01375e3b          	srlw	t3,a4,s3
    80000492:	4001dcb3          	sra	s9,gp,zero
    80000496:	fd2bfce3          	bgeu	s7,s2,8000046e <main_242_0_t>
    8000049a:	6a55                	lui	s4,0x15

000000008000049c <main_156>:
    8000049c:	03800eef          	jal	t4,800004d4 <main_156+0x38>
    800004a0:	a081                	j	800004e0 <main_156+0x44>
    800004a2:	00a000ef          	jal	800004ac <main_156+0x10>
    800004a6:	a801                	j	800004b6 <main_156+0x1a>
    800004a8:	030000ef          	jal	800004d8 <main_156+0x3c>
    800004ac:	03e000ef          	jal	800004ea <main_156+0x4e>
    800004b0:	ff1ff0ef          	jal	800004a0 <main_156+0x4>
    800004b4:	a831                	j	800004d0 <main_156+0x34>
    800004b6:	a029                	j	800004c0 <main_156+0x24>
    800004b8:	bff5                	j	800004b4 <main_156+0x18>
    800004ba:	fedff0ef          	jal	800004a6 <main_156+0xa>
    800004be:	a019                	j	800004c4 <main_156+0x28>
    800004c0:	a021                	j	800004c8 <main_156+0x2c>
    800004c2:	b7c5                	j	800004a2 <main_156+0x6>
    800004c4:	016000ef          	jal	800004da <main_156+0x3e>
    800004c8:	016000ef          	jal	800004de <main_156+0x42>
    800004cc:	fefff0ef          	jal	800004ba <main_156+0x1e>
    800004d0:	b7c5                	j	800004b0 <main_156+0x14>
    800004d2:	a801                	j	800004e2 <main_156+0x46>
    800004d4:	fd5ff0ef          	jal	800004a8 <main_156+0xc>
    800004d8:	b7c5                	j	800004b8 <main_156+0x1c>
    800004da:	ff3ff0ef          	jal	800004cc <main_156+0x30>
    800004de:	a809                	j	800004f0 <main_156+0x54>
    800004e0:	a031                	j	800004ec <main_156+0x50>
    800004e2:	fe1ff0ef          	jal	800004c2 <main_156+0x26>
    800004e6:	fd9ff0ef          	jal	800004be <main_156+0x22>
    800004ea:	bff5                	j	800004e6 <main_156+0x4a>
    800004ec:	fe7ff0ef          	jal	800004d2 <main_156+0x36>
    800004f0:	82c6                	mv	t0,a7
    800004f2:	5be1                	li	s7,-8
    800004f4:	006e003b          	addw	zero,t3,t1
    800004f8:	02eadd93          	srli	s11,s5,0x2e
    800004fc:	e9870493          	addi	s1,a4,-360
    80000500:	020518b3          	mulh	a7,a0,zero
    80000504:	036462b3          	rem	t0,s0,s6
    80000508:	02fd7e33          	remu	t3,s10,a5
    8000050c:	02e482bb          	mulw	t0,s1,a4
    80000510:	5c6d                	li	s8,-5
    80000512:	406d06bb          	subw	a3,s10,t1
    80000516:	823d                	srli	a2,a2,0xf
    80000518:	01f9901b          	slliw	zero,s3,0x1f
    8000051c:	0001                	nop
    8000051e:	4049d03b          	sraw	zero,s3,tp

0000000080000522 <main_359_0_t>:
    80000522:	82c6                	mv	t0,a7
    80000524:	0001                	nop
    80000526:	8fd1                	or	a5,a5,a2
    80000528:	02e482bb          	mulw	t0,s1,a4
    8000052c:	8f3d                	xor	a4,a4,a5
    8000052e:	03a8dabb          	divuw	s5,a7,s10
    80000532:	0b89                	addi	s7,s7,2
    80000534:	018042b3          	xor	t0,zero,s8
    80000538:	ff8bc5e3          	blt	s7,s8,80000522 <main_359_0_t>
    8000053c:	e9870493          	addi	s1,a4,-360

0000000080000540 <main_68>:
    80000540:	00a00eef          	jal	t4,8000054a <main_68+0xa>
    80000544:	a829                	j	8000055e <main_68+0x1e>
    80000546:	012000ef          	jal	80000558 <main_68+0x18>
    8000054a:	a011                	j	8000054e <main_68+0xe>
    8000054c:	a819                	j	80000562 <main_68+0x22>
    8000054e:	00e000ef          	jal	8000055c <main_68+0x1c>
    80000552:	bfed                	j	8000054c <main_68+0xc>
    80000554:	fffff0ef          	jal	80000552 <main_68+0x12>
    80000558:	008000ef          	jal	80000560 <main_68+0x20>
    8000055c:	b7e5                	j	80000544 <main_68+0x4>
    8000055e:	b7e5                	j	80000546 <main_68+0x6>
    80000560:	bfd5                	j	80000554 <main_68+0x14>
    80000562:	6c10a193          	slti	gp,ra,1729
    80000566:	4825                	li	a6,9
    80000568:	002f6bb3          	or	s7,t5,sp
    8000056c:	01f9901b          	slliw	zero,s3,0x1f
    80000570:	008f1d93          	slli	s11,t5,0x8
    80000574:	8435                	srai	s0,s0,0xd
    80000576:	03693533          	mulhu	a0,s2,s6
    8000057a:	020519b3          	mulh	s3,a0,zero
    8000057e:	03a8dbbb          	divuw	s7,a7,s10
    80000582:	9c31                	addw	s0,s0,a2
    80000584:	41d70c33          	sub	s8,a4,t4
    80000588:	cc360c1b          	addiw	s8,a2,-829
    8000058c:	006e003b          	addw	zero,t3,t1
    80000590:	03a8dbbb          	divuw	s7,a7,s10
    80000594:	2571e313          	ori	t1,gp,599
    80000598:	9e81                	subw	a3,a3,s0
    8000059a:	8f7d                	and	a4,a4,a5
    8000059c:	03580eb3          	mul	t4,a6,s5
    800005a0:	0130a033          	slt	zero,ra,s3
    800005a4:	51ed                	li	gp,-5

00000000800005a6 <main_235_0_t>:
    800005a6:	03646333          	rem	t1,s0,s6
    800005aa:	406d073b          	subw	a4,s10,t1
    800005ae:	03a8dbbb          	divuw	s7,a7,s10
    800005b2:	1879                	addi	a6,a6,-2
    800005b4:	d6bdfab7          	lui	s5,0xd6bdf
    800005b8:	002f6bb3          	or	s7,t5,sp
    800005bc:	8346                	mv	t1,a7
    800005be:	fe3804e3          	beq	a6,gp,800005a6 <main_235_0_t>
    800005c2:	4049d03b          	sraw	zero,s3,tp

00000000800005c6 <main_122>:
    800005c6:	01800eef          	jal	t4,800005de <main_122+0x18>
    800005ca:	a029                	j	800005d4 <main_122+0xe>
    800005cc:	02e000ef          	jal	800005fa <main_122+0x34>
    800005d0:	a809                	j	800005e2 <main_122+0x1c>
    800005d2:	a021                	j	800005da <main_122+0x14>
    800005d4:	a821                	j	800005ec <main_122+0x26>
    800005d6:	bff5                	j	800005d2 <main_122+0xc>
    800005d8:	a801                	j	800005e8 <main_122+0x22>
    800005da:	a029                	j	800005e4 <main_122+0x1e>
    800005dc:	a039                	j	800005ea <main_122+0x24>
    800005de:	020000ef          	jal	800005fe <main_122+0x38>
    800005e2:	a011                	j	800005e6 <main_122+0x20>
    800005e4:	bfe5                	j	800005dc <main_122+0x16>
    800005e6:	b7dd                	j	800005cc <main_122+0x6>
    800005e8:	a029                	j	800005f2 <main_122+0x2c>
    800005ea:	a031                	j	800005f6 <main_122+0x30>
    800005ec:	a819                	j	80000602 <main_122+0x3c>
    800005ee:	fddff0ef          	jal	800005ca <main_122+0x4>
    800005f2:	fe5ff0ef          	jal	800005d6 <main_122+0x10>
    800005f6:	fdbff0ef          	jal	800005d0 <main_122+0xa>
    800005fa:	a029                	j	80000604 <main_122+0x3e>
    800005fc:	bff1                	j	800005d8 <main_122+0x12>
    800005fe:	ff1ff0ef          	jal	800005ee <main_122+0x28>
    80000602:	bfed                	j	800005fc <main_122+0x36>
    80000604:	85b5                	srai	a1,a1,0xd

0000000080000606 <main_54>:
    80000606:	03000eef          	jal	t4,80000636 <main_54+0x30>
    8000060a:	01e000ef          	jal	80000628 <main_54+0x22>
    8000060e:	a811                	j	80000622 <main_54+0x1c>
    80000610:	008000ef          	jal	80000618 <main_54+0x12>
    80000614:	030000ef          	jal	80000644 <main_54+0x3e>
    80000618:	028000ef          	jal	80000640 <main_54+0x3a>
    8000061c:	a035                	j	80000648 <main_54+0x42>
    8000061e:	ff3ff0ef          	jal	80000610 <main_54+0xa>
    80000622:	a809                	j	80000634 <main_54+0x2e>
    80000624:	016000ef          	jal	8000063a <main_54+0x34>
    80000628:	fedff0ef          	jal	80000614 <main_54+0xe>
    8000062c:	004000ef          	jal	80000630 <main_54+0x2a>
    80000630:	01c000ef          	jal	8000064c <main_54+0x46>
    80000634:	a021                	j	8000063c <main_54+0x36>
    80000636:	fefff0ef          	jal	80000624 <main_54+0x1e>
    8000063a:	bfd1                	j	8000060e <main_54+0x8>
    8000063c:	00e000ef          	jal	8000064a <main_54+0x44>
    80000640:	fedff0ef          	jal	8000062c <main_54+0x26>
    80000644:	fdbff0ef          	jal	8000061e <main_54+0x18>
    80000648:	b7c9                	j	8000060a <main_54+0x4>
    8000064a:	bfc9                	j	8000061c <main_54+0x16>
    8000064c:	401e5793          	srai	a5,t3,0x1

0000000080000650 <main_149>:
    80000650:	02400eef          	jal	t4,80000674 <main_149+0x24>
    80000654:	a029                	j	8000065e <main_149+0xe>
    80000656:	024000ef          	jal	8000067a <main_149+0x2a>
    8000065a:	00c000ef          	jal	80000666 <main_149+0x16>
    8000065e:	020000ef          	jal	8000067e <main_149+0x2e>
    80000662:	00a000ef          	jal	8000066c <main_149+0x1c>
    80000666:	bff5                	j	80000662 <main_149+0x12>
    80000668:	b7fd                	j	80000656 <main_149+0x6>
    8000066a:	bfc5                	j	8000065a <main_149+0xa>
    8000066c:	a801                	j	8000067c <main_149+0x2c>
    8000066e:	a021                	j	80000676 <main_149+0x26>
    80000670:	fffff0ef          	jal	8000066e <main_149+0x1e>
    80000674:	bff5                	j	80000670 <main_149+0x20>
    80000676:	fdfff0ef          	jal	80000654 <main_149+0x4>
    8000067a:	a021                	j	80000682 <main_149+0x32>
    8000067c:	b7f5                	j	80000668 <main_149+0x18>
    8000067e:	fedff0ef          	jal	8000066a <main_149+0x1a>
    80000682:	85b5                	srai	a1,a1,0xd

0000000080000684 <main_130>:
    80000684:	01600eef          	jal	t4,8000069a <main_130+0x16>
    80000688:	048000ef          	jal	800006d0 <main_130+0x4c>
    8000068c:	a809                	j	8000069e <main_130+0x1a>
    8000068e:	052000ef          	jal	800006e0 <main_130+0x5c>
    80000692:	016000ef          	jal	800006a8 <main_130+0x24>
    80000696:	046000ef          	jal	800006dc <main_130+0x58>
    8000069a:	ff5ff0ef          	jal	8000068e <main_130+0xa>
    8000069e:	ff5ff0ef          	jal	80000692 <main_130+0xe>
    800006a2:	a035                	j	800006ce <main_130+0x4a>
    800006a4:	030000ef          	jal	800006d4 <main_130+0x50>
    800006a8:	ffbff0ef          	jal	800006a2 <main_130+0x1e>
    800006ac:	004000ef          	jal	800006b0 <main_130+0x2c>
    800006b0:	016000ef          	jal	800006c6 <main_130+0x42>
    800006b4:	00a000ef          	jal	800006be <main_130+0x3a>
    800006b8:	a839                	j	800006d6 <main_130+0x52>
    800006ba:	a025                	j	800006e2 <main_130+0x5e>
    800006bc:	a839                	j	800006da <main_130+0x56>
    800006be:	00c000ef          	jal	800006ca <main_130+0x46>
    800006c2:	b7e9                	j	8000068c <main_130+0x8>
    800006c4:	b7e5                	j	800006ac <main_130+0x28>
    800006c6:	fefff0ef          	jal	800006b4 <main_130+0x30>
    800006ca:	ff9ff0ef          	jal	800006c2 <main_130+0x3e>
    800006ce:	b7fd                	j	800006bc <main_130+0x38>
    800006d0:	febff0ef          	jal	800006ba <main_130+0x36>
    800006d4:	a011                	j	800006d8 <main_130+0x54>
    800006d6:	b7f9                	j	800006a4 <main_130+0x20>
    800006d8:	b7f5                	j	800006c4 <main_130+0x40>
    800006da:	b77d                	j	80000688 <main_130+0x4>
    800006dc:	fddff0ef          	jal	800006b8 <main_130+0x34>
    800006e0:	bf5d                	j	80000696 <main_130+0x12>
    800006e2:	987d                	andi	s0,s0,-1

00000000800006e4 <main_9>:
    800006e4:	04200eef          	jal	t4,80000726 <main_9+0x42>
    800006e8:	a829                	j	80000702 <main_9+0x1e>
    800006ea:	a83d                	j	80000728 <main_9+0x44>
    800006ec:	046000ef          	jal	80000732 <main_9+0x4e>
    800006f0:	018000ef          	jal	80000708 <main_9+0x24>
    800006f4:	008000ef          	jal	800006fc <main_9+0x18>
    800006f8:	036000ef          	jal	8000072e <main_9+0x4a>
    800006fc:	a839                	j	8000071a <main_9+0x36>
    800006fe:	01e000ef          	jal	8000071c <main_9+0x38>
    80000702:	a021                	j	8000070a <main_9+0x26>
    80000704:	bfed                	j	800006fe <main_9+0x1a>
    80000706:	a801                	j	80000716 <main_9+0x32>
    80000708:	a815                	j	8000073c <main_9+0x58>
    8000070a:	02c000ef          	jal	80000736 <main_9+0x52>
    8000070e:	ff7ff0ef          	jal	80000704 <main_9+0x20>
    80000712:	ff5ff0ef          	jal	80000706 <main_9+0x22>
    80000716:	00a000ef          	jal	80000720 <main_9+0x3c>
    8000071a:	b7f9                	j	800006e8 <main_9+0x4>
    8000071c:	fd9ff0ef          	jal	800006f4 <main_9+0x10>
    80000720:	bfc1                	j	800006f0 <main_9+0xc>
    80000722:	fc9ff0ef          	jal	800006ea <main_9+0x6>
    80000726:	b7d9                	j	800006ec <main_9+0x8>
    80000728:	a819                	j	8000073e <main_9+0x5a>
    8000072a:	00e000ef          	jal	80000738 <main_9+0x54>
    8000072e:	fe1ff0ef          	jal	8000070e <main_9+0x2a>
    80000732:	ff9ff0ef          	jal	8000072a <main_9+0x46>
    80000736:	b7f5                	j	80000722 <main_9+0x3e>
    80000738:	fdbff0ef          	jal	80000712 <main_9+0x2e>
    8000073c:	bf75                	j	800006f8 <main_9+0x14>
    8000073e:	2571e293          	ori	t0,gp,599

0000000080000742 <main_1>:
    80000742:	01000eef          	jal	t4,80000752 <main_1+0x10>
    80000746:	004000ef          	jal	8000074a <main_1+0x8>
    8000074a:	034000ef          	jal	8000077e <main_1+0x3c>
    8000074e:	a819                	j	80000764 <main_1+0x22>
    80000750:	a031                	j	8000075c <main_1+0x1a>
    80000752:	a839                	j	80000770 <main_1+0x2e>
    80000754:	ffdff0ef          	jal	80000750 <main_1+0xe>
    80000758:	008000ef          	jal	80000760 <main_1+0x1e>
    8000075c:	010000ef          	jal	8000076c <main_1+0x2a>
    80000760:	01a000ef          	jal	8000077a <main_1+0x38>
    80000764:	bfd5                	j	80000758 <main_1+0x16>
    80000766:	004000ef          	jal	8000076a <main_1+0x28>
    8000076a:	b7d5                	j	8000074e <main_1+0xc>
    8000076c:	a021                	j	80000774 <main_1+0x32>
    8000076e:	bfe5                	j	80000766 <main_1+0x24>
    80000770:	fd7ff0ef          	jal	80000746 <main_1+0x4>
    80000774:	008000ef          	jal	8000077c <main_1+0x3a>
    80000778:	bff1                	j	80000754 <main_1+0x12>
    8000077a:	a019                	j	80000780 <main_1+0x3e>
    8000077c:	bfcd                	j	8000076e <main_1+0x2c>
    8000077e:	bfed                	j	80000778 <main_1+0x36>
    80000780:	02fd7cb3          	remu	s9,s10,a5
    80000784:	5e71                	li	t3,-4
    80000786:	03b6c9bb          	divw	s3,a3,s11
    8000078a:	4851                	li	a6,20
    8000078c:	016f1bbb          	sllw	s7,t5,s6

0000000080000790 <main_213_1_t>:
    80000790:	9f81                	subw	a5,a5,s0
    80000792:	03580fb3          	mul	t6,a6,s5
    80000796:	03434db3          	div	s11,t1,s4
    8000079a:	0e09                	addi	t3,t3,2
    8000079c:	2aa5                	addiw	s5,s5,9 # ffffffffd6bdf009 <_end+0xffffffff56ba4681>
    8000079e:	557d                	li	a0,-1
    800007a0:	0001                	nop

00000000800007a2 <main_213_0_t>:
    800007a2:	01804333          	xor	t1,zero,s8
    800007a6:	41f8571b          	sraiw	a4,a6,0x1f
    800007aa:	0505                	addi	a0,a0,1
    800007ac:	2571e313          	ori	t1,gp,599
    800007b0:	d96d                	beqz	a0,800007a2 <main_213_0_t>
    800007b2:	6c10a293          	slti	t0,ra,1729
    800007b6:	01d1b733          	sltu	a4,gp,t4
    800007ba:	03b6c9bb          	divw	s3,a3,s11
    800007be:	fd0e19e3          	bne	t3,a6,80000790 <main_213_1_t>
    800007c2:	fbe33593          	sltiu	a1,t1,-66

00000000800007c6 <main_14>:
    800007c6:	01a00eef          	jal	t4,800007e0 <main_14+0x1a>
    800007ca:	a015                	j	800007ee <main_14+0x28>
    800007cc:	008000ef          	jal	800007d4 <main_14+0xe>
    800007d0:	020000ef          	jal	800007f0 <main_14+0x2a>
    800007d4:	a011                	j	800007d8 <main_14+0x12>
    800007d6:	a031                	j	800007e2 <main_14+0x1c>
    800007d8:	fffff0ef          	jal	800007d6 <main_14+0x10>
    800007dc:	010000ef          	jal	800007ec <main_14+0x26>
    800007e0:	a021                	j	800007e8 <main_14+0x22>
    800007e2:	fe9ff0ef          	jal	800007ca <main_14+0x4>
    800007e6:	b7ed                	j	800007d0 <main_14+0xa>
    800007e8:	ff5ff0ef          	jal	800007dc <main_14+0x16>
    800007ec:	bfed                	j	800007e6 <main_14+0x20>
    800007ee:	a019                	j	800007f4 <main_14+0x2e>
    800007f0:	fddff0ef          	jal	800007cc <main_14+0x6>
    800007f4:	005e9433          	sll	s0,t4,t0

00000000800007f8 <main_104>:
    800007f8:	05000eef          	jal	t4,80000848 <main_104+0x50>
    800007fc:	02e000ef          	jal	8000082a <main_104+0x32>
    80000800:	00c000ef          	jal	8000080c <main_104+0x14>
    80000804:	034000ef          	jal	80000838 <main_104+0x40>
    80000808:	010000ef          	jal	80000818 <main_104+0x20>
    8000080c:	ffdff0ef          	jal	80000808 <main_104+0x10>
    80000810:	024000ef          	jal	80000834 <main_104+0x3c>
    80000814:	bff5                	j	80000810 <main_104+0x18>
    80000816:	a82d                	j	80000850 <main_104+0x58>
    80000818:	a015                	j	8000083c <main_104+0x44>
    8000081a:	00c000ef          	jal	80000826 <main_104+0x2e>
    8000081e:	fe7ff0ef          	jal	80000804 <main_104+0xc>
    80000822:	ff5ff0ef          	jal	80000816 <main_104+0x1e>
    80000826:	ff9ff0ef          	jal	8000081e <main_104+0x26>
    8000082a:	a819                	j	80000840 <main_104+0x48>
    8000082c:	fd5ff0ef          	jal	80000800 <main_104+0x8>
    80000830:	00e000ef          	jal	8000083e <main_104+0x46>
    80000834:	b7dd                	j	8000081a <main_104+0x22>
    80000836:	a039                	j	80000844 <main_104+0x4c>
    80000838:	fc5ff0ef          	jal	800007fc <main_104+0x4>
    8000083c:	bfed                	j	80000836 <main_104+0x3e>
    8000083e:	bfd9                	j	80000814 <main_104+0x1c>
    80000840:	fe3ff0ef          	jal	80000822 <main_104+0x2a>
    80000844:	008000ef          	jal	8000084c <main_104+0x54>
    80000848:	fe5ff0ef          	jal	8000082c <main_104+0x34>
    8000084c:	fe5ff0ef          	jal	80000830 <main_104+0x38>
    80000850:	4cb5                	li	s9,13

0000000080000852 <main_72>:
    80000852:	01000eef          	jal	t4,80000862 <main_72+0x10>
    80000856:	020000ef          	jal	80000876 <main_72+0x24>
    8000085a:	018000ef          	jal	80000872 <main_72+0x20>
    8000085e:	032000ef          	jal	80000890 <main_72+0x3e>
    80000862:	a839                	j	80000880 <main_72+0x2e>
    80000864:	ff7ff0ef          	jal	8000085a <main_72+0x8>
    80000868:	02c000ef          	jal	80000894 <main_72+0x42>
    8000086c:	a819                	j	80000882 <main_72+0x30>
    8000086e:	a825                	j	800008a6 <main_72+0x54>
    80000870:	b7fd                	j	8000085e <main_72+0xc>
    80000872:	bff5                	j	8000086e <main_72+0x1c>
    80000874:	a029                	j	8000087e <main_72+0x2c>
    80000876:	ff3ff0ef          	jal	80000868 <main_72+0x16>
    8000087a:	018000ef          	jal	80000892 <main_72+0x40>
    8000087e:	bfcd                	j	80000870 <main_72+0x1e>
    80000880:	a831                	j	8000089c <main_72+0x4a>
    80000882:	a009                	j	80000884 <main_72+0x32>
    80000884:	a811                	j	80000898 <main_72+0x46>
    80000886:	ff5ff0ef          	jal	8000087a <main_72+0x28>
    8000088a:	b7f1                	j	80000856 <main_72+0x4>
    8000088c:	fd9ff0ef          	jal	80000864 <main_72+0x12>
    80000890:	a801                	j	800008a0 <main_72+0x4e>
    80000892:	bfe5                	j	8000088a <main_72+0x38>
    80000894:	ff9ff0ef          	jal	8000088c <main_72+0x3a>
    80000898:	00a000ef          	jal	800008a2 <main_72+0x50>
    8000089c:	fd1ff0ef          	jal	8000086c <main_72+0x1a>
    800008a0:	b7dd                	j	80000886 <main_72+0x34>
    800008a2:	a009                	j	800008a4 <main_72+0x52>
    800008a4:	bfc1                	j	80000874 <main_72+0x22>
    800008a6:	0001                	nop

00000000800008a8 <main_192>:
    800008a8:	02000eef          	jal	t4,800008c8 <main_192+0x20>
    800008ac:	a009                	j	800008ae <main_192+0x6>
    800008ae:	a005                	j	800008ce <main_192+0x26>
    800008b0:	01c000ef          	jal	800008cc <main_192+0x24>
    800008b4:	a031                	j	800008c0 <main_192+0x18>
    800008b6:	bfdd                	j	800008ac <main_192+0x4>
    800008b8:	01a000ef          	jal	800008d2 <main_192+0x2a>
    800008bc:	01a000ef          	jal	800008d6 <main_192+0x2e>
    800008c0:	bfe5                	j	800008b8 <main_192+0x10>
    800008c2:	ffbff0ef          	jal	800008bc <main_192+0x14>
    800008c6:	b7ed                	j	800008b0 <main_192+0x8>
    800008c8:	fedff0ef          	jal	800008b4 <main_192+0xc>
    800008cc:	b7ed                	j	800008b6 <main_192+0xe>
    800008ce:	ff5ff0ef          	jal	800008c2 <main_192+0x1a>
    800008d2:	ff5ff0ef          	jal	800008c6 <main_192+0x1e>
    800008d6:	03a8dabb          	divuw	s5,a7,s10
    800008da:	4715                	li	a4,5
    800008dc:	0130a033          	slt	zero,ra,s3
    800008e0:	008f1e93          	slli	t4,t5,0x8
    800008e4:	d1534613          	xori	a2,t1,-747
    800008e8:	594d                	li	s2,-13

00000000800008ea <main_202_1_t>:
    800008ea:	006e003b          	addw	zero,t3,t1
    800008ee:	9eb1                	addw	a3,a3,a2
    800008f0:	175d                	addi	a4,a4,-9
    800008f2:	0130a033          	slt	zero,ra,s3
    800008f6:	4c1d                	li	s8,7
    800008f8:	6b55                	lui	s6,0x15
    800008fa:	006e003b          	addw	zero,t3,t1
    800008fe:	03a8dcbb          	divuw	s9,a7,s10
    80000902:	41f8569b          	sraiw	a3,a6,0x1f
    80000906:	5439                	li	s0,-18
    80000908:	0005d11b          	srliw	sp,a1,0x0

000000008000090c <main_202_0_t>:
    8000090c:	0001                	nop
    8000090e:	1c6d                	addi	s8,s8,-5
    80000910:	018042b3          	xor	t0,zero,s8
    80000914:	fe8c1ce3          	bne	s8,s0,8000090c <main_202_0_t>
    80000918:	fd2709e3          	beq	a4,s2,800008ea <main_202_1_t>
    8000091c:	9e01                	subw	a2,a2,s0
    8000091e:	5f75                	li	t5,-3
    80000920:	03fe2c33          	mulhsu	s8,t3,t6
    80000924:	9e01                	subw	a2,a2,s0
    80000926:	8cbd                	xor	s1,s1,a5
    80000928:	413d                	li	sp,15
    8000092a:	4001ddb3          	sra	s11,gp,zero

000000008000092e <main_207_1_t>:
    8000092e:	8446                	mv	s0,a7
    80000930:	00be5ab3          	srl	s5,t3,a1
    80000934:	0f25                	addi	t5,t5,9
    80000936:	fbe33593          	sltiu	a1,t1,-66
    8000093a:	fbe33593          	sltiu	a1,t1,-66
    8000093e:	428d                	li	t0,3
    80000940:	01f9901b          	slliw	zero,s3,0x1f
    80000944:	45b5                	li	a1,13
    80000946:	4709                	li	a4,2

0000000080000948 <main_207_0_t>:
    80000948:	6c10a313          	slti	t1,ra,1729
    8000094c:	12fd                	addi	t0,t0,-1
    8000094e:	01804433          	xor	s0,zero,s8
    80000952:	0001                	nop
    80000954:	9bfd                	andi	a5,a5,-1
    80000956:	02e4843b          	mulw	s0,s1,a4
    8000095a:	fee2f7e3          	bgeu	t0,a4,80000948 <main_207_0_t>
    8000095e:	8e09                	sub	a2,a2,a0
    80000960:	03fe2c33          	mulhsu	s8,t3,t6
    80000964:	fc2f05e3          	beq	t5,sp,8000092e <main_207_1_t>
    80000968:	d1534693          	xori	a3,t1,-747

000000008000096c <main_48>:
    8000096c:	01e00eef          	jal	t4,8000098a <main_48+0x1e>
    80000970:	020000ef          	jal	80000990 <main_48+0x24>
    80000974:	a009                	j	80000976 <main_48+0xa>
    80000976:	006000ef          	jal	8000097c <main_48+0x10>
    8000097a:	a029                	j	80000984 <main_48+0x18>
    8000097c:	a019                	j	80000982 <main_48+0x16>
    8000097e:	016000ef          	jal	80000994 <main_48+0x28>
    80000982:	bfe5                	j	8000097a <main_48+0xe>
    80000984:	00a000ef          	jal	8000098e <main_48+0x22>
    80000988:	bfdd                	j	8000097e <main_48+0x12>
    8000098a:	febff0ef          	jal	80000974 <main_48+0x8>
    8000098e:	b7cd                	j	80000970 <main_48+0x4>
    80000990:	ff9ff0ef          	jal	80000988 <main_48+0x1c>
    80000994:	0152                	slli	sp,sp,0x14

0000000080000996 <main_88>:
    80000996:	01e00eef          	jal	t4,800009b4 <main_88+0x1e>
    8000099a:	03e000ef          	jal	800009d8 <main_88+0x42>
    8000099e:	a81d                	j	800009d4 <main_88+0x3e>
    800009a0:	bfed                	j	8000099a <main_88+0x4>
    800009a2:	a009                	j	800009a4 <main_88+0xe>
    800009a4:	a005                	j	800009c4 <main_88+0x2e>
    800009a6:	02c000ef          	jal	800009d2 <main_88+0x3c>
    800009aa:	ff5ff0ef          	jal	8000099e <main_88+0x8>
    800009ae:	a009                	j	800009b0 <main_88+0x1a>
    800009b0:	a031                	j	800009bc <main_88+0x26>
    800009b2:	bfc5                	j	800009a2 <main_88+0xc>
    800009b4:	00c000ef          	jal	800009c0 <main_88+0x2a>
    800009b8:	ff3ff0ef          	jal	800009aa <main_88+0x14>
    800009bc:	00e000ef          	jal	800009ca <main_88+0x34>
    800009c0:	00e000ef          	jal	800009ce <main_88+0x38>
    800009c4:	bfd5                	j	800009b8 <main_88+0x22>
    800009c6:	b7f5                	j	800009b2 <main_88+0x1c>
    800009c8:	b7dd                	j	800009ae <main_88+0x18>
    800009ca:	fd7ff0ef          	jal	800009a0 <main_88+0xa>
    800009ce:	ff9ff0ef          	jal	800009c6 <main_88+0x30>
    800009d2:	a011                	j	800009d6 <main_88+0x40>
    800009d4:	bfc9                	j	800009a6 <main_88+0x10>
    800009d6:	bfcd                	j	800009c8 <main_88+0x32>
    800009d8:	018042b3          	xor	t0,zero,s8

00000000800009dc <main_55>:
    800009dc:	00600eef          	jal	t4,800009e2 <main_55+0x6>
    800009e0:	a809                	j	800009f2 <main_55+0x16>
    800009e2:	a809                	j	800009f4 <main_55+0x18>
    800009e4:	ffdff0ef          	jal	800009e0 <main_55+0x4>
    800009e8:	004000ef          	jal	800009ec <main_55+0x10>
    800009ec:	a029                	j	800009f6 <main_55+0x1a>
    800009ee:	a039                	j	800009fc <main_55+0x20>
    800009f0:	bffd                	j	800009ee <main_55+0x12>
    800009f2:	bfdd                	j	800009e8 <main_55+0xc>
    800009f4:	bfc5                	j	800009e4 <main_55+0x8>
    800009f6:	a009                	j	800009f8 <main_55+0x1c>
    800009f8:	ff9ff0ef          	jal	800009f0 <main_55+0x14>
    800009fc:	94ba                	add	s1,s1,a4
    800009fe:	57e5                	li	a5,-7
    80000a00:	02fd7e33          	remu	t3,s10,a5
    80000a04:	41f8569b          	sraiw	a3,a6,0x1f
    80000a08:	0005d19b          	srliw	gp,a1,0x0
    80000a0c:	9e01                	subw	a2,a2,s0
    80000a0e:	01375e3b          	srlw	t3,a4,s3
    80000a12:	0001                	nop
    80000a14:	4049d0bb          	sraw	ra,s3,tp
    80000a18:	6a55                	lui	s4,0x15

0000000080000a1a <main_398_0_t>:
    80000a1a:	0001                	nop
    80000a1c:	6a55                	lui	s4,0x15
    80000a1e:	2571e313          	ori	t1,gp,599
    80000a22:	8cbd                	xor	s1,s1,a5
    80000a24:	9eb1                	addw	a3,a3,a2
    80000a26:	0785                	addi	a5,a5,1
    80000a28:	82c6                	mv	t0,a7
    80000a2a:	01375e3b          	srlw	t3,a4,s3
    80000a2e:	406d073b          	subw	a4,s10,t1
    80000a32:	01804333          	xor	t1,zero,s8
    80000a36:	d3f5                	beqz	a5,80000a1a <main_398_0_t>
    80000a38:	0001                	nop
    80000a3a:	54fd                	li	s1,-1
    80000a3c:	018042b3          	xor	t0,zero,s8
    80000a40:	82c6                	mv	t0,a7
    80000a42:	d6bdfab7          	lui	s5,0xd6bdf
    80000a46:	56cd                	li	a3,-13
    80000a48:	82c6                	mv	t0,a7
    80000a4a:	8c09                	sub	s0,s0,a0

0000000080000a4c <main_294_0_t>:
    80000a4c:	02fd7e33          	remu	t3,s10,a5
    80000a50:	2571e293          	ori	t0,gp,599
    80000a54:	6c10a193          	slti	gp,ra,1729
    80000a58:	14ed                	addi	s1,s1,-5
    80000a5a:	41f8571b          	sraiw	a4,a6,0x1f
    80000a5e:	01f9901b          	slliw	zero,s3,0x1f
    80000a62:	fed4d5e3          	bge	s1,a3,80000a4c <main_294_0_t>
    80000a66:	d6bdfab7          	lui	s5,0xd6bdf

0000000080000a6a <main_3>:
    80000a6a:	02800eef          	jal	t4,80000a92 <main_3+0x28>
    80000a6e:	01a000ef          	jal	80000a88 <main_3+0x1e>
    80000a72:	a019                	j	80000a78 <main_3+0xe>
    80000a74:	020000ef          	jal	80000a94 <main_3+0x2a>
    80000a78:	02c000ef          	jal	80000aa4 <main_3+0x3a>
    80000a7c:	ff3ff0ef          	jal	80000a6e <main_3+0x4>
    80000a80:	026000ef          	jal	80000aa6 <main_3+0x3c>
    80000a84:	ff1ff0ef          	jal	80000a74 <main_3+0xa>
    80000a88:	a019                	j	80000a8e <main_3+0x24>
    80000a8a:	028000ef          	jal	80000ab2 <main_3+0x48>
    80000a8e:	ff3ff0ef          	jal	80000a80 <main_3+0x16>
    80000a92:	a821                	j	80000aaa <main_3+0x40>
    80000a94:	a039                	j	80000aa2 <main_3+0x38>
    80000a96:	01a000ef          	jal	80000ab0 <main_3+0x46>
    80000a9a:	014000ef          	jal	80000aae <main_3+0x44>
    80000a9e:	fedff0ef          	jal	80000a8a <main_3+0x20>
    80000aa2:	bff5                	j	80000a9e <main_3+0x34>
    80000aa4:	b7c5                	j	80000a84 <main_3+0x1a>
    80000aa6:	b7f1                	j	80000a72 <main_3+0x8>
    80000aa8:	bfd1                	j	80000a7c <main_3+0x12>
    80000aaa:	ff1ff0ef          	jal	80000a9a <main_3+0x30>
    80000aae:	b7e5                	j	80000a96 <main_3+0x2c>
    80000ab0:	bfe5                	j	80000aa8 <main_3+0x3e>
    80000ab2:	0152                	slli	sp,sp,0x14

0000000080000ab4 <main_179>:
    80000ab4:	02400eef          	jal	t4,80000ad8 <main_179+0x24>
    80000ab8:	a035                	j	80000ae4 <main_179+0x30>
    80000aba:	a801                	j	80000aca <main_179+0x16>
    80000abc:	008000ef          	jal	80000ac4 <main_179+0x10>
    80000ac0:	022000ef          	jal	80000ae2 <main_179+0x2e>
    80000ac4:	00c000ef          	jal	80000ad0 <main_179+0x1c>
    80000ac8:	bfe5                	j	80000ac0 <main_179+0xc>
    80000aca:	00a000ef          	jal	80000ad4 <main_179+0x20>
    80000ace:	a039                	j	80000adc <main_179+0x28>
    80000ad0:	a005                	j	80000af0 <main_179+0x3c>
    80000ad2:	a031                	j	80000ade <main_179+0x2a>
    80000ad4:	01a000ef          	jal	80000aee <main_179+0x3a>
    80000ad8:	fe5ff0ef          	jal	80000abc <main_179+0x8>
    80000adc:	a015                	j	80000b00 <main_179+0x4c>
    80000ade:	ff1ff0ef          	jal	80000ace <main_179+0x1a>
    80000ae2:	bfc5                	j	80000ad2 <main_179+0x1e>
    80000ae4:	010000ef          	jal	80000af4 <main_179+0x40>
    80000ae8:	014000ef          	jal	80000afc <main_179+0x48>
    80000aec:	b7f9                	j	80000aba <main_179+0x6>
    80000aee:	bfe9                	j	80000ac8 <main_179+0x14>
    80000af0:	008000ef          	jal	80000af8 <main_179+0x44>
    80000af4:	ff5ff0ef          	jal	80000ae8 <main_179+0x34>
    80000af8:	fc1ff0ef          	jal	80000ab8 <main_179+0x4>
    80000afc:	ff1ff0ef          	jal	80000aec <main_179+0x38>
    80000b00:	018042b3          	xor	t0,zero,s8

0000000080000b04 <main_197>:
    80000b04:	02800eef          	jal	t4,80000b2c <main_197+0x28>
    80000b08:	a819                	j	80000b1e <main_197+0x1a>
    80000b0a:	03e000ef          	jal	80000b48 <main_197+0x44>
    80000b0e:	018000ef          	jal	80000b26 <main_197+0x22>
    80000b12:	a029                	j	80000b1c <main_197+0x18>
    80000b14:	a00d                	j	80000b36 <main_197+0x32>
    80000b16:	01e000ef          	jal	80000b34 <main_197+0x30>
    80000b1a:	a02d                	j	80000b44 <main_197+0x40>
    80000b1c:	a815                	j	80000b50 <main_197+0x4c>
    80000b1e:	010000ef          	jal	80000b2e <main_197+0x2a>
    80000b22:	fe7ff0ef          	jal	80000b08 <main_197+0x4>
    80000b26:	a029                	j	80000b30 <main_197+0x2c>
    80000b28:	febff0ef          	jal	80000b12 <main_197+0xe>
    80000b2c:	a811                	j	80000b40 <main_197+0x3c>
    80000b2e:	b7e5                	j	80000b16 <main_197+0x12>
    80000b30:	fdbff0ef          	jal	80000b0a <main_197+0x6>
    80000b34:	b7dd                	j	80000b1a <main_197+0x16>
    80000b36:	014000ef          	jal	80000b4a <main_197+0x46>
    80000b3a:	bfe9                	j	80000b14 <main_197+0x10>
    80000b3c:	fffff0ef          	jal	80000b3a <main_197+0x36>
    80000b40:	a031                	j	80000b4c <main_197+0x48>
    80000b42:	b7c5                	j	80000b22 <main_197+0x1e>
    80000b44:	00a000ef          	jal	80000b4e <main_197+0x4a>
    80000b48:	bfed                	j	80000b42 <main_197+0x3e>
    80000b4a:	b7d1                	j	80000b0e <main_197+0xa>
    80000b4c:	bfc5                	j	80000b3c <main_197+0x38>
    80000b4e:	bfe9                	j	80000b28 <main_197+0x24>
    80000b50:	004000ef          	jal	80000b54 <main_197+0x50>
    80000b54:	401e5793          	srai	a5,t3,0x1

0000000080000b58 <main_11>:
    80000b58:	03800eef          	jal	t4,80000b90 <main_11+0x38>
    80000b5c:	036000ef          	jal	80000b92 <main_11+0x3a>
    80000b60:	a011                	j	80000b64 <main_11+0xc>
    80000b62:	a039                	j	80000b70 <main_11+0x18>
    80000b64:	018000ef          	jal	80000b7c <main_11+0x24>
    80000b68:	01c000ef          	jal	80000b84 <main_11+0x2c>
    80000b6c:	a029                	j	80000b76 <main_11+0x1e>
    80000b6e:	a839                	j	80000b8c <main_11+0x34>
    80000b70:	bfe5                	j	80000b68 <main_11+0x10>
    80000b72:	016000ef          	jal	80000b88 <main_11+0x30>
    80000b76:	ff9ff0ef          	jal	80000b6e <main_11+0x16>
    80000b7a:	bfcd                	j	80000b6c <main_11+0x14>
    80000b7c:	00e000ef          	jal	80000b8a <main_11+0x32>
    80000b80:	ff3ff0ef          	jal	80000b72 <main_11+0x1a>
    80000b84:	fddff0ef          	jal	80000b60 <main_11+0x8>
    80000b88:	bfcd                	j	80000b7a <main_11+0x22>
    80000b8a:	bfc9                	j	80000b5c <main_11+0x4>
    80000b8c:	fd7ff0ef          	jal	80000b62 <main_11+0xa>
    80000b90:	bfc5                	j	80000b80 <main_11+0x28>
    80000b92:	006d0933          	add	s2,s10,t1
    80000b96:	51e1                	li	gp,-8
    80000b98:	8cd1                	or	s1,s1,a2
    80000b9a:	47c0e597          	auipc	a1,0x47c0e
    80000b9e:	016f1b3b          	sllw	s6,t5,s6
    80000ba2:	4789                	li	a5,2

0000000080000ba4 <main_273_0_t>:
    80000ba4:	03580eb3          	mul	t4,a6,s5
    80000ba8:	0005d11b          	srliw	sp,a1,0x0
    80000bac:	01a5                	addi	gp,gp,9
    80000bae:	6c10a293          	slti	t0,ra,1729
    80000bb2:	fef1e9e3          	bltu	gp,a5,80000ba4 <main_273_0_t>
    80000bb6:	0ad2                	slli	s5,s5,0x14

0000000080000bb8 <main_167>:
    80000bb8:	03400eef          	jal	t4,80000bec <main_167+0x34>
    80000bbc:	016000ef          	jal	80000bd2 <main_167+0x1a>
    80000bc0:	a825                	j	80000bf8 <main_167+0x40>
    80000bc2:	a811                	j	80000bd6 <main_167+0x1e>
    80000bc4:	016000ef          	jal	80000bda <main_167+0x22>
    80000bc8:	a821                	j	80000be0 <main_167+0x28>
    80000bca:	a839                	j	80000be8 <main_167+0x30>
    80000bcc:	028000ef          	jal	80000bf4 <main_167+0x3c>
    80000bd0:	bfcd                	j	80000bc2 <main_167+0xa>
    80000bd2:	a035                	j	80000bfe <main_167+0x46>
    80000bd4:	b7f5                	j	80000bc0 <main_167+0x8>
    80000bd6:	018000ef          	jal	80000bee <main_167+0x36>
    80000bda:	ff7ff0ef          	jal	80000bd0 <main_167+0x18>
    80000bde:	a011                	j	80000be2 <main_167+0x2a>
    80000be0:	bffd                	j	80000bde <main_167+0x26>
    80000be2:	a811                	j	80000bf6 <main_167+0x3e>
    80000be4:	018000ef          	jal	80000bfc <main_167+0x44>
    80000be8:	00a000ef          	jal	80000bf2 <main_167+0x3a>
    80000bec:	bfe5                	j	80000be4 <main_167+0x2c>
    80000bee:	fe7ff0ef          	jal	80000bd4 <main_167+0x1c>
    80000bf2:	b7e9                	j	80000bbc <main_167+0x4>
    80000bf4:	bfd1                	j	80000bc8 <main_167+0x10>
    80000bf6:	b7f9                	j	80000bc4 <main_167+0xc>
    80000bf8:	fd3ff0ef          	jal	80000bca <main_167+0x12>
    80000bfc:	bfc1                	j	80000bcc <main_167+0x14>
    80000bfe:	01f99f9b          	slliw	t6,s3,0x1f
    80000c02:	4c9d                	li	s9,7
    80000c04:	8cd1                	or	s1,s1,a2
    80000c06:	451d                	li	a0,7
    80000c08:	036462b3          	rem	t0,s0,s6
    80000c0c:	4049d03b          	sraw	zero,s3,tp

0000000080000c10 <main_222_0_t>:
    80000c10:	02051933          	mulh	s2,a0,zero
    80000c14:	8e89                	sub	a3,a3,a0
    80000c16:	018042b3          	xor	t0,zero,s8
    80000c1a:	4001dc33          	sra	s8,gp,zero
    80000c1e:	fbe33f13          	sltiu	t5,t1,-66
    80000c22:	035effbb          	remuw	t6,t4,s5
    80000c26:	1cf5                	addi	s9,s9,-3
    80000c28:	006d09b3          	add	s3,s10,t1
    80000c2c:	406d073b          	subw	a4,s10,t1
    80000c30:	feacd0e3          	bge	s9,a0,80000c10 <main_222_0_t>
    80000c34:	2a25                	addiw	s4,s4,9 # 15009 <_start-0x7ffeaff7>
    80000c36:	5575                	li	a0,-3
    80000c38:	0001                	nop
    80000c3a:	03434e33          	div	t3,t1,s4
    80000c3e:	0001                	nop
    80000c40:	0001                	nop
    80000c42:	8c7d                	and	s0,s0,a5
    80000c44:	8dbd                	xor	a1,a1,a5

0000000080000c46 <main_234_1_t>:
    80000c46:	6c10a293          	slti	t0,ra,1729
    80000c4a:	9eb1                	addw	a3,a3,a2
    80000c4c:	0505                	addi	a0,a0,1
    80000c4e:	01d1b733          	sltu	a4,gp,t4
    80000c52:	5ad9                	li	s5,-10
    80000c54:	01375f3b          	srlw	t5,a4,s3
    80000c58:	57dd                	li	a5,-9
    80000c5a:	d6bdfbb7          	lui	s7,0xd6bdf
    80000c5e:	41d70db3          	sub	s11,a4,t4
    80000c62:	03a8dcbb          	divuw	s9,a7,s10
    80000c66:	d1534693          	xori	a3,t1,-747
    80000c6a:	0130a0b3          	slt	ra,ra,s3

0000000080000c6e <main_234_0_t>:
    80000c6e:	2da5                	addiw	s11,s11,9
    80000c70:	0a91                	addi	s5,s5,4 # ffffffffd6bdf004 <_end+0xffffffff56ba467c>
    80000c72:	8dbd                	xor	a1,a1,a5
    80000c74:	fefacde3          	blt	s5,a5,80000c6e <main_234_0_t>
    80000c78:	0a90                	addi	a2,sp,336
    80000c7a:	f571                	bnez	a0,80000c46 <main_234_1_t>
    80000c7c:	006d0b33          	add	s6,s10,t1
    80000c80:	5b59                	li	s6,-10
    80000c82:	01f9901b          	slliw	zero,s3,0x1f
    80000c86:	01d1b6b3          	sltu	a3,gp,t4
    80000c8a:	02051933          	mulh	s2,a0,zero
    80000c8e:	4049d03b          	sraw	zero,s3,tp
    80000c92:	008f1e13          	slli	t3,t5,0x8
    80000c96:	006d09b3          	add	s3,s10,t1
    80000c9a:	8c7d                	and	s0,s0,a5
    80000c9c:	02a2613b          	remw	sp,tp,a0
    80000ca0:	6a55                	lui	s4,0x15
    80000ca2:	4f95                	li	t6,5
    80000ca4:	03b6c8bb          	divw	a7,a3,s11
    80000ca8:	02e482bb          	mulw	t0,s1,a4
    80000cac:	cc360c1b          	addiw	s8,a2,-829

0000000080000cb0 <main_317_1_t>:
    80000cb0:	03434cb3          	div	s9,t1,s4
    80000cb4:	0b15                	addi	s6,s6,5 # 15005 <_start-0x7ffeaffb>
    80000cb6:	41f8569b          	sraiw	a3,a6,0x1f
    80000cba:	016f1abb          	sllw	s5,t5,s6
    80000cbe:	55f9                	li	a1,-2
    80000cc0:	8cbd                	xor	s1,s1,a5
    80000cc2:	4001dcb3          	sra	s9,gp,zero
    80000cc6:	5dd1                	li	s11,-12
    80000cc8:	8e89                	sub	a3,a3,a0
    80000cca:	0ad9                	addi	s5,s5,22
    80000ccc:	0001                	nop

0000000080000cce <main_317_0_t>:
    80000cce:	fbe33493          	sltiu	s1,t1,-66
    80000cd2:	008f1e13          	slli	t3,t5,0x8
    80000cd6:	d6bdfa37          	lui	s4,0xd6bdf
    80000cda:	d6bdfa37          	lui	s4,0xd6bdf
    80000cde:	15fd                	addi	a1,a1,-1 # c7c0eb99 <_end+0x47bd4211>
    80000ce0:	0005d11b          	srliw	sp,a1,0x0
    80000ce4:	ffb5d5e3          	bge	a1,s11,80000cce <main_317_0_t>
    80000ce8:	d6bdfa37          	lui	s4,0xd6bdf
    80000cec:	fdfb12e3          	bne	s6,t6,80000cb0 <main_317_1_t>
    80000cf0:	0114fe33          	and	t3,s1,a7
    80000cf4:	4b21                	li	s6,8
    80000cf6:	036462b3          	rem	t0,s0,s6
    80000cfa:	69d5                	lui	s3,0x15
    80000cfc:	005e9433          	sll	s0,t4,t0
    80000d00:	02eade13          	srli	t3,s5,0x2e
    80000d04:	d1534593          	xori	a1,t1,-747
    80000d08:	8d09                	sub	a0,a0,a0
    80000d0a:	09d2                	slli	s3,s3,0x14
    80000d0c:	4f21                	li	t5,8
    80000d0e:	8435                	srai	s0,s0,0xd
    80000d10:	02a2613b          	remw	sp,tp,a0
    80000d14:	09d2                	slli	s3,s3,0x14
    80000d16:	4049d03b          	sraw	zero,s3,tp

0000000080000d1a <main_244_1_t>:
    80000d1a:	ef697493          	andi	s1,s2,-266
    80000d1e:	406d06bb          	subw	a3,s10,t1
    80000d22:	1b69                	addi	s6,s6,-6
    80000d24:	4da1                	li	s11,8
    80000d26:	02e482bb          	mulw	t0,s1,a4
    80000d2a:	4049d03b          	sraw	zero,s3,tp
    80000d2e:	4a9d                	li	s5,7
    80000d30:	0a84                	addi	s1,sp,336
    80000d32:	036934b3          	mulhu	s1,s2,s6

0000000080000d36 <main_244_0_t>:
    80000d36:	006d0933          	add	s2,s10,t1
    80000d3a:	01d1b633          	sltu	a2,gp,t4
    80000d3e:	1df5                	addi	s11,s11,-3
    80000d40:	9e81                	subw	a3,a3,s0
    80000d42:	0a59                	addi	s4,s4,22 # ffffffffd6bdf016 <_end+0xffffffff56ba468e>
    80000d44:	8f7d                	and	a4,a4,a5
    80000d46:	01d1b633          	sltu	a2,gp,t4
    80000d4a:	ff5df6e3          	bgeu	s11,s5,80000d36 <main_244_0_t>
    80000d4e:	02eade13          	srli	t3,s5,0x2e
    80000d52:	cc360c1b          	addiw	s8,a2,-829
    80000d56:	8435                	srai	s0,s0,0xd
    80000d58:	fdeb71e3          	bgeu	s6,t5,80000d1a <main_244_1_t>
    80000d5c:	ef697493          	andi	s1,s2,-266

0000000080000d60 <main_152>:
    80000d60:	00c00eef          	jal	t4,80000d6c <main_152+0xc>
    80000d64:	a809                	j	80000d76 <main_152+0x16>
    80000d66:	a009                	j	80000d68 <main_152+0x8>
    80000d68:	00a000ef          	jal	80000d72 <main_152+0x12>
    80000d6c:	010000ef          	jal	80000d7c <main_152+0x1c>
    80000d70:	bfd5                	j	80000d64 <main_152+0x4>
    80000d72:	a801                	j	80000d82 <main_152+0x22>
    80000d74:	bfcd                	j	80000d66 <main_152+0x6>
    80000d76:	fffff0ef          	jal	80000d74 <main_152+0x14>
    80000d7a:	bfdd                	j	80000d70 <main_152+0x10>
    80000d7c:	004000ef          	jal	80000d80 <main_152+0x20>
    80000d80:	bfed                	j	80000d7a <main_152+0x1a>
    80000d82:	0152                	slli	sp,sp,0x14

0000000080000d84 <main_129>:
    80000d84:	01e00eef          	jal	t4,80000da2 <main_129+0x1e>
    80000d88:	020000ef          	jal	80000da8 <main_129+0x24>
    80000d8c:	a009                	j	80000d8e <main_129+0xa>
    80000d8e:	a009                	j	80000d90 <main_129+0xc>
    80000d90:	a819                	j	80000da6 <main_129+0x22>
    80000d92:	a035                	j	80000dbe <main_129+0x3a>
    80000d94:	04a000ef          	jal	80000dde <main_129+0x5a>
    80000d98:	030000ef          	jal	80000dc8 <main_129+0x44>
    80000d9c:	a80d                	j	80000dce <main_129+0x4a>
    80000d9e:	02e000ef          	jal	80000dcc <main_129+0x48>
    80000da2:	fe7ff0ef          	jal	80000d88 <main_129+0x4>
    80000da6:	a035                	j	80000dd2 <main_129+0x4e>
    80000da8:	a019                	j	80000dae <main_129+0x2a>
    80000daa:	030000ef          	jal	80000dda <main_129+0x56>
    80000dae:	018000ef          	jal	80000dc6 <main_129+0x42>
    80000db2:	022000ef          	jal	80000dd4 <main_129+0x50>
    80000db6:	fdfff0ef          	jal	80000d94 <main_129+0x10>
    80000dba:	ffdff0ef          	jal	80000db6 <main_129+0x32>
    80000dbe:	fcfff0ef          	jal	80000d8c <main_129+0x8>
    80000dc2:	fdbff0ef          	jal	80000d9c <main_129+0x18>
    80000dc6:	bfc9                	j	80000d98 <main_129+0x14>
    80000dc8:	ffbff0ef          	jal	80000dc2 <main_129+0x3e>
    80000dcc:	b7d9                	j	80000d92 <main_129+0xe>
    80000dce:	008000ef          	jal	80000dd6 <main_129+0x52>
    80000dd2:	b7c5                	j	80000db2 <main_129+0x2e>
    80000dd4:	bfd9                	j	80000daa <main_129+0x26>
    80000dd6:	fc9ff0ef          	jal	80000d9e <main_129+0x1a>
    80000dda:	fe1ff0ef          	jal	80000dba <main_129+0x36>
    80000dde:	0152                	slli	sp,sp,0x14

0000000080000de0 <main_0>:
    80000de0:	05200eef          	jal	t4,80000e32 <main_0+0x52>
    80000de4:	a039                	j	80000df2 <main_0+0x12>
    80000de6:	010000ef          	jal	80000df6 <main_0+0x16>
    80000dea:	ffbff0ef          	jal	80000de4 <main_0+0x4>
    80000dee:	02e000ef          	jal	80000e1c <main_0+0x3c>
    80000df2:	03c000ef          	jal	80000e2e <main_0+0x4e>
    80000df6:	a831                	j	80000e12 <main_0+0x32>
    80000df8:	012000ef          	jal	80000e0a <main_0+0x2a>
    80000dfc:	a03d                	j	80000e2a <main_0+0x4a>
    80000dfe:	a819                	j	80000e14 <main_0+0x34>
    80000e00:	02c000ef          	jal	80000e2c <main_0+0x4c>
    80000e04:	b7ed                	j	80000dee <main_0+0xe>
    80000e06:	030000ef          	jal	80000e36 <main_0+0x56>
    80000e0a:	ff3ff0ef          	jal	80000dfc <main_0+0x1c>
    80000e0e:	fd9ff0ef          	jal	80000de6 <main_0+0x6>
    80000e12:	a021                	j	80000e1a <main_0+0x3a>
    80000e14:	00c000ef          	jal	80000e20 <main_0+0x40>
    80000e18:	a039                	j	80000e26 <main_0+0x46>
    80000e1a:	bff9                	j	80000df8 <main_0+0x18>
    80000e1c:	a021                	j	80000e24 <main_0+0x44>
    80000e1e:	a819                	j	80000e34 <main_0+0x54>
    80000e20:	fe1ff0ef          	jal	80000e00 <main_0+0x20>
    80000e24:	b7ed                	j	80000e0e <main_0+0x2e>
    80000e26:	fc5ff0ef          	jal	80000dea <main_0+0xa>
    80000e2a:	bfd1                	j	80000dfe <main_0+0x1e>
    80000e2c:	a011                	j	80000e30 <main_0+0x50>
    80000e2e:	bfc5                	j	80000e1e <main_0+0x3e>
    80000e30:	b7e5                	j	80000e18 <main_0+0x38>
    80000e32:	bfc9                	j	80000e04 <main_0+0x24>
    80000e34:	bfc9                	j	80000e06 <main_0+0x26>
    80000e36:	004000ef          	jal	80000e3a <main_0+0x5a>
    80000e3a:	cc360b1b          	addiw	s6,a2,-829

0000000080000e3e <main_77>:
    80000e3e:	01400eef          	jal	t4,80000e52 <main_77+0x14>
    80000e42:	a01d                	j	80000e68 <main_77+0x2a>
    80000e44:	040000ef          	jal	80000e84 <main_77+0x46>
    80000e48:	010000ef          	jal	80000e58 <main_77+0x1a>
    80000e4c:	016000ef          	jal	80000e62 <main_77+0x24>
    80000e50:	bff5                	j	80000e4c <main_77+0xe>
    80000e52:	01e000ef          	jal	80000e70 <main_77+0x32>
    80000e56:	a011                	j	80000e5a <main_77+0x1c>
    80000e58:	bffd                	j	80000e56 <main_77+0x18>
    80000e5a:	a009                	j	80000e5c <main_77+0x1e>
    80000e5c:	022000ef          	jal	80000e7e <main_77+0x40>
    80000e60:	a031                	j	80000e6c <main_77+0x2e>
    80000e62:	fe3ff0ef          	jal	80000e44 <main_77+0x6>
    80000e66:	a811                	j	80000e7a <main_77+0x3c>
    80000e68:	fe1ff0ef          	jal	80000e48 <main_77+0xa>
    80000e6c:	006000ef          	jal	80000e72 <main_77+0x34>
    80000e70:	bfc9                	j	80000e42 <main_77+0x4>
    80000e72:	a819                	j	80000e88 <main_77+0x4a>
    80000e74:	fddff0ef          	jal	80000e50 <main_77+0x12>
    80000e78:	b7e5                	j	80000e60 <main_77+0x22>
    80000e7a:	008000ef          	jal	80000e82 <main_77+0x44>
    80000e7e:	ff7ff0ef          	jal	80000e74 <main_77+0x36>
    80000e82:	bfdd                	j	80000e78 <main_77+0x3a>
    80000e84:	fe3ff0ef          	jal	80000e66 <main_77+0x28>
    80000e88:	02e482bb          	mulw	t0,s1,a4
    80000e8c:	4405                	li	s0,1
    80000e8e:	d6bdfb37          	lui	s6,0xd6bdf
    80000e92:	fbe33613          	sltiu	a2,t1,-66
    80000e96:	002f6c33          	or	s8,t5,sp
    80000e9a:	0001                	nop
    80000e9c:	80bd                	srli	s1,s1,0xf

0000000080000e9e <main_399_1_t>:
    80000e9e:	0001                	nop
    80000ea0:	9f31                	addw	a4,a4,a2
    80000ea2:	147d                	addi	s0,s0,-1
    80000ea4:	8c89                	sub	s1,s1,a0
    80000ea6:	82c6                	mv	t0,a7
    80000ea8:	5559                	li	a0,-10
    80000eaa:	02051a33          	mulh	s4,a0,zero
    80000eae:	6ad5                	lui	s5,0x15
    80000eb0:	4ed1                	li	t4,20
    80000eb2:	cc360c9b          	addiw	s9,a2,-829
    80000eb6:	406d083b          	subw	a6,s10,t1

0000000080000eba <main_399_0_t>:
    80000eba:	01d1b7b3          	sltu	a5,gp,t4
    80000ebe:	9bba                	add	s7,s7,a4
    80000ec0:	051d                	addi	a0,a0,7
    80000ec2:	01375f3b          	srlw	t5,a4,s3
    80000ec6:	8e3d                	xor	a2,a2,a5
    80000ec8:	035efc3b          	remuw	s8,t4,s5
    80000ecc:	8c89                	sub	s1,s1,a0
    80000ece:	ffd566e3          	bltu	a0,t4,80000eba <main_399_0_t>
    80000ed2:	008f1e13          	slli	t3,t5,0x8
    80000ed6:	8635                	srai	a2,a2,0xd
    80000ed8:	d079                	beqz	s0,80000e9e <main_399_1_t>
    80000eda:	02a261bb          	remw	gp,tp,a0
    80000ede:	4529                	li	a0,10
    80000ee0:	8cd1                	or	s1,s1,a2
    80000ee2:	0001                	nop

0000000080000ee4 <main_258_1_t>:
    80000ee4:	2571e313          	ori	t1,gp,599
    80000ee8:	01d1b733          	sltu	a4,gp,t4
    80000eec:	1559                	addi	a0,a0,-10
    80000eee:	006e00bb          	addw	ra,t3,t1
    80000ef2:	5c6d                	li	s8,-5
    80000ef4:	006e00bb          	addw	ra,t3,t1
    80000ef8:	03b6c9bb          	divw	s3,a3,s11
    80000efc:	48ad                	li	a7,11

0000000080000efe <main_258_0_t>:
    80000efe:	6ad5                	lui	s5,0x15
    80000f00:	82c6                	mv	t0,a7
    80000f02:	0c0d                	addi	s8,s8,3
    80000f04:	47c0e617          	auipc	a2,0x47c0e
    80000f08:	ff1c4be3          	blt	s8,a7,80000efe <main_258_0_t>
    80000f0c:	0005d19b          	srliw	gp,a1,0x0
    80000f10:	0ad2                	slli	s5,s5,0x14
    80000f12:	fbe33593          	sltiu	a1,t1,-66
    80000f16:	f579                	bnez	a0,80000ee4 <main_258_1_t>
    80000f18:	02051a33          	mulh	s4,a0,zero

0000000080000f1c <main_65>:
    80000f1c:	03800eef          	jal	t4,80000f54 <main_65+0x38>
    80000f20:	a801                	j	80000f30 <main_65+0x14>
    80000f22:	a801                	j	80000f32 <main_65+0x16>
    80000f24:	018000ef          	jal	80000f3c <main_65+0x20>
    80000f28:	a081                	j	80000f68 <main_65+0x4c>
    80000f2a:	bfed                	j	80000f24 <main_65+0x8>
    80000f2c:	038000ef          	jal	80000f64 <main_65+0x48>
    80000f30:	a805                	j	80000f60 <main_65+0x44>
    80000f32:	a819                	j	80000f48 <main_65+0x2c>
    80000f34:	01c000ef          	jal	80000f50 <main_65+0x34>
    80000f38:	bfcd                	j	80000f2a <main_65+0xe>
    80000f3a:	b7dd                	j	80000f20 <main_65+0x4>
    80000f3c:	ff9ff0ef          	jal	80000f34 <main_65+0x18>
    80000f40:	a01d                	j	80000f66 <main_65+0x4a>
    80000f42:	fe1ff0ef          	jal	80000f22 <main_65+0x6>
    80000f46:	bfed                	j	80000f40 <main_65+0x24>
    80000f48:	fffff0ef          	jal	80000f46 <main_65+0x2a>
    80000f4c:	fe1ff0ef          	jal	80000f2c <main_65+0x10>
    80000f50:	bfcd                	j	80000f42 <main_65+0x26>
    80000f52:	b7e5                	j	80000f3a <main_65+0x1e>
    80000f54:	004000ef          	jal	80000f58 <main_65+0x3c>
    80000f58:	fd1ff0ef          	jal	80000f28 <main_65+0xc>
    80000f5c:	00e000ef          	jal	80000f6a <main_65+0x4e>
    80000f60:	fd9ff0ef          	jal	80000f38 <main_65+0x1c>
    80000f64:	bfe5                	j	80000f5c <main_65+0x40>
    80000f66:	b7dd                	j	80000f4c <main_65+0x30>
    80000f68:	b7ed                	j	80000f52 <main_65+0x36>
    80000f6a:	0114ff33          	and	t5,s1,a7

0000000080000f6e <main_169>:
    80000f6e:	00e00eef          	jal	t4,80000f7c <main_169+0xe>
    80000f72:	a031                	j	80000f7e <main_169+0x10>
    80000f74:	a031                	j	80000f80 <main_169+0x12>
    80000f76:	a821                	j	80000f8e <main_169+0x20>
    80000f78:	ffdff0ef          	jal	80000f74 <main_169+0x6>
    80000f7c:	a021                	j	80000f84 <main_169+0x16>
    80000f7e:	a031                	j	80000f8a <main_169+0x1c>
    80000f80:	012000ef          	jal	80000f92 <main_169+0x24>
    80000f84:	bfcd                	j	80000f76 <main_169+0x8>
    80000f86:	fedff0ef          	jal	80000f72 <main_169+0x4>
    80000f8a:	fefff0ef          	jal	80000f78 <main_169+0xa>
    80000f8e:	ff9ff0ef          	jal	80000f86 <main_169+0x18>
    80000f92:	03580f33          	mul	t5,a6,s5

0000000080000f96 <main_23>:
    80000f96:	01000eef          	jal	t4,80000fa6 <main_23+0x10>
    80000f9a:	01a000ef          	jal	80000fb4 <main_23+0x1e>
    80000f9e:	04a000ef          	jal	80000fe8 <main_23+0x52>
    80000fa2:	032000ef          	jal	80000fd4 <main_23+0x3e>
    80000fa6:	a81d                	j	80000fdc <main_23+0x46>
    80000fa8:	022000ef          	jal	80000fca <main_23+0x34>
    80000fac:	bfdd                	j	80000fa2 <main_23+0xc>
    80000fae:	a80d                	j	80000fe0 <main_23+0x4a>
    80000fb0:	042000ef          	jal	80000ff2 <main_23+0x5c>
    80000fb4:	a03d                	j	80000fe2 <main_23+0x4c>
    80000fb6:	a00d                	j	80000fd8 <main_23+0x42>
    80000fb8:	a019                	j	80000fbe <main_23+0x28>
    80000fba:	ff7ff0ef          	jal	80000fb0 <main_23+0x1a>
    80000fbe:	bfe5                	j	80000fb6 <main_23+0x20>
    80000fc0:	b7f5                	j	80000fac <main_23+0x16>
    80000fc2:	bffd                	j	80000fc0 <main_23+0x2a>
    80000fc4:	020000ef          	jal	80000fe4 <main_23+0x4e>
    80000fc8:	bfc9                	j	80000f9a <main_23+0x4>
    80000fca:	ff1ff0ef          	jal	80000fba <main_23+0x24>
    80000fce:	b7c5                	j	80000fae <main_23+0x18>
    80000fd0:	fffff0ef          	jal	80000fce <main_23+0x38>
    80000fd4:	ff1ff0ef          	jal	80000fc4 <main_23+0x2e>
    80000fd8:	016000ef          	jal	80000fee <main_23+0x58>
    80000fdc:	fe7ff0ef          	jal	80000fc2 <main_23+0x2c>
    80000fe0:	bfe1                	j	80000fb8 <main_23+0x22>
    80000fe2:	a029                	j	80000fec <main_23+0x56>
    80000fe4:	fbbff0ef          	jal	80000f9e <main_23+0x8>
    80000fe8:	fe9ff0ef          	jal	80000fd0 <main_23+0x3a>
    80000fec:	bf75                	j	80000fa8 <main_23+0x12>
    80000fee:	fdbff0ef          	jal	80000fc8 <main_23+0x32>
    80000ff2:	8e51                	or	a2,a2,a2

0000000080000ff4 <main_2>:
    80000ff4:	02c00eef          	jal	t4,80001020 <main_2+0x2c>
    80000ff8:	a815                	j	8000102c <main_2+0x38>
    80000ffa:	00e000ef          	jal	80001008 <main_2+0x14>
    80000ffe:	00e000ef          	jal	8000100c <main_2+0x18>
    80001002:	a811                	j	80001016 <main_2+0x22>
    80001004:	02c000ef          	jal	80001030 <main_2+0x3c>
    80001008:	040000ef          	jal	80001048 <main_2+0x54>
    8000100c:	b7f5                	j	80000ff8 <main_2+0x4>
    8000100e:	bfd5                	j	80001002 <main_2+0xe>
    80001010:	00c000ef          	jal	8000101c <main_2+0x28>
    80001014:	bfed                	j	8000100e <main_2+0x1a>
    80001016:	02e000ef          	jal	80001044 <main_2+0x50>
    8000101a:	a00d                	j	8000103c <main_2+0x48>
    8000101c:	fdfff0ef          	jal	80000ffa <main_2+0x6>
    80001020:	a01d                	j	80001046 <main_2+0x52>
    80001022:	fe3ff0ef          	jal	80001004 <main_2+0x10>
    80001026:	ff5ff0ef          	jal	8000101a <main_2+0x26>
    8000102a:	bfd1                	j	80000ffe <main_2+0xa>
    8000102c:	00c000ef          	jal	80001038 <main_2+0x44>
    80001030:	a019                	j	80001036 <main_2+0x42>
    80001032:	fdfff0ef          	jal	80001010 <main_2+0x1c>
    80001036:	a029                	j	80001040 <main_2+0x4c>
    80001038:	febff0ef          	jal	80001022 <main_2+0x2e>
    8000103c:	ff7ff0ef          	jal	80001032 <main_2+0x3e>
    80001040:	fe7ff0ef          	jal	80001026 <main_2+0x32>
    80001044:	b7dd                	j	8000102a <main_2+0x36>
    80001046:	b7f9                	j	80001014 <main_2+0x20>
    80001048:	9f01                	subw	a4,a4,s0

000000008000104a <main_45>:
    8000104a:	03000eef          	jal	t4,8000107a <main_45+0x30>
    8000104e:	a839                	j	8000106c <main_45+0x22>
    80001050:	048000ef          	jal	80001098 <main_45+0x4e>
    80001054:	030000ef          	jal	80001084 <main_45+0x3a>
    80001058:	038000ef          	jal	80001090 <main_45+0x46>
    8000105c:	03a000ef          	jal	80001096 <main_45+0x4c>
    80001060:	034000ef          	jal	80001094 <main_45+0x4a>
    80001064:	03a000ef          	jal	8000109e <main_45+0x54>
    80001068:	018000ef          	jal	80001080 <main_45+0x36>
    8000106c:	00c000ef          	jal	80001078 <main_45+0x2e>
    80001070:	fe5ff0ef          	jal	80001054 <main_45+0xa>
    80001074:	012000ef          	jal	80001086 <main_45+0x3c>
    80001078:	a019                	j	8000107e <main_45+0x34>
    8000107a:	bfed                	j	80001074 <main_45+0x2a>
    8000107c:	a019                	j	80001082 <main_45+0x38>
    8000107e:	bfc9                	j	80001050 <main_45+0x6>
    80001080:	b7c5                	j	80001060 <main_45+0x16>
    80001082:	b7f1                	j	8000104e <main_45+0x4>
    80001084:	a821                	j	8000109c <main_45+0x52>
    80001086:	01a000ef          	jal	800010a0 <main_45+0x56>
    8000108a:	bfc9                	j	8000105c <main_45+0x12>
    8000108c:	fd9ff0ef          	jal	80001064 <main_45+0x1a>
    80001090:	012000ef          	jal	800010a2 <main_45+0x58>
    80001094:	b7d1                	j	80001058 <main_45+0xe>
    80001096:	bfdd                	j	8000108c <main_45+0x42>
    80001098:	fd9ff0ef          	jal	80001070 <main_45+0x26>
    8000109c:	b7f1                	j	80001068 <main_45+0x1e>
    8000109e:	bff9                	j	8000107c <main_45+0x32>
    800010a0:	b7ed                	j	8000108a <main_45+0x40>
    800010a2:	0130a033          	slt	zero,ra,s3

00000000800010a6 <main_118>:
    800010a6:	01000eef          	jal	t4,800010b6 <main_118+0x10>
    800010aa:	032000ef          	jal	800010dc <main_118+0x36>
    800010ae:	a831                	j	800010ca <main_118+0x24>
    800010b0:	a839                	j	800010ce <main_118+0x28>
    800010b2:	00a000ef          	jal	800010bc <main_118+0x16>
    800010b6:	00a000ef          	jal	800010c0 <main_118+0x1a>
    800010ba:	bfd5                	j	800010ae <main_118+0x8>
    800010bc:	a819                	j	800010d2 <main_118+0x2c>
    800010be:	a809                	j	800010d0 <main_118+0x2a>
    800010c0:	ff3ff0ef          	jal	800010b2 <main_118+0xc>
    800010c4:	bfed                	j	800010be <main_118+0x18>
    800010c6:	02a000ef          	jal	800010f0 <main_118+0x4a>
    800010ca:	01e000ef          	jal	800010e8 <main_118+0x42>
    800010ce:	bfe5                	j	800010c6 <main_118+0x20>
    800010d0:	a00d                	j	800010f2 <main_118+0x4c>
    800010d2:	a809                	j	800010e4 <main_118+0x3e>
    800010d4:	a829                	j	800010ee <main_118+0x48>
    800010d6:	a839                	j	800010f4 <main_118+0x4e>
    800010d8:	ffdff0ef          	jal	800010d4 <main_118+0x2e>
    800010dc:	a801                	j	800010ec <main_118+0x46>
    800010de:	ffbff0ef          	jal	800010d8 <main_118+0x32>
    800010e2:	b7f9                	j	800010b0 <main_118+0xa>
    800010e4:	fe1ff0ef          	jal	800010c4 <main_118+0x1e>
    800010e8:	ffbff0ef          	jal	800010e2 <main_118+0x3c>
    800010ec:	b7ed                	j	800010d6 <main_118+0x30>
    800010ee:	bf75                	j	800010aa <main_118+0x4>
    800010f0:	b7fd                	j	800010de <main_118+0x38>
    800010f2:	b7e1                	j	800010ba <main_118+0x14>
    800010f4:	0a80                	addi	s0,sp,336
    800010f6:	4f25                	li	t5,9
    800010f8:	8c7d                	and	s0,s0,a5
    800010fa:	01d1b733          	sltu	a4,gp,t4
    800010fe:	0005d11b          	srliw	sp,a1,0x0
    80001102:	e9870593          	addi	a1,a4,-360
    80001106:	e9870593          	addi	a1,a4,-360
    8000110a:	9bfd                	andi	a5,a5,-1
    8000110c:	03a8dc3b          	divuw	s8,a7,s10
    80001110:	4199                	li	gp,6
    80001112:	0a88                	addi	a0,sp,336
    80001114:	02e4833b          	mulw	t1,s1,a4

0000000080001118 <main_370_1_t>:
    80001118:	0114fe33          	and	t3,s1,a7
    8000111c:	1f7d                	addi	t5,t5,-1
    8000111e:	2571e313          	ori	t1,gp,599
    80001122:	499d                	li	s3,7
    80001124:	449d                	li	s1,7
    80001126:	2571e313          	ori	t1,gp,599
    8000112a:	03fe2c33          	mulhsu	s8,t3,t6

000000008000112e <main_370_0_t>:
    8000112e:	02051a33          	mulh	s4,a0,zero
    80001132:	8d51                	or	a0,a0,a2
    80001134:	47c0e617          	auipc	a2,0x47c0e
    80001138:	19ed                	addi	s3,s3,-5 # 14ffb <_start-0x7ffeb005>
    8000113a:	cc360c9b          	addiw	s9,a2,-829 # ffffffffc7c0edf7 <_end+0xffffffff47bd446f>
    8000113e:	0a88                	addi	a0,sp,336
    80001140:	fe99f7e3          	bgeu	s3,s1,8000112e <main_370_0_t>
    80001144:	2571e313          	ori	t1,gp,599
    80001148:	01f9901b          	slliw	zero,s3,0x1f
    8000114c:	00be5ab3          	srl	s5,t3,a1
    80001150:	e9870593          	addi	a1,a4,-360
    80001154:	ef697593          	andi	a1,s2,-266
    80001158:	fc3f70e3          	bgeu	t5,gp,80001118 <main_370_1_t>
    8000115c:	401e5893          	srai	a7,t3,0x1

0000000080001160 <main_15>:
    80001160:	00a00eef          	jal	t4,8000116a <main_15+0xa>
    80001164:	a009                	j	80001166 <main_15+0x6>
    80001166:	016000ef          	jal	8000117c <main_15+0x1c>
    8000116a:	ffbff0ef          	jal	80001164 <main_15+0x4>
    8000116e:	a809                	j	80001180 <main_15+0x20>
    80001170:	018000ef          	jal	80001188 <main_15+0x28>
    80001174:	ffdff0ef          	jal	80001170 <main_15+0x10>
    80001178:	00a000ef          	jal	80001182 <main_15+0x22>
    8000117c:	008000ef          	jal	80001184 <main_15+0x24>
    80001180:	a031                	j	8000118c <main_15+0x2c>
    80001182:	b7f5                	j	8000116e <main_15+0xe>
    80001184:	ff1ff0ef          	jal	80001174 <main_15+0x14>
    80001188:	ff1ff0ef          	jal	80001178 <main_15+0x18>
    8000118c:	006e003b          	addw	zero,t3,t1
    80001190:	597d                	li	s2,-1
    80001192:	0130a033          	slt	zero,ra,s3
    80001196:	8cd1                	or	s1,s1,a2
    80001198:	0a84                	addi	s1,sp,336
    8000119a:	00be5ab3          	srl	s5,t3,a1
    8000119e:	4f81                	li	t6,0

00000000800011a0 <main_351_1_t>:
    800011a0:	035efc3b          	remuw	s8,t4,s5
    800011a4:	03580f33          	mul	t5,a6,s5
    800011a8:	005e9433          	sll	s0,t4,t0
    800011ac:	0a84                	addi	s1,sp,336
    800011ae:	0905                	addi	s2,s2,1
    800011b0:	57ed                	li	a5,-5
    800011b2:	002f6c33          	or	s8,t5,sp
    800011b6:	5a4d                	li	s4,-13
    800011b8:	d1534593          	xori	a1,t1,-747
    800011bc:	0348dcb3          	divu	s9,a7,s4
    800011c0:	020519b3          	mulh	s3,a0,zero
    800011c4:	00be5ab3          	srl	s5,t3,a1
    800011c8:	ef697493          	andi	s1,s2,-266

00000000800011cc <main_351_0_t>:
    800011cc:	fbe33493          	sltiu	s1,t1,-66
    800011d0:	2b25                	addiw	s6,s6,9 # ffffffffd6bdf009 <_end+0xffffffff56ba4681>
    800011d2:	17f9                	addi	a5,a5,-2
    800011d4:	ff478ce3          	beq	a5,s4,800011cc <main_351_0_t>
    800011d8:	9e01                	subw	a2,a2,s0
    800011da:	e9870493          	addi	s1,a4,-360
    800011de:	8cbd                	xor	s1,s1,a5
    800011e0:	006e003b          	addw	zero,t3,t1
    800011e4:	6b55                	lui	s6,0x15
    800011e6:	8cd1                	or	s1,s1,a2
    800011e8:	8e09                	sub	a2,a2,a0
    800011ea:	fbf90be3          	beq	s2,t6,800011a0 <main_351_1_t>
    800011ee:	ef697493          	andi	s1,s2,-266
    800011f2:	5c59                	li	s8,-10
    800011f4:	2aa5                	addiw	s5,s5,9 # 15009 <_start-0x7ffeaff7>
    800011f6:	42d1                	li	t0,20

00000000800011f8 <main_281_1_t>:
    800011f8:	0a80                	addi	s0,sp,336
    800011fa:	0348ddb3          	divu	s11,a7,s4
    800011fe:	4049d0bb          	sraw	ra,s3,tp
    80001202:	0c11                	addi	s8,s8,4
    80001204:	03434e33          	div	t3,t1,s4
    80001208:	54e5                	li	s1,-7
    8000120a:	035efcbb          	remuw	s9,t4,s5
    8000120e:	9e81                	subw	a3,a3,s0
    80001210:	0001                	nop

0000000080001212 <main_281_0_t>:
    80001212:	03b6c9bb          	divw	s3,a3,s11
    80001216:	0114feb3          	and	t4,s1,a7
    8000121a:	0485                	addi	s1,s1,1
    8000121c:	d8fd                	beqz	s1,80001212 <main_281_0_t>
    8000121e:	d1534713          	xori	a4,t1,-747
    80001222:	006e00bb          	addw	ra,t3,t1
    80001226:	01804433          	xor	s0,zero,s8
    8000122a:	002f6cb3          	or	s9,t5,sp
    8000122e:	fc5c65e3          	bltu	s8,t0,800011f8 <main_281_1_t>
    80001232:	0b59                	addi	s6,s6,22 # 15016 <_start-0x7ffeafea>
    80001234:	4da5                	li	s11,9
    80001236:	005e9433          	sll	s0,t4,t0
    8000123a:	4899                	li	a7,6
    8000123c:	036934b3          	mulhu	s1,s2,s6

0000000080001240 <main_316_1_t>:
    80001240:	036934b3          	mulhu	s1,s2,s6
    80001244:	1de1                	addi	s11,s11,-8
    80001246:	4719                	li	a4,6
    80001248:	9bfd                	andi	a5,a5,-1
    8000124a:	480d                	li	a6,3
    8000124c:	d6bdfb37          	lui	s6,0xd6bdf

0000000080001250 <main_316_0_t>:
    80001250:	ef697493          	andi	s1,s2,-266
    80001254:	01d1b633          	sltu	a2,gp,t4
    80001258:	0348dcb3          	divu	s9,a7,s4
    8000125c:	8cd1                	or	s1,s1,a2
    8000125e:	6b55                	lui	s6,0x15
    80001260:	1775                	addi	a4,a4,-3
    80001262:	03fe2c33          	mulhsu	s8,t3,t6
    80001266:	ff0715e3          	bne	a4,a6,80001250 <main_316_0_t>
    8000126a:	0a84                	addi	s1,sp,336
    8000126c:	fd1ddae3          	bge	s11,a7,80001240 <main_316_1_t>
    80001270:	4001de33          	sra	t3,gp,zero
    80001274:	4791                	li	a5,4
    80001276:	006e00bb          	addw	ra,t3,t1
    8000127a:	01d1b6b3          	sltu	a3,gp,t4
    8000127e:	9bba                	add	s7,s7,a4
    80001280:	01d1b6b3          	sltu	a3,gp,t4
    80001284:	0001                	nop
    80001286:	01804333          	xor	t1,zero,s8

000000008000128a <main_377_1_t>:
    8000128a:	8c7d                	and	s0,s0,a5
    8000128c:	4001ddb3          	sra	s11,gp,zero
    80001290:	03693533          	mulhu	a0,s2,s6
    80001294:	6179                	addi	sp,sp,464
    80001296:	813d                	srli	a0,a0,0xf
    80001298:	17f1                	addi	a5,a5,-4
    8000129a:	006e00bb          	addw	ra,t3,t1
    8000129e:	6a55                	lui	s4,0x15
    800012a0:	4b0d                	li	s6,3
    800012a2:	0114fe33          	and	t3,s1,a7
    800012a6:	5fcd                	li	t6,-13

00000000800012a8 <main_377_0_t>:
    800012a8:	d6bdfab7          	lui	s5,0xd6bdf
    800012ac:	0130a0b3          	slt	ra,ra,s3
    800012b0:	d1534613          	xori	a2,t1,-747
    800012b4:	d6bdfab7          	lui	s5,0xd6bdf
    800012b8:	401e5893          	srai	a7,t3,0x1
    800012bc:	1b59                	addi	s6,s6,-10 # 14ff6 <_start-0x7ffeb00a>
    800012be:	0348dcb3          	divu	s9,a7,s4
    800012c2:	41d70cb3          	sub	s9,a4,t4
    800012c6:	03a8dc3b          	divuw	s8,a7,s10
    800012ca:	6a55                	lui	s4,0x15
    800012cc:	fdfb5ee3          	bge	s6,t6,800012a8 <main_377_0_t>
    800012d0:	01d1b6b3          	sltu	a3,gp,t4
    800012d4:	82c6                	mv	t0,a7
    800012d6:	02eade13          	srli	t3,s5,0x2e
    800012da:	dbc5                	beqz	a5,8000128a <main_377_1_t>
    800012dc:	03580f33          	mul	t5,a6,s5
    800012e0:	4421                	li	s0,8
    800012e2:	4119                	li	sp,6

00000000800012e4 <main_246_1_t>:
    800012e4:	84c6                	mv	s1,a7
    800012e6:	146d                	addi	s0,s0,-5
    800012e8:	4a15                	li	s4,5
    800012ea:	008f1e93          	slli	t4,t5,0x8
    800012ee:	4315                	li	t1,5

00000000800012f0 <main_246_0_t>:
    800012f0:	02051ab3          	mulh	s5,a0,zero
    800012f4:	005e95b3          	sll	a1,t4,t0
    800012f8:	1a7d                	addi	s4,s4,-1 # 14fff <_start-0x7ffeb001>
    800012fa:	4001de33          	sra	t3,gp,zero
    800012fe:	02a261bb          	remw	gp,tp,a0
    80001302:	fe6a77e3          	bgeu	s4,t1,800012f0 <main_246_0_t>
    80001306:	005e95b3          	sll	a1,t4,t0
    8000130a:	fc247de3          	bgeu	s0,sp,800012e4 <main_246_1_t>
    8000130e:	0001                	nop
    80001310:	4619                	li	a2,6
    80001312:	0001                	nop

0000000080001314 <main_373_1_t>:
    80001314:	03434e33          	div	t3,t1,s4
    80001318:	1669                	addi	a2,a2,-6
    8000131a:	49a5                	li	s3,9
    8000131c:	46bd                	li	a3,15

000000008000131e <main_373_0_t>:
    8000131e:	0114feb3          	and	t4,s1,a7
    80001322:	0989                	addi	s3,s3,2
    80001324:	fed9cde3          	blt	s3,a3,8000131e <main_373_0_t>
    80001328:	d675                	beqz	a2,80001314 <main_373_1_t>
    8000132a:	035efcbb          	remuw	s9,t4,s5

000000008000132e <main_172>:
    8000132e:	02800eef          	jal	t4,80001356 <main_172+0x28>
    80001332:	008000ef          	jal	8000133a <main_172+0xc>
    80001336:	02e000ef          	jal	80001364 <main_172+0x36>
    8000133a:	ffdff0ef          	jal	80001336 <main_172+0x8>
    8000133e:	01c000ef          	jal	8000135a <main_172+0x2c>
    80001342:	a82d                	j	8000137c <main_172+0x4e>
    80001344:	a03d                	j	80001372 <main_172+0x44>
    80001346:	020000ef          	jal	80001366 <main_172+0x38>
    8000134a:	ffdff0ef          	jal	80001346 <main_172+0x18>
    8000134e:	012000ef          	jal	80001360 <main_172+0x32>
    80001352:	ff3ff0ef          	jal	80001344 <main_172+0x16>
    80001356:	020000ef          	jal	80001376 <main_172+0x48>
    8000135a:	bfd5                	j	8000134e <main_172+0x20>
    8000135c:	00e000ef          	jal	8000136a <main_172+0x3c>
    80001360:	01a000ef          	jal	8000137a <main_172+0x4c>
    80001364:	bfe5                	j	8000135c <main_172+0x2e>
    80001366:	fddff0ef          	jal	80001342 <main_172+0x14>
    8000136a:	004000ef          	jal	8000136e <main_172+0x40>
    8000136e:	fe5ff0ef          	jal	80001352 <main_172+0x24>
    80001372:	fd9ff0ef          	jal	8000134a <main_172+0x1c>
    80001376:	fc9ff0ef          	jal	8000133e <main_172+0x10>
    8000137a:	bf65                	j	80001332 <main_172+0x4>
    8000137c:	47c0e517          	auipc	a0,0x47c0e

0000000080001380 <main_84>:
    80001380:	02000eef          	jal	t4,800013a0 <main_84+0x20>
    80001384:	a015                	j	800013a8 <main_84+0x28>
    80001386:	016000ef          	jal	8000139c <main_84+0x1c>
    8000138a:	a039                	j	80001398 <main_84+0x18>
    8000138c:	ffbff0ef          	jal	80001386 <main_84+0x6>
    80001390:	014000ef          	jal	800013a4 <main_84+0x24>
    80001394:	bfe5                	j	8000138c <main_84+0xc>
    80001396:	a011                	j	8000139a <main_84+0x1a>
    80001398:	bff5                	j	80001394 <main_84+0x14>
    8000139a:	b7ed                	j	80001384 <main_84+0x4>
    8000139c:	ff5ff0ef          	jal	80001390 <main_84+0x10>
    800013a0:	febff0ef          	jal	8000138a <main_84+0xa>
    800013a4:	ff3ff0ef          	jal	80001396 <main_84+0x16>
    800013a8:	018042b3          	xor	t0,zero,s8

00000000800013ac <main_139>:
    800013ac:	05a00eef          	jal	t4,80001406 <main_139+0x5a>
    800013b0:	034000ef          	jal	800013e4 <main_139+0x38>
    800013b4:	026000ef          	jal	800013da <main_139+0x2e>
    800013b8:	040000ef          	jal	800013f8 <main_139+0x4c>
    800013bc:	a01d                	j	800013e2 <main_139+0x36>
    800013be:	bfed                	j	800013b8 <main_139+0xc>
    800013c0:	a01d                	j	800013e6 <main_139+0x3a>
    800013c2:	ffbff0ef          	jal	800013bc <main_139+0x10>
    800013c6:	b7ed                	j	800013b0 <main_139+0x4>
    800013c8:	a80d                	j	800013fa <main_139+0x4e>
    800013ca:	fffff0ef          	jal	800013c8 <main_139+0x1c>
    800013ce:	ffdff0ef          	jal	800013ca <main_139+0x1e>
    800013d2:	018000ef          	jal	800013ea <main_139+0x3e>
    800013d6:	028000ef          	jal	800013fe <main_139+0x52>
    800013da:	bff5                	j	800013d6 <main_139+0x2a>
    800013dc:	bfe1                	j	800013b4 <main_139+0x8>
    800013de:	fe9ff0ef          	jal	800013c6 <main_139+0x1a>
    800013e2:	a809                	j	800013f4 <main_139+0x48>
    800013e4:	b7ed                	j	800013ce <main_139+0x22>
    800013e6:	ff7ff0ef          	jal	800013dc <main_139+0x30>
    800013ea:	bfe1                	j	800013c2 <main_139+0x16>
    800013ec:	016000ef          	jal	80001402 <main_139+0x56>
    800013f0:	fcfff0ef          	jal	800013be <main_139+0x12>
    800013f4:	014000ef          	jal	80001408 <main_139+0x5c>
    800013f8:	b7dd                	j	800013de <main_139+0x32>
    800013fa:	ff3ff0ef          	jal	800013ec <main_139+0x40>
    800013fe:	ff3ff0ef          	jal	800013f0 <main_139+0x44>
    80001402:	fd1ff0ef          	jal	800013d2 <main_139+0x26>
    80001406:	bf6d                	j	800013c0 <main_139+0x14>
    80001408:	fbe33e13          	sltiu	t3,t1,-66
    8000140c:	555d                	li	a0,-9
    8000140e:	01d1b733          	sltu	a4,gp,t4
    80001412:	0001                	nop
    80001414:	0001                	nop
    80001416:	02fd7e33          	remu	t3,s10,a5
    8000141a:	8e89                	sub	a3,a3,a0
    8000141c:	8cd1                	or	s1,s1,a2
    8000141e:	4049d0bb          	sraw	ra,s3,tp
    80001422:	6c10a293          	slti	t0,ra,1729
    80001426:	002f6bb3          	or	s7,t5,sp
    8000142a:	008f1d93          	slli	s11,t5,0x8
    8000142e:	0ad9                	addi	s5,s5,22 # ffffffffd6bdf016 <_end+0xffffffff56ba468e>
    80001430:	8cbd                	xor	s1,s1,a5

0000000080001432 <main_321_0_t>:
    80001432:	6a55                	lui	s4,0x15
    80001434:	0525                	addi	a0,a0,9 # c7c0f385 <_end+0x47bd49fd>
    80001436:	03a8dbbb          	divuw	s7,a7,s10
    8000143a:	00be5a33          	srl	s4,t3,a1
    8000143e:	03580eb3          	mul	t4,a6,s5
    80001442:	0001                	nop
    80001444:	8cbd                	xor	s1,s1,a5
    80001446:	020519b3          	mulh	s3,a0,zero
    8000144a:	8cbd                	xor	s1,s1,a5
    8000144c:	6179                	addi	sp,sp,464
    8000144e:	0001                	nop
    80001450:	f16d                	bnez	a0,80001432 <main_321_0_t>
    80001452:	016f1b3b          	sllw	s6,t5,s6
    80001456:	4429                	li	s0,10
    80001458:	03434cb3          	div	s9,t1,s4
    8000145c:	82c6                	mv	t0,a7
    8000145e:	cc360c1b          	addiw	s8,a2,-829
    80001462:	035effbb          	remuw	t6,t4,s5
    80001466:	4491                	li	s1,4

0000000080001468 <main_297_0_t>:
    80001468:	0359                	addi	t1,t1,22
    8000146a:	1475                	addi	s0,s0,-3
    8000146c:	47c0e617          	auipc	a2,0x47c0e
    80001470:	006e003b          	addw	zero,t3,t1
    80001474:	fe947ae3          	bgeu	s0,s1,80001468 <main_297_0_t>
    80001478:	6179                	addi	sp,sp,464

000000008000147a <main_69>:
    8000147a:	00400eef          	jal	t4,8000147e <main_69+0x4>
    8000147e:	a009                	j	80001480 <main_69+0x6>
    80001480:	00a000ef          	jal	8000148a <main_69+0x10>
    80001484:	a815                	j	800014b8 <main_69+0x3e>
    80001486:	03e000ef          	jal	800014c4 <main_69+0x4a>
    8000148a:	a815                	j	800014be <main_69+0x44>
    8000148c:	a831                	j	800014a8 <main_69+0x2e>
    8000148e:	a811                	j	800014a2 <main_69+0x28>
    80001490:	020000ef          	jal	800014b0 <main_69+0x36>
    80001494:	a011                	j	80001498 <main_69+0x1e>
    80001496:	a019                	j	8000149c <main_69+0x22>
    80001498:	ff9ff0ef          	jal	80001490 <main_69+0x16>
    8000149c:	fe9ff0ef          	jal	80001484 <main_69+0xa>
    800014a0:	bfdd                	j	80001496 <main_69+0x1c>
    800014a2:	004000ef          	jal	800014a6 <main_69+0x2c>
    800014a6:	a819                	j	800014bc <main_69+0x42>
    800014a8:	01a000ef          	jal	800014c2 <main_69+0x48>
    800014ac:	fe9ff0ef          	jal	80001494 <main_69+0x1a>
    800014b0:	fddff0ef          	jal	8000148c <main_69+0x12>
    800014b4:	ff9ff0ef          	jal	800014ac <main_69+0x32>
    800014b8:	ffdff0ef          	jal	800014b4 <main_69+0x3a>
    800014bc:	a011                	j	800014c0 <main_69+0x46>
    800014be:	bfc1                	j	8000148e <main_69+0x14>
    800014c0:	b7c5                	j	800014a0 <main_69+0x26>
    800014c2:	b7d1                	j	80001486 <main_69+0xc>
    800014c4:	41d70b33          	sub	s6,a4,t4
    800014c8:	5be1                	li	s7,-8
    800014ca:	03580fb3          	mul	t6,a6,s5
    800014ce:	428d                	li	t0,3

00000000800014d0 <main_319_1_t>:
    800014d0:	8d3d                	xor	a0,a0,a5
    800014d2:	8e89                	sub	a3,a3,a0
    800014d4:	03fe2cb3          	mulhsu	s9,t3,t6
    800014d8:	0114feb3          	and	t4,s1,a7
    800014dc:	0001                	nop
    800014de:	03580fb3          	mul	t6,a6,s5
    800014e2:	0b85                	addi	s7,s7,1 # ffffffffd6bdf001 <_end+0xffffffff56ba4679>
    800014e4:	47c0e697          	auipc	a3,0x47c0e
    800014e8:	036464b3          	rem	s1,s0,s6
    800014ec:	4411                	li	s0,4
    800014ee:	4319                	li	t1,6
    800014f0:	01d1b7b3          	sltu	a5,gp,t4
    800014f4:	8cfd                	and	s1,s1,a5

00000000800014f6 <main_319_0_t>:
    800014f6:	8cfd                	and	s1,s1,a5
    800014f8:	0130a033          	slt	zero,ra,s3
    800014fc:	4049d03b          	sraw	zero,s3,tp
    80001500:	0405                	addi	s0,s0,1
    80001502:	0a88                	addi	a0,sp,336
    80001504:	0114feb3          	and	t4,s1,a7
    80001508:	fe6407e3          	beq	s0,t1,800014f6 <main_319_0_t>
    8000150c:	fc5b82e3          	beq	s7,t0,800014d0 <main_319_1_t>
    80001510:	401e5913          	srai	s2,t3,0x1
    80001514:	4181                	li	gp,0
    80001516:	4719                	li	a4,6
    80001518:	6ad5                	lui	s5,0x15

000000008000151a <main_332_0_t>:
    8000151a:	8c89                	sub	s1,s1,a0
    8000151c:	401e5893          	srai	a7,t3,0x1
    80001520:	2571e313          	ori	t1,gp,599
    80001524:	9eb1                	addw	a3,a3,a2
    80001526:	006e003b          	addw	zero,t3,t1
    8000152a:	008f1d93          	slli	s11,t5,0x8
    8000152e:	813d                	srli	a0,a0,0xf
    80001530:	0189                	addi	gp,gp,2
    80001532:	002f6bb3          	or	s7,t5,sp
    80001536:	01804333          	xor	t1,zero,s8
    8000153a:	006e003b          	addw	zero,t3,t1
    8000153e:	41f8569b          	sraiw	a3,a6,0x1f
    80001542:	2571e313          	ori	t1,gp,599
    80001546:	fbe33f13          	sltiu	t5,t1,-66
    8000154a:	0130a033          	slt	zero,ra,s3
    8000154e:	00be5a33          	srl	s4,t3,a1
    80001552:	fce1e4e3          	bltu	gp,a4,8000151a <main_332_0_t>
    80001556:	8cd1                	or	s1,s1,a2

0000000080001558 <main_7>:
    80001558:	02400eef          	jal	t4,8000157c <main_7+0x24>
    8000155c:	a021                	j	80001564 <main_7+0xc>
    8000155e:	a031                	j	8000156a <main_7+0x12>
    80001560:	024000ef          	jal	80001584 <main_7+0x2c>
    80001564:	a031                	j	80001570 <main_7+0x18>
    80001566:	a039                	j	80001574 <main_7+0x1c>
    80001568:	bfdd                	j	8000155e <main_7+0x6>
    8000156a:	bff5                	j	80001566 <main_7+0xe>
    8000156c:	00c000ef          	jal	80001578 <main_7+0x20>
    80001570:	ff1ff0ef          	jal	80001560 <main_7+0x8>
    80001574:	00e000ef          	jal	80001582 <main_7+0x2a>
    80001578:	006000ef          	jal	8000157e <main_7+0x26>
    8000157c:	bfc5                	j	8000156c <main_7+0x14>
    8000157e:	febff0ef          	jal	80001568 <main_7+0x10>
    80001582:	bfe9                	j	8000155c <main_7+0x4>
    80001584:	9f01                	subw	a4,a4,s0
    80001586:	547d                	li	s0,-1
    80001588:	58b5                	li	a7,-19

000000008000158a <main_361_1_t>:
    8000158a:	01804333          	xor	t1,zero,s8
    8000158e:	1469                	addi	s0,s0,-6
    80001590:	4c99                	li	s9,6
    80001592:	4129                	li	sp,10

0000000080001594 <main_361_0_t>:
    80001594:	8346                	mv	t1,a7
    80001596:	0c85                	addi	s9,s9,1
    80001598:	fe2c9ee3          	bne	s9,sp,80001594 <main_361_0_t>
    8000159c:	ff1407e3          	beq	s0,a7,8000158a <main_361_1_t>
    800015a0:	01375f3b          	srlw	t5,a4,s3
    800015a4:	4729                	li	a4,10
    800015a6:	0001                	nop
    800015a8:	03fe2cb3          	mulhsu	s9,t3,t6
    800015ac:	035efcbb          	remuw	s9,t4,s5
    800015b0:	9eb1                	addw	a3,a3,a2
    800015b2:	0a84                	addi	s1,sp,336
    800015b4:	0130a0b3          	slt	ra,ra,s3
    800015b8:	0001                	nop

00000000800015ba <main_303_1_t>:
    800015ba:	006e00bb          	addw	ra,t3,t1
    800015be:	406d07bb          	subw	a5,s10,t1
    800015c2:	03434e33          	div	t3,t1,s4
    800015c6:	177d                	addi	a4,a4,-1
    800015c8:	03fe2cb3          	mulhsu	s9,t3,t6
    800015cc:	01804333          	xor	t1,zero,s8
    800015d0:	01d1b6b3          	sltu	a3,gp,t4
    800015d4:	d1534613          	xori	a2,t1,-747
    800015d8:	005e94b3          	sll	s1,t4,t0
    800015dc:	0130a0b3          	slt	ra,ra,s3
    800015e0:	5bf5                	li	s7,-3
    800015e2:	02e4833b          	mulw	t1,s1,a4
    800015e6:	00be5ab3          	srl	s5,t3,a1
    800015ea:	0130a0b3          	slt	ra,ra,s3
    800015ee:	03580fb3          	mul	t6,a6,s5
    800015f2:	58b9                	li	a7,-18
    800015f4:	6ad5                	lui	s5,0x15

00000000800015f6 <main_303_0_t>:
    800015f6:	03a8dcbb          	divuw	s9,a7,s10
    800015fa:	fbe33513          	sltiu	a0,t1,-66
    800015fe:	1bd9                	addi	s7,s7,-10
    80001600:	ff1bdbe3          	bge	s7,a7,800015f6 <main_303_0_t>
    80001604:	01f9909b          	slliw	ra,s3,0x1f
    80001608:	03646333          	rem	t1,s0,s6
    8000160c:	0348ddb3          	divu	s11,a7,s4
    80001610:	6c10a293          	slti	t0,ra,1729
    80001614:	f35d                	bnez	a4,800015ba <main_303_1_t>
    80001616:	005e94b3          	sll	s1,t4,t0

000000008000161a <main_98>:
    8000161a:	00400eef          	jal	t4,8000161e <main_98+0x4>
    8000161e:	01a000ef          	jal	80001638 <main_98+0x1e>
    80001622:	a809                	j	80001634 <main_98+0x1a>
    80001624:	a021                	j	8000162c <main_98+0x12>
    80001626:	00a000ef          	jal	80001630 <main_98+0x16>
    8000162a:	bfed                	j	80001624 <main_98+0xa>
    8000162c:	ffbff0ef          	jal	80001626 <main_98+0xc>
    80001630:	006000ef          	jal	80001636 <main_98+0x1c>
    80001634:	bfdd                	j	8000162a <main_98+0x10>
    80001636:	a019                	j	8000163c <main_98+0x22>
    80001638:	febff0ef          	jal	80001622 <main_98+0x8>
    8000163c:	02e482bb          	mulw	t0,s1,a4

0000000080001640 <main_40>:
    80001640:	00400eef          	jal	t4,80001644 <main_40+0x4>
    80001644:	004000ef          	jal	80001648 <main_40+0x8>
    80001648:	a829                	j	80001662 <main_40+0x22>
    8000164a:	004000ef          	jal	8000164e <main_40+0xe>
    8000164e:	a805                	j	8000167e <main_40+0x3e>
    80001650:	034000ef          	jal	80001684 <main_40+0x44>
    80001654:	016000ef          	jal	8000166a <main_40+0x2a>
    80001658:	a00d                	j	8000167a <main_40+0x3a>
    8000165a:	ff1ff0ef          	jal	8000164a <main_40+0xa>
    8000165e:	ff3ff0ef          	jal	80001650 <main_40+0x10>
    80001662:	01e000ef          	jal	80001680 <main_40+0x40>
    80001666:	fefff0ef          	jal	80001654 <main_40+0x14>
    8000166a:	bfc5                	j	8000165a <main_40+0x1a>
    8000166c:	008000ef          	jal	80001674 <main_40+0x34>
    80001670:	ffdff0ef          	jal	8000166c <main_40+0x2c>
    80001674:	a009                	j	80001676 <main_40+0x36>
    80001676:	ff1ff0ef          	jal	80001666 <main_40+0x26>
    8000167a:	fe5ff0ef          	jal	8000165e <main_40+0x1e>
    8000167e:	bfe9                	j	80001658 <main_40+0x18>
    80001680:	ff1ff0ef          	jal	80001670 <main_40+0x30>
    80001684:	4001dbb3          	sra	s7,gp,zero
    80001688:	4a25                	li	s4,9
    8000168a:	8cd1                	or	s1,s1,a2
    8000168c:	9f31                	addw	a4,a4,a2
    8000168e:	4049d03b          	sraw	zero,s3,tp
    80001692:	5351                	li	t1,-12

0000000080001694 <main_291_1_t>:
    80001694:	6c10a193          	slti	gp,ra,1729
    80001698:	8735                	srai	a4,a4,0xd
    8000169a:	020519b3          	mulh	s3,a0,zero
    8000169e:	03693533          	mulhu	a0,s2,s6
    800016a2:	1a65                	addi	s4,s4,-7 # 14ff9 <_start-0x7ffeb007>
    800016a4:	8cbd                	xor	s1,s1,a5
    800016a6:	4b29                	li	s6,10
    800016a8:	2571e293          	ori	t0,gp,599
    800016ac:	006d0ab3          	add	s5,s10,t1
    800016b0:	46a5                	li	a3,9

00000000800016b2 <main_291_0_t>:
    800016b2:	02fd7f33          	remu	t5,s10,a5
    800016b6:	035efcbb          	remuw	s9,t4,s5
    800016ba:	02a2613b          	remw	sp,tp,a0
    800016be:	8735                	srai	a4,a4,0xd
    800016c0:	0001                	nop
    800016c2:	1b59                	addi	s6,s6,-10
    800016c4:	02fd7f33          	remu	t5,s10,a5
    800016c8:	401e5893          	srai	a7,t3,0x1
    800016cc:	0130a033          	slt	zero,ra,s3
    800016d0:	8c7d                	and	s0,s0,a5
    800016d2:	0a84                	addi	s1,sp,336
    800016d4:	0bd2                	slli	s7,s7,0x14
    800016d6:	0114feb3          	and	t4,s1,a7
    800016da:	9cba                	add	s9,s9,a4
    800016dc:	fcdb5be3          	bge	s6,a3,800016b2 <main_291_0_t>
    800016e0:	03693533          	mulhu	a0,s2,s6
    800016e4:	fa6a08e3          	beq	s4,t1,80001694 <main_291_1_t>
    800016e8:	d6bdfbb7          	lui	s7,0xd6bdf
    800016ec:	409d                	li	ra,7
    800016ee:	47c0e617          	auipc	a2,0x47c0e
    800016f2:	41f8571b          	sraiw	a4,a6,0x1f
    800016f6:	4f9d                	li	t6,7
    800016f8:	4049d03b          	sraw	zero,s3,tp

00000000800016fc <main_259_1_t>:
    800016fc:	0348dcb3          	divu	s9,a7,s4
    80001700:	997d                	andi	a0,a0,-1
    80001702:	03434db3          	div	s11,t1,s4
    80001706:	01d1b733          	sltu	a4,gp,t4
    8000170a:	10f1                	addi	ra,ra,-4
    8000170c:	4001ddb3          	sra	s11,gp,zero
    80001710:	823d                	srli	a2,a2,0xf
    80001712:	03a8dc3b          	divuw	s8,a7,s10
    80001716:	4aa9                	li	s5,10
    80001718:	ef697593          	andi	a1,s2,-266
    8000171c:	0348dcb3          	divu	s9,a7,s4
    80001720:	0005d19b          	srliw	gp,a1,0x0
    80001724:	42a9                	li	t0,10
    80001726:	03646433          	rem	s0,s0,s6

000000008000172a <main_259_0_t>:
    8000172a:	036935b3          	mulhu	a1,s2,s6
    8000172e:	0348dcb3          	divu	s9,a7,s4
    80001732:	1af1                	addi	s5,s5,-4 # 14ffc <_start-0x7ffeb004>
    80001734:	4049d03b          	sraw	zero,s3,tp
    80001738:	fe5af9e3          	bgeu	s5,t0,8000172a <main_259_0_t>
    8000173c:	fdf0f0e3          	bgeu	ra,t6,800016fc <main_259_1_t>
    80001740:	036935b3          	mulhu	a1,s2,s6
    80001744:	586d                	li	a6,-5
    80001746:	008f1e93          	slli	t4,t5,0x8
    8000174a:	58c1                	li	a7,-16
    8000174c:	016f1c3b          	sllw	s8,t5,s6

0000000080001750 <main_236_1_t>:
    80001750:	8cbd                	xor	s1,s1,a5
    80001752:	2571e313          	ori	t1,gp,599
    80001756:	1859                	addi	a6,a6,-10
    80001758:	6b55                	lui	s6,0x15
    8000175a:	57f9                	li	a5,-2
    8000175c:	0001                	nop

000000008000175e <main_236_0_t>:
    8000175e:	02fd7f33          	remu	t5,s10,a5
    80001762:	401e5993          	srai	s3,t3,0x1
    80001766:	0785                	addi	a5,a5,1
    80001768:	dbfd                	beqz	a5,8000175e <main_236_0_t>
    8000176a:	ff1853e3          	bge	a6,a7,80001750 <main_236_1_t>
    8000176e:	8e09                	sub	a2,a2,a0
    80001770:	5161                	li	sp,-8
    80001772:	4901                	li	s2,0
    80001774:	006e00bb          	addw	ra,t3,t1

0000000080001778 <main_250_1_t>:
    80001778:	02a262bb          	remw	t0,tp,a0
    8000177c:	0129                	addi	sp,sp,10
    8000177e:	016f1c3b          	sllw	s8,t5,s6
    80001782:	5471                	li	s0,-4
    80001784:	0001                	nop
    80001786:	47c0e697          	auipc	a3,0x47c0e

000000008000178a <main_250_0_t>:
    8000178a:	0a84                	addi	s1,sp,336
    8000178c:	e9870613          	addi	a2,a4,-360
    80001790:	6c10a313          	slti	t1,ra,1729
    80001794:	6ad5                	lui	s5,0x15
    80001796:	406d083b          	subw	a6,s10,t1
    8000179a:	cc360d9b          	addiw	s11,a2,-829 # ffffffffc7c0f3b1 <_end+0xffffffff47bd4a29>
    8000179e:	036464b3          	rem	s1,s0,s6
    800017a2:	401e5993          	srai	s3,t3,0x1
    800017a6:	0405                	addi	s0,s0,1
    800017a8:	f06d                	bnez	s0,8000178a <main_250_0_t>
    800017aa:	03693633          	mulhu	a2,s2,s6
    800017ae:	8d51                	or	a0,a0,a2
    800017b0:	6ad5                	lui	s5,0x15
    800017b2:	4001de33          	sra	t3,gp,zero
    800017b6:	41d70db3          	sub	s11,a4,t4
    800017ba:	fb214fe3          	blt	sp,s2,80001778 <main_250_1_t>
    800017be:	0001                	nop
    800017c0:	5de1                	li	s11,-8
    800017c2:	01f9901b          	slliw	zero,s3,0x1f
    800017c6:	47c0e597          	auipc	a1,0x47c0e
    800017ca:	9e01                	subw	a2,a2,s0
    800017cc:	4719                	li	a4,6

00000000800017ce <main_240_1_t>:
    800017ce:	0001                	nop
    800017d0:	0d9d                	addi	s11,s11,7
    800017d2:	41f8569b          	sraiw	a3,a6,0x1f
    800017d6:	4101                	li	sp,0
    800017d8:	ef697513          	andi	a0,s2,-266
    800017dc:	4f2d                	li	t5,11
    800017de:	006d0a33          	add	s4,s10,t1

00000000800017e2 <main_240_0_t>:
    800017e2:	41d70c33          	sub	s8,a4,t4
    800017e6:	006e003b          	addw	zero,t3,t1
    800017ea:	01375ebb          	srlw	t4,a4,s3
    800017ee:	0121                	addi	sp,sp,8
    800017f0:	9e01                	subw	a2,a2,s0
    800017f2:	005e94b3          	sll	s1,t4,t0
    800017f6:	ffe146e3          	blt	sp,t5,800017e2 <main_240_0_t>
    800017fa:	41d70c33          	sub	s8,a4,t4
    800017fe:	9e01                	subw	a2,a2,s0
    80001800:	fced97e3          	bne	s11,a4,800017ce <main_240_1_t>
    80001804:	01804333          	xor	t1,zero,s8
    80001808:	4621                	li	a2,8
    8000180a:	0001                	nop
    8000180c:	d1534693          	xori	a3,t1,-747
    80001810:	005e94b3          	sll	s1,t4,t0
    80001814:	01375e3b          	srlw	t3,a4,s3
    80001818:	41d70c33          	sub	s8,a4,t4
    8000181c:	8735                	srai	a4,a4,0xd
    8000181e:	d6bdfab7          	lui	s5,0xd6bdf
    80001822:	9b3a                	add	s6,s6,a4
    80001824:	8735                	srai	a4,a4,0xd
    80001826:	8e89                	sub	a3,a3,a0
    80001828:	2571e313          	ori	t1,gp,599
    8000182c:	0001                	nop
    8000182e:	020519b3          	mulh	s3,a0,zero

0000000080001832 <main_344_0_t>:
    80001832:	8cbd                	xor	s1,s1,a5
    80001834:	1661                	addi	a2,a2,-8
    80001836:	9b3a                	add	s6,s6,a4
    80001838:	6179                	addi	sp,sp,464
    8000183a:	8e89                	sub	a3,a3,a0
    8000183c:	406d07bb          	subw	a5,s10,t1
    80001840:	813d                	srli	a0,a0,0xf
    80001842:	020519b3          	mulh	s3,a0,zero
    80001846:	e9870513          	addi	a0,a4,-360
    8000184a:	03693533          	mulhu	a0,s2,s6
    8000184e:	2a25                	addiw	s4,s4,9
    80001850:	4001dcb3          	sra	s9,gp,zero
    80001854:	401e5893          	srai	a7,t3,0x1
    80001858:	de69                	beqz	a2,80001832 <main_344_0_t>
    8000185a:	41d70c33          	sub	s8,a4,t4
    8000185e:	5b65                	li	s6,-7
    80001860:	0005d19b          	srliw	gp,a1,0x0
    80001864:	8f3d                	xor	a4,a4,a5
    80001866:	4cad                	li	s9,11
    80001868:	00be5a33          	srl	s4,t3,a1

000000008000186c <main_212_1_t>:
    8000186c:	fbe33593          	sltiu	a1,t1,-66
    80001870:	9e81                	subw	a3,a3,s0
    80001872:	0b19                	addi	s6,s6,6 # 15006 <_start-0x7ffeaffa>
    80001874:	03a8dc3b          	divuw	s8,a7,s10
    80001878:	5365                	li	t1,-7
    8000187a:	036935b3          	mulhu	a1,s2,s6
    8000187e:	40d1                	li	ra,20
    80001880:	6ad5                	lui	s5,0x15
    80001882:	6c10a293          	slti	t0,ra,1729
    80001886:	008f1e93          	slli	t4,t5,0x8
    8000188a:	0a84                	addi	s1,sp,336
    8000188c:	6179                	addi	sp,sp,464
    8000188e:	0001                	nop
    80001890:	823d                	srli	a2,a2,0xf

0000000080001892 <main_212_0_t>:
    80001892:	9db1                	addw	a1,a1,a2
    80001894:	fbe33593          	sltiu	a1,t1,-66
    80001898:	02a261bb          	remw	gp,tp,a0
    8000189c:	0305                	addi	t1,t1,1
    8000189e:	41d70db3          	sub	s11,a4,t4
    800018a2:	01d1b733          	sltu	a4,gp,t4
    800018a6:	020519b3          	mulh	s3,a0,zero
    800018aa:	0130a033          	slt	zero,ra,s3
    800018ae:	d6bdfab7          	lui	s5,0xd6bdf
    800018b2:	03434e33          	div	t3,t1,s4
    800018b6:	fc130ee3          	beq	t1,ra,80001892 <main_212_0_t>
    800018ba:	005e9533          	sll	a0,t4,t0
    800018be:	8f7d                	and	a4,a4,a5
    800018c0:	03b6c93b          	divw	s2,a3,s11
    800018c4:	fb9b14e3          	bne	s6,s9,8000186c <main_212_1_t>
    800018c8:	cc360d9b          	addiw	s11,a2,-829
    800018cc:	56d9                	li	a3,-10
    800018ce:	e9870513          	addi	a0,a4,-360
    800018d2:	9f31                	addw	a4,a4,a2
    800018d4:	41d70c33          	sub	s8,a4,t4
    800018d8:	0005d19b          	srliw	gp,a1,0x0
    800018dc:	01375e3b          	srlw	t3,a4,s3
    800018e0:	41f8571b          	sraiw	a4,a6,0x1f
    800018e4:	fbe33f13          	sltiu	t5,t1,-66
    800018e8:	0001                	nop
    800018ea:	0348dc33          	divu	s8,a7,s4
    800018ee:	4001dcb3          	sra	s9,gp,zero
    800018f2:	82c6                	mv	t0,a7
    800018f4:	ef697513          	andi	a0,s2,-266

00000000800018f8 <main_301_0_t>:
    800018f8:	6c10a293          	slti	t0,ra,1729
    800018fc:	01d1b733          	sltu	a4,gp,t4
    80001900:	9f31                	addw	a4,a4,a2
    80001902:	6a55                	lui	s4,0x15
    80001904:	401e5893          	srai	a7,t3,0x1
    80001908:	02a261bb          	remw	gp,tp,a0
    8000190c:	401e5893          	srai	a7,t3,0x1
    80001910:	002f6bb3          	or	s7,t5,sp
    80001914:	d6bdfab7          	lui	s5,0xd6bdf
    80001918:	06a9                	addi	a3,a3,10 # c7c0f790 <_end+0x47bd4e08>
    8000191a:	02eadd93          	srli	s11,s5,0x2e
    8000191e:	008f1d93          	slli	s11,t5,0x8
    80001922:	03646333          	rem	t1,s0,s6
    80001926:	03693533          	mulhu	a0,s2,s6
    8000192a:	d6bdfab7          	lui	s5,0xd6bdf
    8000192e:	f6e9                	bnez	a3,800018f8 <main_301_0_t>
    80001930:	8c7d                	and	s0,s0,a5
    80001932:	479d                	li	a5,7
    80001934:	0001                	nop

0000000080001936 <main_205_0_t>:
    80001936:	035effbb          	remuw	t6,t4,s5
    8000193a:	17e5                	addi	a5,a5,-7
    8000193c:	ffed                	bnez	a5,80001936 <main_205_0_t>
    8000193e:	4049d0bb          	sraw	ra,s3,tp
    80001942:	5f61                	li	t5,-8
    80001944:	00be59b3          	srl	s3,t3,a1
    80001948:	006e003b          	addw	zero,t3,t1
    8000194c:	018042b3          	xor	t0,zero,s8
    80001950:	e9870513          	addi	a0,a4,-360
    80001954:	03693533          	mulhu	a0,s2,s6
    80001958:	01d1b6b3          	sltu	a3,gp,t4
    8000195c:	4315                	li	t1,5

000000008000195e <main_381_0_t>:
    8000195e:	d6bdfa37          	lui	s4,0xd6bdf
    80001962:	9c31                	addw	s0,s0,a2
    80001964:	8d09                	sub	a0,a0,a0
    80001966:	8d09                	sub	a0,a0,a0
    80001968:	0f19                	addi	t5,t5,6
    8000196a:	03b6c8bb          	divw	a7,a3,s11
    8000196e:	0001                	nop
    80001970:	fe6f67e3          	bltu	t5,t1,8000195e <main_381_0_t>
    80001974:	035effbb          	remuw	t6,t4,s5
    80001978:	4305                	li	t1,1
    8000197a:	016f1c3b          	sllw	s8,t5,s6
    8000197e:	2571e493          	ori	s1,gp,599
    80001982:	80bd                	srli	s1,s1,0xf
    80001984:	01f9901b          	slliw	zero,s3,0x1f
    80001988:	01375f3b          	srlw	t5,a4,s3
    8000198c:	41d70db3          	sub	s11,a4,t4
    80001990:	8dbd                	xor	a1,a1,a5
    80001992:	42b9                	li	t0,14

0000000080001994 <main_296_1_t>:
    80001994:	02051ab3          	mulh	s5,a0,zero
    80001998:	03a8dcbb          	divuw	s9,a7,s10
    8000199c:	03a8dcbb          	divuw	s9,a7,s10
    800019a0:	0001                	nop
    800019a2:	0325                	addi	t1,t1,9
    800019a4:	5459                	li	s0,-10
    800019a6:	4001de33          	sra	t3,gp,zero
    800019aa:	01375f3b          	srlw	t5,a4,s3
    800019ae:	4735                	li	a4,13
    800019b0:	01f9901b          	slliw	zero,s3,0x1f
    800019b4:	d1534793          	xori	a5,t1,-747

00000000800019b8 <main_296_0_t>:
    800019b8:	035efcbb          	remuw	s9,t4,s5
    800019bc:	0a90                	addi	a2,sp,336
    800019be:	0405                	addi	s0,s0,1
    800019c0:	fee41ce3          	bne	s0,a4,800019b8 <main_296_0_t>
    800019c4:	0130a033          	slt	zero,ra,s3
    800019c8:	02e484bb          	mulw	s1,s1,a4
    800019cc:	fc5364e3          	bltu	t1,t0,80001994 <main_296_1_t>
    800019d0:	0a90                	addi	a2,sp,336

00000000800019d2 <main_37>:
    800019d2:	02400eef          	jal	t4,800019f6 <main_37+0x24>
    800019d6:	022000ef          	jal	800019f8 <main_37+0x26>
    800019da:	006000ef          	jal	800019e0 <main_37+0xe>
    800019de:	a029                	j	800019e8 <main_37+0x16>
    800019e0:	ff7ff0ef          	jal	800019d6 <main_37+0x4>
    800019e4:	010000ef          	jal	800019f4 <main_37+0x22>
    800019e8:	bfcd                	j	800019da <main_37+0x8>
    800019ea:	ffbff0ef          	jal	800019e4 <main_37+0x12>
    800019ee:	00e000ef          	jal	800019fc <main_37+0x2a>
    800019f2:	a039                	j	80001a00 <main_37+0x2e>
    800019f4:	bffd                	j	800019f2 <main_37+0x20>
    800019f6:	bfd5                	j	800019ea <main_37+0x18>
    800019f8:	00a000ef          	jal	80001a02 <main_37+0x30>
    800019fc:	b7cd                	j	800019de <main_37+0xc>
    800019fe:	bfc5                	j	800019ee <main_37+0x1c>
    80001a00:	bffd                	j	800019fe <main_37+0x2c>
    80001a02:	02a2613b          	remw	sp,tp,a0
    80001a06:	57ed                	li	a5,-5
    80001a08:	016f1b3b          	sllw	s6,t5,s6
    80001a0c:	036462b3          	rem	t0,s0,s6
    80001a10:	00be5a33          	srl	s4,t3,a1
    80001a14:	59c9                	li	s3,-14
    80001a16:	03434cb3          	div	s9,t1,s4

0000000080001a1a <main_364_0_t>:
    80001a1a:	036462b3          	rem	t0,s0,s6
    80001a1e:	17dd                	addi	a5,a5,-9
    80001a20:	8c7d                	and	s0,s0,a5
    80001a22:	ff379ce3          	bne	a5,s3,80001a1a <main_364_0_t>
    80001a26:	8c7d                	and	s0,s0,a5
    80001a28:	4b09                	li	s6,2
    80001a2a:	03fe2bb3          	mulhsu	s7,t3,t6
    80001a2e:	036934b3          	mulhu	s1,s2,s6
    80001a32:	03434cb3          	div	s9,t1,s4
    80001a36:	484d                	li	a6,19
    80001a38:	01f9901b          	slliw	zero,s3,0x1f

0000000080001a3c <main_247_0_t>:
    80001a3c:	9db1                	addw	a1,a1,a2
    80001a3e:	0001                	nop
    80001a40:	0b05                	addi	s6,s6,1
    80001a42:	ff0b1de3          	bne	s6,a6,80001a3c <main_247_0_t>
    80001a46:	44b5                	li	s1,13

0000000080001a48 <main_20>:
    80001a48:	00c00eef          	jal	t4,80001a54 <main_20+0xc>
    80001a4c:	a035                	j	80001a78 <main_20+0x30>
    80001a4e:	a0b9                	j	80001a9c <main_20+0x54>
    80001a50:	012000ef          	jal	80001a62 <main_20+0x1a>
    80001a54:	a031                	j	80001a60 <main_20+0x18>
    80001a56:	a021                	j	80001a5e <main_20+0x16>
    80001a58:	a035                	j	80001a84 <main_20+0x3c>
    80001a5a:	fffff0ef          	jal	80001a58 <main_20+0x10>
    80001a5e:	a00d                	j	80001a80 <main_20+0x38>
    80001a60:	a011                	j	80001a64 <main_20+0x1c>
    80001a62:	a811                	j	80001a76 <main_20+0x2e>
    80001a64:	a805                	j	80001a94 <main_20+0x4c>
    80001a66:	a01d                	j	80001a8c <main_20+0x44>
    80001a68:	012000ef          	jal	80001a7a <main_20+0x32>
    80001a6c:	ffdff0ef          	jal	80001a68 <main_20+0x20>
    80001a70:	bff5                	j	80001a6c <main_20+0x24>
    80001a72:	010000ef          	jal	80001a82 <main_20+0x3a>
    80001a76:	bfe1                	j	80001a4e <main_20+0x6>
    80001a78:	a829                	j	80001a92 <main_20+0x4a>
    80001a7a:	fedff0ef          	jal	80001a66 <main_20+0x1e>
    80001a7e:	bfd5                	j	80001a72 <main_20+0x2a>
    80001a80:	bffd                	j	80001a7e <main_20+0x36>
    80001a82:	a819                	j	80001a98 <main_20+0x50>
    80001a84:	004000ef          	jal	80001a88 <main_20+0x40>
    80001a88:	fc5ff0ef          	jal	80001a4c <main_20+0x4>
    80001a8c:	a011                	j	80001a90 <main_20+0x48>
    80001a8e:	b7f1                	j	80001a5a <main_20+0x12>
    80001a90:	b7d9                	j	80001a56 <main_20+0xe>
    80001a92:	bf7d                	j	80001a50 <main_20+0x8>
    80001a94:	fddff0ef          	jal	80001a70 <main_20+0x28>
    80001a98:	ff7ff0ef          	jal	80001a8e <main_20+0x46>
    80001a9c:	0114ff33          	and	t5,s1,a7

0000000080001aa0 <main_85>:
    80001aa0:	00a00eef          	jal	t4,80001aaa <main_85+0xa>
    80001aa4:	a01d                	j	80001aca <main_85+0x2a>
    80001aa6:	008000ef          	jal	80001aae <main_85+0xe>
    80001aaa:	a815                	j	80001ade <main_85+0x3e>
    80001aac:	bfe5                	j	80001aa4 <main_85+0x4>
    80001aae:	a03d                	j	80001adc <main_85+0x3c>
    80001ab0:	a089                	j	80001af2 <main_85+0x52>
    80001ab2:	032000ef          	jal	80001ae4 <main_85+0x44>
    80001ab6:	016000ef          	jal	80001acc <main_85+0x2c>
    80001aba:	a01d                	j	80001ae0 <main_85+0x40>
    80001abc:	00c000ef          	jal	80001ac8 <main_85+0x28>
    80001ac0:	036000ef          	jal	80001af6 <main_85+0x56>
    80001ac4:	bfdd                	j	80001aba <main_85+0x1a>
    80001ac6:	a025                	j	80001aee <main_85+0x4e>
    80001ac8:	a00d                	j	80001aea <main_85+0x4a>
    80001aca:	bfcd                	j	80001abc <main_85+0x1c>
    80001acc:	00e000ef          	jal	80001ada <main_85+0x3a>
    80001ad0:	a02d                	j	80001afa <main_85+0x5a>
    80001ad2:	fdbff0ef          	jal	80001aac <main_85+0xc>
    80001ad6:	febff0ef          	jal	80001ac0 <main_85+0x20>
    80001ada:	bfe5                	j	80001ad2 <main_85+0x32>
    80001adc:	a029                	j	80001ae6 <main_85+0x46>
    80001ade:	b7dd                	j	80001ac4 <main_85+0x24>
    80001ae0:	fe7ff0ef          	jal	80001ac6 <main_85+0x26>
    80001ae4:	b7c9                	j	80001aa6 <main_85+0x6>
    80001ae6:	00a000ef          	jal	80001af0 <main_85+0x50>
    80001aea:	fedff0ef          	jal	80001ad6 <main_85+0x36>
    80001aee:	b7c9                	j	80001ab0 <main_85+0x10>
    80001af0:	b7c5                	j	80001ad0 <main_85+0x30>
    80001af2:	fc5ff0ef          	jal	80001ab6 <main_85+0x16>
    80001af6:	fbdff0ef          	jal	80001ab2 <main_85+0x12>
    80001afa:	0152                	slli	sp,sp,0x14
    80001afc:	40a9                	li	ra,10
    80001afe:	03646433          	rem	s0,s0,s6
    80001b02:	8f7d                	and	a4,a4,a5
    80001b04:	4899                	li	a7,6
    80001b06:	005e9533          	sll	a0,t4,t0

0000000080001b0a <main_347_1_t>:
    80001b0a:	47c0e617          	auipc	a2,0x47c0e
    80001b0e:	8446                	mv	s0,a7
    80001b10:	0114feb3          	and	t4,s1,a7
    80001b14:	401e5913          	srai	s2,t3,0x1
    80001b18:	10fd                	addi	ra,ra,-1
    80001b1a:	537d                	li	t1,-1
    80001b1c:	401e5913          	srai	s2,t3,0x1
    80001b20:	02051a33          	mulh	s4,a0,zero
    80001b24:	0001                	nop
    80001b26:	4dad                	li	s11,11
    80001b28:	006e003b          	addw	zero,t3,t1

0000000080001b2c <main_347_0_t>:
    80001b2c:	9f01                	subw	a4,a4,s0
    80001b2e:	4049d03b          	sraw	zero,s3,tp
    80001b32:	01804433          	xor	s0,zero,s8
    80001b36:	8f3d                	xor	a4,a4,a5
    80001b38:	0321                	addi	t1,t1,8
    80001b3a:	0bd9                	addi	s7,s7,22 # ffffffffd6bdf016 <_end+0xffffffff56ba468e>
    80001b3c:	0114feb3          	and	t4,s1,a7
    80001b40:	035efc3b          	remuw	s8,t4,s5
    80001b44:	ffb344e3          	blt	t1,s11,80001b2c <main_347_0_t>
    80001b48:	0b52                	slli	s6,s6,0x14
    80001b4a:	006e003b          	addw	zero,t3,t1
    80001b4e:	2b25                	addiw	s6,s6,9
    80001b50:	fb10dde3          	bge	ra,a7,80001b0a <main_347_1_t>
    80001b54:	6b55                	lui	s6,0x15
    80001b56:	58f5                	li	a7,-3
    80001b58:	0a94                	addi	a3,sp,336
    80001b5a:	8e3d                	xor	a2,a2,a5
    80001b5c:	0bd9                	addi	s7,s7,22
    80001b5e:	8ed1                	or	a3,a3,a2
    80001b60:	9c3a                	add	s8,s8,a4
    80001b62:	406d083b          	subw	a6,s10,t1
    80001b66:	02eade93          	srli	t4,s5,0x2e
    80001b6a:	5569                	li	a0,-6
    80001b6c:	41f8579b          	sraiw	a5,a6,0x1f

0000000080001b70 <main_274_1_t>:
    80001b70:	cc360d9b          	addiw	s11,a2,-829 # ffffffffc7c0f7cd <_end+0xffffffff47bd4e45>
    80001b74:	18e1                	addi	a7,a7,-8
    80001b76:	8e3d                	xor	a2,a2,a5
    80001b78:	545d                	li	s0,-9
    80001b7a:	0001                	nop
    80001b7c:	6c10a293          	slti	t0,ra,1729

0000000080001b80 <main_274_0_t>:
    80001b80:	8dbd                	xor	a1,a1,a5
    80001b82:	41d70db3          	sub	s11,a4,t4
    80001b86:	03b6ca3b          	divw	s4,a3,s11
    80001b8a:	0130a0b3          	slt	ra,ra,s3
    80001b8e:	0405                	addi	s0,s0,1
    80001b90:	f865                	bnez	s0,80001b80 <main_274_0_t>
    80001b92:	2571e313          	ori	t1,gp,599
    80001b96:	02fd7f33          	remu	t5,s10,a5
    80001b9a:	6b55                	lui	s6,0x15
    80001b9c:	fca8dae3          	bge	a7,a0,80001b70 <main_274_1_t>
    80001ba0:	6b55                	lui	s6,0x15
    80001ba2:	429d                	li	t0,7
    80001ba4:	401e5893          	srai	a7,t3,0x1
    80001ba8:	0b59                	addi	s6,s6,22 # 15016 <_start-0x7ffeafea>
    80001baa:	02fd7e33          	remu	t3,s10,a5
    80001bae:	03b6c93b          	divw	s2,a3,s11
    80001bb2:	01f9901b          	slliw	zero,s3,0x1f
    80001bb6:	005e94b3          	sll	s1,t4,t0
    80001bba:	008f1d93          	slli	s11,t5,0x8
    80001bbe:	471d                	li	a4,7
    80001bc0:	01d1b6b3          	sltu	a3,gp,t4
    80001bc4:	41d70c33          	sub	s8,a4,t4
    80001bc8:	01f9901b          	slliw	zero,s3,0x1f

0000000080001bcc <main_308_0_t>:
    80001bcc:	d6bdfab7          	lui	s5,0xd6bdf
    80001bd0:	8cbd                	xor	s1,s1,a5
    80001bd2:	02eadd93          	srli	s11,s5,0x2e
    80001bd6:	12fd                	addi	t0,t0,-1
    80001bd8:	0a84                	addi	s1,sp,336
    80001bda:	401e5893          	srai	a7,t3,0x1
    80001bde:	03b6c93b          	divw	s2,a3,s11
    80001be2:	fee2f5e3          	bgeu	t0,a4,80001bcc <main_308_0_t>
    80001be6:	03b6c93b          	divw	s2,a3,s11
    80001bea:	4ea9                	li	t4,10
    80001bec:	0005d11b          	srliw	sp,a1,0x0
    80001bf0:	8fd1                	or	a5,a5,a2
    80001bf2:	8d09                	sub	a0,a0,a0
    80001bf4:	02a2613b          	remw	sp,tp,a0
    80001bf8:	48a9                	li	a7,10
    80001bfa:	2a25                	addiw	s4,s4,9 # ffffffffd6bdf009 <_end+0xffffffff56ba4681>

0000000080001bfc <main_292_0_t>:
    80001bfc:	03580e33          	mul	t3,a6,s5
    80001c00:	6179                	addi	sp,sp,464
    80001c02:	1ef5                	addi	t4,t4,-3
    80001c04:	ff1edce3          	bge	t4,a7,80001bfc <main_292_0_t>
    80001c08:	02e482bb          	mulw	t0,s1,a4
    80001c0c:	595d                	li	s2,-9
    80001c0e:	5ff1                	li	t6,-4
    80001c10:	002f6c33          	or	s8,t5,sp
    80001c14:	47c0e597          	auipc	a1,0x47c0e
    80001c18:	0001                	nop

0000000080001c1a <main_302_1_t>:
    80001c1a:	41d70cb3          	sub	s9,a4,t4
    80001c1e:	0915                	addi	s2,s2,5
    80001c20:	401e5893          	srai	a7,t3,0x1
    80001c24:	47a5                	li	a5,9
    80001c26:	0001                	nop
    80001c28:	035efc3b          	remuw	s8,t4,s5

0000000080001c2c <main_302_0_t>:
    80001c2c:	47c0e597          	auipc	a1,0x47c0e
    80001c30:	17f5                	addi	a5,a5,-3
    80001c32:	ffed                	bnez	a5,80001c2c <main_302_0_t>
    80001c34:	82c6                	mv	t0,a7
    80001c36:	03b6c9bb          	divw	s3,a3,s11
    80001c3a:	006d0ab3          	add	s5,s10,t1
    80001c3e:	fdf91ee3          	bne	s2,t6,80001c1a <main_302_1_t>
    80001c42:	0ad2                	slli	s5,s5,0x14

0000000080001c44 <main_184>:
    80001c44:	05000eef          	jal	t4,80001c94 <main_184+0x50>
    80001c48:	a0a1                	j	80001c90 <main_184+0x4c>
    80001c4a:	a831                	j	80001c66 <main_184+0x22>
    80001c4c:	a005                	j	80001c6c <main_184+0x28>
    80001c4e:	020000ef          	jal	80001c6e <main_184+0x2a>
    80001c52:	bfed                	j	80001c4c <main_184+0x8>
    80001c54:	a01d                	j	80001c7a <main_184+0x36>
    80001c56:	014000ef          	jal	80001c6a <main_184+0x26>
    80001c5a:	ffbff0ef          	jal	80001c54 <main_184+0x10>
    80001c5e:	a00d                	j	80001c80 <main_184+0x3c>
    80001c60:	038000ef          	jal	80001c98 <main_184+0x54>
    80001c64:	a039                	j	80001c72 <main_184+0x2e>
    80001c66:	024000ef          	jal	80001c8a <main_184+0x46>
    80001c6a:	a831                	j	80001c86 <main_184+0x42>
    80001c6c:	bfcd                	j	80001c5e <main_184+0x1a>
    80001c6e:	016000ef          	jal	80001c84 <main_184+0x40>
    80001c72:	004000ef          	jal	80001c76 <main_184+0x32>
    80001c76:	fd3ff0ef          	jal	80001c48 <main_184+0x4>
    80001c7a:	bfc1                	j	80001c4a <main_184+0x6>
    80001c7c:	fd7ff0ef          	jal	80001c52 <main_184+0xe>
    80001c80:	fcfff0ef          	jal	80001c4e <main_184+0xa>
    80001c84:	bfc9                	j	80001c56 <main_184+0x12>
    80001c86:	fd5ff0ef          	jal	80001c5a <main_184+0x16>
    80001c8a:	bfe9                	j	80001c64 <main_184+0x20>
    80001c8c:	fd5ff0ef          	jal	80001c60 <main_184+0x1c>
    80001c90:	006000ef          	jal	80001c96 <main_184+0x52>
    80001c94:	b7e5                	j	80001c7c <main_184+0x38>
    80001c96:	bfdd                	j	80001c8c <main_184+0x48>
    80001c98:	6179                	addi	sp,sp,464
    80001c9a:	4505                	li	a0,1
    80001c9c:	41f8571b          	sraiw	a4,a6,0x1f
    80001ca0:	0001                	nop

0000000080001ca2 <main_252_0_t>:
    80001ca2:	41d70c33          	sub	s8,a4,t4
    80001ca6:	002f6bb3          	or	s7,t5,sp
    80001caa:	157d                	addi	a0,a0,-1
    80001cac:	005e94b3          	sll	s1,t4,t0
    80001cb0:	002f6bb3          	or	s7,t5,sp
    80001cb4:	f57d                	bnez	a0,80001ca2 <main_252_0_t>
    80001cb6:	02fd7e33          	remu	t3,s10,a5
    80001cba:	52e9                	li	t0,-6
    80001cbc:	02eade93          	srli	t4,s5,0x2e
    80001cc0:	41d70db3          	sub	s11,a4,t4
    80001cc4:	006e003b          	addw	zero,t3,t1
    80001cc8:	9f31                	addw	a4,a4,a2
    80001cca:	03a8dcbb          	divuw	s9,a7,s10
    80001cce:	0a84                	addi	s1,sp,336
    80001cd0:	0a84                	addi	s1,sp,336
    80001cd2:	50b1                	li	ra,-20
    80001cd4:	813d                	srli	a0,a0,0xf
    80001cd6:	45b5                	li	a1,13
    80001cd8:	0114feb3          	and	t4,s1,a7

0000000080001cdc <main_336_1_t>:
    80001cdc:	02a261bb          	remw	gp,tp,a0
    80001ce0:	12e5                	addi	t0,t0,-7
    80001ce2:	4b91                	li	s7,4
    80001ce4:	8735                	srai	a4,a4,0xd
    80001ce6:	4699                	li	a3,6

0000000080001ce8 <main_336_0_t>:
    80001ce8:	0130a033          	slt	zero,ra,s3
    80001cec:	401e5913          	srai	s2,t3,0x1
    80001cf0:	006e003b          	addw	zero,t3,t1
    80001cf4:	0b85                	addi	s7,s7,1
    80001cf6:	03646433          	rem	s0,s0,s6
    80001cfa:	9f31                	addw	a4,a4,a2
    80001cfc:	0130a033          	slt	zero,ra,s3
    80001d00:	fedb94e3          	bne	s7,a3,80001ce8 <main_336_0_t>
    80001d04:	41d70db3          	sub	s11,a4,t4
    80001d08:	00be5ab3          	srl	s5,t3,a1
    80001d0c:	0001                	nop
    80001d0e:	03fe2cb3          	mulhsu	s9,t3,t6
    80001d12:	fc1295e3          	bne	t0,ra,80001cdc <main_336_1_t>
    80001d16:	035efcbb          	remuw	s9,t4,s5

0000000080001d1a <main_8>:
    80001d1a:	02600eef          	jal	t4,80001d40 <main_8+0x26>
    80001d1e:	016000ef          	jal	80001d34 <main_8+0x1a>
    80001d22:	008000ef          	jal	80001d2a <main_8+0x10>
    80001d26:	a811                	j	80001d3a <main_8+0x20>
    80001d28:	a831                	j	80001d44 <main_8+0x2a>
    80001d2a:	a809                	j	80001d3c <main_8+0x22>
    80001d2c:	ff7ff0ef          	jal	80001d22 <main_8+0x8>
    80001d30:	006000ef          	jal	80001d36 <main_8+0x1c>
    80001d34:	bfe5                	j	80001d2c <main_8+0x12>
    80001d36:	a811                	j	80001d4a <main_8+0x30>
    80001d38:	b7fd                	j	80001d26 <main_8+0xc>
    80001d3a:	b7fd                	j	80001d28 <main_8+0xe>
    80001d3c:	ffdff0ef          	jal	80001d38 <main_8+0x1e>
    80001d40:	fdfff0ef          	jal	80001d1e <main_8+0x4>
    80001d44:	a009                	j	80001d46 <main_8+0x2c>
    80001d46:	febff0ef          	jal	80001d30 <main_8+0x16>
    80001d4a:	8c89                	sub	s1,s1,a0

0000000080001d4c <main_44>:
    80001d4c:	00a00eef          	jal	t4,80001d56 <main_44+0xa>
    80001d50:	a835                	j	80001d8c <main_44+0x40>
    80001d52:	a81d                	j	80001d88 <main_44+0x3c>
    80001d54:	a839                	j	80001d72 <main_44+0x26>
    80001d56:	008000ef          	jal	80001d5e <main_44+0x12>
    80001d5a:	00e000ef          	jal	80001d68 <main_44+0x1c>
    80001d5e:	01e000ef          	jal	80001d7c <main_44+0x30>
    80001d62:	bfc5                	j	80001d52 <main_44+0x6>
    80001d64:	a811                	j	80001d78 <main_44+0x2c>
    80001d66:	a019                	j	80001d6c <main_44+0x20>
    80001d68:	006000ef          	jal	80001d6e <main_44+0x22>
    80001d6c:	a021                	j	80001d74 <main_44+0x28>
    80001d6e:	fe3ff0ef          	jal	80001d50 <main_44+0x4>
    80001d72:	b7e5                	j	80001d5a <main_44+0xe>
    80001d74:	ff1ff0ef          	jal	80001d64 <main_44+0x18>
    80001d78:	fddff0ef          	jal	80001d54 <main_44+0x8>
    80001d7c:	004000ef          	jal	80001d80 <main_44+0x34>
    80001d80:	fe3ff0ef          	jal	80001d62 <main_44+0x16>
    80001d84:	fe3ff0ef          	jal	80001d66 <main_44+0x1a>
    80001d88:	ffdff0ef          	jal	80001d84 <main_44+0x38>
    80001d8c:	0a80                	addi	s0,sp,336

0000000080001d8e <main_75>:
    80001d8e:	00c00eef          	jal	t4,80001d9a <main_75+0xc>
    80001d92:	01e000ef          	jal	80001db0 <main_75+0x22>
    80001d96:	ffdff0ef          	jal	80001d92 <main_75+0x4>
    80001d9a:	a029                	j	80001da4 <main_75+0x16>
    80001d9c:	a039                	j	80001daa <main_75+0x1c>
    80001d9e:	bffd                	j	80001d9c <main_75+0xe>
    80001da0:	fffff0ef          	jal	80001d9e <main_75+0x10>
    80001da4:	ff3ff0ef          	jal	80001d96 <main_75+0x8>
    80001da8:	a031                	j	80001db4 <main_75+0x26>
    80001daa:	fffff0ef          	jal	80001da8 <main_75+0x1a>
    80001dae:	a021                	j	80001db6 <main_75+0x28>
    80001db0:	ff1ff0ef          	jal	80001da0 <main_75+0x12>
    80001db4:	bfed                	j	80001dae <main_75+0x20>
    80001db6:	03434bb3          	div	s7,t1,s4

0000000080001dba <main_158>:
    80001dba:	00e00eef          	jal	t4,80001dc8 <main_158+0xe>
    80001dbe:	a821                	j	80001dd6 <main_158+0x1c>
    80001dc0:	a025                	j	80001de8 <main_158+0x2e>
    80001dc2:	a025                	j	80001dea <main_158+0x30>
    80001dc4:	03c000ef          	jal	80001e00 <main_158+0x46>
    80001dc8:	044000ef          	jal	80001e0c <main_158+0x52>
    80001dcc:	ff5ff0ef          	jal	80001dc0 <main_158+0x6>
    80001dd0:	a035                	j	80001dfc <main_158+0x42>
    80001dd2:	008000ef          	jal	80001dda <main_158+0x20>
    80001dd6:	01a000ef          	jal	80001df0 <main_158+0x36>
    80001dda:	014000ef          	jal	80001dee <main_158+0x34>
    80001dde:	b7dd                	j	80001dc4 <main_158+0xa>
    80001de0:	a821                	j	80001df8 <main_158+0x3e>
    80001de2:	ff1ff0ef          	jal	80001dd2 <main_158+0x18>
    80001de6:	a039                	j	80001df4 <main_158+0x3a>
    80001de8:	a025                	j	80001e10 <main_158+0x56>
    80001dea:	b7cd                	j	80001dcc <main_158+0x12>
    80001dec:	a809                	j	80001dfe <main_158+0x44>
    80001dee:	a015                	j	80001e12 <main_158+0x58>
    80001df0:	018000ef          	jal	80001e08 <main_158+0x4e>
    80001df4:	fcbff0ef          	jal	80001dbe <main_158+0x4>
    80001df8:	ff5ff0ef          	jal	80001dec <main_158+0x32>
    80001dfc:	b7dd                	j	80001de2 <main_158+0x28>
    80001dfe:	b7d1                	j	80001dc2 <main_158+0x8>
    80001e00:	fe7ff0ef          	jal	80001de6 <main_158+0x2c>
    80001e04:	fdbff0ef          	jal	80001dde <main_158+0x24>
    80001e08:	fc9ff0ef          	jal	80001dd0 <main_158+0x16>
    80001e0c:	ff9ff0ef          	jal	80001e04 <main_158+0x4a>
    80001e10:	a011                	j	80001e14 <main_158+0x5a>
    80001e12:	b7f9                	j	80001de0 <main_158+0x26>
    80001e14:	69d5                	lui	s3,0x15
    80001e16:	5df5                	li	s11,-3
    80001e18:	5361                	li	t1,-8
    80001e1a:	fbe33613          	sltiu	a2,t1,-66
    80001e1e:	4001de33          	sra	t3,gp,zero
    80001e22:	e9870613          	addi	a2,a4,-360

0000000080001e26 <main_378_1_t>:
    80001e26:	0001                	nop
    80001e28:	01804433          	xor	s0,zero,s8
    80001e2c:	1ded                	addi	s11,s11,-5
    80001e2e:	e9870613          	addi	a2,a4,-360
    80001e32:	41d70cb3          	sub	s9,a4,t4
    80001e36:	41f8579b          	sraiw	a5,a6,0x1f
    80001e3a:	55f9                	li	a1,-2
    80001e3c:	006d0ab3          	add	s5,s10,t1
    80001e40:	2571e413          	ori	s0,gp,599
    80001e44:	00be5ab3          	srl	s5,t3,a1
    80001e48:	41d70cb3          	sub	s9,a4,t4
    80001e4c:	0001                	nop
    80001e4e:	ef697613          	andi	a2,s2,-266
    80001e52:	6c10a293          	slti	t0,ra,1729

0000000080001e56 <main_378_0_t>:
    80001e56:	8cbd                	xor	s1,s1,a5
    80001e58:	8cd1                	or	s1,s1,a2
    80001e5a:	01375f3b          	srlw	t5,a4,s3
    80001e5e:	03434e33          	div	t3,t1,s4
    80001e62:	0589                	addi	a1,a1,2 # c7c0fc2e <_end+0x47bd52a6>
    80001e64:	d9ed                	beqz	a1,80001e56 <main_378_0_t>
    80001e66:	02fd7f33          	remu	t5,s10,a5
    80001e6a:	0b59                	addi	s6,s6,22
    80001e6c:	0005d19b          	srliw	gp,a1,0x0
    80001e70:	0a84                	addi	s1,sp,336
    80001e72:	0348dcb3          	divu	s9,a7,s4
    80001e76:	fa6d88e3          	beq	s11,t1,80001e26 <main_378_1_t>
    80001e7a:	6c10a293          	slti	t0,ra,1729
    80001e7e:	5575                	li	a0,-3
    80001e80:	035efc3b          	remuw	s8,t4,s5
    80001e84:	406d083b          	subw	a6,s10,t1
    80001e88:	02fd7f33          	remu	t5,s10,a5
    80001e8c:	0001                	nop

0000000080001e8e <main_237_1_t>:
    80001e8e:	4eb5                	li	t4,13
    80001e90:	8c7d                	and	s0,s0,a5
    80001e92:	050d                	addi	a0,a0,3
    80001e94:	8346                	mv	t1,a7
    80001e96:	8346                	mv	t1,a7
    80001e98:	5ded                	li	s11,-5
    80001e9a:	03fe2c33          	mulhsu	s8,t3,t6
    80001e9e:	41b1                	li	gp,12

0000000080001ea0 <main_237_0_t>:
    80001ea0:	02051a33          	mulh	s4,a0,zero
    80001ea4:	03a8dc3b          	divuw	s8,a7,s10
    80001ea8:	01375f3b          	srlw	t5,a4,s3
    80001eac:	6ad5                	lui	s5,0x15
    80001eae:	0d91                	addi	s11,s11,4
    80001eb0:	0a84                	addi	s1,sp,336
    80001eb2:	fe3de7e3          	bltu	s11,gp,80001ea0 <main_237_0_t>
    80001eb6:	002f6c33          	or	s8,t5,sp
    80001eba:	002f6c33          	or	s8,t5,sp
    80001ebe:	d1534713          	xori	a4,t1,-747
    80001ec2:	d571                	beqz	a0,80001e8e <main_237_1_t>
    80001ec4:	02a262bb          	remw	t0,tp,a0
    80001ec8:	4619                	li	a2,6
    80001eca:	8e89                	sub	a3,a3,a0
    80001ecc:	0001                	nop

0000000080001ece <main_285_0_t>:
    80001ece:	02a261bb          	remw	gp,tp,a0
    80001ed2:	1679                	addi	a2,a2,-2
    80001ed4:	e9870513          	addi	a0,a4,-360
    80001ed8:	41f8571b          	sraiw	a4,a6,0x1f
    80001edc:	da6d                	beqz	a2,80001ece <main_285_0_t>
    80001ede:	02eadd93          	srli	s11,s5,0x2e

0000000080001ee2 <main_173>:
    80001ee2:	01a00eef          	jal	t4,80001efc <main_173+0x1a>
    80001ee6:	a031                	j	80001ef2 <main_173+0x10>
    80001ee8:	a821                	j	80001f00 <main_173+0x1e>
    80001eea:	00c000ef          	jal	80001ef6 <main_173+0x14>
    80001eee:	028000ef          	jal	80001f16 <main_173+0x34>
    80001ef2:	a025                	j	80001f1a <main_173+0x38>
    80001ef4:	a805                	j	80001f24 <main_173+0x42>
    80001ef6:	a009                	j	80001ef8 <main_173+0x16>
    80001ef8:	01a000ef          	jal	80001f12 <main_173+0x30>
    80001efc:	022000ef          	jal	80001f1e <main_173+0x3c>
    80001f00:	a019                	j	80001f06 <main_173+0x24>
    80001f02:	008000ef          	jal	80001f0a <main_173+0x28>
    80001f06:	01c000ef          	jal	80001f22 <main_173+0x40>
    80001f0a:	febff0ef          	jal	80001ef4 <main_173+0x12>
    80001f0e:	a009                	j	80001f10 <main_173+0x2e>
    80001f10:	bfe9                	j	80001eea <main_173+0x8>
    80001f12:	fddff0ef          	jal	80001eee <main_173+0xc>
    80001f16:	fd1ff0ef          	jal	80001ee6 <main_173+0x4>
    80001f1a:	fe9ff0ef          	jal	80001f02 <main_173+0x20>
    80001f1e:	fcbff0ef          	jal	80001ee8 <main_173+0x6>
    80001f22:	b7f5                	j	80001f0e <main_173+0x2c>
    80001f24:	0005d11b          	srliw	sp,a1,0x0

0000000080001f28 <main_187>:
    80001f28:	00800eef          	jal	t4,80001f30 <main_187+0x8>
    80001f2c:	006000ef          	jal	80001f32 <main_187+0xa>
    80001f30:	a839                	j	80001f4e <main_187+0x26>
    80001f32:	a009                	j	80001f34 <main_187+0xc>
    80001f34:	012000ef          	jal	80001f46 <main_187+0x1e>
    80001f38:	a821                	j	80001f50 <main_187+0x28>
    80001f3a:	ff3ff0ef          	jal	80001f2c <main_187+0x4>
    80001f3e:	ffbff0ef          	jal	80001f38 <main_187+0x10>
    80001f42:	010000ef          	jal	80001f52 <main_187+0x2a>
    80001f46:	01a000ef          	jal	80001f60 <main_187+0x38>
    80001f4a:	010000ef          	jal	80001f5a <main_187+0x32>
    80001f4e:	bfd5                	j	80001f42 <main_187+0x1a>
    80001f50:	a809                	j	80001f62 <main_187+0x3a>
    80001f52:	00c000ef          	jal	80001f5e <main_187+0x36>
    80001f56:	ff5ff0ef          	jal	80001f4a <main_187+0x22>
    80001f5a:	fe1ff0ef          	jal	80001f3a <main_187+0x12>
    80001f5e:	bfe5                	j	80001f56 <main_187+0x2e>
    80001f60:	bff9                	j	80001f3e <main_187+0x16>
    80001f62:	0348db33          	divu	s6,a7,s4

0000000080001f66 <main_107>:
    80001f66:	01600eef          	jal	t4,80001f7c <main_107+0x16>
    80001f6a:	040000ef          	jal	80001faa <main_107+0x44>
    80001f6e:	a005                	j	80001f8e <main_107+0x28>
    80001f70:	026000ef          	jal	80001f96 <main_107+0x30>
    80001f74:	a811                	j	80001f88 <main_107+0x22>
    80001f76:	a039                	j	80001f84 <main_107+0x1e>
    80001f78:	03c000ef          	jal	80001fb4 <main_107+0x4e>
    80001f7c:	006000ef          	jal	80001f82 <main_107+0x1c>
    80001f80:	a831                	j	80001f9c <main_107+0x36>
    80001f82:	bfd5                	j	80001f76 <main_107+0x10>
    80001f84:	a829                	j	80001f9e <main_107+0x38>
    80001f86:	b7ed                	j	80001f70 <main_107+0xa>
    80001f88:	a829                	j	80001fa2 <main_107+0x3c>
    80001f8a:	fe5ff0ef          	jal	80001f6e <main_107+0x8>
    80001f8e:	fe7ff0ef          	jal	80001f74 <main_107+0xe>
    80001f92:	fe7ff0ef          	jal	80001f78 <main_107+0x12>
    80001f96:	bff5                	j	80001f92 <main_107+0x2c>
    80001f98:	01a000ef          	jal	80001fb2 <main_107+0x4c>
    80001f9c:	b7ed                	j	80001f86 <main_107+0x20>
    80001f9e:	012000ef          	jal	80001fb0 <main_107+0x4a>
    80001fa2:	fc9ff0ef          	jal	80001f6a <main_107+0x4>
    80001fa6:	fdbff0ef          	jal	80001f80 <main_107+0x1a>
    80001faa:	b7fd                	j	80001f98 <main_107+0x32>
    80001fac:	ffbff0ef          	jal	80001fa6 <main_107+0x40>
    80001fb0:	bfe9                	j	80001f8a <main_107+0x24>
    80001fb2:	bfed                	j	80001fac <main_107+0x46>
    80001fb4:	2571e293          	ori	t0,gp,599

0000000080001fb8 <main_117>:
    80001fb8:	00e00eef          	jal	t4,80001fc6 <main_117+0xe>
    80001fbc:	046000ef          	jal	80002002 <main_117+0x4a>
    80001fc0:	a835                	j	80001ffc <main_117+0x44>
    80001fc2:	014000ef          	jal	80001fd6 <main_117+0x1e>
    80001fc6:	01c000ef          	jal	80001fe2 <main_117+0x2a>
    80001fca:	048000ef          	jal	80002012 <main_117+0x5a>
    80001fce:	038000ef          	jal	80002006 <main_117+0x4e>
    80001fd2:	bfc5                	j	80001fc2 <main_117+0xa>
    80001fd4:	a019                	j	80001fda <main_117+0x22>
    80001fd6:	022000ef          	jal	80001ff8 <main_117+0x40>
    80001fda:	00e000ef          	jal	80001fe8 <main_117+0x30>
    80001fde:	022000ef          	jal	80002000 <main_117+0x48>
    80001fe2:	fdbff0ef          	jal	80001fbc <main_117+0x4>
    80001fe6:	a015                	j	8000200a <main_117+0x52>
    80001fe8:	012000ef          	jal	80001ffa <main_117+0x42>
    80001fec:	fe9ff0ef          	jal	80001fd4 <main_117+0x1c>
    80001ff0:	fd1ff0ef          	jal	80001fc0 <main_117+0x8>
    80001ff4:	fd7ff0ef          	jal	80001fca <main_117+0x12>
    80001ff8:	a839                	j	80002016 <main_117+0x5e>
    80001ffa:	b7d5                	j	80001fde <main_117+0x26>
    80001ffc:	fd7ff0ef          	jal	80001fd2 <main_117+0x1a>
    80002000:	b7f9                	j	80001fce <main_117+0x16>
    80002002:	00c000ef          	jal	8000200e <main_117+0x56>
    80002006:	b7c5                	j	80001fe6 <main_117+0x2e>
    80002008:	b7f5                	j	80001ff4 <main_117+0x3c>
    8000200a:	fffff0ef          	jal	80002008 <main_117+0x50>
    8000200e:	fdfff0ef          	jal	80001fec <main_117+0x34>
    80002012:	fdfff0ef          	jal	80001ff0 <main_117+0x38>
    80002016:	6179                	addi	sp,sp,464

0000000080002018 <main_116>:
    80002018:	00e00eef          	jal	t4,80002026 <main_116+0xe>
    8000201c:	038000ef          	jal	80002054 <main_116+0x3c>
    80002020:	a82d                	j	8000205a <main_116+0x42>
    80002022:	008000ef          	jal	8000202a <main_116+0x12>
    80002026:	a025                	j	8000204e <main_116+0x36>
    80002028:	a011                	j	8000202c <main_116+0x14>
    8000202a:	a811                	j	8000203e <main_116+0x26>
    8000202c:	016000ef          	jal	80002042 <main_116+0x2a>
    80002030:	ff9ff0ef          	jal	80002028 <main_116+0x10>
    80002034:	fedff0ef          	jal	80002020 <main_116+0x8>
    80002038:	01a000ef          	jal	80002052 <main_116+0x3a>
    8000203c:	a039                	j	8000204a <main_116+0x32>
    8000203e:	ff7ff0ef          	jal	80002034 <main_116+0x1c>
    80002042:	a005                	j	80002062 <main_116+0x4a>
    80002044:	b7f5                	j	80002030 <main_116+0x18>
    80002046:	bffd                	j	80002044 <main_116+0x2c>
    80002048:	a801                	j	80002058 <main_116+0x40>
    8000204a:	fffff0ef          	jal	80002048 <main_116+0x30>
    8000204e:	ff9ff0ef          	jal	80002046 <main_116+0x2e>
    80002052:	a809                	j	80002064 <main_116+0x4c>
    80002054:	fcfff0ef          	jal	80002022 <main_116+0xa>
    80002058:	b7c5                	j	80002038 <main_116+0x20>
    8000205a:	fe3ff0ef          	jal	8000203c <main_116+0x24>
    8000205e:	fbfff0ef          	jal	8000201c <main_116+0x4>
    80002062:	bff5                	j	8000205e <main_116+0x46>
    80002064:	cc360b1b          	addiw	s6,a2,-829
    80002068:	5a61                	li	s4,-8
    8000206a:	47c0e597          	auipc	a1,0x47c0e
    8000206e:	4c29                	li	s8,10

0000000080002070 <main_356_1_t>:
    80002070:	953a                	add	a0,a0,a4
    80002072:	0001                	nop
    80002074:	0a21                	addi	s4,s4,8
    80002076:	03580fb3          	mul	t6,a6,s5
    8000207a:	4101                	li	sp,0
    8000207c:	49ad                	li	s3,11
    8000207e:	02051933          	mulh	s2,a0,zero
    80002082:	2571e313          	ori	t1,gp,599

0000000080002086 <main_356_0_t>:
    80002086:	8c7d                	and	s0,s0,a5
    80002088:	e9870513          	addi	a0,a4,-360
    8000208c:	0001                	nop
    8000208e:	0109                	addi	sp,sp,2
    80002090:	ff314be3          	blt	sp,s3,80002086 <main_356_0_t>
    80002094:	03646333          	rem	t1,s0,s6
    80002098:	fd8a6ce3          	bltu	s4,s8,80002070 <main_356_1_t>
    8000209c:	ef697513          	andi	a0,s2,-266

00000000800020a0 <main_12>:
    800020a0:	00800eef          	jal	t4,800020a8 <main_12+0x8>
    800020a4:	01e000ef          	jal	800020c2 <main_12+0x22>
    800020a8:	a019                	j	800020ae <main_12+0xe>
    800020aa:	a839                	j	800020c8 <main_12+0x28>
    800020ac:	a011                	j	800020b0 <main_12+0x10>
    800020ae:	a011                	j	800020b2 <main_12+0x12>
    800020b0:	a031                	j	800020bc <main_12+0x1c>
    800020b2:	a019                	j	800020b8 <main_12+0x18>
    800020b4:	a809                	j	800020c6 <main_12+0x26>
    800020b6:	a039                	j	800020c4 <main_12+0x24>
    800020b8:	fedff0ef          	jal	800020a4 <main_12+0x4>
    800020bc:	bfe5                	j	800020b4 <main_12+0x14>
    800020be:	ff9ff0ef          	jal	800020b6 <main_12+0x16>
    800020c2:	bff5                	j	800020be <main_12+0x1e>
    800020c4:	b7e5                	j	800020ac <main_12+0xc>
    800020c6:	b7d5                	j	800020aa <main_12+0xa>
    800020c8:	94ba                	add	s1,s1,a4

00000000800020ca <main_49>:
    800020ca:	04e00eef          	jal	t4,80002118 <main_49+0x4e>
    800020ce:	030000ef          	jal	800020fe <main_49+0x34>
    800020d2:	00c000ef          	jal	800020de <main_49+0x14>
    800020d6:	a00d                	j	800020f8 <main_49+0x2e>
    800020d8:	a0a1                	j	80002120 <main_49+0x56>
    800020da:	010000ef          	jal	800020ea <main_49+0x20>
    800020de:	01c000ef          	jal	800020fa <main_49+0x30>
    800020e2:	02a000ef          	jal	8000210c <main_49+0x42>
    800020e6:	020000ef          	jal	80002106 <main_49+0x3c>
    800020ea:	a019                	j	800020f0 <main_49+0x26>
    800020ec:	a805                	j	8000211c <main_49+0x52>
    800020ee:	a829                	j	80002108 <main_49+0x3e>
    800020f0:	fdfff0ef          	jal	800020ce <main_49+0x4>
    800020f4:	bfed                	j	800020ee <main_49+0x24>
    800020f6:	b7f5                	j	800020e2 <main_49+0x18>
    800020f8:	a821                	j	80002110 <main_49+0x46>
    800020fa:	ffdff0ef          	jal	800020f6 <main_49+0x2c>
    800020fe:	fefff0ef          	jal	800020ec <main_49+0x22>
    80002102:	01c000ef          	jal	8000211e <main_49+0x54>
    80002106:	bfd1                	j	800020da <main_49+0x10>
    80002108:	00c000ef          	jal	80002114 <main_49+0x4a>
    8000210c:	fcdff0ef          	jal	800020d8 <main_49+0xe>
    80002110:	fd7ff0ef          	jal	800020e6 <main_49+0x1c>
    80002114:	fc3ff0ef          	jal	800020d6 <main_49+0xc>
    80002118:	b7ed                	j	80002102 <main_49+0x38>
    8000211a:	bf65                	j	800020d2 <main_49+0x8>
    8000211c:	bffd                	j	8000211a <main_49+0x50>
    8000211e:	bfd9                	j	800020f4 <main_49+0x2a>
    80002120:	020518b3          	mulh	a7,a0,zero

0000000080002124 <main_5>:
    80002124:	00400eef          	jal	t4,80002128 <main_5+0x4>
    80002128:	020000ef          	jal	80002148 <main_5+0x24>
    8000212c:	a009                	j	8000212e <main_5+0xa>
    8000212e:	a005                	j	8000214e <main_5+0x2a>
    80002130:	004000ef          	jal	80002134 <main_5+0x10>
    80002134:	a821                	j	8000214c <main_5+0x28>
    80002136:	a831                	j	80002152 <main_5+0x2e>
    80002138:	004000ef          	jal	8000213c <main_5+0x18>
    8000213c:	a829                	j	80002156 <main_5+0x32>
    8000213e:	020000ef          	jal	8000215e <main_5+0x3a>
    80002142:	febff0ef          	jal	8000212c <main_5+0x8>
    80002146:	bfe5                	j	8000213e <main_5+0x1a>
    80002148:	fe9ff0ef          	jal	80002130 <main_5+0xc>
    8000214c:	a039                	j	8000215a <main_5+0x36>
    8000214e:	febff0ef          	jal	80002138 <main_5+0x14>
    80002152:	00e000ef          	jal	80002160 <main_5+0x3c>
    80002156:	ff1ff0ef          	jal	80002146 <main_5+0x22>
    8000215a:	fe9ff0ef          	jal	80002142 <main_5+0x1e>
    8000215e:	bfe1                	j	80002136 <main_5+0x12>
    80002160:	03fe2ab3          	mulhsu	s5,t3,t6

0000000080002164 <main_161>:
    80002164:	01e00eef          	jal	t4,80002182 <main_161+0x1e>
    80002168:	a039                	j	80002176 <main_161+0x12>
    8000216a:	a035                	j	80002196 <main_161+0x32>
    8000216c:	034000ef          	jal	800021a0 <main_161+0x3c>
    80002170:	032000ef          	jal	800021a2 <main_161+0x3e>
    80002174:	bff5                	j	80002170 <main_161+0xc>
    80002176:	016000ef          	jal	8000218c <main_161+0x28>
    8000217a:	018000ef          	jal	80002192 <main_161+0x2e>
    8000217e:	010000ef          	jal	8000218e <main_161+0x2a>
    80002182:	b7ed                	j	8000216c <main_161+0x8>
    80002184:	bfed                	j	8000217e <main_161+0x1a>
    80002186:	a821                	j	8000219e <main_161+0x3a>
    80002188:	01e000ef          	jal	800021a6 <main_161+0x42>
    8000218c:	bff9                	j	8000216a <main_161+0x6>
    8000218e:	fdbff0ef          	jal	80002168 <main_161+0x4>
    80002192:	008000ef          	jal	8000219a <main_161+0x36>
    80002196:	fe5ff0ef          	jal	8000217a <main_161+0x16>
    8000219a:	fedff0ef          	jal	80002186 <main_161+0x22>
    8000219e:	bfd9                	j	80002174 <main_161+0x10>
    800021a0:	b7e5                	j	80002188 <main_161+0x24>
    800021a2:	006000ef          	jal	800021a8 <main_161+0x44>
    800021a6:	bff9                	j	80002184 <main_161+0x20>
    800021a8:	d6bdf9b7          	lui	s3,0xd6bdf

00000000800021ac <main_29>:
    800021ac:	00c00eef          	jal	t4,800021b8 <main_29+0xc>
    800021b0:	a005                	j	800021d0 <main_29+0x24>
    800021b2:	a02d                	j	800021dc <main_29+0x30>
    800021b4:	020000ef          	jal	800021d4 <main_29+0x28>
    800021b8:	020000ef          	jal	800021d8 <main_29+0x2c>
    800021bc:	bfdd                	j	800021b2 <main_29+0x6>
    800021be:	00e000ef          	jal	800021cc <main_29+0x20>
    800021c2:	a839                	j	800021e0 <main_29+0x34>
    800021c4:	fedff0ef          	jal	800021b0 <main_29+0x4>
    800021c8:	ff5ff0ef          	jal	800021bc <main_29+0x10>
    800021cc:	ff7ff0ef          	jal	800021c2 <main_29+0x16>
    800021d0:	006000ef          	jal	800021d6 <main_29+0x2a>
    800021d4:	bfd5                	j	800021c8 <main_29+0x1c>
    800021d6:	b7e5                	j	800021be <main_29+0x12>
    800021d8:	fddff0ef          	jal	800021b4 <main_29+0x8>
    800021dc:	fe9ff0ef          	jal	800021c4 <main_29+0x18>
    800021e0:	833d                	srli	a4,a4,0xf
    800021e2:	4c99                	li	s9,6
    800021e4:	460d                	li	a2,3
    800021e6:	03b6c9bb          	divw	s3,a3,s11

00000000800021ea <main_393_1_t>:
    800021ea:	41d70db3          	sub	s11,a4,t4
    800021ee:	1cf5                	addi	s9,s9,-3
    800021f0:	4721                	li	a4,8
    800021f2:	2aa5                	addiw	s5,s5,9 # 15009 <_start-0x7ffeaff7>
    800021f4:	0001                	nop

00000000800021f6 <main_393_0_t>:
    800021f6:	02a261bb          	remw	gp,tp,a0
    800021fa:	1779                	addi	a4,a4,-2
    800021fc:	ff6d                	bnez	a4,800021f6 <main_393_0_t>
    800021fe:	fecc96e3          	bne	s9,a2,800021ea <main_393_1_t>
    80002202:	0348ddb3          	divu	s11,a7,s4

0000000080002206 <main_53>:
    80002206:	03e00eef          	jal	t4,80002244 <main_53+0x3e>
    8000220a:	012000ef          	jal	8000221c <main_53+0x16>
    8000220e:	a825                	j	80002246 <main_53+0x40>
    80002210:	016000ef          	jal	80002226 <main_53+0x20>
    80002214:	ffdff0ef          	jal	80002210 <main_53+0xa>
    80002218:	01c000ef          	jal	80002234 <main_53+0x2e>
    8000221c:	010000ef          	jal	8000222c <main_53+0x26>
    80002220:	ff9ff0ef          	jal	80002218 <main_53+0x12>
    80002224:	a015                	j	80002248 <main_53+0x42>
    80002226:	a009                	j	80002228 <main_53+0x22>
    80002228:	016000ef          	jal	8000223e <main_53+0x38>
    8000222c:	ff5ff0ef          	jal	80002220 <main_53+0x1a>
    80002230:	fdbff0ef          	jal	8000220a <main_53+0x4>
    80002234:	fe1ff0ef          	jal	80002214 <main_53+0xe>
    80002238:	004000ef          	jal	8000223c <main_53+0x36>
    8000223c:	bfd5                	j	80002230 <main_53+0x2a>
    8000223e:	004000ef          	jal	80002242 <main_53+0x3c>
    80002242:	b7f1                	j	8000220e <main_53+0x8>
    80002244:	bfd5                	j	80002238 <main_53+0x32>
    80002246:	bff9                	j	80002224 <main_53+0x1e>
    80002248:	41f8561b          	sraiw	a2,a6,0x1f

000000008000224c <main_24>:
    8000224c:	01a00eef          	jal	t4,80002266 <main_24+0x1a>
    80002250:	a015                	j	80002274 <main_24+0x28>
    80002252:	a801                	j	80002262 <main_24+0x16>
    80002254:	a02d                	j	8000227e <main_24+0x32>
    80002256:	018000ef          	jal	8000226e <main_24+0x22>
    8000225a:	018000ef          	jal	80002272 <main_24+0x26>
    8000225e:	ff9ff0ef          	jal	80002256 <main_24+0xa>
    80002262:	ff9ff0ef          	jal	8000225a <main_24+0xe>
    80002266:	b7f5                	j	80002252 <main_24+0x6>
    80002268:	a009                	j	8000226a <main_24+0x1e>
    8000226a:	ff5ff0ef          	jal	8000225e <main_24+0x12>
    8000226e:	fe7ff0ef          	jal	80002254 <main_24+0x8>
    80002272:	a019                	j	80002278 <main_24+0x2c>
    80002274:	008000ef          	jal	8000227c <main_24+0x30>
    80002278:	fd9ff0ef          	jal	80002250 <main_24+0x4>
    8000227c:	b7f5                	j	80002268 <main_24+0x1c>
    8000227e:	69d5                	lui	s3,0x15

0000000080002280 <main_76>:
    80002280:	00400eef          	jal	t4,80002284 <main_76+0x4>
    80002284:	026000ef          	jal	800022aa <main_76+0x2a>
    80002288:	010000ef          	jal	80002298 <main_76+0x18>
    8000228c:	014000ef          	jal	800022a0 <main_76+0x20>
    80002290:	ffdff0ef          	jal	8000228c <main_76+0xc>
    80002294:	ffdff0ef          	jal	80002290 <main_76+0x10>
    80002298:	ffdff0ef          	jal	80002294 <main_76+0x14>
    8000229c:	00a000ef          	jal	800022a6 <main_76+0x26>
    800022a0:	a009                	j	800022a2 <main_76+0x22>
    800022a2:	ffbff0ef          	jal	8000229c <main_76+0x1c>
    800022a6:	006000ef          	jal	800022ac <main_76+0x2c>
    800022aa:	bff9                	j	80002288 <main_76+0x8>
    800022ac:	005e9433          	sll	s0,t4,t0

00000000800022b0 <main_186>:
    800022b0:	00800eef          	jal	t4,800022b8 <main_186+0x8>
    800022b4:	016000ef          	jal	800022ca <main_186+0x1a>
    800022b8:	a801                	j	800022c8 <main_186+0x18>
    800022ba:	a00d                	j	800022dc <main_186+0x2c>
    800022bc:	028000ef          	jal	800022e4 <main_186+0x34>
    800022c0:	ffbff0ef          	jal	800022ba <main_186+0xa>
    800022c4:	bff5                	j	800022c0 <main_186+0x10>
    800022c6:	a019                	j	800022cc <main_186+0x1c>
    800022c8:	a021                	j	800022d0 <main_186+0x20>
    800022ca:	bfcd                	j	800022bc <main_186+0xc>
    800022cc:	a009                	j	800022ce <main_186+0x1e>
    800022ce:	a021                	j	800022d6 <main_186+0x26>
    800022d0:	bfdd                	j	800022c6 <main_186+0x16>
    800022d2:	008000ef          	jal	800022da <main_186+0x2a>
    800022d6:	fefff0ef          	jal	800022c4 <main_186+0x14>
    800022da:	bfe9                	j	800022b4 <main_186+0x4>
    800022dc:	ff7ff0ef          	jal	800022d2 <main_186+0x22>
    800022e0:	008000ef          	jal	800022e8 <main_186+0x38>
    800022e4:	ffdff0ef          	jal	800022e0 <main_186+0x30>
    800022e8:	6c10a193          	slti	gp,ra,1729
    800022ec:	4495                	li	s1,5
    800022ee:	4535                	li	a0,13
    800022f0:	0001                	nop
    800022f2:	47c0e617          	auipc	a2,0x47c0e

00000000800022f6 <main_215_1_t>:
    800022f6:	01d1b733          	sltu	a4,gp,t4
    800022fa:	14ed                	addi	s1,s1,-5
    800022fc:	4a8d                	li	s5,3
    800022fe:	5a3d                	li	s4,-17
    80002300:	2b25                	addiw	s6,s6,9

0000000080002302 <main_215_0_t>:
    80002302:	d6bdfbb7          	lui	s7,0xd6bdf
    80002306:	1ae9                	addi	s5,s5,-6
    80002308:	ff4adde3          	bge	s5,s4,80002302 <main_215_0_t>
    8000230c:	d4ed                	beqz	s1,800022f6 <main_215_1_t>
    8000230e:	0005d19b          	srliw	gp,a1,0x0
    80002312:	431d                	li	t1,7
    80002314:	d1534613          	xori	a2,t1,-747
    80002318:	4789                	li	a5,2
    8000231a:	03434cb3          	div	s9,t1,s4

000000008000231e <main_243_0_t>:
    8000231e:	03580eb3          	mul	t4,a6,s5
    80002322:	00be5a33          	srl	s4,t3,a1
    80002326:	41f8569b          	sraiw	a3,a6,0x1f
    8000232a:	03434cb3          	div	s9,t1,s4
    8000232e:	137d                	addi	t1,t1,-1
    80002330:	fef377e3          	bgeu	t1,a5,8000231e <main_243_0_t>
    80002334:	9b7d                	andi	a4,a4,-1
    80002336:	40a1                	li	ra,8
    80002338:	4a95                	li	s5,5
    8000233a:	d1534613          	xori	a2,t1,-747

000000008000233e <main_315_1_t>:
    8000233e:	0001                	nop
    80002340:	10fd                	addi	ra,ra,-1
    80002342:	03434db3          	div	s11,t1,s4
    80002346:	5c75                	li	s8,-3
    80002348:	ef697513          	andi	a0,s2,-266
    8000234c:	4ea1                	li	t4,8
    8000234e:	0b59                	addi	s6,s6,22
    80002350:	8d09                	sub	a0,a0,a0
    80002352:	47c0e597          	auipc	a1,0x47c0e
    80002356:	02fd7f33          	remu	t5,s10,a5
    8000235a:	6c10a293          	slti	t0,ra,1729

000000008000235e <main_315_0_t>:
    8000235e:	006d09b3          	add	s3,s10,t1
    80002362:	4049d03b          	sraw	zero,s3,tp
    80002366:	cc360c9b          	addiw	s9,a2,-829 # ffffffffc7c0ffb5 <_end+0xffffffff47bd562d>
    8000236a:	0c15                	addi	s8,s8,5
    8000236c:	ffdc49e3          	blt	s8,t4,8000235e <main_315_0_t>
    80002370:	01f9901b          	slliw	zero,s3,0x1f
    80002374:	8d09                	sub	a0,a0,a0
    80002376:	fd5084e3          	beq	ra,s5,8000233e <main_315_1_t>
    8000237a:	0114fe33          	and	t3,s1,a7
    8000237e:	4ca5                	li	s9,9
    80002380:	018042b3          	xor	t0,zero,s8
    80002384:	03b6c83b          	divw	a6,a3,s11
    80002388:	4a19                	li	s4,6
    8000238a:	005e9433          	sll	s0,t4,t0

000000008000238e <main_388_0_t>:
    8000238e:	8cbd                	xor	s1,s1,a5
    80002390:	1cf1                	addi	s9,s9,-4
    80002392:	9b3a                	add	s6,s6,a4
    80002394:	006e003b          	addw	zero,t3,t1
    80002398:	ff4cfbe3          	bgeu	s9,s4,8000238e <main_388_0_t>
    8000239c:	018042b3          	xor	t0,zero,s8

00000000800023a0 <main_146>:
    800023a0:	04c00eef          	jal	t4,800023ec <main_146+0x4c>
    800023a4:	a839                	j	800023c2 <main_146+0x22>
    800023a6:	03c000ef          	jal	800023e2 <main_146+0x42>
    800023aa:	a889                	j	800023fc <main_146+0x5c>
    800023ac:	026000ef          	jal	800023d2 <main_146+0x32>
    800023b0:	ffbff0ef          	jal	800023aa <main_146+0xa>
    800023b4:	a081                	j	800023f4 <main_146+0x54>
    800023b6:	ff1ff0ef          	jal	800023a6 <main_146+0x6>
    800023ba:	ff3ff0ef          	jal	800023ac <main_146+0xc>
    800023be:	a821                	j	800023d6 <main_146+0x36>
    800023c0:	bfed                	j	800023ba <main_146+0x1a>
    800023c2:	a01d                	j	800023e8 <main_146+0x48>
    800023c4:	018000ef          	jal	800023dc <main_146+0x3c>
    800023c8:	a819                	j	800023de <main_146+0x3e>
    800023ca:	fe7ff0ef          	jal	800023b0 <main_146+0x10>
    800023ce:	ffbff0ef          	jal	800023c8 <main_146+0x28>
    800023d2:	ff3ff0ef          	jal	800023c4 <main_146+0x24>
    800023d6:	febff0ef          	jal	800023c0 <main_146+0x20>
    800023da:	bfd5                	j	800023ce <main_146+0x2e>
    800023dc:	a811                	j	800023f0 <main_146+0x50>
    800023de:	fc7ff0ef          	jal	800023a4 <main_146+0x4>
    800023e2:	004000ef          	jal	800023e6 <main_146+0x46>
    800023e6:	a011                	j	800023ea <main_146+0x4a>
    800023e8:	a801                	j	800023f8 <main_146+0x58>
    800023ea:	bfc5                	j	800023da <main_146+0x3a>
    800023ec:	fcbff0ef          	jal	800023b6 <main_146+0x16>
    800023f0:	fc5ff0ef          	jal	800023b4 <main_146+0x14>
    800023f4:	fd7ff0ef          	jal	800023ca <main_146+0x2a>
    800023f8:	fc7ff0ef          	jal	800023be <main_146+0x1e>
    800023fc:	4049d03b          	sraw	zero,s3,tp

0000000080002400 <main_91>:
    80002400:	02400eef          	jal	t4,80002424 <main_91+0x24>
    80002404:	a019                	j	8000240a <main_91+0xa>
    80002406:	008000ef          	jal	8000240e <main_91+0xe>
    8000240a:	008000ef          	jal	80002412 <main_91+0x12>
    8000240e:	014000ef          	jal	80002422 <main_91+0x22>
    80002412:	014000ef          	jal	80002426 <main_91+0x26>
    80002416:	014000ef          	jal	8000242a <main_91+0x2a>
    8000241a:	febff0ef          	jal	80002404 <main_91+0x4>
    8000241e:	fe9ff0ef          	jal	80002406 <main_91+0x6>
    80002422:	a029                	j	8000242c <main_91+0x2c>
    80002424:	bfcd                	j	80002416 <main_91+0x16>
    80002426:	ff9ff0ef          	jal	8000241e <main_91+0x1e>
    8000242a:	bfc5                	j	8000241a <main_91+0x1a>
    8000242c:	0114ff33          	and	t5,s1,a7
    80002430:	48a5                	li	a7,9
    80002432:	4581                	li	a1,0

0000000080002434 <main_337_1_t>:
    80002434:	02051ab3          	mulh	s5,a0,zero
    80002438:	18f5                	addi	a7,a7,-3
    8000243a:	5765                	li	a4,-7
    8000243c:	0001                	nop

000000008000243e <main_337_0_t>:
    8000243e:	0001                	nop
    80002440:	071d                	addi	a4,a4,7
    80002442:	ff75                	bnez	a4,8000243e <main_337_0_t>
    80002444:	feb898e3          	bne	a7,a1,80002434 <main_337_1_t>
    80002448:	006e00bb          	addw	ra,t3,t1
    8000244c:	4411                	li	s0,4
    8000244e:	47c0e617          	auipc	a2,0x47c0e
    80002452:	8e89                	sub	a3,a3,a0
    80002454:	0005d19b          	srliw	gp,a1,0x0
    80002458:	4001dcb3          	sra	s9,gp,zero
    8000245c:	0a88                	addi	a0,sp,336
    8000245e:	0001                	nop
    80002460:	cc360c1b          	addiw	s8,a2,-829 # ffffffffc7c10111 <_end+0xffffffff47bd5789>
    80002464:	6a55                	lui	s4,0x15
    80002466:	0005d19b          	srliw	gp,a1,0x0
    8000246a:	002f6bb3          	or	s7,t5,sp
    8000246e:	02fd7e33          	remu	t3,s10,a5

0000000080002472 <main_331_0_t>:
    80002472:	9f81                	subw	a5,a5,s0
    80002474:	41f8571b          	sraiw	a4,a6,0x1f
    80002478:	6179                	addi	sp,sp,464
    8000247a:	03a8dbbb          	divuw	s7,a7,s10
    8000247e:	0ad9                	addi	s5,s5,22
    80002480:	1471                	addi	s0,s0,-4
    80002482:	0a88                	addi	a0,sp,336
    80002484:	01804333          	xor	t1,zero,s8
    80002488:	03b6c93b          	divw	s2,a3,s11
    8000248c:	03a8dbbb          	divuw	s7,a7,s10
    80002490:	008f1d93          	slli	s11,t5,0x8
    80002494:	dc79                	beqz	s0,80002472 <main_331_0_t>
    80002496:	0ad9                	addi	s5,s5,22
    80002498:	4f1d                	li	t5,7
    8000249a:	4ccd                	li	s9,19
    8000249c:	cc360b9b          	addiw	s7,a2,-829

00000000800024a0 <main_310_1_t>:
    800024a0:	2c25                	addiw	s8,s8,9
    800024a2:	47c0e517          	auipc	a0,0x47c0e
    800024a6:	401e5813          	srai	a6,t3,0x1
    800024aa:	0f09                	addi	t5,t5,2
    800024ac:	4e85                	li	t4,1
    800024ae:	55cd                	li	a1,-13
    800024b0:	005e9433          	sll	s0,t4,t0

00000000800024b4 <main_310_0_t>:
    800024b4:	d1534613          	xori	a2,t1,-747
    800024b8:	1ee9                	addi	t4,t4,-6
    800024ba:	9b3a                	add	s6,s6,a4
    800024bc:	4049d03b          	sraw	zero,s3,tp
    800024c0:	febedae3          	bge	t4,a1,800024b4 <main_310_0_t>
    800024c4:	0130a033          	slt	zero,ra,s3
    800024c8:	4001dc33          	sra	s8,gp,zero
    800024cc:	41d70bb3          	sub	s7,a4,t4
    800024d0:	4001dc33          	sra	s8,gp,zero
    800024d4:	0348dbb3          	divu	s7,a7,s4
    800024d8:	fd9f04e3          	beq	t5,s9,800024a0 <main_310_1_t>
    800024dc:	813d                	srli	a0,a0,0xf
    800024de:	5c5d                	li	s8,-9
    800024e0:	01f9909b          	slliw	ra,s3,0x1f
    800024e4:	03a8dbbb          	divuw	s7,a7,s10
    800024e8:	44b5                	li	s1,13
    800024ea:	4c81                	li	s9,0

00000000800024ec <main_209_1_t>:
    800024ec:	03b6c93b          	divw	s2,a3,s11
    800024f0:	0005d19b          	srliw	gp,a1,0x0
    800024f4:	03693533          	mulhu	a0,s2,s6
    800024f8:	03646333          	rem	t1,s0,s6
    800024fc:	0c11                	addi	s8,s8,4
    800024fe:	d6bdfab7          	lui	s5,0xd6bdf
    80002502:	566d                	li	a2,-5
    80002504:	9f31                	addw	a4,a4,a2
    80002506:	0001                	nop

0000000080002508 <main_209_0_t>:
    80002508:	82c6                	mv	t0,a7
    8000250a:	03646333          	rem	t1,s0,s6
    8000250e:	0605                	addi	a2,a2,1
    80002510:	41f8571b          	sraiw	a4,a6,0x1f
    80002514:	da75                	beqz	a2,80002508 <main_209_0_t>
    80002516:	fd9c4be3          	blt	s8,s9,800024ec <main_209_1_t>
    8000251a:	02eade93          	srli	t4,s5,0x2e

000000008000251e <main_89>:
    8000251e:	00c00eef          	jal	t4,8000252a <main_89+0xc>
    80002522:	01e000ef          	jal	80002540 <main_89+0x22>
    80002526:	a811                	j	8000253a <main_89+0x1c>
    80002528:	a819                	j	8000253e <main_89+0x20>
    8000252a:	00c000ef          	jal	80002536 <main_89+0x18>
    8000252e:	014000ef          	jal	80002542 <main_89+0x24>
    80002532:	ff1ff0ef          	jal	80002522 <main_89+0x4>
    80002536:	ffdff0ef          	jal	80002532 <main_89+0x14>
    8000253a:	ff5ff0ef          	jal	8000252e <main_89+0x10>
    8000253e:	a021                	j	80002546 <main_89+0x28>
    80002540:	b7dd                	j	80002526 <main_89+0x8>
    80002542:	fe7ff0ef          	jal	80002528 <main_89+0xa>
    80002546:	03646fb3          	rem	t6,s0,s6
    8000254a:	5179                	li	sp,-2
    8000254c:	8d51                	or	a0,a0,a2
    8000254e:	6c10a293          	slti	t0,ra,1729
    80002552:	2571e313          	ori	t1,gp,599
    80002556:	01d1b733          	sltu	a4,gp,t4
    8000255a:	8c7d                	and	s0,s0,a5
    8000255c:	02eadd93          	srli	s11,s5,0x2e
    80002560:	002f6bb3          	or	s7,t5,sp
    80002564:	cc360c1b          	addiw	s8,a2,-829
    80002568:	8735                	srai	a4,a4,0xd
    8000256a:	e9870593          	addi	a1,a4,-360
    8000256e:	4499                	li	s1,6
    80002570:	01804333          	xor	t1,zero,s8

0000000080002574 <main_312_0_t>:
    80002574:	035effbb          	remuw	t6,t4,s5
    80002578:	02fd7e33          	remu	t3,s10,a5
    8000257c:	ef697593          	andi	a1,s2,-266
    80002580:	02a261bb          	remw	gp,tp,a0
    80002584:	0111                	addi	sp,sp,4
    80002586:	01f9901b          	slliw	zero,s3,0x1f
    8000258a:	41f8571b          	sraiw	a4,a6,0x1f
    8000258e:	9bfd                	andi	a5,a5,-1
    80002590:	008f1d93          	slli	s11,t5,0x8
    80002594:	fe9110e3          	bne	sp,s1,80002574 <main_312_0_t>
    80002598:	016f1b3b          	sllw	s6,t5,s6

000000008000259c <main_102>:
    8000259c:	01e00eef          	jal	t4,800025ba <main_102+0x1e>
    800025a0:	004000ef          	jal	800025a4 <main_102+0x8>
    800025a4:	004000ef          	jal	800025a8 <main_102+0xc>
    800025a8:	01a000ef          	jal	800025c2 <main_102+0x26>
    800025ac:	00c000ef          	jal	800025b8 <main_102+0x1c>
    800025b0:	004000ef          	jal	800025b4 <main_102+0x18>
    800025b4:	ff9ff0ef          	jal	800025ac <main_102+0x10>
    800025b8:	b7e5                	j	800025a0 <main_102+0x4>
    800025ba:	a009                	j	800025bc <main_102+0x20>
    800025bc:	004000ef          	jal	800025c0 <main_102+0x24>
    800025c0:	bfc5                	j	800025b0 <main_102+0x14>
    800025c2:	9f01                	subw	a4,a4,s0

00000000800025c4 <main_160>:
    800025c4:	01200eef          	jal	t4,800025d6 <main_160+0x12>
    800025c8:	00a000ef          	jal	800025d2 <main_160+0xe>
    800025cc:	a021                	j	800025d4 <main_160+0x10>
    800025ce:	ffbff0ef          	jal	800025c8 <main_160+0x4>
    800025d2:	a021                	j	800025da <main_160+0x16>
    800025d4:	a031                	j	800025e0 <main_160+0x1c>
    800025d6:	006000ef          	jal	800025dc <main_160+0x18>
    800025da:	bfcd                	j	800025cc <main_160+0x8>
    800025dc:	a009                	j	800025de <main_160+0x1a>
    800025de:	bfc5                	j	800025ce <main_160+0xa>
    800025e0:	004000ef          	jal	800025e4 <main_160+0x20>
    800025e4:	987d                	andi	s0,s0,-1

00000000800025e6 <main_132>:
    800025e6:	01600eef          	jal	t4,800025fc <main_132+0x16>
    800025ea:	a819                	j	80002600 <main_132+0x1a>
    800025ec:	004000ef          	jal	800025f0 <main_132+0xa>
    800025f0:	006000ef          	jal	800025f6 <main_132+0x10>
    800025f4:	bfdd                	j	800025ea <main_132+0x4>
    800025f6:	a011                	j	800025fa <main_132+0x14>
    800025f8:	a019                	j	800025fe <main_132+0x18>
    800025fa:	bfed                	j	800025f4 <main_132+0xe>
    800025fc:	a021                	j	80002604 <main_132+0x1e>
    800025fe:	a021                	j	80002606 <main_132+0x20>
    80002600:	ff9ff0ef          	jal	800025f8 <main_132+0x12>
    80002604:	b7e5                	j	800025ec <main_132+0x6>
    80002606:	03646fb3          	rem	t6,s0,s6

000000008000260a <main_125>:
    8000260a:	01e00eef          	jal	t4,80002628 <main_125+0x1e>
    8000260e:	a03d                	j	8000263c <main_125+0x32>
    80002610:	a825                	j	80002648 <main_125+0x3e>
    80002612:	01a000ef          	jal	8000262c <main_125+0x22>
    80002616:	ffdff0ef          	jal	80002612 <main_125+0x8>
    8000261a:	02c000ef          	jal	80002646 <main_125+0x3c>
    8000261e:	a829                	j	80002638 <main_125+0x2e>
    80002620:	bfdd                	j	80002616 <main_125+0xc>
    80002622:	02c000ef          	jal	8000264e <main_125+0x44>
    80002626:	a021                	j	8000262e <main_125+0x24>
    80002628:	fe7ff0ef          	jal	8000260e <main_125+0x4>
    8000262c:	bfed                	j	80002626 <main_125+0x1c>
    8000262e:	fedff0ef          	jal	8000261a <main_125+0x10>
    80002632:	a009                	j	80002634 <main_125+0x2a>
    80002634:	010000ef          	jal	80002644 <main_125+0x3a>
    80002638:	b7e5                	j	80002620 <main_125+0x16>
    8000263a:	bfd9                	j	80002610 <main_125+0x6>
    8000263c:	010000ef          	jal	8000264c <main_125+0x42>
    80002640:	ffbff0ef          	jal	8000263a <main_125+0x30>
    80002644:	bfe9                	j	8000261e <main_125+0x14>
    80002646:	bff1                	j	80002622 <main_125+0x18>
    80002648:	00a000ef          	jal	80002652 <main_125+0x48>
    8000264c:	b7dd                	j	80002632 <main_125+0x28>
    8000264e:	ff3ff0ef          	jal	80002640 <main_125+0x36>
    80002652:	01d1b633          	sltu	a2,gp,t4

0000000080002656 <main_43>:
    80002656:	02a00eef          	jal	t4,80002680 <main_43+0x2a>
    8000265a:	a009                	j	8000265c <main_43+0x6>
    8000265c:	026000ef          	jal	80002682 <main_43+0x2c>
    80002660:	a009                	j	80002662 <main_43+0xc>
    80002662:	a01d                	j	80002688 <main_43+0x32>
    80002664:	a801                	j	80002674 <main_43+0x1e>
    80002666:	020000ef          	jal	80002686 <main_43+0x30>
    8000266a:	a031                	j	80002676 <main_43+0x20>
    8000266c:	ffbff0ef          	jal	80002666 <main_43+0x10>
    80002670:	a009                	j	80002672 <main_43+0x1c>
    80002672:	bfcd                	j	80002664 <main_43+0xe>
    80002674:	a019                	j	8000267a <main_43+0x24>
    80002676:	006000ef          	jal	8000267c <main_43+0x26>
    8000267a:	bfc5                	j	8000266a <main_43+0x14>
    8000267c:	ff1ff0ef          	jal	8000266c <main_43+0x16>
    80002680:	bfc5                	j	80002670 <main_43+0x1a>
    80002682:	a029                	j	8000268c <main_43+0x36>
    80002684:	bfd9                	j	8000265a <main_43+0x4>
    80002686:	bfe9                	j	80002660 <main_43+0xa>
    80002688:	ffdff0ef          	jal	80002684 <main_43+0x2e>
    8000268c:	002f6ab3          	or	s5,t5,sp
    80002690:	441d                	li	s0,7
    80002692:	0001                	nop

0000000080002694 <main_318_1_t>:
    80002694:	01804333          	xor	t1,zero,s8
    80002698:	1465                	addi	s0,s0,-7
    8000269a:	4e0d                	li	t3,3
    8000269c:	5b6d                	li	s6,-5

000000008000269e <main_318_0_t>:
    8000269e:	fbe33593          	sltiu	a1,t1,-66
    800026a2:	1e61                	addi	t3,t3,-8
    800026a4:	ff6e0de3          	beq	t3,s6,8000269e <main_318_0_t>
    800026a8:	d475                	beqz	s0,80002694 <main_318_1_t>
    800026aa:	01804333          	xor	t1,zero,s8
    800026ae:	4b11                	li	s6,4
    800026b0:	2aa5                	addiw	s5,s5,9 # ffffffffd6bdf009 <_end+0xffffffff56ba4681>
    800026b2:	0bd9                	addi	s7,s7,22 # ffffffffd6bdf016 <_end+0xffffffff56ba468e>
    800026b4:	4001ddb3          	sra	s11,gp,zero
    800026b8:	4049d03b          	sraw	zero,s3,tp
    800026bc:	57d5                	li	a5,-11

00000000800026be <main_379_1_t>:
    800026be:	41d70cb3          	sub	s9,a4,t4
    800026c2:	d1534613          	xori	a2,t1,-747
    800026c6:	03646333          	rem	t1,s0,s6
    800026ca:	1b75                	addi	s6,s6,-3
    800026cc:	5ed9                	li	t4,-10
    800026ce:	42d1                	li	t0,20
    800026d0:	0001                	nop

00000000800026d2 <main_379_0_t>:
    800026d2:	9f01                	subw	a4,a4,s0
    800026d4:	03fe2c33          	mulhsu	s8,t3,t6
    800026d8:	0ea1                	addi	t4,t4,8
    800026da:	fe5eece3          	bltu	t4,t0,800026d2 <main_379_0_t>
    800026de:	fefb10e3          	bne	s6,a5,800026be <main_379_1_t>
    800026e2:	0001                	nop

00000000800026e4 <main_34>:
    800026e4:	03a00eef          	jal	t4,8000271e <main_34+0x3a>
    800026e8:	00c000ef          	jal	800026f4 <main_34+0x10>
    800026ec:	01e000ef          	jal	8000270a <main_34+0x26>
    800026f0:	006000ef          	jal	800026f6 <main_34+0x12>
    800026f4:	a015                	j	80002718 <main_34+0x34>
    800026f6:	030000ef          	jal	80002726 <main_34+0x42>
    800026fa:	a011                	j	800026fe <main_34+0x1a>
    800026fc:	a029                	j	80002706 <main_34+0x22>
    800026fe:	bfcd                	j	800026f0 <main_34+0xc>
    80002700:	a831                	j	8000271c <main_34+0x38>
    80002702:	b7dd                	j	800026e8 <main_34+0x4>
    80002704:	a809                	j	80002716 <main_34+0x32>
    80002706:	008000ef          	jal	8000270e <main_34+0x2a>
    8000270a:	018000ef          	jal	80002722 <main_34+0x3e>
    8000270e:	ff7ff0ef          	jal	80002704 <main_34+0x20>
    80002712:	fdbff0ef          	jal	800026ec <main_34+0x8>
    80002716:	bff5                	j	80002712 <main_34+0x2e>
    80002718:	fe9ff0ef          	jal	80002700 <main_34+0x1c>
    8000271c:	b7c5                	j	800026fc <main_34+0x18>
    8000271e:	fe5ff0ef          	jal	80002702 <main_34+0x1e>
    80002722:	fd9ff0ef          	jal	800026fa <main_34+0x16>
    80002726:	d1534593          	xori	a1,t1,-747

000000008000272a <main_135>:
    8000272a:	00400eef          	jal	t4,8000272e <main_135+0x4>
    8000272e:	a031                	j	8000273a <main_135+0x10>
    80002730:	026000ef          	jal	80002756 <main_135+0x2c>
    80002734:	a801                	j	80002744 <main_135+0x1a>
    80002736:	a821                	j	8000274e <main_135+0x24>
    80002738:	a03d                	j	80002766 <main_135+0x3c>
    8000273a:	a805                	j	8000276a <main_135+0x40>
    8000273c:	034000ef          	jal	80002770 <main_135+0x46>
    80002740:	01c000ef          	jal	8000275c <main_135+0x32>
    80002744:	ff5ff0ef          	jal	80002738 <main_135+0xe>
    80002748:	a829                	j	80002762 <main_135+0x38>
    8000274a:	fffff0ef          	jal	80002748 <main_135+0x1e>
    8000274e:	a029                	j	80002758 <main_135+0x2e>
    80002750:	a839                	j	8000276e <main_135+0x44>
    80002752:	00e000ef          	jal	80002760 <main_135+0x36>
    80002756:	bfed                	j	80002750 <main_135+0x26>
    80002758:	fe9ff0ef          	jal	80002740 <main_135+0x16>
    8000275c:	fe1ff0ef          	jal	8000273c <main_135+0x12>
    80002760:	b7ed                	j	8000274a <main_135+0x20>
    80002762:	fcfff0ef          	jal	80002730 <main_135+0x6>
    80002766:	fd1ff0ef          	jal	80002736 <main_135+0xc>
    8000276a:	fe9ff0ef          	jal	80002752 <main_135+0x28>
    8000276e:	b7d9                	j	80002734 <main_135+0xa>
    80002770:	03fe2ab3          	mulhsu	s5,t3,t6
    80002774:	460d                	li	a2,3
    80002776:	9bfd                	andi	a5,a5,-1
    80002778:	4321                	li	t1,8
    8000277a:	9f31                	addw	a4,a4,a2

000000008000277c <main_230_0_t>:
    8000277c:	03580eb3          	mul	t4,a6,s5
    80002780:	01375e3b          	srlw	t3,a4,s3
    80002784:	ef697513          	andi	a0,s2,-266
    80002788:	0a84                	addi	s1,sp,336
    8000278a:	0615                	addi	a2,a2,5
    8000278c:	fe6618e3          	bne	a2,t1,8000277c <main_230_0_t>
    80002790:	2571e293          	ori	t0,gp,599

0000000080002794 <main_73>:
    80002794:	01c00eef          	jal	t4,800027b0 <main_73+0x1c>
    80002798:	042000ef          	jal	800027da <main_73+0x46>
    8000279c:	00a000ef          	jal	800027a6 <main_73+0x12>
    800027a0:	024000ef          	jal	800027c4 <main_73+0x30>
    800027a4:	a01d                	j	800027ca <main_73+0x36>
    800027a6:	a009                	j	800027a8 <main_73+0x14>
    800027a8:	a015                	j	800027cc <main_73+0x38>
    800027aa:	02c000ef          	jal	800027d6 <main_73+0x42>
    800027ae:	bfcd                	j	800027a0 <main_73+0xc>
    800027b0:	b7e5                	j	80002798 <main_73+0x4>
    800027b2:	a00d                	j	800027d4 <main_73+0x40>
    800027b4:	bfed                	j	800027ae <main_73+0x1a>
    800027b6:	026000ef          	jal	800027dc <main_73+0x48>
    800027ba:	a01d                	j	800027e0 <main_73+0x4c>
    800027bc:	b7c5                	j	8000279c <main_73+0x8>
    800027be:	a811                	j	800027d2 <main_73+0x3e>
    800027c0:	ffdff0ef          	jal	800027bc <main_73+0x28>
    800027c4:	bfed                	j	800027be <main_73+0x2a>
    800027c6:	a009                	j	800027c8 <main_73+0x34>
    800027c8:	bfe5                	j	800027c0 <main_73+0x2c>
    800027ca:	a011                	j	800027ce <main_73+0x3a>
    800027cc:	bfe1                	j	800027a4 <main_73+0x10>
    800027ce:	fe5ff0ef          	jal	800027b2 <main_73+0x1e>
    800027d2:	bfe1                	j	800027aa <main_73+0x16>
    800027d4:	b7dd                	j	800027ba <main_73+0x26>
    800027d6:	fe1ff0ef          	jal	800027b6 <main_73+0x22>
    800027da:	bfe9                	j	800027b4 <main_73+0x20>
    800027dc:	febff0ef          	jal	800027c6 <main_73+0x32>
    800027e0:	6c10a193          	slti	gp,ra,1729

00000000800027e4 <main_82>:
    800027e4:	02200eef          	jal	t4,80002806 <main_82+0x22>
    800027e8:	a00d                	j	8000280a <main_82+0x26>
    800027ea:	a819                	j	80002800 <main_82+0x1c>
    800027ec:	a821                	j	80002804 <main_82+0x20>
    800027ee:	ffdff0ef          	jal	800027ea <main_82+0x6>
    800027f2:	010000ef          	jal	80002802 <main_82+0x1e>
    800027f6:	a019                	j	800027fc <main_82+0x18>
    800027f8:	bfed                	j	800027f2 <main_82+0xe>
    800027fa:	bfcd                	j	800027ec <main_82+0x8>
    800027fc:	bff5                	j	800027f8 <main_82+0x14>
    800027fe:	a801                	j	8000280e <main_82+0x2a>
    80002800:	bfed                	j	800027fa <main_82+0x16>
    80002802:	a029                	j	8000280c <main_82+0x28>
    80002804:	b7d5                	j	800027e8 <main_82+0x4>
    80002806:	bfc5                	j	800027f6 <main_82+0x12>
    80002808:	bfdd                	j	800027fe <main_82+0x1a>
    8000280a:	bffd                	j	80002808 <main_82+0x24>
    8000280c:	b7cd                	j	800027ee <main_82+0xa>
    8000280e:	006d0933          	add	s2,s10,t1
    80002812:	5559                	li	a0,-10
    80002814:	41f8571b          	sraiw	a4,a6,0x1f
    80002818:	020519b3          	mulh	s3,a0,zero
    8000281c:	0001                	nop
    8000281e:	414d                	li	sp,19
    80002820:	8cd1                	or	s1,s1,a2
    80002822:	9bba                	add	s7,s7,a4

0000000080002824 <main_277_0_t>:
    80002824:	2ca5                	addiw	s9,s9,9
    80002826:	0005d19b          	srliw	gp,a1,0x0
    8000282a:	0348dc33          	divu	s8,a7,s4
    8000282e:	006d0a33          	add	s4,s10,t1
    80002832:	006d0a33          	add	s4,s10,t1
    80002836:	6c10a293          	slti	t0,ra,1729
    8000283a:	45b5                	li	a1,13
    8000283c:	0130a033          	slt	zero,ra,s3
    80002840:	050d                	addi	a0,a0,3 # c7c104a5 <_end+0x47bd5b1d>
    80002842:	016f1b3b          	sllw	s6,t5,s6
    80002846:	03580eb3          	mul	t4,a6,s5
    8000284a:	02e4833b          	mulw	t1,s1,a4
    8000284e:	03646333          	rem	t1,s0,s6
    80002852:	01d1b733          	sltu	a4,gp,t4
    80002856:	9bfd                	andi	a5,a5,-1
    80002858:	d6bdfab7          	lui	s5,0xd6bdf
    8000285c:	6c10a293          	slti	t0,ra,1729
    80002860:	8735                	srai	a4,a4,0xd
    80002862:	008f1d93          	slli	s11,t5,0x8
    80002866:	9e81                	subw	a3,a3,s0
    80002868:	fa256ee3          	bltu	a0,sp,80002824 <main_277_0_t>
    8000286c:	401e5893          	srai	a7,t3,0x1
    80002870:	56dd                	li	a3,-9
    80002872:	01804333          	xor	t1,zero,s8
    80002876:	fbe33f13          	sltiu	t5,t1,-66
    8000287a:	0001                	nop
    8000287c:	8cd1                	or	s1,s1,a2
    8000287e:	0001                	nop
    80002880:	005e94b3          	sll	s1,t4,t0
    80002884:	8c7d                	and	s0,s0,a5
    80002886:	03a8dbbb          	divuw	s7,a7,s10
    8000288a:	0348dc33          	divu	s8,a7,s4

000000008000288e <main_322_0_t>:
    8000288e:	e9870513          	addi	a0,a4,-360
    80002892:	0a84                	addi	s1,sp,336
    80002894:	0a52                	slli	s4,s4,0x14
    80002896:	0685                	addi	a3,a3,1
    80002898:	47c0e597          	auipc	a1,0x47c0e
    8000289c:	fbe33f13          	sltiu	t5,t1,-66
    800028a0:	00be5a33          	srl	s4,t3,a1
    800028a4:	8c7d                	and	s0,s0,a5
    800028a6:	6179                	addi	sp,sp,464
    800028a8:	f2fd                	bnez	a3,8000288e <main_322_0_t>
    800028aa:	020519b3          	mulh	s3,a0,zero

00000000800028ae <main_143>:
    800028ae:	01000eef          	jal	t4,800028be <main_143+0x10>
    800028b2:	024000ef          	jal	800028d6 <main_143+0x28>
    800028b6:	01c000ef          	jal	800028d2 <main_143+0x24>
    800028ba:	ffdff0ef          	jal	800028b6 <main_143+0x8>
    800028be:	a019                	j	800028c4 <main_143+0x16>
    800028c0:	bfed                	j	800028ba <main_143+0xc>
    800028c2:	a039                	j	800028d0 <main_143+0x22>
    800028c4:	01a000ef          	jal	800028de <main_143+0x30>
    800028c8:	ffbff0ef          	jal	800028c2 <main_143+0x14>
    800028cc:	ffdff0ef          	jal	800028c8 <main_143+0x1a>
    800028d0:	a829                	j	800028ea <main_143+0x3c>
    800028d2:	014000ef          	jal	800028e6 <main_143+0x38>
    800028d6:	a019                	j	800028dc <main_143+0x2e>
    800028d8:	ff5ff0ef          	jal	800028cc <main_143+0x1e>
    800028dc:	a019                	j	800028e2 <main_143+0x34>
    800028de:	fd5ff0ef          	jal	800028b2 <main_143+0x4>
    800028e2:	fdfff0ef          	jal	800028c0 <main_143+0x12>
    800028e6:	ff3ff0ef          	jal	800028d8 <main_143+0x2a>
    800028ea:	8e51                	or	a2,a2,a2
    800028ec:	4295                	li	t0,5
    800028ee:	03646333          	rem	t1,s0,s6
    800028f2:	016f1b3b          	sllw	s6,t5,s6
    800028f6:	4415                	li	s0,5
    800028f8:	401e5893          	srai	a7,t3,0x1
    800028fc:	8735                	srai	a4,a4,0xd
    800028fe:	035effbb          	remuw	t6,t4,s5
    80002902:	02eadd93          	srli	s11,s5,0x2e
    80002906:	0005d11b          	srliw	sp,a1,0x0
    8000290a:	02a2613b          	remw	sp,tp,a0
    8000290e:	020519b3          	mulh	s3,a0,zero
    80002912:	e9870593          	addi	a1,a4,-360

0000000080002916 <main_248_0_t>:
    80002916:	d1534693          	xori	a3,t1,-747
    8000291a:	8e89                	sub	a3,a3,a0
    8000291c:	6179                	addi	sp,sp,464
    8000291e:	6c10a193          	slti	gp,ra,1729
    80002922:	8d51                	or	a0,a0,a2
    80002924:	00be5a33          	srl	s4,t3,a1
    80002928:	03a8dbbb          	divuw	s7,a7,s10
    8000292c:	02eadd93          	srli	s11,s5,0x2e
    80002930:	6c10a193          	slti	gp,ra,1729
    80002934:	9e81                	subw	a3,a3,s0
    80002936:	401e5893          	srai	a7,t3,0x1
    8000293a:	0001                	nop
    8000293c:	81bd                	srli	a1,a1,0xf
    8000293e:	9bfd                	andi	a5,a5,-1
    80002940:	12f5                	addi	t0,t0,-3
    80002942:	0ad2                	slli	s5,s5,0x14
    80002944:	fc82f9e3          	bgeu	t0,s0,80002916 <main_248_0_t>
    80002948:	401e5893          	srai	a7,t3,0x1
    8000294c:	59f9                	li	s3,-2
    8000294e:	d6bdfab7          	lui	s5,0xd6bdf
    80002952:	d1534613          	xori	a2,t1,-747
    80002956:	6ad5                	lui	s5,0x15
    80002958:	0114fdb3          	and	s11,s1,a7
    8000295c:	51c9                	li	gp,-14
    8000295e:	02a2613b          	remw	sp,tp,a0
    80002962:	005e94b3          	sll	s1,t4,t0
    80002966:	002f6bb3          	or	s7,t5,sp

000000008000296a <main_392_1_t>:
    8000296a:	47c0e597          	auipc	a1,0x47c0e
    8000296e:	19f9                	addi	s3,s3,-2 # 14ffe <_start-0x7ffeb002>
    80002970:	4ea5                	li	t4,9
    80002972:	8f3d                	xor	a4,a4,a5
    80002974:	4f91                	li	t6,4
    80002976:	4001dcb3          	sra	s9,gp,zero
    8000297a:	8435                	srai	s0,s0,0xd
    8000297c:	2571e313          	ori	t1,gp,599
    80002980:	6ad5                	lui	s5,0x15

0000000080002982 <main_392_0_t>:
    80002982:	406d073b          	subw	a4,s10,t1
    80002986:	0ad2                	slli	s5,s5,0x14
    80002988:	002f6bb3          	or	s7,t5,sp
    8000298c:	1efd                	addi	t4,t4,-1
    8000298e:	002f6bb3          	or	s7,t5,sp
    80002992:	41d70c33          	sub	s8,a4,t4
    80002996:	fffef6e3          	bgeu	t4,t6,80002982 <main_392_0_t>
    8000299a:	0b59                	addi	s6,s6,22
    8000299c:	fc3997e3          	bne	s3,gp,8000296a <main_392_1_t>
    800029a0:	002f6bb3          	or	s7,t5,sp

00000000800029a4 <main_170>:
    800029a4:	05200eef          	jal	t4,800029f6 <main_170+0x52>
    800029a8:	a899                	j	800029fe <main_170+0x5a>
    800029aa:	014000ef          	jal	800029be <main_170+0x1a>
    800029ae:	ffbff0ef          	jal	800029a8 <main_170+0x4>
    800029b2:	032000ef          	jal	800029e4 <main_170+0x40>
    800029b6:	01a000ef          	jal	800029d0 <main_170+0x2c>
    800029ba:	03a000ef          	jal	800029f4 <main_170+0x50>
    800029be:	030000ef          	jal	800029ee <main_170+0x4a>
    800029c2:	01c000ef          	jal	800029de <main_170+0x3a>
    800029c6:	03a000ef          	jal	80002a00 <main_170+0x5c>
    800029ca:	a025                	j	800029f2 <main_170+0x4e>
    800029cc:	fe7ff0ef          	jal	800029b2 <main_170+0xe>
    800029d0:	fdfff0ef          	jal	800029ae <main_170+0xa>
    800029d4:	b7cd                	j	800029b6 <main_170+0x12>
    800029d6:	a811                	j	800029ea <main_170+0x46>
    800029d8:	a00d                	j	800029fa <main_170+0x56>
    800029da:	fd1ff0ef          	jal	800029aa <main_170+0x6>
    800029de:	a009                	j	800029e0 <main_170+0x3c>
    800029e0:	006000ef          	jal	800029e6 <main_170+0x42>
    800029e4:	bff9                	j	800029c2 <main_170+0x1e>
    800029e6:	ff5ff0ef          	jal	800029da <main_170+0x36>
    800029ea:	fe1ff0ef          	jal	800029ca <main_170+0x26>
    800029ee:	fcdff0ef          	jal	800029ba <main_170+0x16>
    800029f2:	bfe9                	j	800029cc <main_170+0x28>
    800029f4:	b7c5                	j	800029d4 <main_170+0x30>
    800029f6:	fe3ff0ef          	jal	800029d8 <main_170+0x34>
    800029fa:	fddff0ef          	jal	800029d6 <main_170+0x32>
    800029fe:	b7e1                	j	800029c6 <main_170+0x22>
    80002a00:	4cb5                	li	s9,13
    80002a02:	4305                	li	t1,1
    80002a04:	41d70c33          	sub	s8,a4,t4
    80002a08:	02fd7e33          	remu	t3,s10,a5
    80002a0c:	006e003b          	addw	zero,t3,t1
    80002a10:	0001                	nop
    80002a12:	02fd7e33          	remu	t3,s10,a5
    80002a16:	41b5                	li	gp,13
    80002a18:	6c10a293          	slti	t0,ra,1729

0000000080002a1c <main_389_0_t>:
    80002a1c:	02a2613b          	remw	sp,tp,a0
    80002a20:	401e5893          	srai	a7,t3,0x1
    80002a24:	031d                	addi	t1,t1,7
    80002a26:	823d                	srli	a2,a2,0xf
    80002a28:	fe336ae3          	bltu	t1,gp,80002a1c <main_389_0_t>
    80002a2c:	4049d03b          	sraw	zero,s3,tp
    80002a30:	470d                	li	a4,3
    80002a32:	6179                	addi	sp,sp,464
    80002a34:	0001                	nop

0000000080002a36 <main_217_1_t>:
    80002a36:	8c7d                	and	s0,s0,a5
    80002a38:	177d                	addi	a4,a4,-1
    80002a3a:	8d3d                	xor	a0,a0,a5
    80002a3c:	4c99                	li	s9,6
    80002a3e:	006d0ab3          	add	s5,s10,t1
    80002a42:	cc360d9b          	addiw	s11,a2,-829
    80002a46:	460d                	li	a2,3

0000000080002a48 <main_217_0_t>:
    80002a48:	406d083b          	subw	a6,s10,t1
    80002a4c:	0ad2                	slli	s5,s5,0x14
    80002a4e:	1cfd                	addi	s9,s9,-1
    80002a50:	2aa5                	addiw	s5,s5,9 # 15009 <_start-0x7ffeaff7>
    80002a52:	feccfbe3          	bgeu	s9,a2,80002a48 <main_217_0_t>
    80002a56:	f365                	bnez	a4,80002a36 <main_217_1_t>
    80002a58:	fbe33513          	sltiu	a0,t1,-66
    80002a5c:	5a79                	li	s4,-2
    80002a5e:	0005d11b          	srliw	sp,a1,0x0
    80002a62:	008f1d93          	slli	s11,t5,0x8
    80002a66:	450d                	li	a0,3
    80002a68:	6ad5                	lui	s5,0x15
    80002a6a:	03580eb3          	mul	t4,a6,s5
    80002a6e:	018042b3          	xor	t0,zero,s8
    80002a72:	0ad2                	slli	s5,s5,0x14
    80002a74:	036462b3          	rem	t0,s0,s6
    80002a78:	0130a033          	slt	zero,ra,s3

0000000080002a7c <main_323_0_t>:
    80002a7c:	03b6c8bb          	divw	a7,a3,s11
    80002a80:	8cd1                	or	s1,s1,a2
    80002a82:	005e9433          	sll	s0,t4,t0
    80002a86:	8c7d                	and	s0,s0,a5
    80002a88:	406d073b          	subw	a4,s10,t1
    80002a8c:	02051933          	mulh	s2,a0,zero
    80002a90:	0a1d                	addi	s4,s4,7 # 15007 <_start-0x7ffeaff9>
    80002a92:	0b59                	addi	s6,s6,22
    80002a94:	006e003b          	addw	zero,t3,t1
    80002a98:	82c6                	mv	t0,a7
    80002a9a:	006d09b3          	add	s3,s10,t1
    80002a9e:	02fd7e33          	remu	t3,s10,a5
    80002aa2:	02051933          	mulh	s2,a0,zero
    80002aa6:	9bba                	add	s7,s7,a4
    80002aa8:	fcaa6ae3          	bltu	s4,a0,80002a7c <main_323_0_t>
    80002aac:	6ad5                	lui	s5,0x15

0000000080002aae <main_157>:
    80002aae:	03800eef          	jal	t4,80002ae6 <main_157+0x38>
    80002ab2:	a089                	j	80002af4 <main_157+0x46>
    80002ab4:	a025                	j	80002adc <main_157+0x2e>
    80002ab6:	a82d                	j	80002af0 <main_157+0x42>
    80002ab8:	a811                	j	80002acc <main_157+0x1e>
    80002aba:	a829                	j	80002ad4 <main_157+0x26>
    80002abc:	ffdff0ef          	jal	80002ab8 <main_157+0xa>
    80002ac0:	024000ef          	jal	80002ae4 <main_157+0x36>
    80002ac4:	012000ef          	jal	80002ad6 <main_157+0x28>
    80002ac8:	febff0ef          	jal	80002ab2 <main_157+0x4>
    80002acc:	00c000ef          	jal	80002ad8 <main_157+0x2a>
    80002ad0:	fe5ff0ef          	jal	80002ab4 <main_157+0x6>
    80002ad4:	a821                	j	80002aec <main_157+0x3e>
    80002ad6:	a809                	j	80002ae8 <main_157+0x3a>
    80002ad8:	bff9                	j	80002ab6 <main_157+0x8>
    80002ada:	b7cd                	j	80002abc <main_157+0xe>
    80002adc:	fe5ff0ef          	jal	80002ac0 <main_157+0x12>
    80002ae0:	fdbff0ef          	jal	80002aba <main_157+0xc>
    80002ae4:	b7c5                	j	80002ac4 <main_157+0x16>
    80002ae6:	b7ed                	j	80002ad0 <main_157+0x22>
    80002ae8:	ff9ff0ef          	jal	80002ae0 <main_157+0x32>
    80002aec:	fefff0ef          	jal	80002ada <main_157+0x2c>
    80002af0:	fd9ff0ef          	jal	80002ac8 <main_157+0x1a>
    80002af4:	d6bdf9b7          	lui	s3,0xd6bdf
    80002af8:	4825                	li	a6,9
    80002afa:	03580eb3          	mul	t4,a6,s5
    80002afe:	0001                	nop
    80002b00:	6179                	addi	sp,sp,464
    80002b02:	2a25                	addiw	s4,s4,9
    80002b04:	4e15                	li	t3,5
    80002b06:	44b5                	li	s1,13
    80002b08:	2571e293          	ori	t0,gp,599
    80002b0c:	002f6b33          	or	s6,t5,sp
    80002b10:	018042b3          	xor	t0,zero,s8

0000000080002b14 <main_363_0_t>:
    80002b14:	0114fcb3          	and	s9,s1,a7
    80002b18:	1871                	addi	a6,a6,-4
    80002b1a:	ef697493          	andi	s1,s2,-266
    80002b1e:	0130a033          	slt	zero,ra,s3
    80002b22:	01f9901b          	slliw	zero,s3,0x1f
    80002b26:	018042b3          	xor	t0,zero,s8
    80002b2a:	035effbb          	remuw	t6,t4,s5
    80002b2e:	03a8db3b          	divuw	s6,a7,s10
    80002b32:	03fe2b33          	mulhsu	s6,t3,t6
    80002b36:	0a52                	slli	s4,s4,0x14
    80002b38:	44b5                	li	s1,13
    80002b3a:	fdc81de3          	bne	a6,t3,80002b14 <main_363_0_t>
    80002b3e:	03434c33          	div	s8,t1,s4
    80002b42:	4609                	li	a2,2
    80002b44:	8c7d                	and	s0,s0,a5
    80002b46:	d6bdfbb7          	lui	s7,0xd6bdf
    80002b4a:	03646333          	rem	t1,s0,s6
    80002b4e:	0001                	nop
    80002b50:	9e81                	subw	a3,a3,s0
    80002b52:	ef697513          	andi	a0,s2,-266

0000000080002b56 <main_289_1_t>:
    80002b56:	0114feb3          	and	t4,s1,a7
    80002b5a:	82c6                	mv	t0,a7
    80002b5c:	167d                	addi	a2,a2,-1
    80002b5e:	8e89                	sub	a3,a3,a0
    80002b60:	9e81                	subw	a3,a3,s0
    80002b62:	020519b3          	mulh	s3,a0,zero
    80002b66:	5add                	li	s5,-9
    80002b68:	d1534693          	xori	a3,t1,-747
    80002b6c:	5b61                	li	s6,-8
    80002b6e:	005e94b3          	sll	s1,t4,t0
    80002b72:	8cd1                	or	s1,s1,a2

0000000080002b74 <main_289_0_t>:
    80002b74:	41d70db3          	sub	s11,a4,t4
    80002b78:	406d07bb          	subw	a5,s10,t1
    80002b7c:	2571e313          	ori	t1,gp,599
    80002b80:	0a9d                	addi	s5,s5,7 # 15007 <_start-0x7ffeaff9>
    80002b82:	ff6ac9e3          	blt	s5,s6,80002b74 <main_289_0_t>
    80002b86:	9bfd                	andi	a5,a5,-1
    80002b88:	035efcbb          	remuw	s9,t4,s5
    80002b8c:	01d1b733          	sltu	a4,gp,t4
    80002b90:	9bfd                	andi	a5,a5,-1
    80002b92:	01804333          	xor	t1,zero,s8
    80002b96:	f261                	bnez	a2,80002b56 <main_289_1_t>
    80002b98:	2a25                	addiw	s4,s4,9
    80002b9a:	50f9                	li	ra,-2
    80002b9c:	2571e313          	ori	t1,gp,599
    80002ba0:	ef697513          	andi	a0,s2,-266
    80002ba4:	002f6bb3          	or	s7,t5,sp
    80002ba8:	0a84                	addi	s1,sp,336
    80002baa:	41d70c33          	sub	s8,a4,t4
    80002bae:	56e9                	li	a3,-6

0000000080002bb0 <main_391_0_t>:
    80002bb0:	03693533          	mulhu	a0,s2,s6
    80002bb4:	020519b3          	mulh	s3,a0,zero
    80002bb8:	10f1                	addi	ra,ra,-4
    80002bba:	8c7d                	and	s0,s0,a5
    80002bbc:	03693533          	mulhu	a0,s2,s6
    80002bc0:	4535                	li	a0,13
    80002bc2:	fed097e3          	bne	ra,a3,80002bb0 <main_391_0_t>
    80002bc6:	d1534613          	xori	a2,t1,-747
    80002bca:	4f9d                	li	t6,7
    80002bcc:	006e003b          	addw	zero,t3,t1
    80002bd0:	0348dcb3          	divu	s9,a7,s4
    80002bd4:	01d1b6b3          	sltu	a3,gp,t4
    80002bd8:	006d0ab3          	add	s5,s10,t1
    80002bdc:	470d                	li	a4,3
    80002bde:	0a84                	addi	s1,sp,336

0000000080002be0 <main_362_1_t>:
    80002be0:	0001                	nop
    80002be2:	1ff9                	addi	t6,t6,-2
    80002be4:	41f8569b          	sraiw	a3,a6,0x1f
    80002be8:	50e9                	li	ra,-6
    80002bea:	016f1bbb          	sllw	s7,t5,s6
    80002bee:	6179                	addi	sp,sp,464
    80002bf0:	02e4833b          	mulw	t1,s1,a4
    80002bf4:	8c7d                	and	s0,s0,a5
    80002bf6:	58f9                	li	a7,-2
    80002bf8:	406d07bb          	subw	a5,s10,t1
    80002bfc:	8cd1                	or	s1,s1,a2

0000000080002bfe <main_362_0_t>:
    80002bfe:	8e51                	or	a2,a2,a2
    80002c00:	0085                	addi	ra,ra,1
    80002c02:	813d                	srli	a0,a0,0xf
    80002c04:	02051a33          	mulh	s4,a0,zero
    80002c08:	008f1e13          	slli	t3,t5,0x8
    80002c0c:	ff1089e3          	beq	ra,a7,80002bfe <main_362_0_t>
    80002c10:	fceff8e3          	bgeu	t6,a4,80002be0 <main_362_1_t>
    80002c14:	8346                	mv	t1,a7

0000000080002c16 <main_60>:
    80002c16:	02600eef          	jal	t4,80002c3c <main_60+0x26>
    80002c1a:	00c000ef          	jal	80002c26 <main_60+0x10>
    80002c1e:	a809                	j	80002c30 <main_60+0x1a>
    80002c20:	030000ef          	jal	80002c50 <main_60+0x3a>
    80002c24:	bff5                	j	80002c20 <main_60+0xa>
    80002c26:	020000ef          	jal	80002c46 <main_60+0x30>
    80002c2a:	02e000ef          	jal	80002c58 <main_60+0x42>
    80002c2e:	b7f5                	j	80002c1a <main_60+0x4>
    80002c30:	a83d                	j	80002c6e <main_60+0x58>
    80002c32:	a019                	j	80002c38 <main_60+0x22>
    80002c34:	018000ef          	jal	80002c4c <main_60+0x36>
    80002c38:	02a000ef          	jal	80002c62 <main_60+0x4c>
    80002c3c:	02e000ef          	jal	80002c6a <main_60+0x54>
    80002c40:	004000ef          	jal	80002c44 <main_60+0x2e>
    80002c44:	b7fd                	j	80002c32 <main_60+0x1c>
    80002c46:	a829                	j	80002c60 <main_60+0x4a>
    80002c48:	012000ef          	jal	80002c5a <main_60+0x44>
    80002c4c:	ffdff0ef          	jal	80002c48 <main_60+0x32>
    80002c50:	a009                	j	80002c52 <main_60+0x3c>
    80002c52:	014000ef          	jal	80002c66 <main_60+0x50>
    80002c56:	bff9                	j	80002c34 <main_60+0x1e>
    80002c58:	a011                	j	80002c5c <main_60+0x46>
    80002c5a:	bfd1                	j	80002c2e <main_60+0x18>
    80002c5c:	b7d5                	j	80002c40 <main_60+0x2a>
    80002c5e:	b7c1                	j	80002c1e <main_60+0x8>
    80002c60:	b7d1                	j	80002c24 <main_60+0xe>
    80002c62:	ffdff0ef          	jal	80002c5e <main_60+0x48>
    80002c66:	fc5ff0ef          	jal	80002c2a <main_60+0x14>
    80002c6a:	fedff0ef          	jal	80002c56 <main_60+0x40>
    80002c6e:	6179                	addi	sp,sp,464

0000000080002c70 <main_70>:
    80002c70:	03800eef          	jal	t4,80002ca8 <main_70+0x38>
    80002c74:	a829                	j	80002c8e <main_70+0x1e>
    80002c76:	004000ef          	jal	80002c7a <main_70+0xa>
    80002c7a:	a819                	j	80002c90 <main_70+0x20>
    80002c7c:	00e000ef          	jal	80002c8a <main_70+0x1a>
    80002c80:	a021                	j	80002c88 <main_70+0x18>
    80002c82:	a015                	j	80002ca6 <main_70+0x36>
    80002c84:	a01d                	j	80002caa <main_70+0x3a>
    80002c86:	a801                	j	80002c96 <main_70+0x26>
    80002c88:	bff5                	j	80002c84 <main_70+0x14>
    80002c8a:	ff7ff0ef          	jal	80002c80 <main_70+0x10>
    80002c8e:	b7fd                	j	80002c7c <main_70+0xc>
    80002c90:	012000ef          	jal	80002ca2 <main_70+0x32>
    80002c94:	a029                	j	80002c9e <main_70+0x2e>
    80002c96:	a011                	j	80002c9a <main_70+0x2a>
    80002c98:	b7fd                	j	80002c86 <main_70+0x16>
    80002c9a:	fe9ff0ef          	jal	80002c82 <main_70+0x12>
    80002c9e:	ffbff0ef          	jal	80002c98 <main_70+0x28>
    80002ca2:	ff3ff0ef          	jal	80002c94 <main_70+0x24>
    80002ca6:	b7f9                	j	80002c74 <main_70+0x4>
    80002ca8:	b7f9                	j	80002c76 <main_70+0x6>
    80002caa:	008f1c13          	slli	s8,t5,0x8
    80002cae:	4a29                	li	s4,10
    80002cb0:	823d                	srli	a2,a2,0xf
    80002cb2:	4c29                	li	s8,10

0000000080002cb4 <main_229_0_t>:
    80002cb4:	0a80                	addi	s0,sp,336
    80002cb6:	018042b3          	xor	t0,zero,s8
    80002cba:	823d                	srli	a2,a2,0xf
    80002cbc:	1a6d                	addi	s4,s4,-5
    80002cbe:	ff8a7be3          	bgeu	s4,s8,80002cb4 <main_229_0_t>
    80002cc2:	09d2                	slli	s3,s3,0x14

0000000080002cc4 <main_101>:
    80002cc4:	04800eef          	jal	t4,80002d0c <main_101+0x48>
    80002cc8:	a021                	j	80002cd0 <main_101+0xc>
    80002cca:	038000ef          	jal	80002d02 <main_101+0x3e>
    80002cce:	a019                	j	80002cd4 <main_101+0x10>
    80002cd0:	ffbff0ef          	jal	80002cca <main_101+0x6>
    80002cd4:	010000ef          	jal	80002ce4 <main_101+0x20>
    80002cd8:	03c000ef          	jal	80002d14 <main_101+0x50>
    80002cdc:	00c000ef          	jal	80002ce8 <main_101+0x24>
    80002ce0:	b7e5                	j	80002cc8 <main_101+0x4>
    80002ce2:	a025                	j	80002d0a <main_101+0x46>
    80002ce4:	00e000ef          	jal	80002cf2 <main_101+0x2e>
    80002ce8:	ff1ff0ef          	jal	80002cd8 <main_101+0x14>
    80002cec:	a829                	j	80002d06 <main_101+0x42>
    80002cee:	006000ef          	jal	80002cf4 <main_101+0x30>
    80002cf2:	bfc5                	j	80002ce2 <main_101+0x1e>
    80002cf4:	01e000ef          	jal	80002d12 <main_101+0x4e>
    80002cf8:	a801                	j	80002d08 <main_101+0x44>
    80002cfa:	004000ef          	jal	80002cfe <main_101+0x3a>
    80002cfe:	fe3ff0ef          	jal	80002ce0 <main_101+0x1c>
    80002d02:	014000ef          	jal	80002d16 <main_101+0x52>
    80002d06:	bfd5                	j	80002cfa <main_101+0x36>
    80002d08:	a809                	j	80002d1a <main_101+0x56>
    80002d0a:	bfc9                	j	80002cdc <main_101+0x18>
    80002d0c:	b7c9                	j	80002cce <main_101+0xa>
    80002d0e:	febff0ef          	jal	80002cf8 <main_101+0x34>
    80002d12:	bff5                	j	80002d0e <main_101+0x4a>
    80002d14:	bfe1                	j	80002cec <main_101+0x28>
    80002d16:	fd9ff0ef          	jal	80002cee <main_101+0x2a>
    80002d1a:	0348db33          	divu	s6,a7,s4
    80002d1e:	4425                	li	s0,9
    80002d20:	45b5                	li	a1,13
    80002d22:	4f99                	li	t6,6
    80002d24:	0114fe33          	and	t3,s1,a7

0000000080002d28 <main_282_1_t>:
    80002d28:	9eb1                	addw	a3,a3,a2
    80002d2a:	1475                	addi	s0,s0,-3
    80002d2c:	4499                	li	s1,6
    80002d2e:	03a8dc3b          	divuw	s8,a7,s10
    80002d32:	0001                	nop
    80002d34:	02051a33          	mulh	s4,a0,zero

0000000080002d38 <main_282_0_t>:
    80002d38:	e9870613          	addi	a2,a4,-360
    80002d3c:	14f5                	addi	s1,s1,-3
    80002d3e:	01f9909b          	slliw	ra,s3,0x1f
    80002d42:	d8fd                	beqz	s1,80002d38 <main_282_0_t>
    80002d44:	fff472e3          	bgeu	s0,t6,80002d28 <main_282_1_t>
    80002d48:	01375ebb          	srlw	t4,a4,s3

0000000080002d4c <main_128>:
    80002d4c:	01c00eef          	jal	t4,80002d68 <main_128+0x1c>
    80002d50:	01c000ef          	jal	80002d6c <main_128+0x20>
    80002d54:	a809                	j	80002d66 <main_128+0x1a>
    80002d56:	a009                	j	80002d58 <main_128+0xc>
    80002d58:	a035                	j	80002d84 <main_128+0x38>
    80002d5a:	bfdd                	j	80002d50 <main_128+0x4>
    80002d5c:	bfed                	j	80002d56 <main_128+0xa>
    80002d5e:	014000ef          	jal	80002d72 <main_128+0x26>
    80002d62:	ff3ff0ef          	jal	80002d54 <main_128+0x8>
    80002d66:	a819                	j	80002d7c <main_128+0x30>
    80002d68:	ff7ff0ef          	jal	80002d5e <main_128+0x12>
    80002d6c:	ff7ff0ef          	jal	80002d62 <main_128+0x16>
    80002d70:	b7ed                	j	80002d5a <main_128+0xe>
    80002d72:	a039                	j	80002d80 <main_128+0x34>
    80002d74:	004000ef          	jal	80002d78 <main_128+0x2c>
    80002d78:	ff9ff0ef          	jal	80002d70 <main_128+0x24>
    80002d7c:	fe1ff0ef          	jal	80002d5c <main_128+0x10>
    80002d80:	ff5ff0ef          	jal	80002d74 <main_128+0x28>
    80002d84:	01f99f9b          	slliw	t6,s3,0x1f
    80002d88:	4719                	li	a4,6
    80002d8a:	57f5                	li	a5,-3
    80002d8c:	0c59                	addi	s8,s8,22

0000000080002d8e <main_368_1_t>:
    80002d8e:	47c0e517          	auipc	a0,0x47c0e
    80002d92:	02eade93          	srli	t4,s5,0x2e
    80002d96:	175d                	addi	a4,a4,-9
    80002d98:	03b6c93b          	divw	s2,a3,s11
    80002d9c:	4aa9                	li	s5,10
    80002d9e:	49ad                	li	s3,11
    80002da0:	0114feb3          	and	t4,s1,a7

0000000080002da4 <main_368_0_t>:
    80002da4:	8cbd                	xor	s1,s1,a5
    80002da6:	0a85                	addi	s5,s5,1
    80002da8:	4049d03b          	sraw	zero,s3,tp
    80002dac:	008f1e93          	slli	t4,t5,0x8
    80002db0:	ff3a8ae3          	beq	s5,s3,80002da4 <main_368_0_t>
    80002db4:	44b5                	li	s1,13
    80002db6:	8c7d                	and	s0,s0,a5
    80002db8:	fcf71be3          	bne	a4,a5,80002d8e <main_368_1_t>
    80002dbc:	005e9433          	sll	s0,t4,t0
    80002dc0:	4495                	li	s1,5
    80002dc2:	016f1abb          	sllw	s5,t5,s6
    80002dc6:	4535                	li	a0,13
    80002dc8:	4d8d                	li	s11,3
    80002dca:	fbe33f13          	sltiu	t5,t1,-66

0000000080002dce <main_304_0_t>:
    80002dce:	002f6b33          	or	s6,t5,sp
    80002dd2:	14f9                	addi	s1,s1,-2
    80002dd4:	ffb4fde3          	bgeu	s1,s11,80002dce <main_304_0_t>
    80002dd8:	03580eb3          	mul	t4,a6,s5
    80002ddc:	4529                	li	a0,10
    80002dde:	00be5ab3          	srl	s5,t3,a1
    80002de2:	fbe33593          	sltiu	a1,t1,-66
    80002de6:	036935b3          	mulhu	a1,s2,s6
    80002dea:	02e4833b          	mulw	t1,s1,a4
    80002dee:	0001                	nop
    80002df0:	2aa5                	addiw	s5,s5,9
    80002df2:	03b6c9bb          	divw	s3,a3,s11
    80002df6:	9bba                	add	s7,s7,a4

0000000080002df8 <main_339_1_t>:
    80002df8:	94ba                	add	s1,s1,a4
    80002dfa:	03580fb3          	mul	t6,a6,s5
    80002dfe:	0001                	nop
    80002e00:	01d1b733          	sltu	a4,gp,t4
    80002e04:	1559                	addi	a0,a0,-10 # c7c10d84 <_end+0x47bd63fc>
    80002e06:	5959                	li	s2,-10
    80002e08:	4e21                	li	t3,8
    80002e0a:	ef697593          	andi	a1,s2,-266

0000000080002e0e <main_339_0_t>:
    80002e0e:	8ed1                	or	a3,a3,a2
    80002e10:	0925                	addi	s2,s2,9
    80002e12:	6c10a293          	slti	t0,ra,1729
    80002e16:	ffc91ce3          	bne	s2,t3,80002e0e <main_339_0_t>
    80002e1a:	01375f3b          	srlw	t5,a4,s3
    80002e1e:	fd69                	bnez	a0,80002df8 <main_339_1_t>
    80002e20:	006d0ab3          	add	s5,s10,t1
    80002e24:	556d                	li	a0,-5
    80002e26:	2571e313          	ori	t1,gp,599
    80002e2a:	01d1b833          	sltu	a6,gp,t4
    80002e2e:	0001                	nop

0000000080002e30 <main_355_1_t>:
    80002e30:	002f6cb3          	or	s9,t5,sp
    80002e34:	0348ddb3          	divu	s11,a7,s4
    80002e38:	02a261bb          	remw	gp,tp,a0
    80002e3c:	0515                	addi	a0,a0,5
    80002e3e:	4001de33          	sra	t3,gp,zero
    80002e42:	02a261bb          	remw	gp,tp,a0
    80002e46:	47a1                	li	a5,8
    80002e48:	4489                	li	s1,2
    80002e4a:	47c0e697          	auipc	a3,0x47c0e

0000000080002e4e <main_355_0_t>:
    80002e4e:	0130a0b3          	slt	ra,ra,s3
    80002e52:	17f5                	addi	a5,a5,-3
    80002e54:	fe978de3          	beq	a5,s1,80002e4e <main_355_0_t>
    80002e58:	01d1b833          	sltu	a6,gp,t4
    80002e5c:	d971                	beqz	a0,80002e30 <main_355_1_t>
    80002e5e:	03693633          	mulhu	a2,s2,s6
    80002e62:	449d                	li	s1,7
    80002e64:	8e89                	sub	a3,a3,a0
    80002e66:	03b6c93b          	divw	s2,a3,s11
    80002e6a:	41d70c33          	sub	s8,a4,t4
    80002e6e:	d1534693          	xori	a3,t1,-747
    80002e72:	006e00bb          	addw	ra,t3,t1
    80002e76:	6a55                	lui	s4,0x15
    80002e78:	0a88                	addi	a0,sp,336
    80002e7a:	0ad9                	addi	s5,s5,22
    80002e7c:	0ad9                	addi	s5,s5,22
    80002e7e:	0001                	nop
    80002e80:	d1534693          	xori	a3,t1,-747

0000000080002e84 <main_375_0_t>:
    80002e84:	0001                	nop
    80002e86:	406d07bb          	subw	a5,s10,t1
    80002e8a:	03fe2bb3          	mulhsu	s7,t3,t6
    80002e8e:	14e5                	addi	s1,s1,-7
    80002e90:	d8f5                	beqz	s1,80002e84 <main_375_0_t>
    80002e92:	02fd7e33          	remu	t3,s10,a5
    80002e96:	5ded                	li	s11,-5
    80002e98:	6a55                	lui	s4,0x15
    80002e9a:	56c1                	li	a3,-16

0000000080002e9c <main_260_0_t>:
    80002e9c:	fbe33f13          	sltiu	t5,t1,-66
    80002ea0:	1dfd                	addi	s11,s11,-1
    80002ea2:	0a52                	slli	s4,s4,0x14
    80002ea4:	fedd9ce3          	bne	s11,a3,80002e9c <main_260_0_t>
    80002ea8:	e9870493          	addi	s1,a4,-360
    80002eac:	51d9                	li	gp,-10
    80002eae:	5be9                	li	s7,-6

0000000080002eb0 <main_272_1_t>:
    80002eb0:	9e31                	addw	a2,a2,a2
    80002eb2:	9e81                	subw	a3,a3,s0
    80002eb4:	0189                	addi	gp,gp,2
    80002eb6:	4429                	li	s0,10
    80002eb8:	0001                	nop

0000000080002eba <main_272_0_t>:
    80002eba:	cc360d9b          	addiw	s11,a2,-829
    80002ebe:	005e95b3          	sll	a1,t4,t0
    80002ec2:	146d                	addi	s0,s0,-5
    80002ec4:	d87d                	beqz	s0,80002eba <main_272_0_t>
    80002ec6:	ff7185e3          	beq	gp,s7,80002eb0 <main_272_1_t>
    80002eca:	6179                	addi	sp,sp,464

0000000080002ecc <main_4>:
    80002ecc:	02e00eef          	jal	t4,80002efa <main_4+0x2e>
    80002ed0:	a831                	j	80002eec <main_4+0x20>
    80002ed2:	a821                	j	80002eea <main_4+0x1e>
    80002ed4:	01a000ef          	jal	80002eee <main_4+0x22>
    80002ed8:	018000ef          	jal	80002ef0 <main_4+0x24>
    80002edc:	024000ef          	jal	80002f00 <main_4+0x34>
    80002ee0:	028000ef          	jal	80002f08 <main_4+0x3c>
    80002ee4:	a829                	j	80002efe <main_4+0x32>
    80002ee6:	fefff0ef          	jal	80002ed4 <main_4+0x8>
    80002eea:	a831                	j	80002f06 <main_4+0x3a>
    80002eec:	a021                	j	80002ef4 <main_4+0x28>
    80002eee:	a021                	j	80002ef6 <main_4+0x2a>
    80002ef0:	ff1ff0ef          	jal	80002ee0 <main_4+0x14>
    80002ef4:	a039                	j	80002f02 <main_4+0x36>
    80002ef6:	fefff0ef          	jal	80002ee4 <main_4+0x18>
    80002efa:	fdfff0ef          	jal	80002ed8 <main_4+0xc>
    80002efe:	bfd1                	j	80002ed2 <main_4+0x6>
    80002f00:	a029                	j	80002f0a <main_4+0x3e>
    80002f02:	fdbff0ef          	jal	80002edc <main_4+0x10>
    80002f06:	b7e9                	j	80002ed0 <main_4+0x4>
    80002f08:	bff9                	j	80002ee6 <main_4+0x1a>
    80002f0a:	4001dbb3          	sra	s7,gp,zero

0000000080002f0e <main_138>:
    80002f0e:	03600eef          	jal	t4,80002f44 <main_138+0x36>
    80002f12:	02e000ef          	jal	80002f40 <main_138+0x32>
    80002f16:	02c000ef          	jal	80002f42 <main_138+0x34>
    80002f1a:	a821                	j	80002f32 <main_138+0x24>
    80002f1c:	ffbff0ef          	jal	80002f16 <main_138+0x8>
    80002f20:	010000ef          	jal	80002f30 <main_138+0x22>
    80002f24:	024000ef          	jal	80002f48 <main_138+0x3a>
    80002f28:	a839                	j	80002f46 <main_138+0x38>
    80002f2a:	fe9ff0ef          	jal	80002f12 <main_138+0x4>
    80002f2e:	bff5                	j	80002f2a <main_138+0x1c>
    80002f30:	a021                	j	80002f38 <main_138+0x2a>
    80002f32:	b7fd                	j	80002f20 <main_138+0x12>
    80002f34:	fe9ff0ef          	jal	80002f1c <main_138+0xe>
    80002f38:	fedff0ef          	jal	80002f24 <main_138+0x16>
    80002f3c:	a039                	j	80002f4a <main_138+0x3c>
    80002f3e:	bffd                	j	80002f3c <main_138+0x2e>
    80002f40:	bfd5                	j	80002f34 <main_138+0x26>
    80002f42:	bfe1                	j	80002f1a <main_138+0xc>
    80002f44:	b7ed                	j	80002f2e <main_138+0x20>
    80002f46:	bfe5                	j	80002f3e <main_138+0x30>
    80002f48:	b7c5                	j	80002f28 <main_138+0x1a>
    80002f4a:	4cb5                	li	s9,13
    80002f4c:	54e5                	li	s1,-7
    80002f4e:	02eade93          	srli	t4,s5,0x2e
    80002f52:	4a99                	li	s5,6

0000000080002f54 <main_224_1_t>:
    80002f54:	03580fb3          	mul	t6,a6,s5
    80002f58:	0485                	addi	s1,s1,1
    80002f5a:	4795                	li	a5,5
    80002f5c:	0001                	nop

0000000080002f5e <main_224_0_t>:
    80002f5e:	0001                	nop
    80002f60:	17ed                	addi	a5,a5,-5
    80002f62:	dff5                	beqz	a5,80002f5e <main_224_0_t>
    80002f64:	01d1b733          	sltu	a4,gp,t4
    80002f68:	ff5486e3          	beq	s1,s5,80002f54 <main_224_1_t>
    80002f6c:	fbe33593          	sltiu	a1,t1,-66

0000000080002f70 <main_58>:
    80002f70:	00e00eef          	jal	t4,80002f7e <main_58+0xe>
    80002f74:	a811                	j	80002f88 <main_58+0x18>
    80002f76:	a839                	j	80002f94 <main_58+0x24>
    80002f78:	a839                	j	80002f96 <main_58+0x26>
    80002f7a:	012000ef          	jal	80002f8c <main_58+0x1c>
    80002f7e:	ff7ff0ef          	jal	80002f74 <main_58+0x4>
    80002f82:	ff5ff0ef          	jal	80002f76 <main_58+0x6>
    80002f86:	bfcd                	j	80002f78 <main_58+0x8>
    80002f88:	ffbff0ef          	jal	80002f82 <main_58+0x12>
    80002f8c:	ffbff0ef          	jal	80002f86 <main_58+0x16>
    80002f90:	febff0ef          	jal	80002f7a <main_58+0xa>
    80002f94:	bff5                	j	80002f90 <main_58+0x20>
    80002f96:	01375cbb          	srlw	s9,a4,s3
    80002f9a:	4599                	li	a1,6
    80002f9c:	0c59                	addi	s8,s8,22
    80002f9e:	0005d19b          	srliw	gp,a1,0x0
    80002fa2:	50fd                	li	ra,-1
    80002fa4:	47c0e697          	auipc	a3,0x47c0e
    80002fa8:	03a8dcbb          	divuw	s9,a7,s10

0000000080002fac <main_223_1_t>:
    80002fac:	d6bdfbb7          	lui	s7,0xd6bdf
    80002fb0:	006e003b          	addw	zero,t3,t1
    80002fb4:	15dd                	addi	a1,a1,-9 # c7c10961 <_end+0x47bd5fd9>
    80002fb6:	478d                	li	a5,3
    80002fb8:	ef697613          	andi	a2,s2,-266
    80002fbc:	42a9                	li	t0,10

0000000080002fbe <main_223_0_t>:
    80002fbe:	0348ddb3          	divu	s11,a7,s4
    80002fc2:	9eb1                	addw	a3,a3,a2
    80002fc4:	9e01                	subw	a2,a2,s0
    80002fc6:	03693633          	mulhu	a2,s2,s6
    80002fca:	01804433          	xor	s0,zero,s8
    80002fce:	07a1                	addi	a5,a5,8
    80002fd0:	9cba                	add	s9,s9,a4
    80002fd2:	fe57c6e3          	blt	a5,t0,80002fbe <main_223_0_t>
    80002fd6:	0348ddb3          	divu	s11,a7,s4
    80002fda:	0001                	nop
    80002fdc:	fc15d8e3          	bge	a1,ra,80002fac <main_223_1_t>
    80002fe0:	9e01                	subw	a2,a2,s0

0000000080002fe2 <main_99>:
    80002fe2:	01a00eef          	jal	t4,80002ffc <main_99+0x1a>
    80002fe6:	a01d                	j	8000300c <main_99+0x2a>
    80002fe8:	00e000ef          	jal	80002ff6 <main_99+0x14>
    80002fec:	a02d                	j	80003016 <main_99+0x34>
    80002fee:	ffbff0ef          	jal	80002fe8 <main_99+0x6>
    80002ff2:	02a000ef          	jal	8000301c <main_99+0x3a>
    80002ff6:	00c000ef          	jal	80003002 <main_99+0x20>
    80002ffa:	a039                	j	80003008 <main_99+0x26>
    80002ffc:	016000ef          	jal	80003012 <main_99+0x30>
    80003000:	a801                	j	80003010 <main_99+0x2e>
    80003002:	ff9ff0ef          	jal	80002ffa <main_99+0x18>
    80003006:	b7e5                	j	80002fee <main_99+0xc>
    80003008:	010000ef          	jal	80003018 <main_99+0x36>
    8000300c:	ff5ff0ef          	jal	80003000 <main_99+0x1e>
    80003010:	b7cd                	j	80002ff2 <main_99+0x10>
    80003012:	fdbff0ef          	jal	80002fec <main_99+0xa>
    80003016:	bfc5                	j	80003006 <main_99+0x24>
    80003018:	fcfff0ef          	jal	80002fe6 <main_99+0x4>
    8000301c:	02eadf93          	srli	t6,s5,0x2e
    80003020:	5969                	li	s2,-6
    80003022:	01375e3b          	srlw	t3,a4,s3
    80003026:	401e5813          	srai	a6,t3,0x1
    8000302a:	5371                	li	t1,-4

000000008000302c <main_251_0_t>:
    8000302c:	03a8dbbb          	divuw	s7,a7,s10
    80003030:	090d                	addi	s2,s2,3
    80003032:	fe694de3          	blt	s2,t1,8000302c <main_251_0_t>
    80003036:	0a84                	addi	s1,sp,336

0000000080003038 <main_159>:
    80003038:	03c00eef          	jal	t4,80003074 <main_159+0x3c>
    8000303c:	042000ef          	jal	8000307e <main_159+0x46>
    80003040:	00c000ef          	jal	8000304c <main_159+0x14>
    80003044:	020000ef          	jal	80003064 <main_159+0x2c>
    80003048:	a03d                	j	80003076 <main_159+0x3e>
    8000304a:	bfed                	j	80003044 <main_159+0xc>
    8000304c:	008000ef          	jal	80003054 <main_159+0x1c>
    80003050:	ff1ff0ef          	jal	80003040 <main_159+0x8>
    80003054:	00a000ef          	jal	8000305e <main_159+0x26>
    80003058:	a821                	j	80003070 <main_159+0x38>
    8000305a:	ff7ff0ef          	jal	80003050 <main_159+0x18>
    8000305e:	022000ef          	jal	80003080 <main_159+0x48>
    80003062:	bfe9                	j	8000303c <main_159+0x4>
    80003064:	fe5ff0ef          	jal	80003048 <main_159+0x10>
    80003068:	ff1ff0ef          	jal	80003058 <main_159+0x20>
    8000306c:	fefff0ef          	jal	8000305a <main_159+0x22>
    80003070:	fdbff0ef          	jal	8000304a <main_159+0x12>
    80003074:	b7fd                	j	80003062 <main_159+0x2a>
    80003076:	ff7ff0ef          	jal	8000306c <main_159+0x34>
    8000307a:	fefff0ef          	jal	80003068 <main_159+0x30>
    8000307e:	bff5                	j	8000307a <main_159+0x42>
    80003080:	020518b3          	mulh	a7,a0,zero
    80003084:	5771                	li	a4,-4
    80003086:	0ad9                	addi	s5,s5,22
    80003088:	016f1b3b          	sllw	s6,t5,s6
    8000308c:	d6bdfab7          	lui	s5,0xd6bdf
    80003090:	9b3a                	add	s6,s6,a4
    80003092:	0001                	nop
    80003094:	41d70c33          	sub	s8,a4,t4

0000000080003098 <main_346_0_t>:
    80003098:	8cbd                	xor	s1,s1,a5
    8000309a:	035effbb          	remuw	t6,t4,s5
    8000309e:	00be5a33          	srl	s4,t3,a1
    800030a2:	0709                	addi	a4,a4,2
    800030a4:	02e4833b          	mulw	t1,s1,a4
    800030a8:	9e01                	subw	a2,a2,s0
    800030aa:	0001                	nop
    800030ac:	cc360c1b          	addiw	s8,a2,-829
    800030b0:	47c0e597          	auipc	a1,0x47c0e
    800030b4:	f375                	bnez	a4,80003098 <main_346_0_t>
    800030b6:	9e01                	subw	a2,a2,s0
    800030b8:	4e91                	li	t4,4
    800030ba:	823d                	srli	a2,a2,0xf
    800030bc:	0348dbb3          	divu	s7,a7,s4
    800030c0:	02051933          	mulh	s2,a0,zero
    800030c4:	4049d03b          	sraw	zero,s3,tp
    800030c8:	9e81                	subw	a3,a3,s0
    800030ca:	0ad9                	addi	s5,s5,22 # ffffffffd6bdf016 <_end+0xffffffff56ba468e>
    800030cc:	2571e313          	ori	t1,gp,599
    800030d0:	40ad                	li	ra,11
    800030d2:	e9870513          	addi	a0,a4,-360
    800030d6:	005e94b3          	sll	s1,t4,t0
    800030da:	0001                	nop

00000000800030dc <main_253_0_t>:
    800030dc:	ef697513          	andi	a0,s2,-266
    800030e0:	0e85                	addi	t4,t4,1
    800030e2:	41d70bb3          	sub	s7,a4,t4
    800030e6:	02e4833b          	mulw	t1,s1,a4
    800030ea:	41d70bb3          	sub	s7,a4,t4
    800030ee:	6c10a293          	slti	t0,ra,1729
    800030f2:	8f7d                	and	a4,a4,a5
    800030f4:	fe1ec4e3          	blt	t4,ra,800030dc <main_253_0_t>
    800030f8:	ef697513          	andi	a0,s2,-266
    800030fc:	46a1                	li	a3,8
    800030fe:	01f9901b          	slliw	zero,s3,0x1f
    80003102:	e9870493          	addi	s1,a4,-360
    80003106:	45a1                	li	a1,8
    80003108:	44b5                	li	s1,13

000000008000310a <main_214_0_t>:
    8000310a:	0114fdb3          	and	s11,s1,a7
    8000310e:	16e9                	addi	a3,a3,-6 # c7c10f9e <_end+0x47bd6616>
    80003110:	d1534613          	xori	a2,t1,-747
    80003114:	feb6fbe3          	bgeu	a3,a1,8000310a <main_214_0_t>
    80003118:	2571e293          	ori	t0,gp,599
    8000311c:	5569                	li	a0,-6
    8000311e:	0a52                	slli	s4,s4,0x14
    80003120:	0001                	nop
    80003122:	9e81                	subw	a3,a3,s0
    80003124:	020519b3          	mulh	s3,a0,zero
    80003128:	81bd                	srli	a1,a1,0xf

000000008000312a <main_387_0_t>:
    8000312a:	8cbd                	xor	s1,s1,a5
    8000312c:	cc360c1b          	addiw	s8,a2,-829
    80003130:	0519                	addi	a0,a0,6
    80003132:	0005d19b          	srliw	gp,a1,0x0
    80003136:	82c6                	mv	t0,a7
    80003138:	9f31                	addw	a4,a4,a2
    8000313a:	44b5                	li	s1,13
    8000313c:	02fd7e33          	remu	t3,s10,a5
    80003140:	d56d                	beqz	a0,8000312a <main_387_0_t>
    80003142:	8735                	srai	a4,a4,0xd

0000000080003144 <main_13>:
    80003144:	01600eef          	jal	t4,8000315a <main_13+0x16>
    80003148:	a029                	j	80003152 <main_13+0xe>
    8000314a:	020000ef          	jal	8000316a <main_13+0x26>
    8000314e:	018000ef          	jal	80003166 <main_13+0x22>
    80003152:	01c000ef          	jal	8000316e <main_13+0x2a>
    80003156:	006000ef          	jal	8000315c <main_13+0x18>
    8000315a:	a029                	j	80003164 <main_13+0x20>
    8000315c:	004000ef          	jal	80003160 <main_13+0x1c>
    80003160:	febff0ef          	jal	8000314a <main_13+0x6>
    80003164:	b7ed                	j	8000314e <main_13+0xa>
    80003166:	ff1ff0ef          	jal	80003156 <main_13+0x12>
    8000316a:	fdfff0ef          	jal	80003148 <main_13+0x4>
    8000316e:	02fd7cb3          	remu	s9,s10,a5

0000000080003172 <main_97>:
    80003172:	02800eef          	jal	t4,8000319a <main_97+0x28>
    80003176:	03a000ef          	jal	800031b0 <main_97+0x3e>
    8000317a:	a83d                	j	800031b8 <main_97+0x46>
    8000317c:	a811                	j	80003190 <main_97+0x1e>
    8000317e:	018000ef          	jal	80003196 <main_97+0x24>
    80003182:	a839                	j	800031a0 <main_97+0x2e>
    80003184:	006000ef          	jal	8000318a <main_97+0x18>
    80003188:	bfcd                	j	8000317a <main_97+0x8>
    8000318a:	a025                	j	800031b2 <main_97+0x40>
    8000318c:	bff5                	j	80003188 <main_97+0x16>
    8000318e:	bffd                	j	8000318c <main_97+0x1a>
    80003190:	b7dd                	j	80003176 <main_97+0x4>
    80003192:	fedff0ef          	jal	8000317e <main_97+0xc>
    80003196:	012000ef          	jal	800031a8 <main_97+0x36>
    8000319a:	febff0ef          	jal	80003184 <main_97+0x12>
    8000319e:	bff9                	j	8000317c <main_97+0xa>
    800031a0:	004000ef          	jal	800031a4 <main_97+0x32>
    800031a4:	febff0ef          	jal	8000318e <main_97+0x1c>
    800031a8:	004000ef          	jal	800031ac <main_97+0x3a>
    800031ac:	ff3ff0ef          	jal	8000319e <main_97+0x2c>
    800031b0:	a011                	j	800031b4 <main_97+0x42>
    800031b2:	b7c5                	j	80003192 <main_97+0x20>
    800031b4:	fcfff0ef          	jal	80003182 <main_97+0x10>
    800031b8:	8e51                	or	a2,a2,a2

00000000800031ba <main_105>:
    800031ba:	00a00eef          	jal	t4,800031c4 <main_105+0xa>
    800031be:	a801                	j	800031ce <main_105+0x14>
    800031c0:	014000ef          	jal	800031d4 <main_105+0x1a>
    800031c4:	ffbff0ef          	jal	800031be <main_105+0x4>
    800031c8:	00e000ef          	jal	800031d6 <main_105+0x1c>
    800031cc:	bfd5                	j	800031c0 <main_105+0x6>
    800031ce:	a009                	j	800031d0 <main_105+0x16>
    800031d0:	016000ef          	jal	800031e6 <main_105+0x2c>
    800031d4:	a039                	j	800031e2 <main_105+0x28>
    800031d6:	ff7ff0ef          	jal	800031cc <main_105+0x12>
    800031da:	010000ef          	jal	800031ea <main_105+0x30>
    800031de:	00a000ef          	jal	800031e8 <main_105+0x2e>
    800031e2:	ff9ff0ef          	jal	800031da <main_105+0x20>
    800031e6:	bfe5                	j	800031de <main_105+0x24>
    800031e8:	b7c5                	j	800031c8 <main_105+0xe>
    800031ea:	004000ef          	jal	800031ee <main_105+0x34>
    800031ee:	004000ef          	jal	800031f2 <main_105+0x38>
    800031f2:	9db1                	addw	a1,a1,a2
    800031f4:	4329                	li	t1,10
    800031f6:	406d08bb          	subw	a7,s10,t1
    800031fa:	ef697613          	andi	a2,s2,-266
    800031fe:	0130a0b3          	slt	ra,ra,s3
    80003202:	03693633          	mulhu	a2,s2,s6
    80003206:	45a1                	li	a1,8
    80003208:	803d                	srli	s0,s0,0xf

000000008000320a <main_261_1_t>:
    8000320a:	8c89                	sub	s1,s1,a0
    8000320c:	1375                	addi	t1,t1,-3
    8000320e:	03580fb3          	mul	t6,a6,s5
    80003212:	46a9                	li	a3,10
    80003214:	0001                	nop
    80003216:	00be5b33          	srl	s6,t3,a1
    8000321a:	02fd7f33          	remu	t5,s10,a5
    8000321e:	4001de33          	sra	t3,gp,zero

0000000080003222 <main_261_0_t>:
    80003222:	02a261bb          	remw	gp,tp,a0
    80003226:	6179                	addi	sp,sp,464
    80003228:	0348ddb3          	divu	s11,a7,s4
    8000322c:	006d0b33          	add	s6,s10,t1
    80003230:	803d                	srli	s0,s0,0xf
    80003232:	8e51                	or	a2,a2,a2
    80003234:	16d9                	addi	a3,a3,-10
    80003236:	005e9533          	sll	a0,t4,t0
    8000323a:	f6e5                	bnez	a3,80003222 <main_261_0_t>
    8000323c:	0114feb3          	and	t4,s1,a7
    80003240:	fcb375e3          	bgeu	t1,a1,8000320a <main_261_1_t>
    80003244:	00be5b33          	srl	s6,t3,a1

0000000080003248 <main_196>:
    80003248:	01400eef          	jal	t4,8000325c <main_196+0x14>
    8000324c:	022000ef          	jal	8000326e <main_196+0x26>
    80003250:	a819                	j	80003266 <main_196+0x1e>
    80003252:	018000ef          	jal	8000326a <main_196+0x22>
    80003256:	01a000ef          	jal	80003270 <main_196+0x28>
    8000325a:	a021                	j	80003262 <main_196+0x1a>
    8000325c:	bffd                	j	8000325a <main_196+0x12>
    8000325e:	014000ef          	jal	80003272 <main_196+0x2a>
    80003262:	fefff0ef          	jal	80003250 <main_196+0x8>
    80003266:	ff1ff0ef          	jal	80003256 <main_196+0xe>
    8000326a:	fe3ff0ef          	jal	8000324c <main_196+0x4>
    8000326e:	bfc5                	j	8000325e <main_196+0x16>
    80003270:	b7cd                	j	80003252 <main_196+0xa>
    80003272:	01375cbb          	srlw	s9,a4,s3

0000000080003276 <main_35>:
    80003276:	01e00eef          	jal	t4,80003294 <main_35+0x1e>
    8000327a:	012000ef          	jal	8000328c <main_35+0x16>
    8000327e:	01a000ef          	jal	80003298 <main_35+0x22>
    80003282:	a039                	j	80003290 <main_35+0x1a>
    80003284:	018000ef          	jal	8000329c <main_35+0x26>
    80003288:	a009                	j	8000328a <main_35+0x14>
    8000328a:	bfe5                	j	80003282 <main_35+0xc>
    8000328c:	ffdff0ef          	jal	80003288 <main_35+0x12>
    80003290:	ff5ff0ef          	jal	80003284 <main_35+0xe>
    80003294:	00a000ef          	jal	8000329e <main_35+0x28>
    80003298:	008000ef          	jal	800032a0 <main_35+0x2a>
    8000329c:	b7cd                	j	8000327e <main_35+0x8>
    8000329e:	bff1                	j	8000327a <main_35+0x4>
    800032a0:	002f6ab3          	or	s5,t5,sp
    800032a4:	55e5                	li	a1,-7
    800032a6:	6c10a193          	slti	gp,ra,1729
    800032aa:	4001dcb3          	sra	s9,gp,zero
    800032ae:	cc360c1b          	addiw	s8,a2,-829
    800032b2:	44b5                	li	s1,13
    800032b4:	478d                	li	a5,3
    800032b6:	01f9901b          	slliw	zero,s3,0x1f

00000000800032ba <main_239_0_t>:
    800032ba:	03fe2bb3          	mulhsu	s7,t3,t6
    800032be:	4001dcb3          	sra	s9,gp,zero
    800032c2:	9e01                	subw	a2,a2,s0
    800032c4:	0114fdb3          	and	s11,s1,a7
    800032c8:	01d1b6b3          	sltu	a3,gp,t4
    800032cc:	01d1b6b3          	sltu	a3,gp,t4
    800032d0:	02fd7e33          	remu	t3,s10,a5
    800032d4:	803d                	srli	s0,s0,0xf
    800032d6:	0005d11b          	srliw	sp,a1,0x0
    800032da:	020519b3          	mulh	s3,a0,zero
    800032de:	997d                	andi	a0,a0,-1
    800032e0:	02e482bb          	mulw	t0,s1,a4
    800032e4:	016f1b3b          	sllw	s6,t5,s6
    800032e8:	0595                	addi	a1,a1,5 # c7c110b5 <_end+0x47bd672d>
    800032ea:	0b59                	addi	s6,s6,22
    800032ec:	41d70c33          	sub	s8,a4,t4
    800032f0:	0005d11b          	srliw	sp,a1,0x0
    800032f4:	016f1b3b          	sllw	s6,t5,s6
    800032f8:	00be5a33          	srl	s4,t3,a1
    800032fc:	0001                	nop
    800032fe:	0130a033          	slt	zero,ra,s3
    80003302:	faf58ce3          	beq	a1,a5,800032ba <main_239_0_t>
    80003306:	0114fdb3          	and	s11,s1,a7
    8000330a:	5b5d                	li	s6,-9
    8000330c:	01375f3b          	srlw	t5,a4,s3
    80003310:	6c10a293          	slti	t0,ra,1729
    80003314:	4049d03b          	sraw	zero,s3,tp
    80003318:	02eade93          	srli	t4,s5,0x2e
    8000331c:	002f6cb3          	or	s9,t5,sp
    80003320:	54e9                	li	s1,-6
    80003322:	8c09                	sub	s0,s0,a0

0000000080003324 <main_245_1_t>:
    80003324:	0114feb3          	and	t4,s1,a7
    80003328:	03b6c9bb          	divw	s3,a3,s11
    8000332c:	8c09                	sub	s0,s0,a0
    8000332e:	8635                	srai	a2,a2,0xd
    80003330:	0b0d                	addi	s6,s6,3
    80003332:	006d0ab3          	add	s5,s10,t1
    80003336:	5571                	li	a0,-4
    80003338:	0bd2                	slli	s7,s7,0x14
    8000333a:	e9870613          	addi	a2,a4,-360
    8000333e:	02051a33          	mulh	s4,a0,zero
    80003342:	01375f3b          	srlw	t5,a4,s3
    80003346:	6c10a293          	slti	t0,ra,1729
    8000334a:	8e3d                	xor	a2,a2,a5
    8000334c:	410d                	li	sp,3

000000008000334e <main_245_0_t>:
    8000334e:	9f81                	subw	a5,a5,s0
    80003350:	8346                	mv	t1,a7
    80003352:	02e4833b          	mulw	t1,s1,a4
    80003356:	051d                	addi	a0,a0,7
    80003358:	03693633          	mulhu	a2,s2,s6
    8000335c:	02eade93          	srli	t4,s5,0x2e
    80003360:	01375f3b          	srlw	t5,a4,s3
    80003364:	fe2565e3          	bltu	a0,sp,8000334e <main_245_0_t>
    80003368:	8635                	srai	a2,a2,0xd
    8000336a:	fa9b1de3          	bne	s6,s1,80003324 <main_245_1_t>
    8000336e:	803d                	srli	s0,s0,0xf
    80003370:	59e5                	li	s3,-7
    80003372:	41f8579b          	sraiw	a5,a6,0x1f
    80003376:	50b5                	li	ra,-19

0000000080003378 <main_357_1_t>:
    80003378:	006d0b33          	add	s6,s10,t1
    8000337c:	19f5                	addi	s3,s3,-3 # ffffffffd6bdeffd <_end+0xffffffff56ba4675>
    8000337e:	52ed                	li	t0,-5
    80003380:	4311                	li	t1,4

0000000080003382 <main_357_0_t>:
    80003382:	d1534713          	xori	a4,t1,-747
    80003386:	029d                	addi	t0,t0,7
    80003388:	fe62cde3          	blt	t0,t1,80003382 <main_357_0_t>
    8000338c:	03fe2cb3          	mulhsu	s9,t3,t6
    80003390:	fe1984e3          	beq	s3,ra,80003378 <main_357_1_t>
    80003394:	cc360d9b          	addiw	s11,a2,-829

0000000080003398 <main_81>:
    80003398:	00c00eef          	jal	t4,800033a4 <main_81+0xc>
    8000339c:	022000ef          	jal	800033be <main_81+0x26>
    800033a0:	018000ef          	jal	800033b8 <main_81+0x20>
    800033a4:	00e000ef          	jal	800033b2 <main_81+0x1a>
    800033a8:	00e000ef          	jal	800033b6 <main_81+0x1e>
    800033ac:	bff5                	j	800033a8 <main_81+0x10>
    800033ae:	bffd                	j	800033ac <main_81+0x14>
    800033b0:	b7f5                	j	8000339c <main_81+0x4>
    800033b2:	008000ef          	jal	800033ba <main_81+0x22>
    800033b6:	bfed                	j	800033b0 <main_81+0x18>
    800033b8:	bfdd                	j	800033ae <main_81+0x16>
    800033ba:	fe7ff0ef          	jal	800033a0 <main_81+0x8>
    800033be:	41f8561b          	sraiw	a2,a6,0x1f

00000000800033c2 <main_42>:
    800033c2:	02c00eef          	jal	t4,800033ee <main_42+0x2c>
    800033c6:	a089                	j	80003408 <main_42+0x46>
    800033c8:	a811                	j	800033dc <main_42+0x1a>
    800033ca:	fffff0ef          	jal	800033c8 <main_42+0x6>
    800033ce:	a01d                	j	800033f4 <main_42+0x32>
    800033d0:	fffff0ef          	jal	800033ce <main_42+0xc>
    800033d4:	a00d                	j	800033f6 <main_42+0x34>
    800033d6:	ff5ff0ef          	jal	800033ca <main_42+0x8>
    800033da:	a01d                	j	80003400 <main_42+0x3e>
    800033dc:	a005                	j	800033fc <main_42+0x3a>
    800033de:	a809                	j	800033f0 <main_42+0x2e>
    800033e0:	004000ef          	jal	800033e4 <main_42+0x22>
    800033e4:	ffbff0ef          	jal	800033de <main_42+0x1c>
    800033e8:	a831                	j	80003404 <main_42+0x42>
    800033ea:	febff0ef          	jal	800033d4 <main_42+0x12>
    800033ee:	b7cd                	j	800033d0 <main_42+0xe>
    800033f0:	febff0ef          	jal	800033da <main_42+0x18>
    800033f4:	bfdd                	j	800033ea <main_42+0x28>
    800033f6:	a819                	j	8000340c <main_42+0x4a>
    800033f8:	ff1ff0ef          	jal	800033e8 <main_42+0x26>
    800033fc:	012000ef          	jal	8000340e <main_42+0x4c>
    80003400:	ff9ff0ef          	jal	800033f8 <main_42+0x36>
    80003404:	fc3ff0ef          	jal	800033c6 <main_42+0x4>
    80003408:	a009                	j	8000340a <main_42+0x48>
    8000340a:	b7f1                	j	800033d6 <main_42+0x14>
    8000340c:	bfd1                	j	800033e0 <main_42+0x1e>
    8000340e:	008f1c13          	slli	s8,t5,0x8
    80003412:	5469                	li	s0,-6
    80003414:	6c10a313          	slti	t1,ra,1729
    80003418:	0001                	nop
    8000341a:	99fd                	andi	a1,a1,-1

000000008000341c <main_300_1_t>:
    8000341c:	03580fb3          	mul	t6,a6,s5
    80003420:	0419                	addi	s0,s0,6
    80003422:	01d1b833          	sltu	a6,gp,t4
    80003426:	2571e493          	ori	s1,gp,599
    8000342a:	5671                	li	a2,-4
    8000342c:	d6bdfbb7          	lui	s7,0xd6bdf
    80003430:	41ad                	li	gp,11

0000000080003432 <main_300_0_t>:
    80003432:	e9870693          	addi	a3,a4,-360
    80003436:	0348ddb3          	divu	s11,a7,s4
    8000343a:	0615                	addi	a2,a2,5
    8000343c:	fe366be3          	bltu	a2,gp,80003432 <main_300_0_t>
    80003440:	9e81                	subw	a3,a3,s0
    80003442:	41d70db3          	sub	s11,a4,t4
    80003446:	01375f3b          	srlw	t5,a4,s3
    8000344a:	f869                	bnez	s0,8000341c <main_300_1_t>
    8000344c:	03434e33          	div	t3,t1,s4
    80003450:	54dd                	li	s1,-9
    80003452:	5a45                	li	s4,-15

0000000080003454 <main_394_1_t>:
    80003454:	02a261bb          	remw	gp,tp,a0
    80003458:	14ed                	addi	s1,s1,-5
    8000345a:	460d                	li	a2,3
    8000345c:	cc360d9b          	addiw	s11,a2,-829
    80003460:	0001                	nop

0000000080003462 <main_394_0_t>:
    80003462:	41d70db3          	sub	s11,a4,t4
    80003466:	167d                	addi	a2,a2,-1
    80003468:	de6d                	beqz	a2,80003462 <main_394_0_t>
    8000346a:	ff44d5e3          	bge	s1,s4,80003454 <main_394_1_t>
    8000346e:	2571e313          	ori	t1,gp,599

0000000080003472 <main_174>:
    80003472:	02400eef          	jal	t4,80003496 <main_174+0x24>
    80003476:	014000ef          	jal	8000348a <main_174+0x18>
    8000347a:	a80d                	j	800034ac <main_174+0x3a>
    8000347c:	a031                	j	80003488 <main_174+0x16>
    8000347e:	a009                	j	80003480 <main_174+0xe>
    80003480:	a009                	j	80003482 <main_174+0x10>
    80003482:	a821                	j	8000349a <main_174+0x28>
    80003484:	a009                	j	80003486 <main_174+0x14>
    80003486:	bfe5                	j	8000347e <main_174+0xc>
    80003488:	a019                	j	8000348e <main_174+0x1c>
    8000348a:	01c000ef          	jal	800034a6 <main_174+0x34>
    8000348e:	020000ef          	jal	800034ae <main_174+0x3c>
    80003492:	febff0ef          	jal	8000347c <main_174+0xa>
    80003496:	b7c5                	j	80003476 <main_174+0x4>
    80003498:	a019                	j	8000349e <main_174+0x2c>
